 NCVC

 Timestamp is 62464a35 (Fri Apr  1 09:41:25 2022)

 Preferred load address is 00400000

 Start         Length     Name                   Class
 0001:00000000 00000a30H .text$di                CODE
 0001:00000a30 00131570H .text$mn                CODE
 0001:00131fa0 00018200H .text$x                 CODE
 0001:0014a1a0 00001152H .text$yd                CODE
 0002:00000000 00001584H .idata$5                DATA
 0002:00001584 00000008H .00cfg                  DATA
 0002:0000158c 00000004H .CRT$XCA                DATA
 0002:00001590 00000004H .CRT$XCAA               DATA
 0002:00001594 0000000cH .CRT$XCL                DATA
 0002:000015a0 000001b4H .CRT$XCU                DATA
 0002:00001754 00000004H .CRT$XCZ                DATA
 0002:00001758 00000004H .CRT$XIA                DATA
 0002:0000175c 00000004H .CRT$XIAA               DATA
 0002:00001760 00000004H .CRT$XIAC               DATA
 0002:00001764 00000004H .CRT$XIC                DATA
 0002:00001768 00000004H .CRT$XIZ                DATA
 0002:0000176c 00000004H .CRT$XLA                DATA
 0002:00001770 00000004H .CRT$XLZ                DATA
 0002:00001774 00000004H .CRT$XPA                DATA
 0002:00001778 00000004H .CRT$XPZ                DATA
 0002:0000177c 00000004H .CRT$XTA                DATA
 0002:00001780 00000010H .CRT$XTZ                DATA
 0002:00001784 00000000H .gfids$y                DATA
 0002:00001790 00030630H .rdata                  DATA
 0002:00031dc0 00000000H .rdata$CastGuardVftablesA DATA
 0002:00031dc0 00000000H .rdata$CastGuardVftablesC DATA
 0002:00031dc0 00000018H .rdata$T                DATA
 0002:00031dd8 00006988H .rdata$r                DATA
 0002:00038760 00000d98H .rdata$sxdata           DATA
 0002:000394f8 0000009cH .rdata$voltmd           DATA
 0002:00039594 00000398H .rdata$zzzdbg           DATA
 0002:0003992c 00000004H .rtc$IAA                DATA
 0002:00039930 00000004H .rtc$IZZ                DATA
 0002:00039934 00000004H .rtc$TAA                DATA
 0002:00039938 00000004H .rtc$TZZ                DATA
 0002:0003993c 00000004H .tls                    DATA
 0002:00039940 00000004H .tls$                   DATA
 0002:00039944 00000004H .tls$ZZZ                DATA
 0002:00039948 000132b8H .xdata$x                DATA
 0002:0004cbf8 00000000H ATL$__a                 DATA
 0002:0004cbf8 00000000H ATL$__z                 DATA
 0002:0004cc00 00000754H .edata                  DATA
 0002:0004d354 000001f4H .idata$2                DATA
 0002:0004d548 00000014H .idata$3                DATA
 0002:0004d55c 00001584H .idata$4                DATA
 0002:0004eae0 000025a2H .idata$6                DATA
 0003:00000000 00002dc8H .data                   DATA
 0003:00002dc8 00007d50H .data$r                 DATA
 0003:0000ab18 00002f70H .data$rs                DATA
 0003:0000da88 0201a3f8H .bss                    DATA
 0004:00000000 00002e60H .rsrc$01                DATA
 0004:00002e60 00031ed0H .rsrc$02                DATA

  Address         Publics by Value              Rva+Base       Lib:Object

 0000:00000000       ___arm64x_extra_rfe_table  00000000     <absolute>
 0000:00000000       ___guard_longjmp_table     00000000     <absolute>
 0000:00000000       ___guard_eh_cont_count     00000000     <absolute>
 0000:00000000       ___arm64x_native_entrypoint 00000000     <absolute>
 0000:00000000       ___guard_fids_count        00000000     <absolute>
 0000:00000000       ___hybrid_code_map_count   00000000     <absolute>
 0000:00000000       ___guard_eh_cont_table     00000000     <absolute>
 0000:00000000       ___x64_code_ranges_to_entry_points 00000000     <absolute>
 0000:00000000       ___guard_iat_count         00000000     <absolute>
 0000:00000000       ___x64_code_ranges_to_entry_points_count 00000000     <absolute>
 0000:00000000       ___arm64x_redirection_metadata 00000000     <absolute>
 0000:00000000       ___hybrid_code_map         00000000     <absolute>
 0000:00000000       ___guard_iat_table         00000000     <absolute>
 0000:00000000       ___arm64x_extra_rfe_table_size 00000000     <absolute>
 0000:00000000       ___guard_longjmp_count     00000000     <absolute>
 0000:00000000       ___guard_check_icall_a64n_fptr 00000000     <absolute>
 0000:00000000       ___arm64x_redirection_metadata_count 00000000     <absolute>
 0000:00000000       ___hybrid_auxiliary_iat    00000000     <absolute>
 0000:00000000       ___dynamic_value_reloc_table 00000000     <absolute>
 0000:00000000       ___AbsoluteZero            00000000     <absolute>
 0000:00000000       ___enclave_config          00000000     <absolute>
 0000:00000000       ___guard_fids_table        00000000     <absolute>
 0000:00000000       ___hybrid_auxiliary_iat_copy 00000000     <absolute>
 0000:0000002c       __tls_array                0000002c     <absolute>
 0000:00000100       ___guard_flags             00000100     <absolute>
 0000:00000366       ___safe_se_handler_count   00000366     <absolute>
 0000:00000000       ___ImageBase               00400000     <linker-defined>
 0001:00000a30       ?GetMessageMap@CDxfSetupReload@@MBEPBUAFX_MSGMAP@@XZ 00401a30 f   DxfSetupReload.obj
 0001:00000a30       ?GetMessageMap@CShapePropDlg@@MBEPBUAFX_MSGMAP@@XZ 00401a30 f   ShapePropDlg.obj
 0001:00000a30       ?GetMessageMap@C3dRoughScanSetupDlg@@MBEPBUAFX_MSGMAP@@XZ 00401a30 f   3dRoughScanSetupDlg.obj
 0001:00000a30       ?GetMessageMap@CMakeBindOptDlg@@MBEPBUAFX_MSGMAP@@XZ 00401a30 f   MakeBindOptDlg.obj
 0001:00000a30       ?GetMessageMap@C3dContourScanSetupDlg@@MBEPBUAFX_MSGMAP@@XZ 00401a30 f   3dContourScanSetupDlg.obj
 0001:00000a40       ??_GC3dContourScanSetupDlg@@UAEPAXI@Z 00401a40 f i 3dContourScanSetupDlg.obj
 0001:00000a40       ??_EC3dContourScanSetupDlg@@UAEPAXI@Z 00401a40 f i * CIL library *:* CIL module *
 0001:00000a80       ??1C3dContourScanSetupDlg@@UAE@XZ 00401a80 f i 3dContourScanSetupDlg.obj
 0001:00000ae0       ?DoDataExchange@C3dContourScanSetupDlg@@MAEXPAVCDataExchange@@@Z 00401ae0 f   3dContourScanSetupDlg.obj
 0001:00000b60       ?OnInitDialog@C3dContourScanSetupDlg@@MAEHXZ 00401b60 f   3dContourScanSetupDlg.obj
 0001:00000c00       ?OnOK@C3dContourScanSetupDlg@@MAEXXZ 00401c00 f   3dContourScanSetupDlg.obj
 0001:00001010       ?SetWorkRect@CNCViewBase@@UAEXXZ 00402010 f i NCView.obj
 0001:00001010       ?SetCirclePoint@CDXFcircleEx@@MAEXXZ 00402010 f i DXFdata.obj
 0001:00001010       ??1?$variant@KPAVCLayerData@@PAVCDXFshape@@PAVCDXFworking@@@boost@@QAE@XZ 00402010 f i DXFShapeView.obj
 0001:00001010       ?PreSaveState@CWinAppEx@@MAEXXZ 00402010 f i NCVC.obj
 0001:00001010       ?OnRichPreviewTextColorChanged@CDocument@@UAEXXZ 00402010 f i 3dModelDoc.obj
 0001:00001010       ?SaveCustomState@CWinAppEx@@MAEXXZ 00402010 f i NCVC.obj
 0001:00001010       ?__global_delete@@YAXPAXI@Z 00402010 f i * CIL library *:* CIL module *
 0001:00001010       ?PreLoadState@CWinAppEx@@MAEXXZ 00402010 f i NCVC.obj
 0001:00001010       @_guard_check_icall_nop@4  00402010 f i msvcrt:guard_support.obj
 0001:00001010       ?OnRichPreviewBackColorChanged@CDocument@@UAEXXZ 00402010 f i 3dModelDoc.obj
 0001:00001010       __initialize_invalid_parameter_handler 00402010 f i msvcrt:invalid_parameter_handler.obj
 0001:00001010       ?LoadCustomState@CWinAppEx@@MAEXXZ 00402010 f i NCVC.obj
 0001:00001010       ?DrawGLLatheDepth@CNCdata@@UBEXXZ 00402010 f i NCdataGL.obj
 0001:00001010       ?__empty_global_delete@@YAXPAXI@Z 00402010 f i 3dContourScanSetupDlg.obj
 0001:00001010       ?SetWorkCylinder@CNCViewBase@@UAEXXZ 00402010 f i NCView.obj
 0001:00001010       ?OnBeforeRichPreviewFontChanged@CDocument@@UAEXXZ 00402010 f i 3dModelDoc.obj
 0001:00001010       ?sp_enable_shared_from_this@detail@boost@@YAXZZ 00402010 f i NCInfoView.obj
 0001:00001010       ?AssertValid@CObject@@UBEXXZ 00402010 f i 3dContourScanSetupDlg.obj
 0001:00001010       ??$call_put_head@DU?$char_traits@D@std@@$$CBH@detail@io@boost@@YAXAAV?$basic_ostream@DU?$char_traits@D@std@@@std@@PBX@Z 00402010 f i NCInfoView.obj
 0001:00001010       ?OnRichPreviewSiteChanged@CDocument@@UAEXXZ 00402010 f i 3dModelDoc.obj
 0001:00001010       ?SwapNativePt@CDXFcircle@@UAEXXZ 00402010 f i DXFdata.obj
 0001:00001010       ?dispose@?$sp_counted_impl_pd@PAV?$basic_altstringbuf@DU?$char_traits@D@std@@V?$allocator@D@2@@io@boost@@VNo_Op@?$basic_oaltstringstream@DU?$char_traits@D@std@@V?$allocator@D@2@@23@@detail@boost@@UAEXXZ 00402010 f i NCInfoView.obj
 0001:00001010       ?OnRichPreviewFontChanged@CDocument@@UAEXXZ 00402010 f i 3dModelDoc.obj
 0001:00001010       __initialize_denormal_control 00402010 f i msvcrt:denormal_control.obj
 0001:00001010       ?OnViewLensComm@CViewBase@@UAEXXZ 00402010 f i NCInfoView.obj
 0001:00001010       ?InitializeSearchContent@CDocument@@UAEXXZ 00402010 f i 3dModelDoc.obj
 0001:00001020       ?Create@CDialog@@UAEHIPAVCWnd@@@Z 00402020 f i 3dContourScanSetupDlg.obj
 0001:00001030       ?EndModalState@CWnd@@UAEXXZ 00402030 f i 3dContourScanSetupDlg.obj
 0001:00001040       ?BeginModalState@CWnd@@UAEXXZ 00402040 f i 3dContourScanSetupDlg.obj
 0001:00001050       ?OnDeactivatePage@CTabViewBase@@MAEXH@Z 00402050 f i NCInfoTab.obj
 0001:00001050       ?Dump@CObject@@UBEXAAVCDumpContext@@@Z 00402050 f i 3dContourScanSetupDlg.obj
 0001:00001050       ?Serialize@CObject@@UAEXAAVCArchive@@@Z 00402050 f i 3dContourScanSetupDlg.obj
 0001:00001050       ?OnActivatePage@CTabViewBase@@MAEXH@Z 00402050 f i NCInfoTab.obj
 0001:00001050       ?DoDataExchange@CWnd@@MAEXPAVCDataExchange@@@Z 00402050 f i 3dContourScanSetupDlg.obj
 0001:00001050       ?DoDataExchange@CDxfSetupReload@@MAEXPAVCDataExchange@@@Z 00402050 f i DxfSetupReload.obj
 0001:00001050       ?OnDestroyPage@CTabViewBase@@MAEXH@Z 00402050 f i NCInfoTab.obj
 0001:00001060       ??3CObject@@SGXPAX@Z       00402060 f i 3dContourScanSetupDlg.obj
 0001:00001070       ??1CChildBase@@UAE@XZ      00402070 f i 3dModelChild.obj
 0001:00001070       ??1CMDIFrameWnd@@UAE@XZ    00402070 f i MainFrm.obj
 0001:00001080       ?CreateObject@C3dModelChild@@SGPAVCObject@@XZ 00402080 f   3dModelChild.obj
 0001:00001100       ?_GetBaseClass@C3dModelChild@@KGPAUCRuntimeClass@@XZ 00402100 f   3dModelChild.obj
 0001:00001100       ?_GetBaseClass@CDXFChild@@KGPAUCRuntimeClass@@XZ 00402100 f   DXFChild.obj
 0001:00001100       ?_GetBaseClass@CNCChild@@KGPAUCRuntimeClass@@XZ 00402100 f   NCChild.obj
 0001:00001110       ?GetRuntimeClass@C3dModelChild@@UBEPAUCRuntimeClass@@XZ 00402110 f   3dModelChild.obj
 0001:00001120       ?GetMessageMap@C3dModelChild@@MBEPBUAFX_MSGMAP@@XZ 00402120 f   3dModelChild.obj
 0001:00001130       ??_GC3dModelChild@@MAEPAXI@Z 00402130 f i 3dModelChild.obj
 0001:00001130       ??_EC3dModelChild@@MAEPAXI@Z 00402130 f i * CIL library *:* CIL module *
 0001:00001170       ?OnMDIActivate@C3dModelChild@@QAEXHPAVCWnd@@0@Z 00402170 f   3dModelChild.obj
 0001:000011f0       ?CalcOffsetSign@CNCcycle@@UBEHXZ 004021f0 f i NCdata.obj
 0001:000011f0       __get_startup_thread_locale_mode 004021f0 f i msvcrt:thread_locale.obj
 0001:000011f0       ?IsStartEqEnd@CDXFarc@@UBEHXZ 004021f0 f i DXFdata.obj
 0001:000011f0       ?IsStartEqEnd@CDXFline@@UBEHXZ 004021f0 f i DXFdata.obj
 0001:000011f0       ?IsTabbedMDIChild@CMDIChildWnd@@UAEHXZ 004021f0 f i 3dModelChild.obj
 0001:000011f0       ?IsMakeTarget@CDXFcircleEx@@UBEHXZ 004021f0 f i DXFdata.obj
 0001:000011f0       ?CalcOffsetSign@CNCdata@@UBEHXZ 004021f0 f i NCdata.obj
 0001:000011f0       __get_startup_new_mode     004021f0 f i msvcrt:new_mode.obj
 0001:000011f0       ___scrt_stub_for_initialize_mta 004021f0 f i msvcrt:utility_desktop.obj
 0001:000011f0       __get_startup_commit_mode  004021f0 f i msvcrt:commit_mode.obj
 0001:000011f0       ?GetApplicationRecoveryParameter@CWinApp@@UAEPAXXZ 004021f0 f i NCVC.obj
 0001:000011f0       __matherr                  004021f0 f i msvcrt:matherr.obj
 0001:000011f0       ___scrt_exe_initialize_mta 004021f0 f i msvcrt:utility_desktop.obj
 0001:000011f0       ___scrt_initialize_winrt   004021f0 f i msvcrt:utility_desktop.obj
 0001:000011f0       ?GetApplicationRestartFlags@CWinApp@@UAEKXZ 004021f0 f i NCVC.obj
 0001:00001200       ?AddInitHistory@CDXFOption@@QAEHW4NCMAKETYPE@@PBD@Z 00402200 f i 3dModelDoc.obj
 0001:000013b0       ?CreateObject@C3dModelDoc@@SGPAVCObject@@XZ 004023b0 f   3dModelDoc.obj
 0001:00001550       ?_GetBaseClass@C3dModelDoc@@KGPAUCRuntimeClass@@XZ 00402550 f   3dModelDoc.obj
 0001:00001550       ?_GetBaseClass@CDXFDoc@@KGPAUCRuntimeClass@@XZ 00402550 f   DXFDoc.obj
 0001:00001550       ?_GetBaseClass@CNCDoc@@KGPAUCRuntimeClass@@XZ 00402550 f   NCDoc.obj
 0001:00001560       ?GetRuntimeClass@C3dModelDoc@@UBEPAUCRuntimeClass@@XZ 00402560 f   3dModelDoc.obj
 0001:00001570       ?GetMessageMap@C3dModelDoc@@MBEPBUAFX_MSGMAP@@XZ 00402570 f   3dModelDoc.obj
 0001:00001580       ??_GC3dModelDoc@@UAEPAXI@Z 00402580 f i 3dModelDoc.obj
 0001:00001580       ??_EC3dModelDoc@@UAEPAXI@Z 00402580 f i * CIL library *:* CIL module *
 0001:00001710       ??1CDocBase@@UAE@XZ        00402710 f i 3dModelDoc.obj
 0001:00001730       ?Serialize@C3dModelDoc@@UAEXAAVCArchive@@@Z 00402730 f   3dModelDoc.obj
 0001:00001810       ?OnOpenDocument@C3dModelDoc@@UAEHPBD@Z 00402810 f   3dModelDoc.obj
 0001:000019d0       ?OnCloseDocument@C3dModelDoc@@UAEXXZ 004029d0 f   3dModelDoc.obj
 0001:00001a20       ?OnUpdateFile3dMake@C3dModelDoc@@IAEXPAVCCmdUI@@@Z 00402a20 f   3dModelDoc.obj
 0001:00001a60       ?OnFile3dMake@C3dModelDoc@@IAEXXZ 00402a60 f   3dModelDoc.obj
 0001:00001c60       ??1CMakeNCDlg@@UAE@XZ      00402c60 f i 3dModelDoc.obj
 0001:00001cd0       ?ClearRoughCoord@C3dModelDoc@@QAEXXZ 00402cd0 f   3dModelDoc.obj
 0001:00001d10       ?ClearContourCoord@C3dModelDoc@@QAEXXZ 00402d10 f   3dModelDoc.obj
 0001:00001d50       ?MakeRoughCoord@C3dModelDoc@@QAEHPAUNURBSS@@PAUNURBSC@@@Z 00402d50 f   3dModelDoc.obj
 0001:00002340       ?MakeContourCoord@C3dModelDoc@@QAEHPAUNURBSS@@@Z 00403340 f   3dModelDoc.obj
 0001:000026d0       ?SetGroupCoord@C3dModelDoc@@QAE?AV?$vector@V?$vector@VCoord@@V?$allocator@VCoord@@@std@@@std@@V?$allocator@V?$vector@VCoord@@V?$allocator@VCoord@@@std@@@std@@@2@@std@@AAV?$vector@VCoord@@V?$allocator@VCoord@@@std@@@3@N@Z 004036d0 f   3dModelDoc.obj
 0001:00002a30       ??1?$vector@VCoord@@V?$allocator@VCoord@@@std@@@std@@QAE@XZ 00403a30 f i 3dModelDoc.obj
 0001:00002a40       ??1?$vector@V?$vector@VCoord@@V?$allocator@VCoord@@@std@@@std@@V?$allocator@V?$vector@VCoord@@V?$allocator@VCoord@@@std@@@std@@@2@@std@@QAE@XZ 00403a40 f i 3dModelDoc.obj
 0001:00002a50       ??0?$vector@V?$vector@VCoord@@V?$allocator@VCoord@@@std@@@std@@V?$allocator@V?$vector@VCoord@@V?$allocator@VCoord@@@std@@@std@@@2@@std@@QAE@ABV01@@Z 00403a50 f i 3dModelDoc.obj
 0001:00002b30       ??1?$vector@V?$vector@V?$vector@VCoord@@V?$allocator@VCoord@@@std@@@std@@V?$allocator@V?$vector@VCoord@@V?$allocator@VCoord@@@std@@@std@@@2@@std@@V?$allocator@V?$vector@V?$vector@VCoord@@V?$allocator@VCoord@@@std@@@std@@V?$allocator@V?$vector@VCoord@@V?$allocator@VCoord@@@std@@@std@@@2@@std@@@2@@std@@QAE@XZ 00403b30 f i 3dModelDoc.obj
 0001:00002bb0       ??4?$CPointT@N@@QAEAAV0@ABVCoord@@@Z 00403bb0 f i 3dModelDoc.obj
 0001:00002bd0       ?_Tidy@?$vector@VCoord@@V?$allocator@VCoord@@@std@@@std@@AAEXXZ 00403bd0 f i 3dModelDoc.obj
 0001:00002c30       ?_Tidy@?$vector@V?$vector@VCoord@@V?$allocator@VCoord@@@std@@@std@@V?$allocator@V?$vector@VCoord@@V?$allocator@VCoord@@@std@@@std@@@2@@std@@AAEXXZ 00403c30 f i 3dModelDoc.obj
 0001:00002cb0       ?deallocate@?$allocator@V?$vector@IV?$allocator@I@std@@@std@@@std@@QAEXQAV?$vector@IV?$allocator@I@std@@@2@I@Z 00403cb0 f i NCViewGL.obj
 0001:00002cb0       ?deallocate@?$allocator@V?$vector@V?$CPointT@M@@V?$allocator@V?$CPointT@M@@@std@@@std@@@std@@QAEXQAV?$vector@V?$CPointT@M@@V?$allocator@V?$CPointT@M@@@std@@@2@I@Z 00403cb0 f i DXFView.obj
 0001:00002cb0       ?deallocate@?$allocator@V?$vector@VCoord@@V?$allocator@VCoord@@@std@@@std@@@std@@QAEXQAV?$vector@VCoord@@V?$allocator@VCoord@@@std@@@2@I@Z 00403cb0 f i 3dModelDoc.obj
 0001:00002cb0       ?deallocate@?$allocator@UTABLELAYERINFO@@@std@@QAEXQAUTABLELAYERINFO@@I@Z 00403cb0 f i DXFMakeClass.obj
 0001:00002cb0       ?deallocate@?$allocator@V?$vector@V?$vector@VCoord@@V?$allocator@VCoord@@@std@@@std@@V?$allocator@V?$vector@VCoord@@V?$allocator@VCoord@@@std@@@std@@@2@@std@@@std@@QAEXQAV?$vector@V?$vector@VCoord@@V?$allocator@VCoord@@@std@@@std@@V?$allocator@V?$vector@VCoord@@V?$allocator@VCoord@@@std@@@std@@@2@@2@I@Z 00403cb0 f i 3dModelDoc.obj
 0001:00002cf0       ?GetXY@?$CPoint3T@M@@QBE?AV?$CPointT@M@@XZ 00403cf0 f i 3dModelDoc.obj
 0001:00002d10       ??$_Emplace_reallocate@VCoord@@@?$vector@VCoord@@V?$allocator@VCoord@@@std@@@std@@QAEPAVCoord@@QAV2@$$QAV2@@Z 00403d10 f i 3dModelDoc.obj
 0001:00002d10       ??$_Emplace_reallocate@ABVCoord@@@?$vector@VCoord@@V?$allocator@VCoord@@@std@@@std@@QAEPAVCoord@@QAV2@ABV2@@Z 00403d10 f i 3dModelDoc.obj
 0001:00002e30       ??$_Move_unchecked@PAV?$vector@VCoord@@V?$allocator@VCoord@@@std@@@std@@PAV12@@std@@YAPAV?$vector@VCoord@@V?$allocator@VCoord@@@std@@@0@PAV10@00@Z 00403e30 f i 3dModelDoc.obj
 0001:00002e90       ??$_Emplace_reallocate@ABV?$vector@VCoord@@V?$allocator@VCoord@@@std@@@std@@@?$vector@V?$vector@VCoord@@V?$allocator@VCoord@@@std@@@std@@V?$allocator@V?$vector@VCoord@@V?$allocator@VCoord@@@std@@@std@@@2@@std@@QAEPAV?$vector@VCoord@@V?$allocator@VCoord@@@std@@@1@QAV21@ABV21@@Z 00403e90 f i 3dModelDoc.obj
 0001:00002fe0       ??$_Destroy_range@V?$allocator@V?$vector@V?$vector@VCoord@@V?$allocator@VCoord@@@std@@@std@@V?$allocator@V?$vector@VCoord@@V?$allocator@VCoord@@@std@@@std@@@2@@std@@@std@@@std@@YAXPAV?$vector@V?$vector@VCoord@@V?$allocator@VCoord@@@std@@@std@@V?$allocator@V?$vector@VCoord@@V?$allocator@VCoord@@@std@@@std@@@2@@0@QAV10@AAV?$allocator@V?$vector@V?$vector@VCoord@@V?$allocator@VCoord@@@std@@@std@@V?$allocator@V?$vector@VCoord@@V?$allocator@VCoord@@@std@@@std@@@2@@std@@@0@@Z 00403fe0 f i 3dModelDoc.obj
 0001:00003010       ??$_Emplace_reallocate@ABV?$vector@V?$vector@VCoord@@V?$allocator@VCoord@@@std@@@std@@V?$allocator@V?$vector@VCoord@@V?$allocator@VCoord@@@std@@@std@@@2@@std@@@?$vector@V?$vector@V?$vector@VCoord@@V?$allocator@VCoord@@@std@@@std@@V?$allocator@V?$vector@VCoord@@V?$allocator@VCoord@@@std@@@std@@@2@@std@@V?$allocator@V?$vector@V?$vector@VCoord@@V?$allocator@VCoord@@@std@@@std@@V?$allocator@V?$vector@VCoord@@V?$allocator@VCoord@@@std@@@std@@@2@@std@@@2@@std@@QAEPAV?$vector@V?$vector@VCoord@@V?$allocator@VCoord@@@std@@@std@@V?$allocator@V?$vector@VCoord@@V?$allocator@VCoord@@@std@@@std@@@2@@1@QAV21@ABV21@@Z 00404010 f i 3dModelDoc.obj
 0001:00003230       ??$_Destroy_range@V?$allocator@V?$vector@VCoord@@V?$allocator@VCoord@@@std@@@std@@@std@@@std@@YAXPAV?$vector@VCoord@@V?$allocator@VCoord@@@std@@@0@QAV10@AAV?$allocator@V?$vector@VCoord@@V?$allocator@VCoord@@@std@@@std@@@0@@Z 00404230 f i 3dModelDoc.obj
 0001:00003260       ??1?$_Tidy_guard@V?$vector@V?$vector@VCoord@@V?$allocator@VCoord@@@std@@@std@@V?$allocator@V?$vector@VCoord@@V?$allocator@VCoord@@@std@@@std@@@2@@std@@@std@@QAE@XZ 00404260 f i 3dModelDoc.obj
 0001:00003270       ?_Xlength@?$vector@PAXV?$allocator@PAX@std@@@std@@CAXXZ 00404270 f i NCViewGL_Mill.obj
 0001:00003270       ?_Xlength@?$vector@IV?$allocator@I@std@@@std@@CAXXZ 00404270 f i DXFshape.obj
 0001:00003270       ?_Xlength@?$vector@U?$sub_match@PBD@boost@@V?$allocator@U?$sub_match@PBD@boost@@@std@@@std@@CAXXZ 00404270 f i NCDoc.obj
 0001:00003270       ?_Xlength@?$vector@PAUCREATEBOTTOMVERTEXPARAM@@V?$allocator@PAUCREATEBOTTOMVERTEXPARAM@@@std@@@std@@CAXXZ 00404270 f i NCViewGL_Mill.obj
 0001:00003270       ?_Xlength@?$vector@VCoord@@V?$allocator@VCoord@@@std@@@std@@CAXXZ 00404270 f i 3dModelDoc.obj
 0001:00003270       ?_Xlength@?$vector@JV?$allocator@J@std@@@std@@CAXXZ 00404270 f i DXFOption.obj
 0001:00003270       ?_Xlength@?$vector@USELECTBIND@@V?$allocator@USELECTBIND@@@std@@@std@@CAXXZ 00404270 f i DXFView.obj
 0001:00003270       ?_Xlength@?$vector@U?$recursion_info@V?$match_results@V?$_String_const_iterator@V?$_String_val@U?$_Simple_types@D@std@@@std@@@std@@V?$allocator@U?$sub_match@V?$_String_const_iterator@V?$_String_val@U?$_Simple_types@D@std@@@std@@@std@@@boost@@@2@@boost@@@re_detail_500@boost@@V?$allocator@U?$recursion_info@V?$match_results@V?$_String_const_iterator@V?$_String_val@U?$_Simple_types@D@std@@@std@@@std@@V?$allocator@U?$sub_match@V?$_String_const_iterator@V?$_String_val@U?$_Simple_types@D@std@@@std@@@std@@@boost@@@2@@boost@@@re_detail_500@boost@@@std@@@std@@CAXXZ 00404270 f i NCDoc.obj
 0001:00003270       ?_Xlength@?$vector@U?$pair@_NPAUre_syntax_base@re_detail_500@boost@@@std@@V?$allocator@U?$pair@_NPAUre_syntax_base@re_detail_500@boost@@@std@@@2@@std@@CAXXZ 00404270 f i DXFOption.obj
 0001:00003270       ?_Xlength@?$vector@V?$vector@V?$vector@VCoord@@V?$allocator@VCoord@@@std@@@std@@V?$allocator@V?$vector@VCoord@@V?$allocator@VCoord@@@std@@@std@@@2@@std@@V?$allocator@V?$vector@V?$vector@VCoord@@V?$allocator@VCoord@@@std@@@std@@V?$allocator@V?$vector@VCoord@@V?$allocator@VCoord@@@std@@@std@@@2@@std@@@2@@std@@CAXXZ 00404270 f i 3dModelDoc.obj
 0001:00003270       ?_Xlength@?$vector@U?$recursion_info@V?$match_results@PBDV?$allocator@U?$sub_match@PBD@boost@@@std@@@boost@@@re_detail_500@boost@@V?$allocator@U?$recursion_info@V?$match_results@PBDV?$allocator@U?$sub_match@PBD@boost@@@std@@@boost@@@re_detail_500@boost@@@std@@@std@@CAXXZ 00404270 f i NCDoc.obj
 0001:00003270       ?_Xlength@?$vector@UBOTTOMDRAW@@V?$allocator@UBOTTOMDRAW@@@std@@@std@@CAXXZ 00404270 f i NCdataGL.obj
 0001:00003270       ?_Xlength@?$vector@UBINDFILE@@V?$allocator@UBINDFILE@@@std@@@std@@CAXXZ 00404270 f i CADbindDlg.obj
 0001:00003270       ?_Xlength@?$vector@UPOLYVERTEX@@V?$allocator@UPOLYVERTEX@@@std@@@std@@CAXXZ 00404270 f i ReadDXF.obj
 0001:00003270       ?_Xlength@?$vector@V?$CPoint3T@M@@V?$allocator@V?$CPoint3T@M@@@std@@@std@@CAXXZ 00404270 f i NCdataGL.obj
 0001:00003270       ?_Xlength@?$vector@V?$vector@IV?$allocator@I@std@@@std@@V?$allocator@V?$vector@IV?$allocator@I@std@@@std@@@2@@std@@CAXXZ 00404270 f i NCViewGL_Lathe.obj
 0001:00003270       ?_Xlength@?$vector@U?$format_item@DU?$char_traits@D@std@@V?$allocator@D@2@@detail@io@boost@@V?$allocator@U?$format_item@DU?$char_traits@D@std@@V?$allocator@D@2@@detail@io@boost@@@std@@@std@@CAXXZ 00404270 f i NCInfoView.obj
 0001:00003270       ?_Xlength@?$vector@V?$vector@VCoord@@V?$allocator@VCoord@@@std@@@std@@V?$allocator@V?$vector@VCoord@@V?$allocator@VCoord@@@std@@@std@@@2@@std@@CAXXZ 00404270 f i 3dModelDoc.obj
 0001:00003270       ?_Xlength@?$vector@UWIRELINE@@V?$allocator@UWIRELINE@@@std@@@std@@CAXXZ 00404270 f i NCViewGL_Wire.obj
 0001:00003270       ?_Xlength@?$vector@V?$CPointT@M@@V?$allocator@V?$CPointT@M@@@std@@@std@@CAXXZ 00404270 f i DXFdata.obj
 0001:00003270       ?_Xlength@?$vector@V?$vector@V?$CPointT@M@@V?$allocator@V?$CPointT@M@@@std@@@std@@V?$allocator@V?$vector@V?$CPointT@M@@V?$allocator@V?$CPointT@M@@@std@@@std@@@2@@std@@CAXXZ 00404270 f i DXFView.obj
 0001:00003270       ?_Xlength@?$vector@HV?$allocator@H@std@@@std@@CAXXZ 00404270 f i TH_MakeNurbs.obj
 0001:00003270       ?_Xlength@?$vector@DV?$allocator@D@std@@@std@@CAXXZ 00404270 f i NCDoc.obj
 0001:00003270       ?_Xlength@?$vector@U?$digraph@D@re_detail_500@boost@@V?$allocator@U?$digraph@D@re_detail_500@boost@@@std@@@std@@CAXXZ 00404270 f i DXFOption.obj
 0001:00003270       ?_Xlength@?$vector@U?$sub_match@V?$_String_const_iterator@V?$_String_val@U?$_Simple_types@D@std@@@std@@@std@@@boost@@V?$allocator@U?$sub_match@V?$_String_const_iterator@V?$_String_val@U?$_Simple_types@D@std@@@std@@@std@@@boost@@@std@@@std@@CAXXZ 00404270 f i NCDoc.obj
 0001:00003270       ?_Xlength@?$vector@Uname@named_subexpressions@re_detail_500@boost@@V?$allocator@Uname@named_subexpressions@re_detail_500@boost@@@std@@@std@@CAXXZ 00404270 f i DXFOption.obj
 0001:00003270       ?_Xlength@?$vector@ULATHEDRILLINFO@@V?$allocator@ULATHEDRILLINFO@@@std@@@std@@CAXXZ 00404270 f i NCMakeLatheOpt.obj
 0001:00003270       ?_Xlength@?$vector@EV?$allocator@E@std@@@std@@CAXXZ 00404270 f i DXFOption.obj
 0001:00003270       ?_Xlength@?$vector@PAU__POSITION@@V?$allocator@PAU__POSITION@@@std@@@std@@CAXXZ 00404270 f i DXFshape.obj
 0001:00003270       ?_Xlength@?$vector@MV?$allocator@M@std@@@std@@CAXXZ 00404270 f i NCdataGL.obj
 0001:00003270       ?_Xlength@?$vector@U?$pair@II@std@@V?$allocator@U?$pair@II@std@@@2@@std@@CAXXZ 00404270 f i DXFOption.obj
 0001:00003270       ?_Xlength@?$vector@UTABLELAYERINFO@@V?$allocator@UTABLELAYERINFO@@@std@@@std@@CAXXZ 00404270 f i DXFMakeClass.obj
 0001:00003280       ??0?$vector@VCoord@@V?$allocator@VCoord@@@std@@@std@@QAE@ABV01@@Z 00404280 f i 3dModelDoc.obj
 0001:00003300       ?allocate@?$allocator@VCoord@@@std@@QAEPAVCoord@@I@Z 00404300 f i 3dModelDoc.obj
 0001:00003360       ?_Change_array@?$vector@V?$vector@VCoord@@V?$allocator@VCoord@@@std@@@std@@V?$allocator@V?$vector@VCoord@@V?$allocator@VCoord@@@std@@@std@@@2@@std@@AAEXQAV?$vector@VCoord@@V?$allocator@VCoord@@@std@@@2@II@Z 00404360 f i 3dModelDoc.obj
 0001:000033f0       ?allocate@?$allocator@U?$sub_match@V?$_String_const_iterator@V?$_String_val@U?$_Simple_types@D@std@@@std@@@std@@@boost@@@std@@QAEPAU?$sub_match@V?$_String_const_iterator@V?$_String_val@U?$_Simple_types@D@std@@@std@@@std@@@boost@@I@Z 004043f0 f i NCDoc.obj
 0001:000033f0       ?allocate@?$allocator@U?$sub_match@PBD@boost@@@std@@QAEPAU?$sub_match@PBD@boost@@I@Z 004043f0 f i NCDoc.obj
 0001:000033f0       ?allocate@?$allocator@V?$vector@VCoord@@V?$allocator@VCoord@@@std@@@std@@@std@@QAEPAV?$vector@VCoord@@V?$allocator@VCoord@@@std@@@2@I@Z 004043f0 f i 3dModelDoc.obj
 0001:00003450       ??$_Insert_range@PAV?$vector@VCoord@@V?$allocator@VCoord@@@std@@@std@@@?$vector@V?$vector@VCoord@@V?$allocator@VCoord@@@std@@@std@@V?$allocator@V?$vector@VCoord@@V?$allocator@VCoord@@@std@@@std@@@2@@std@@AAEXV?$_Vector_const_iterator@V?$_Vector_val@U?$_Simple_types@V?$vector@VCoord@@V?$allocator@VCoord@@@std@@@std@@@std@@@std@@@1@PAV?$vector@VCoord@@V?$allocator@VCoord@@@std@@@1@1Uforward_iterator_tag@1@@Z 00404450 f i 3dModelDoc.obj
 0001:00003830       ??$_Uninitialized_move@PAV?$vector@V?$CPointT@M@@V?$allocator@V?$CPointT@M@@@std@@@std@@V?$allocator@V?$vector@V?$CPointT@M@@V?$allocator@V?$CPointT@M@@@std@@@std@@@2@@std@@YAPAV?$vector@V?$CPointT@M@@V?$allocator@V?$CPointT@M@@@std@@@0@QAV10@0PAV10@AAV?$allocator@V?$vector@V?$CPointT@M@@V?$allocator@V?$CPointT@M@@@std@@@std@@@0@@Z 00404830 f i DXFView.obj
 0001:00003830       ??$_Uninitialized_move@PAV?$vector@V?$vector@VCoord@@V?$allocator@VCoord@@@std@@@std@@V?$allocator@V?$vector@VCoord@@V?$allocator@VCoord@@@std@@@std@@@2@@std@@V?$allocator@V?$vector@V?$vector@VCoord@@V?$allocator@VCoord@@@std@@@std@@V?$allocator@V?$vector@VCoord@@V?$allocator@VCoord@@@std@@@std@@@2@@std@@@2@@std@@YAPAV?$vector@V?$vector@VCoord@@V?$allocator@VCoord@@@std@@@std@@V?$allocator@V?$vector@VCoord@@V?$allocator@VCoord@@@std@@@std@@@2@@0@QAV10@0PAV10@AAV?$allocator@V?$vector@V?$vector@VCoord@@V?$allocator@VCoord@@@std@@@std@@V?$allocator@V?$vector@VCoord@@V?$allocator@VCoord@@@std@@@std@@@2@@std@@@0@@Z 00404830 f i 3dModelDoc.obj
 0001:00003830       ??$_Uninitialized_move@PAV?$vector@IV?$allocator@I@std@@@std@@V?$allocator@V?$vector@IV?$allocator@I@std@@@std@@@2@@std@@YAPAV?$vector@IV?$allocator@I@std@@@0@QAV10@0PAV10@AAV?$allocator@V?$vector@IV?$allocator@I@std@@@std@@@0@@Z 00404830 f i NCViewGL_Lathe.obj
 0001:00003830       ??$_Uninitialized_move@PAV?$vector@VCoord@@V?$allocator@VCoord@@@std@@@std@@V?$allocator@V?$vector@VCoord@@V?$allocator@VCoord@@@std@@@std@@@2@@std@@YAPAV?$vector@VCoord@@V?$allocator@VCoord@@@std@@@0@QAV10@0PAV10@AAV?$allocator@V?$vector@VCoord@@V?$allocator@VCoord@@@std@@@std@@@0@@Z 00404830 f i 3dModelDoc.obj
 0001:00003880       ??1?$_Uninitialized_backout_al@V?$allocator@V?$vector@VCoord@@V?$allocator@VCoord@@@std@@@std@@@std@@@std@@QAE@XZ 00404880 f i 3dModelDoc.obj
 0001:000038b0       ?IsModified@CDocument@@UAEHXZ 004048b0 f i 3dModelDoc.obj
 0001:000038c0       ??_GCDocumentAdapter@CDocument@@UAEPAXI@Z 004048c0 f i 3dModelDoc.obj
 0001:000038c0       ??_ECDocumentAdapter@CDocument@@UAEPAXI@Z 004048c0 f i * CIL library *:* CIL module *
 0001:00003900       ??_EIDocument@ATL@@UAEPAXI@Z 00404900 f i * CIL library *:* CIL module *
 0001:00003900       ??_GIDocument@ATL@@UAEPAXI@Z 00404900 f i 3dModelDoc.obj
 0001:00003930       ?Release@IDocument@ATL@@UAEJXZ 00404930 f i 3dModelDoc.obj
 0001:00003950       ?LoadFromStream@CDocumentAdapter@CDocument@@UAEJPAUIStream@@K@Z 00404950 f i 3dModelDoc.obj
 0001:000039a0       ?InitializeSearchContent@CDocumentAdapter@CDocument@@UAEXXZ 004049a0 f i 3dModelDoc.obj
 0001:000039b0       ?BeginReadChunks@CDocumentAdapter@CDocument@@UAEXXZ 004049b0 f i 3dModelDoc.obj
 0001:000039c0       ?GetThumbnail@CDocumentAdapter@CDocument@@UAEHIPAPAUHBITMAP__@@PAW4WTS_ALPHATYPE@@@Z 004049c0 f i 3dModelDoc.obj
 0001:000039e0       ?ClearChunkList@CDocumentAdapter@CDocument@@UAEXXZ 004049e0 f i 3dModelDoc.obj
 0001:000039f0       ?SetChunkValue@CDocumentAdapter@CDocument@@UAEHPAUIFilterChunkValue@ATL@@@Z 004049f0 f i 3dModelDoc.obj
 0001:00003a10       ?ReadNextChunkValue@CDocumentAdapter@CDocument@@UAEHPAPAUIFilterChunkValue@ATL@@@Z 00404a10 f i 3dModelDoc.obj
 0001:00003a30       ?RemoveChunk@CDocumentAdapter@CDocument@@UAEXABU_GUID@@K@Z 00404a30 f i 3dModelDoc.obj
 0001:00003a50       ?FindChunk@CDocumentAdapter@CDocument@@UAEPAU__POSITION@@ABU_GUID@@K@Z 00404a50 f i 3dModelDoc.obj
 0001:00003a70       ?GetTailPosition@CObList@@QBEPAU__POSITION@@XZ 00404a70 f i DXFdata.obj
 0001:00003a70       ?GetContainer@CDocumentAdapter@CDocument@@UBEPAXXZ 00404a70 f i 3dModelDoc.obj
 0001:00003a80       ?AddRef@IDocument@ATL@@UAEJXZ 00404a80 f i 3dModelDoc.obj
 0001:00003a90       ?GetAdapter@CDocument@@UAEPAUIDocument@ATL@@XZ 00404a90 f i 3dModelDoc.obj
 0001:00003b60       ??0bad_array_new_length@std@@QAE@XZ 00404b60 f i 3dModelDoc.obj
 0001:00003b80       ??1regex_error@boost@@UAE@XZ 00404b80 f i DXFOption.obj
 0001:00003b80       ??1bad_function_call@boost@@UAE@XZ 00404b80 f i MyTemplate.obj
 0001:00003b80       ??1too_few_args@io@boost@@UAE@XZ 00404b80 f i NCInfoView.obj
 0001:00003b80       ??1invalid_argument@std@@UAE@XZ 00404b80 f i NCDoc.obj
 0001:00003b80       ??1escaped_list_error@boost@@UAE@XZ 00404b80 f i NCMakeOption.obj
 0001:00003b80       ??1too_many_args@io@boost@@UAE@XZ 00404b80 f i NCInfoView.obj
 0001:00003b80       ??1bad_format_string@io@boost@@UAE@XZ 00404b80 f i NCInfoView.obj
 0001:00003b80       ??1bad_get@boost@@UAE@XZ   00404b80 f i DXFshape.obj
 0001:00003b80       ??1logic_error@std@@UAE@XZ 00404b80 f i NCDoc.obj
 0001:00003b80       ??1bad_lexical_cast@boost@@UAE@XZ 00404b80 f i 3dOption.obj
 0001:00003b80       ??1runtime_error@std@@UAE@XZ 00404b80 f i MyTemplate.obj
 0001:00003b80       ??1bad_array_new_length@std@@UAE@XZ 00404b80 f i 3dModelDoc.obj
 0001:00003b80       ??1bad_cast@std@@UAE@XZ    00404b80 f i 3dOption.obj
 0001:00003ba0       ??_Gexception@std@@UAEPAXI@Z 00404ba0 f i 3dModelDoc.obj
 0001:00003ba0       ??_Ebad_cast@std@@UAEPAXI@Z 00404ba0 f i * CIL library *:* CIL module *
 0001:00003ba0       ??_Ebad_alloc@std@@UAEPAXI@Z 00404ba0 f i * CIL library *:* CIL module *
 0001:00003ba0       ??_Gescaped_list_error@boost@@UAEPAXI@Z 00404ba0 f i NCMakeOption.obj
 0001:00003ba0       ??_Einvalid_argument@std@@UAEPAXI@Z 00404ba0 f i * CIL library *:* CIL module *
 0001:00003ba0       ??_Eexception@std@@UAEPAXI@Z 00404ba0 f i * CIL library *:* CIL module *
 0001:00003ba0       ??_Glogic_error@std@@UAEPAXI@Z 00404ba0 f i NCDoc.obj
 0001:00003ba0       ??_Gformat_error@io@boost@@UAEPAXI@Z 00404ba0 f i NCInfoView.obj
 0001:00003ba0       ??_Eescaped_list_error@boost@@UAEPAXI@Z 00404ba0 f i * CIL library *:* CIL module *
 0001:00003ba0       ??_Gbad_cast@std@@UAEPAXI@Z 00404ba0 f i 3dOption.obj
 0001:00003ba0       ??_Elogic_error@std@@UAEPAXI@Z 00404ba0 f i * CIL library *:* CIL module *
 0001:00003ba0       ??_Gbad_get@boost@@UAEPAXI@Z 00404ba0 f i DXFshape.obj
 0001:00003ba0       ??_Ebad_function_call@boost@@UAEPAXI@Z 00404ba0 f i * CIL library *:* CIL module *
 0001:00003ba0       ??_Ginvalid_argument@std@@UAEPAXI@Z 00404ba0 f i NCDoc.obj
 0001:00003ba0       ??_Gbad_array_new_length@std@@UAEPAXI@Z 00404ba0 f i 3dModelDoc.obj
 0001:00003ba0       ??_Ebad_array_new_length@std@@UAEPAXI@Z 00404ba0 f i * CIL library *:* CIL module *
 0001:00003ba0       ??_Gbad_function_call@boost@@UAEPAXI@Z 00404ba0 f i MyTemplate.obj
 0001:00003ba0       ??_Gbad_alloc@std@@UAEPAXI@Z 00404ba0 f i 3dModelDoc.obj
 0001:00003ba0       ??_Eruntime_error@std@@UAEPAXI@Z 00404ba0 f i * CIL library *:* CIL module *
 0001:00003ba0       ??_Eformat_error@io@boost@@UAEPAXI@Z 00404ba0 f i * CIL library *:* CIL module *
 0001:00003ba0       ??_Gruntime_error@std@@UAEPAXI@Z 00404ba0 f i MyTemplate.obj
 0001:00003ba0       ??_Ebad_get@boost@@UAEPAXI@Z 00404ba0 f i * CIL library *:* CIL module *
 0001:00003bd0       ??0bad_array_new_length@std@@QAE@ABV01@@Z 00404bd0 f i 3dModelDoc.obj
 0001:00003c10       ??0bad_alloc@std@@QAE@ABV01@@Z 00404c10 f i 3dModelDoc.obj
 0001:00003c50       ?what@exception@std@@UBEPBDXZ 00404c50 f i 3dModelDoc.obj
 0001:00003c60       ??0exception@std@@QAE@ABV01@@Z 00404c60 f i 3dModelDoc.obj
 0001:00003c90       ?_Throw_bad_array_new_length@std@@YAXXZ 00404c90 f i 3dModelDoc.obj
 0001:00003cb0       ?CreateObject@C3dModelView@@SGPAVCObject@@XZ 00404cb0 f   3dModelView.obj
 0001:00003d50       ?GetRuntimeClass@CViewBaseGL@@UBEPAUCRuntimeClass@@XZ 00404d50 f   ViewBaseGL.obj
 0001:00003d50       ?_GetBaseClass@CNCViewGL@@KGPAUCRuntimeClass@@XZ 00404d50 f   NCViewGL.obj
 0001:00003d50       ?_GetBaseClass@C3dModelView@@KGPAUCRuntimeClass@@XZ 00404d50 f   3dModelView.obj
 0001:00003d60       ?GetRuntimeClass@C3dModelView@@UBEPAUCRuntimeClass@@XZ 00404d60 f   3dModelView.obj
 0001:00003d70       ?GetMessageMap@C3dModelView@@MBEPBUAFX_MSGMAP@@XZ 00404d70 f   3dModelView.obj
 0001:00003d80       ??_GC3dModelView@@UAEPAXI@Z 00404d80 f i 3dModelView.obj
 0001:00003d80       ??_EC3dModelView@@UAEPAXI@Z 00404d80 f i * CIL library *:* CIL module *
 0001:00003de0       ?OnInitialUpdate@C3dModelView@@UAEXXZ 00404de0 f   3dModelView.obj
 0001:00004040       ?OnDraw@C3dModelView@@UAEXPAVCDC@@@Z 00405040 f   3dModelView.obj
 0001:00004470       ?DrawBody@C3dModelView@@AAEXW4RENDERMODE@@@Z 00405470 f   3dModelView.obj
 0001:00004790       ?OnCreate@C3dModelView@@IAEHPAUtagCREATESTRUCTA@@@Z 00405790 f   3dModelView.obj
 0001:000047b0       ?OnDestroy@C3dModelView@@IAEXXZ 004057b0 f   3dModelView.obj
 0001:00004840       ?OnLButtonDown@C3dModelView@@IAEXIVCPoint@@@Z 00405840 f   3dModelView.obj
 0001:00004870       ?OnLButtonUp@C3dModelView@@IAEXIVCPoint@@@Z 00405870 f   3dModelView.obj
 0001:000048f0       ?DoSelect@C3dModelView@@AAEXABVCPoint@@@Z 004058f0 f   3dModelView.obj
 0001:00004de0       ?OnLensKey@C3dModelView@@IAEXI@Z 00405de0 f   3dModelView.obj
 0001:00004ff0       ?OnUpdateFile3dRough@C3dModelView@@IAEXPAVCCmdUI@@@Z 00405ff0 f   3dModelView.obj
 0001:00005020       ?OnFile3dRough@C3dModelView@@IAEXXZ 00406020 f   3dModelView.obj
 0001:00005200       ??1C3dRoughScanSetupDlg@@UAE@XZ 00406200 f i 3dModelView.obj
 0001:00005260       ?OnUpdateFile3dSmooth@C3dModelView@@IAEXPAVCCmdUI@@@Z 00406260 f   3dModelView.obj
 0001:00005280       ?OnFile3dSmooth@C3dModelView@@IAEXXZ 00406280 f   3dModelView.obj
 0001:000055c0       ??1?$map@HHU?$less@H@std@@V?$allocator@U?$pair@$$CBHH@std@@@2@@std@@QAE@XZ 004065c0 f i 3dModelView.obj
 0001:000055d0       ??A?$map@HHU?$less@H@std@@V?$allocator@U?$pair@$$CBHH@std@@@2@@std@@QAEAAHABH@Z 004065d0 f i 3dModelView.obj
 0001:000056b0       ??1?$_Tree@V?$_Tmap_traits@KV?$_List_iterator@V?$_List_val@U?$_List_simple_types@U?$pair@V?$shared_ptr@$$CBV?$w32_regex_traits_implementation@D@re_detail_500@boost@@@std@@PBK@std@@@std@@@std@@@std@@U?$less@K@2@V?$allocator@U?$pair@$$CBKV?$_List_iterator@V?$_List_val@U?$_List_simple_types@U?$pair@V?$shared_ptr@$$CBV?$w32_regex_traits_implementation@D@re_detail_500@boost@@@std@@PBK@std@@@std@@@std@@@std@@@std@@@2@$0A@@std@@@std@@QAE@XZ 004066b0 f i DXFOption.obj
 0001:000056b0       ??1?$_Tree@V?$_Tmap_traits@HHU?$less@H@std@@V?$allocator@U?$pair@$$CBHH@std@@@2@$0A@@std@@@std@@QAE@XZ 004066b0 f i 3dModelView.obj
 0001:000056f0       ?_Insert_node@?$_Tree_val@U?$_Tree_simple_types@U?$pair@$$CBKV?$_List_iterator@V?$_List_val@U?$_List_simple_types@U?$pair@V?$shared_ptr@$$CBV?$w32_regex_traits_implementation@D@re_detail_500@boost@@@std@@PBK@std@@@std@@@std@@@std@@@std@@@std@@@std@@QAEPAU?$_Tree_node@U?$pair@$$CBKV?$_List_iterator@V?$_List_val@U?$_List_simple_types@U?$pair@V?$shared_ptr@$$CBV?$w32_regex_traits_implementation@D@re_detail_500@boost@@@std@@PBK@std@@@std@@@std@@@std@@@std@@PAX@2@U?$_Tree_id@PAU?$_Tree_node@U?$pair@$$CBKV?$_List_iterator@V?$_List_val@U?$_List_simple_types@U?$pair@V?$shared_ptr@$$CBV?$w32_regex_traits_implementation@D@re_detail_500@boost@@@std@@PBK@std@@@std@@@std@@@std@@@std@@PAX@std@@@2@QAU32@@Z 004066f0 f i DXFOption.obj
 0001:000056f0       ?_Insert_node@?$_Tree_val@U?$_Tree_simple_types@U?$pair@$$CBHV?$basic_string@DU?$char_traits@D@std@@V?$allocator@D@2@@std@@@std@@@std@@@std@@QAEPAU?$_Tree_node@U?$pair@$$CBHV?$basic_string@DU?$char_traits@D@std@@V?$allocator@D@2@@std@@@std@@PAX@2@U?$_Tree_id@PAU?$_Tree_node@U?$pair@$$CBHV?$basic_string@DU?$char_traits@D@std@@V?$allocator@D@2@@std@@@std@@PAX@std@@@2@QAU32@@Z 004066f0 f i DXFOption.obj
 0001:000056f0       ?_Insert_node@?$_Tree_val@U?$_Tree_simple_types@U?$digraph@D@re_detail_500@boost@@@std@@@std@@QAEPAU?$_Tree_node@U?$digraph@D@re_detail_500@boost@@PAX@2@U?$_Tree_id@PAU?$_Tree_node@U?$digraph@D@re_detail_500@boost@@PAX@std@@@2@QAU32@@Z 004066f0 f i DXFOption.obj
 0001:000056f0       ?_Insert_node@?$_Tree_val@U?$_Tree_simple_types@U?$pair@$$CBHH@std@@@std@@@std@@QAEPAU?$_Tree_node@U?$pair@$$CBHH@std@@PAX@2@U?$_Tree_id@PAU?$_Tree_node@U?$pair@$$CBHH@std@@PAX@std@@@2@QAU32@@Z 004066f0 f i 3dModelView.obj
 0001:000056f0       ?_Insert_node@?$_Tree_val@U?$_Tree_simple_types@U?$pair@$$CBV?$basic_string@DU?$char_traits@D@std@@V?$allocator@D@2@@std@@I@std@@@std@@@std@@QAEPAU?$_Tree_node@U?$pair@$$CBV?$basic_string@DU?$char_traits@D@std@@V?$allocator@D@2@@std@@I@std@@PAX@2@U?$_Tree_id@PAU?$_Tree_node@U?$pair@$$CBV?$basic_string@DU?$char_traits@D@std@@V?$allocator@D@2@@std@@I@std@@PAX@std@@@2@QAU32@@Z 004066f0 f i DXFOption.obj
 0001:000058e0       ??1?$_Alloc_construct_ptr@V?$allocator@U?$_Tree_node@U?$pair@$$CBKV?$_List_iterator@V?$_List_val@U?$_List_simple_types@U?$pair@V?$shared_ptr@$$CBV?$w32_regex_traits_implementation@D@re_detail_500@boost@@@std@@PBK@std@@@std@@@std@@@std@@@std@@PAX@std@@@std@@@std@@QAE@XZ 004068e0 f i DXFOption.obj
 0001:000058e0       ??1?$_Alloc_construct_ptr@V?$allocator@U?$_Tree_node@U?$pair@$$CBHH@std@@PAX@std@@@std@@@std@@QAE@XZ 004068e0 f i 3dModelView.obj
 0001:00005900       ??$_Erase_tree@V?$allocator@U?$_Tree_node@U?$pair@$$CBHH@std@@PAX@std@@@std@@@?$_Tree_val@U?$_Tree_simple_types@U?$pair@$$CBHH@std@@@std@@@std@@QAEXAAV?$allocator@U?$_Tree_node@U?$pair@$$CBHH@std@@PAX@std@@@1@PAU?$_Tree_node@U?$pair@$$CBHH@std@@PAX@1@@Z 00406900 f i 3dModelView.obj
 0001:00005900       ??$_Erase_tree@V?$allocator@U?$_Tree_node@U?$pair@$$CBKV?$_List_iterator@V?$_List_val@U?$_List_simple_types@U?$pair@V?$shared_ptr@$$CBV?$w32_regex_traits_implementation@D@re_detail_500@boost@@@std@@PBK@std@@@std@@@std@@@std@@@std@@PAX@std@@@std@@@?$_Tree_val@U?$_Tree_simple_types@U?$pair@$$CBKV?$_List_iterator@V?$_List_val@U?$_List_simple_types@U?$pair@V?$shared_ptr@$$CBV?$w32_regex_traits_implementation@D@re_detail_500@boost@@@std@@PBK@std@@@std@@@std@@@std@@@std@@@std@@@std@@QAEXAAV?$allocator@U?$_Tree_node@U?$pair@$$CBKV?$_List_iterator@V?$_List_val@U?$_List_simple_types@U?$pair@V?$shared_ptr@$$CBV?$w32_regex_traits_implementation@D@re_detail_500@boost@@@std@@PBK@std@@@std@@@std@@@std@@@std@@PAX@std@@@1@PAU?$_Tree_node@U?$pair@$$CBKV?$_List_iterator@V?$_List_val@U?$_List_simple_types@U?$pair@V?$shared_ptr@$$CBV?$w32_regex_traits_implementation@D@re_detail_500@boost@@@std@@PBK@std@@@std@@@std@@@std@@@std@@PAX@1@@Z 00406900 f i DXFOption.obj
 0001:00005940       ?_Throw_tree_length_error@std@@YAXXZ 00406940 f i 3dModelView.obj
 0001:00005950       ??1CWaitCursor@@QAE@XZ     00406950 f i 3dModelView.obj
 0001:00005a60       _fabsf                     00406a60 f i 3dModelView.obj
 0001:00005a80       ?Read3dOption@C3dOption@@QAEHPBD@Z 00406a80 f   3dOption.obj
 0001:00005f10       ?Save3dOption@C3dOption@@QAEHXZ 00406f10 f   3dOption.obj
 0001:00006180       ??HATL@@YA?AV?$CStringT@DV?$StrTraitMFC_DLL@DV?$ChTraitsCRT@D@ATL@@@@@0@DABV10@@Z 00407180 f i 3dOption.obj
 0001:00006210       ??$lexical_cast@V?$basic_string@DU?$char_traits@D@std@@V?$allocator@D@2@@std@@H@boost@@YA?AV?$basic_string@DU?$char_traits@D@std@@V?$allocator@D@2@@std@@ABH@Z 00407210 f i 3dOption.obj
 0001:000062a0       ??$trim_copy_if@V?$basic_string@DU?$char_traits@D@std@@V?$allocator@D@2@@std@@Uis_classifiedF@detail@algorithm@boost@@@algorithm@boost@@YA?AV?$basic_string@DU?$char_traits@D@std@@V?$allocator@D@2@@std@@ABV23@Uis_classifiedF@detail@01@@Z 004072a0 f i 3dOption.obj
 0001:00006460       ??$throw_bad_cast@HV?$basic_string@DU?$char_traits@D@std@@V?$allocator@D@2@@std@@@detail@conversion@boost@@YAXXZ 00407460 f i 3dOption.obj
 0001:000064b0       ?try_convert@?$lexical_converter_impl@V?$basic_string@DU?$char_traits@D@std@@V?$allocator@D@2@@std@@H@detail@boost@@SA_NABHAAV?$basic_string@DU?$char_traits@D@std@@V?$allocator@D@2@@std@@@Z 004074b0 f i 3dOption.obj
 0001:00006550       ??$throw_exception@Vbad_lexical_cast@boost@@@boost@@YAXABVbad_lexical_cast@0@@Z 00407550 f i 3dOption.obj
 0001:00006570       ??1?$wrapexcept@Vbad_lexical_cast@boost@@@boost@@UAE@XZ 00407570 f i 3dOption.obj
 0001:00006570       ??1?$wrapexcept@Vtoo_few_args@io@boost@@@boost@@UAE@XZ 00407570 f i NCInfoView.obj
 0001:00006570       ??1?$wrapexcept@Vtoo_many_args@io@boost@@@boost@@UAE@XZ 00407570 f i NCInfoView.obj
 0001:00006570       ??1?$wrapexcept@Vbad_format_string@io@boost@@@boost@@UAE@XZ 00407570 f i NCInfoView.obj
 0001:00006570       ??1?$wrapexcept@Vregex_error@boost@@@boost@@UAE@XZ 00407570 f i DXFOption.obj
 0001:000065f0       ??0bad_lexical_cast@boost@@QAE@ABV01@@Z 004075f0 f i 3dOption.obj
 0001:00006630       ??0?$wrapexcept@Vbad_lexical_cast@boost@@@boost@@QAE@ABU01@@Z 00407630 f i 3dOption.obj
 0001:00006700       ??_E?$wrapexcept@Vtoo_many_args@io@boost@@@boost@@UAEPAXI@Z 00407700 f i * CIL library *:* CIL module *
 0001:00006700       ??_E?$wrapexcept@Vbad_format_string@io@boost@@@boost@@UAEPAXI@Z 00407700 f i * CIL library *:* CIL module *
 0001:00006700       ??_E?$wrapexcept@Vtoo_few_args@io@boost@@@boost@@UAEPAXI@Z 00407700 f i * CIL library *:* CIL module *
 0001:00006700       ??_G?$wrapexcept@Vtoo_few_args@io@boost@@@boost@@UAEPAXI@Z 00407700 f i NCInfoView.obj
 0001:00006700       ??_G?$wrapexcept@Vbad_lexical_cast@boost@@@boost@@UAEPAXI@Z 00407700 f i 3dOption.obj
 0001:00006700       ??_E?$wrapexcept@Vbad_lexical_cast@boost@@@boost@@UAEPAXI@Z 00407700 f i * CIL library *:* CIL module *
 0001:00006700       ??_E?$wrapexcept@Vregex_error@boost@@@boost@@UAEPAXI@Z 00407700 f i * CIL library *:* CIL module *
 0001:00006700       ??_G?$wrapexcept@Vtoo_many_args@io@boost@@@boost@@UAEPAXI@Z 00407700 f i NCInfoView.obj
 0001:00006700       ??_G?$wrapexcept@Vregex_error@boost@@@boost@@UAEPAXI@Z 00407700 f i DXFOption.obj
 0001:00006700       ??_G?$wrapexcept@Vbad_format_string@io@boost@@@boost@@UAEPAXI@Z 00407700 f i NCInfoView.obj
 0001:00006790       ?convert@?$lcast_put_unsigned@U?$char_traits@D@std@@ID@detail@boost@@QAEPADXZ 00407790 f i 3dOption.obj
 0001:00006990       ?rethrow@?$wrapexcept@Vbad_lexical_cast@boost@@@boost@@UBEXXZ 00407990 f i 3dOption.obj
 0001:000069b0       ?clone@?$wrapexcept@Vbad_lexical_cast@boost@@@boost@@UBEPBVclone_base@exception_detail@2@XZ 004079b0 f i 3dOption.obj
 0001:00006a40       ??0?$wrapexcept@Vbad_lexical_cast@boost@@@boost@@QAE@ABVbad_lexical_cast@1@@Z 00407a40 f i 3dOption.obj
 0001:00006ac0       ??1deleter@?$wrapexcept@Vtoo_many_args@io@boost@@@boost@@QAE@XZ 00407ac0 f i NCInfoView.obj
 0001:00006ac0       ??1deleter@?$wrapexcept@Vruntime_error@std@@@boost@@QAE@XZ 00407ac0 f i DXFOption.obj
 0001:00006ac0       ??1deleter@?$wrapexcept@Uescaped_list_error@boost@@@boost@@QAE@XZ 00407ac0 f i NCMakeOption.obj
 0001:00006ac0       ??1deleter@?$wrapexcept@Vbad_lexical_cast@boost@@@boost@@QAE@XZ 00407ac0 f i 3dOption.obj
 0001:00006ac0       ??1deleter@?$wrapexcept@Vlogic_error@std@@@boost@@QAE@XZ 00407ac0 f i NCDoc.obj
 0001:00006ac0       ??1deleter@?$wrapexcept@Vtoo_few_args@io@boost@@@boost@@QAE@XZ 00407ac0 f i NCInfoView.obj
 0001:00006ac0       ??1deleter@?$wrapexcept@Vbad_function_call@boost@@@boost@@QAE@XZ 00407ac0 f i MyTemplate.obj
 0001:00006ac0       ??1deleter@?$wrapexcept@Vregex_error@boost@@@boost@@QAE@XZ 00407ac0 f i DXFOption.obj
 0001:00006ac0       ??1deleter@?$wrapexcept@Vinvalid_argument@std@@@boost@@QAE@XZ 00407ac0 f i NCDoc.obj
 0001:00006ac0       ??1deleter@?$wrapexcept@Vbad_format_string@io@boost@@@boost@@QAE@XZ 00407ac0 f i NCInfoView.obj
 0001:00006ac0       ??1deleter@?$wrapexcept@Vbad_get@boost@@@boost@@QAE@XZ 00407ac0 f i DXFshape.obj
 0001:00006ace       ??_E?$wrapexcept@Vtoo_few_args@io@boost@@@boost@@WBI@AEPAXI@Z 00407ace f i NCInfoView.obj
 0001:00006ace       ??_E?$wrapexcept@Vtoo_many_args@io@boost@@@boost@@WBI@AEPAXI@Z 00407ace f i NCInfoView.obj
 0001:00006ace       ??_E?$wrapexcept@Vbad_format_string@io@boost@@@boost@@WBI@AEPAXI@Z 00407ace f i NCInfoView.obj
 0001:00006ace       ??_E?$wrapexcept@Vbad_lexical_cast@boost@@@boost@@WBI@AEPAXI@Z 00407ace f i 3dOption.obj
 0001:00006ace       ??_E?$wrapexcept@Vregex_error@boost@@@boost@@WBI@AEPAXI@Z 00407ace f i DXFOption.obj
 0001:00006ad6       ??_E?$wrapexcept@Vregex_error@boost@@@boost@@W3AEPAXI@Z 00407ad6 f i DXFOption.obj
 0001:00006ad6       ??_E?$wrapexcept@Vbad_format_string@io@boost@@@boost@@W3AEPAXI@Z 00407ad6 f i NCInfoView.obj
 0001:00006ad6       ??_E?$wrapexcept@Vbad_lexical_cast@boost@@@boost@@W3AEPAXI@Z 00407ad6 f i 3dOption.obj
 0001:00006ad6       ??_E?$wrapexcept@Vtoo_many_args@io@boost@@@boost@@W3AEPAXI@Z 00407ad6 f i NCInfoView.obj
 0001:00006ad6       ??_E?$wrapexcept@Vtoo_few_args@io@boost@@@boost@@W3AEPAXI@Z 00407ad6 f i NCInfoView.obj
 0001:00006ae0       ??$use_facet@V?$ctype@D@std@@@std@@YAABV?$ctype@D@0@ABVlocale@0@@Z 00407ae0 f i 3dOption.obj
 0001:00006bd0       ?copy_boost_exception@exception_detail@boost@@YAXPAVexception@2@PBV32@@Z 00407bd0 f i 3dOption.obj
 0001:00006c90       ?size@?$basic_string@DU?$char_traits@D@std@@V?$allocator@D@2@@std@@QBEIXZ 00407c90 f i 3dOption.obj
 0001:00006ca0       ??_G?$numpunct@D@std@@MAEPAXI@Z 00407ca0 f i 3dOption.obj
 0001:00006ca0       ??_E?$numpunct@D@std@@MAEPAXI@Z 00407ca0 f i * CIL library *:* CIL module *
 0001:00006cf0       ?do_decimal_point@?$numpunct@D@std@@MBEDXZ 00407cf0 f i 3dOption.obj
 0001:00006d00       ?do_thousands_sep@?$numpunct@D@std@@MBEDXZ 00407d00 f i 3dOption.obj
 0001:00006d10       ?do_grouping@?$numpunct@D@std@@MBE?AV?$basic_string@DU?$char_traits@D@std@@V?$allocator@D@2@@2@XZ 00407d10 f i 3dOption.obj
 0001:00006d60       ?do_falsename@?$numpunct@D@std@@MBE?AV?$basic_string@DU?$char_traits@D@std@@V?$allocator@D@2@@2@XZ 00407d60 f i 3dOption.obj
 0001:00006db0       ?do_truename@?$numpunct@D@std@@MBE?AV?$basic_string@DU?$char_traits@D@std@@V?$allocator@D@2@@2@XZ 00407db0 f i 3dOption.obj
 0001:00006e00       ??1?$_Tidy_guard@V?$numpunct@D@std@@@std@@QAE@XZ 00407e00 f i 3dOption.obj
 0001:00006e30       ?_Getcat@?$numpunct@D@std@@SAIPAPBVfacet@locale@2@PBV42@@Z 00407e30 f i 3dOption.obj
 0001:00007030       ?_Throw_bad_cast@std@@YAXXZ 00408030 f i 3dOption.obj
 0001:00007050       ??1?$unique_ptr@V_Facet_base@std@@U?$default_delete@V_Facet_base@std@@@2@@std@@QAE@XZ 00408050 f i 3dOption.obj
 0001:00007060       ??$use_facet@V?$numpunct@D@std@@@std@@YAABV?$numpunct@D@0@ABVlocale@0@@Z 00408060 f i 3dOption.obj
 0001:00007150       ??$_Traits_compare@U?$char_traits@D@std@@@std@@YAHQBDI0I@Z 00408150 f i 3dOption.obj
 0001:000071d0       ?name@locale@std@@QBE?AV?$basic_string@DU?$char_traits@D@std@@V?$allocator@D@2@@2@XZ 004081d0 f i 3dOption.obj
 0001:00007320       ??8locale@std@@QBE_NABV01@@Z 00408320 f i 3dOption.obj
 0001:000074f0       ??1clone_base@exception_detail@boost@@UAE@XZ 004084f0 f i 3dOption.obj
 0001:00007500       ??1?$refcount_ptr@Uerror_info_container@exception_detail@boost@@@exception_detail@boost@@QAE@XZ 00408500 f i 3dOption.obj
 0001:00007560       ??0exception@boost@@QAE@ABV01@@Z 00408560 f i 3dOption.obj
 0001:000075a0       ??_Eclone_base@exception_detail@boost@@UAEPAXI@Z 004085a0 f i * CIL library *:* CIL module *
 0001:000075a0       ??_Gclone_base@exception_detail@boost@@UAEPAXI@Z 004085a0 f i 3dOption.obj
 0001:000075d0       ??0clone_base@exception_detail@boost@@QAE@ABV012@@Z 004085d0 f i 3dOption.obj
 0001:000075e0       ??0bad_cast@std@@QAE@ABV01@@Z 004085e0 f i 3dOption.obj
 0001:00007620       ??0bad_cast@std@@QAE@XZ    00408620 f i 3dOption.obj
 0001:00007640       ??_Eregex_error@boost@@UAEPAXI@Z 00408640 f i * CIL library *:* CIL module *
 0001:00007640       ??_Gbad_format_string@io@boost@@UAEPAXI@Z 00408640 f i NCInfoView.obj
 0001:00007640       ??_Etoo_many_args@io@boost@@UAEPAXI@Z 00408640 f i * CIL library *:* CIL module *
 0001:00007640       ??_Gregex_error@boost@@UAEPAXI@Z 00408640 f i DXFOption.obj
 0001:00007640       ??_Gtoo_few_args@io@boost@@UAEPAXI@Z 00408640 f i NCInfoView.obj
 0001:00007640       ??_Ebad_lexical_cast@boost@@UAEPAXI@Z 00408640 f i * CIL library *:* CIL module *
 0001:00007640       ??_Gbad_lexical_cast@boost@@UAEPAXI@Z 00408640 f i 3dOption.obj
 0001:00007640       ??_Etoo_few_args@io@boost@@UAEPAXI@Z 00408640 f i * CIL library *:* CIL module *
 0001:00007640       ??_Ebad_format_string@io@boost@@UAEPAXI@Z 00408640 f i * CIL library *:* CIL module *
 0001:00007640       ??_Gtoo_many_args@io@boost@@UAEPAXI@Z 00408640 f i NCInfoView.obj
 0001:00007670       ?what@bad_lexical_cast@boost@@UBEPBDXZ 00408670 f i 3dOption.obj
 0001:00007680       ??0bad_lexical_cast@boost@@QAE@ABVtype_info@@0@Z 00408680 f i 3dOption.obj
 0001:000076b0       ??1is_classifiedF@detail@algorithm@boost@@QAE@XZ 004086b0 f i 3dOption.obj
 0001:000076d0       ??1?$basic_string@DU?$char_traits@D@std@@V?$allocator@D@2@@std@@QAE@XZ 004086d0 f i 3dOption.obj
 0001:00007720       ?_Xlen_string@std@@YAXXZ   00408720 f i 3dOption.obj
 0001:00007730       ?allocate@?$allocator@D@std@@QAEPADI@Z 00408730 f i 3dOption.obj
 0001:00007780       ?assign@?$basic_string@DU?$char_traits@D@std@@V?$allocator@D@2@@std@@QAEAAV12@QBDI@Z 00408780 f i 3dOption.obj
 0001:00007870       ??0?$basic_string@DU?$char_traits@D@std@@V?$allocator@D@2@@std@@QAE@QBD@Z 00408870 f i 3dOption.obj
 0001:000078b0       ??1locale@std@@QAE@XZ      004088b0 f i 3dOption.obj
 0001:000078d0       ?c_str@?$basic_string@DU?$char_traits@D@std@@V?$allocator@D@2@@std@@QBEPBDXZ 004088d0 f i 3dOption.obj
 0001:000078e0       ??_GC3dRoughScanSetupDlg@@UAEPAXI@Z 004088e0 f i 3dRoughScanSetupDlg.obj
 0001:000078e0       ??_EC3dRoughScanSetupDlg@@UAEPAXI@Z 004088e0 f i * CIL library *:* CIL module *
 0001:00007920       ?DoDataExchange@C3dRoughScanSetupDlg@@MAEXPAVCDataExchange@@@Z 00408920 f   3dRoughScanSetupDlg.obj
 0001:000079a0       ?OnInitDialog@C3dRoughScanSetupDlg@@MAEHXZ 004089a0 f   3dRoughScanSetupDlg.obj
 0001:00007a40       ?OnOK@C3dRoughScanSetupDlg@@MAEXXZ 00408a40 f   3dRoughScanSetupDlg.obj
 0001:00007e40       ?GetMessageMap@CDxfAutoPocketgDlg@@MBEPBUAFX_MSGMAP@@XZ 00408e40 f   DxfAutoPocketDlg.obj
 0001:00007e40       ?GetMessageMap@CDxfAutoOutlineDlg@@MBEPBUAFX_MSGMAP@@XZ 00408e40 f   DxfAutoOutlineDlg.obj
 0001:00007e50       ??_ECDxfAutoOutlineDlg@@UAEPAXI@Z 00408e50 f i * CIL library *:* CIL module *
 0001:00007e50       ??_GCDxfAutoOutlineDlg@@UAEPAXI@Z 00408e50 f i DxfAutoOutlineDlg.obj
 0001:00007e90       ??1CDxfAutoOutlineDlg@@UAE@XZ 00408e90 f i DxfAutoOutlineDlg.obj
 0001:00007f00       ??1CDialogEx@@UAE@XZ       00408f00 f i DxfAutoOutlineDlg.obj
 0001:00007f30       ?DoDataExchange@CDxfAutoOutlineDlg@@MAEXPAVCDataExchange@@@Z 00408f30 f   DxfAutoOutlineDlg.obj
 0001:00007f90       ?OnInitDialog@CDxfAutoOutlineDlg@@MAEHXZ 00408f90 f   DxfAutoOutlineDlg.obj
 0001:00008000       ?OnOK@CDxfAutoOutlineDlg@@MAEXXZ 00409000 f   DxfAutoOutlineDlg.obj
 0001:000082c0       ??_ECBrush@@UAEPAXI@Z      004092c0 f i * CIL library *:* CIL module *
 0001:000082c0       ??_GCBrush@@UAEPAXI@Z      004092c0 f i DxfAutoOutlineDlg.obj
 0001:00008300       ??_GCGdiObject@@UAEPAXI@Z  00409300 f i DxfAutoOutlineDlg.obj
 0001:00008300       ??_ECGdiObject@@UAEPAXI@Z  00409300 f i * CIL library *:* CIL module *
 0001:00008340       ??1CGdiObject@@UAE@XZ      00409340 f i DxfAutoOutlineDlg.obj
 0001:00008440       ??1CBrush@@UAE@XZ          00409440 f i DxfAutoOutlineDlg.obj
 0001:00008450       ?GetMessageMap@CDxfSetup3@@MBEPBUAFX_MSGMAP@@XZ 00409450 f   DxfSetup3.obj
 0001:00008460       ??_GCDxfSetup3@@UAEPAXI@Z  00409460 f i DxfSetup3.obj
 0001:00008460       ??_ECDxfSetup3@@UAEPAXI@Z  00409460 f i * CIL library *:* CIL module *
 0001:000084d0       ??1CDxfSetup3@@UAE@XZ      004094d0 f i DxfSetup3.obj
 0001:00008510       ?DoDataExchange@CDxfSetup3@@MAEXPAVCDataExchange@@@Z 00409510 f   DxfSetup3.obj
 0001:00008560       ?OnInitDialog@CDxfSetup3@@MAEHXZ 00409560 f   DxfSetup3.obj
 0001:00008620       ?OnSetActive@CDxfSetup3@@UAEHXZ 00409620 f   DxfSetup3.obj
 0001:00008650       ?OnApply@CDxfSetup3@@UAEHXZ 00409650 f   DxfSetup3.obj
 0001:00008700       ?OnKillActive@CDxfSetup3@@UAEHXZ 00409700 f   DxfSetup3.obj
 0001:000087f0       ?OnReload@CDxfSetup3@@IAEXXZ 004097f0 f   DxfSetup3.obj
 0001:00008880       ??_ECButton@@UAEPAXI@Z     00409880 f i * CIL library *:* CIL module *
 0001:00008880       ??_GCButton@@UAEPAXI@Z     00409880 f i DxfSetup3.obj
 0001:000088c0       ??0CButton@@QAE@XZ         004098c0 f i DxfSetup3.obj
 0001:000088e0       ?_GetBaseClass@CMakeLatheSetup@@KGPAUCRuntimeClass@@XZ 004098e0 f   MakeLatheSetup.obj
 0001:000088e0       ?_GetBaseClass@CNCWorkDlg@@KGPAUCRuntimeClass@@XZ 004098e0 f   NCWorkDlg.obj
 0001:000088e0       ?_GetBaseClass@CMakeNurbsSetup@@KGPAUCRuntimeClass@@XZ 004098e0 f   MakeNurbsSetup.obj
 0001:000088e0       ?_GetBaseClass@CMakeNCSetup@@KGPAUCRuntimeClass@@XZ 004098e0 f   MakeNCSetup.obj
 0001:000088e0       ?_GetBaseClass@CMakeWireSetup@@KGPAUCRuntimeClass@@XZ 004098e0 f   MakeWireSetup.obj
 0001:000088f0       ?GetRuntimeClass@CMakeNurbsSetup@@UBEPAUCRuntimeClass@@XZ 004098f0 f   MakeNurbsSetup.obj
 0001:00008900       ?GetMessageMap@CMakeNurbsSetup@@MBEPBUAFX_MSGMAP@@XZ 00409900 f   MakeNurbsSetup.obj
 0001:00008910       ??0CMakeNurbsSetup@@QAE@PBD0@Z 00409910 f   MakeNurbsSetup.obj
 0001:00008a90       ??_GCMakeNurbsSetup@@UAEPAXI@Z 00409a90 f i MakeNurbsSetup.obj
 0001:00008a90       ??_ECMakeNurbsSetup@@UAEPAXI@Z 00409a90 f i * CIL library *:* CIL module *
 0001:00008b10       ??1CMakeNCSetup1@@UAE@XZ   00409b10 f i MakeNurbsSetup.obj
 0001:00008c20       ??1CMakeNCSetup2@@UAE@XZ   00409c20 f i MakeNurbsSetup.obj
 0001:00008ca0       ??1CMakeNCSetup6@@UAE@XZ   00409ca0 f i MakeNurbsSetup.obj
 0001:00008d00       ??1CMakeNurbsSetup@@UAE@XZ 00409d00 f   MakeNurbsSetup.obj
 0001:00008d50       ?OnInitDialog@CMakeLatheSetup@@MAEHXZ 00409d50 f   MakeLatheSetup.obj
 0001:00008d50       ?OnInitDialog@CMakeNurbsSetup@@UAEHXZ 00409d50 f   MakeNurbsSetup.obj
 0001:00008d50       ?OnInitDialog@CMakeWireSetup@@MAEHXZ 00409d50 f   MakeWireSetup.obj
 0001:00008d50       ?OnInitDialog@CMakeNCSetup@@UAEHXZ 00409d50 f   MakeNCSetup.obj
 0001:00008e10       ?OnDestroy@CMakeNurbsSetup@@IAEXXZ 00409e10 f   MakeNurbsSetup.obj
 0001:00008e30       ?OnApplyNow@CMakeNurbsSetup@@IAEXXZ 00409e30 f   MakeNurbsSetup.obj
 0001:00008e30       ?OnApplyNow@CMakeNCSetup@@IAEXXZ 00409e30 f   MakeNCSetup.obj
 0001:00009040       ?IsMakeTarget@CDXFpoint@@UBEHXZ 0040a040 f i DXFdata.obj
 0001:00009040       ?IsMakeTarget@CDXFpolyline@@UBEHXZ 0040a040 f i DXFdata.obj
 0001:00009040       ?IsStartEqEnd@CDXFpoint@@UBEHXZ 0040a040 f i DXFdata.obj
 0001:00009040       ?CanAddPageToDynamicLayout@CPropertySheet@@MBEHXZ 0040a040 f i MakeNurbsSetup.obj
 0001:00009040       ?IsStartEqEnd@CDXFcircle@@UBEHXZ 0040a040 f i DXFdata.obj
 0001:00009050       ?OnWorkspaceIdle@CWinAppEx@@UAEHPAVCWnd@@@Z 0040a050 f i NCVC.obj
 0001:00009050       ?IsLeftNavigationPane@CPropertySheet@@MBEHPAUHWND__@@@Z 0040a050 f i MakeNurbsSetup.obj
 0001:00009050       ?_Get_deleter@_Ref_count_base@std@@UBEPAXABVtype_info@@@Z 0040a050 f i DXFOption.obj
 0001:00009060       ??HATL@@YA?AV?$CStringT@DV?$StrTraitMFC_DLL@DV?$ChTraitsCRT@D@ATL@@@@@0@ABV10@0@Z 0040a060 f i MakeNurbsSetup.obj
 0001:000090e0       ??HATL@@YA?AV?$CStringT@DV?$StrTraitMFC_DLL@DV?$ChTraitsCRT@D@ATL@@@@@0@ABV10@PBD@Z 0040a0e0 f i MakeNurbsSetup.obj
 0001:00009180       ?AddDialogTitle2File@@YA?AV?$CStringT@DV?$StrTraitMFC_DLL@DV?$ChTraitsCRT@D@ATL@@@@@ATL@@ABV12@0@Z 0040a180 f i MakeNurbsSetup.obj
 0001:00009290       ??1?$function@$$A6AXPBVCDXFdata@@@Z@boost@@QAE@XZ 0040a290 f i TH_MakeNCD.obj
 0001:00009290       ??1?$function@$$A6A_NAAV?$_String_iterator@V?$_String_val@U?$_Simple_types@D@std@@@std@@@std@@ABV12@AAU?$context@U?$cons@AAV?$basic_string@DU?$char_traits@D@std@@V?$allocator@D@2@@std@@Unil_@fusion@boost@@@fusion@boost@@U?$vector@$$V@23@@spirit@boost@@ABU?$reference@$$CBU?$rule@V?$_String_iterator@V?$_String_val@U?$_Simple_types@D@std@@@std@@@std@@Uunused_type@spirit@boost@@U345@U345@U345@@qi@spirit@boost@@@qi@45@@Z@boost@@QAE@XZ 0040a290 f i TH_NCRead.obj
 0001:00009290       ??1?$function@$$A6AHXZ@boost@@QAE@XZ 0040a290 f i TH_NCRead.obj
 0001:00009290       ??1?$function@$$A6AXPBVCLayerData@@PAX@Z@boost@@QAE@XZ 0040a290 f i TH_AutoWorkingSet.obj
 0001:00009290       ??1?$function@$$A6APAVCDXFdata@@HH@Z@boost@@QAE@XZ 0040a290 f i TH_MakeNCD.obj
 0001:00009290       ??1?$function@$$A6A_NAAV?$_String_iterator@V?$_String_val@U?$_Simple_types@D@std@@@std@@@std@@ABV12@AAU?$context@U?$cons@AAUunused_type@spirit@boost@@Unil_@fusion@3@@fusion@boost@@U?$vector@$$V@23@@spirit@boost@@ABUunused_type@45@@Z@boost@@QAE@XZ 0040a290 f i TH_NCRead.obj
 0001:00009290       ??1?$function@$$A6A_NAAV?$_String_iterator@V?$_String_val@U?$_Simple_types@D@std@@@std@@@std@@ABV12@AAU?$context@U?$cons@AAUunused_type@spirit@boost@@Unil_@fusion@3@@fusion@boost@@U?$vector@$$V@23@@spirit@boost@@ABU?$reference@$$CBU?$rule@V?$_String_iterator@V?$_String_val@U?$_Simple_types@D@std@@@std@@@std@@Uunused_type@spirit@boost@@U345@U345@U345@@qi@spirit@boost@@@qi@45@@Z@boost@@QAE@XZ 0040a290 f i TH_NCRead.obj
 0001:00009290       ??1?$function@$$A6APAVCDXFworkingOutline@@PAVCDXFshape@@H@Z@boost@@QAE@XZ 0040a290 f i TH_AutoWorkingSet.obj
 0001:00009290       ??1?$function@$$A6AMM@Z@boost@@QAE@XZ 0040a290 f i MyTemplate.obj
 0001:00009290       ??1?$function@$$A6AMABV?$basic_string@DU?$char_traits@D@std@@V?$allocator@D@2@@std@@@Z@boost@@QAE@XZ 0040a290 f i TH_NCRead.obj
 0001:00009290       ??1?$function@$$A6AXXZ@boost@@QAE@XZ 0040a290 f i TH_MakeNCD.obj
 0001:00009290       ??1?$function@$$A6AHH@Z@boost@@QAE@XZ 0040a290 f i TH_NCRead.obj
 0001:00009290       ??1?$function@$$A6AHABV?$basic_string@DU?$char_traits@D@std@@V?$allocator@D@2@@std@@PAVCNCblock@@@Z@boost@@QAE@XZ 0040a290 f i TH_NCRead.obj
 0001:00009290       ??1?$function@$$A6AMPBVCNCdata@@@Z@boost@@QAE@XZ 0040a290 f i TH_Cuttime.obj
 0001:00009290       ??1?$function@$$A6A?AW4ENGCODEOBJ@@H@Z@boost@@QAE@XZ 0040a290 f i TH_NCRead.obj
 0001:00009300       ?SetDecimal3@DECIMALPOINT@@QAEXXZ 0040a300 f   MyTemplate.obj
 0001:00009370       ?SetDecimal4@DECIMALPOINT@@QAEXXZ 0040a370 f   MyTemplate.obj
 0001:000093e0       ?CalcIntersectionPoint_LL@@YA?AV?$optional@V?$CPointT@M@@@boost@@ABV?$CPointT@M@@000H@Z 0040a3e0 f   MyTemplate.obj
 0001:0000a230       ??1?$optional@V?$CPointT@M@@@boost@@QAE@XZ 0040b230 f i MyTemplate.obj
 0001:0000a240       ?CalcIntersectionPoint_LC@@YA?AV?$tuple@HV?$CPointT@M@@V1@Unull_type@tuples@boost@@U234@U234@U234@U234@U234@U234@@tuples@boost@@ABV?$CPointT@M@@00MH@Z 0040b240 f   MyTemplate.obj
 0001:0000a610       ?CalcIntersectionPoint_CC@@YA?AV?$tuple@HV?$CPointT@M@@V1@Unull_type@tuples@boost@@U234@U234@U234@U234@U234@U234@@tuples@boost@@ABV?$CPointT@M@@0MM@Z 0040b610 f   MyTemplate.obj
 0001:0000aac0       ?CalcIntersectionPoint_LE@@YA?AV?$tuple@HV?$CPointT@M@@V1@Unull_type@tuples@boost@@U234@U234@U234@U234@U234@U234@@tuples@boost@@ABV?$CPointT@M@@00MMMH@Z 0040bac0 f   MyTemplate.obj
 0001:0000b2a0       ?CalcIntersectionPoint_TC@@YA?AV?$CPointT@M@@ABV1@M0@Z 0040c2a0 f   MyTemplate.obj
 0001:0000b410       ?CalcOffsetLine@@YA?AV?$tuple@V?$CPointT@M@@V1@Unull_type@tuples@boost@@U234@U234@U234@U234@U234@U234@U234@@tuples@boost@@ABV?$CPointT@M@@0MH@Z 0040c410 f   MyTemplate.obj
 0001:0000b510       ?CalcOffsetIntersectionPoint_LL@@YA?AV?$optional@V?$CPointT@M@@@boost@@ABV?$CPointT@M@@0MMH@Z 0040c510 f   MyTemplate.obj
 0001:0000b5c0       ?CalcOffsetIntersectionPoint_LC@@YA?AV?$optional@V?$CPointT@M@@@boost@@ABV?$CPointT@M@@0MMMHH@Z 0040c5c0 f   MyTemplate.obj
 0001:0000b730       ?CalcOffsetIntersectionPoint_LE@@YA?AV?$optional@V?$CPointT@M@@@boost@@ABV?$CPointT@M@@0MMMMHH@Z 0040c730 f   MyTemplate.obj
 0001:0000b8b0       ??1?$function4@_NAAV?$_String_iterator@V?$_String_val@U?$_Simple_types@D@std@@@std@@@std@@ABV12@AAU?$context@U?$cons@AAUunused_type@spirit@boost@@Unil_@fusion@3@@fusion@boost@@U?$vector@$$V@23@@spirit@boost@@ABU?$reference@$$CBU?$rule@V?$_String_iterator@V?$_String_val@U?$_Simple_types@D@std@@@std@@@std@@Uunused_type@spirit@boost@@U345@U345@U345@@qi@spirit@boost@@@qi@45@@boost@@QAE@XZ 0040c8b0 f i TH_NCRead.obj
 0001:0000b8b0       ??1?$function4@_NAAV?$_String_iterator@V?$_String_val@U?$_Simple_types@D@std@@@std@@@std@@ABV12@AAU?$context@U?$cons@AAUunused_type@spirit@boost@@Unil_@fusion@3@@fusion@boost@@U?$vector@$$V@23@@spirit@boost@@ABUunused_type@45@@boost@@QAE@XZ 0040c8b0 f i TH_NCRead.obj
 0001:0000b8b0       ??1?$function2@XPBVCLayerData@@PAX@boost@@QAE@XZ 0040c8b0 f i TH_AutoWorkingSet.obj
 0001:0000b8b0       ??1?$function1@W4ENGCODEOBJ@@H@boost@@QAE@XZ 0040c8b0 f i TH_NCRead.obj
 0001:0000b8b0       ??1?$function1@MABV?$basic_string@DU?$char_traits@D@std@@V?$allocator@D@2@@std@@@boost@@QAE@XZ 0040c8b0 f i TH_NCRead.obj
 0001:0000b8b0       ??1?$function1@MM@boost@@QAE@XZ 0040c8b0 f i MyTemplate.obj
 0001:0000b8b0       ??1?$function1@XPBVCDXFdata@@@boost@@QAE@XZ 0040c8b0 f i TH_MakeNCD.obj
 0001:0000b8b0       ??1?$function4@_NAAV?$_String_iterator@V?$_String_val@U?$_Simple_types@D@std@@@std@@@std@@ABV12@AAU?$context@U?$cons@AAV?$basic_string@DU?$char_traits@D@std@@V?$allocator@D@2@@std@@Unil_@fusion@boost@@@fusion@boost@@U?$vector@$$V@23@@spirit@boost@@ABU?$reference@$$CBU?$rule@V?$_String_iterator@V?$_String_val@U?$_Simple_types@D@std@@@std@@@std@@Uunused_type@spirit@boost@@U345@U345@U345@@qi@spirit@boost@@@qi@45@@boost@@QAE@XZ 0040c8b0 f i TH_NCRead.obj
 0001:0000b8b0       ??1?$function0@X@boost@@QAE@XZ 0040c8b0 f i TH_MakeNCD.obj
 0001:0000b8b0       ??1?$function1@HH@boost@@QAE@XZ 0040c8b0 f i TH_NCRead.obj
 0001:0000b8b0       ??1?$function2@PAVCDXFdata@@HH@boost@@QAE@XZ 0040c8b0 f i TH_MakeNCD.obj
 0001:0000b8b0       ??1?$function0@H@boost@@QAE@XZ 0040c8b0 f i TH_NCRead.obj
 0001:0000b8b0       ??1?$function2@HABV?$basic_string@DU?$char_traits@D@std@@V?$allocator@D@2@@std@@PAVCNCblock@@@boost@@QAE@XZ 0040c8b0 f i TH_NCRead.obj
 0001:0000b8b0       ??1?$function2@PAVCDXFworkingOutline@@PAVCDXFshape@@H@boost@@QAE@XZ 0040c8b0 f i TH_AutoWorkingSet.obj
 0001:0000b910       ??$?4V?$bind_t@MV?$mf1@MVDECIMALPOINT@@M@_mfi@boost@@V?$list2@V?$value@VDECIMALPOINT@@@_bi@boost@@U?$arg@$00@3@@_bi@3@@_bi@boost@@@?$function@$$A6AMM@Z@boost@@QAEAAV01@V?$bind_t@MV?$mf1@MVDECIMALPOINT@@M@_mfi@boost@@V?$list2@V?$value@VDECIMALPOINT@@@_bi@boost@@U?$arg@$00@3@@_bi@3@@_bi@1@@Z 0040c910 f i MyTemplate.obj
 0001:0000ba20       ?move_assign@?$function4@_NAAV?$_String_iterator@V?$_String_val@U?$_Simple_types@D@std@@@std@@@std@@ABV12@AAU?$context@U?$cons@AAUunused_type@spirit@boost@@Unil_@fusion@3@@fusion@boost@@U?$vector@$$V@23@@spirit@boost@@ABUunused_type@45@@boost@@AAEXAAV12@@Z 0040ca20 f i TH_NCRead.obj
 0001:0000ba20       ?move_assign@?$function1@W4ENGCODEOBJ@@H@boost@@AAEXAAV12@@Z 0040ca20 f i TH_NCRead.obj
 0001:0000ba20       ?move_assign@?$function0@H@boost@@AAEXAAV12@@Z 0040ca20 f i TH_NCRead.obj
 0001:0000ba20       ?move_assign@?$function2@XPBVCLayerData@@PAX@boost@@AAEXAAV12@@Z 0040ca20 f i TH_AutoWorkingSet.obj
 0001:0000ba20       ?move_assign@?$function1@HH@boost@@AAEXAAV12@@Z 0040ca20 f i TH_NCRead.obj
 0001:0000ba20       ?move_assign@?$function4@_NAAV?$_String_iterator@V?$_String_val@U?$_Simple_types@D@std@@@std@@@std@@ABV12@AAU?$context@U?$cons@AAV?$basic_string@DU?$char_traits@D@std@@V?$allocator@D@2@@std@@Unil_@fusion@boost@@@fusion@boost@@U?$vector@$$V@23@@spirit@boost@@ABU?$reference@$$CBU?$rule@V?$_String_iterator@V?$_String_val@U?$_Simple_types@D@std@@@std@@@std@@Uunused_type@spirit@boost@@U345@U345@U345@@qi@spirit@boost@@@qi@45@@boost@@AAEXAAV12@@Z 0040ca20 f i TH_NCRead.obj
 0001:0000ba20       ?move_assign@?$function1@MABV?$basic_string@DU?$char_traits@D@std@@V?$allocator@D@2@@std@@@boost@@AAEXAAV12@@Z 0040ca20 f i TH_NCRead.obj
 0001:0000ba20       ?move_assign@?$function2@HABV?$basic_string@DU?$char_traits@D@std@@V?$allocator@D@2@@std@@PAVCNCblock@@@boost@@AAEXAAV12@@Z 0040ca20 f i TH_NCRead.obj
 0001:0000ba20       ?move_assign@?$function4@_NAAV?$_String_iterator@V?$_String_val@U?$_Simple_types@D@std@@@std@@@std@@ABV12@AAU?$context@U?$cons@AAUunused_type@spirit@boost@@Unil_@fusion@3@@fusion@boost@@U?$vector@$$V@23@@spirit@boost@@ABU?$reference@$$CBU?$rule@V?$_String_iterator@V?$_String_val@U?$_Simple_types@D@std@@@std@@@std@@Uunused_type@spirit@boost@@U345@U345@U345@@qi@spirit@boost@@@qi@45@@boost@@AAEXAAV12@@Z 0040ca20 f i TH_NCRead.obj
 0001:0000ba20       ?move_assign@?$function1@XPBVCDXFdata@@@boost@@AAEXAAV12@@Z 0040ca20 f i TH_MakeNCD.obj
 0001:0000ba20       ?move_assign@?$function2@PAVCDXFworkingOutline@@PAVCDXFshape@@H@boost@@AAEXAAV12@@Z 0040ca20 f i TH_AutoWorkingSet.obj
 0001:0000ba20       ?move_assign@?$function2@PAVCDXFdata@@HH@boost@@AAEXAAV12@@Z 0040ca20 f i TH_MakeNCD.obj
 0001:0000ba20       ?move_assign@?$function1@MM@boost@@AAEXAAV12@@Z 0040ca20 f i MyTemplate.obj
 0001:0000ba20       ?move_assign@?$function0@X@boost@@AAEXAAV12@@Z 0040ca20 f i TH_MakeNCD.obj
 0001:0000bb20       ?invoke@?$function_obj_invoker1@V?$bind_t@MV?$mf1@MVDECIMALPOINT@@M@_mfi@boost@@V?$list2@V?$value@VDECIMALPOINT@@@_bi@boost@@U?$arg@$00@3@@_bi@3@@_bi@boost@@MM@function@detail@boost@@SAMAATfunction_buffer@234@M@Z 0040cb20 f i MyTemplate.obj
 0001:0000bb40       ?manage@?$functor_manager@V?$bind_t@MV?$mf1@MVDECIMALPOINT@@M@_mfi@boost@@V?$list2@V?$value@VDECIMALPOINT@@@_bi@boost@@U?$arg@$00@3@@_bi@3@@_bi@boost@@@function@detail@boost@@SAXABTfunction_buffer@234@AAT5234@W4functor_manager_operation_type@234@@Z 0040cb40 f i MyTemplate.obj
 0001:0000bbb0       ?find_restart_lit@?$perl_matcher@PBDV?$allocator@U?$sub_match@PBD@boost@@@std@@U?$regex_traits@DV?$w32_regex_traits@D@boost@@@boost@@@re_detail_500@boost@@AAE_NXZ 0040cbb0 f i NCDoc.obj
 0001:0000bbb0       ?has_empty_target@function@detail@boost@@YA_NZZ 0040cbb0 f i MyTemplate.obj
 0001:0000bbb0       ?find_restart_lit@?$perl_matcher@V?$_String_const_iterator@V?$_String_val@U?$_Simple_types@D@std@@@std@@@std@@V?$allocator@U?$sub_match@V?$_String_const_iterator@V?$_String_val@U?$_Simple_types@D@std@@@std@@@std@@@boost@@@2@U?$regex_traits@DV?$w32_regex_traits@D@boost@@@boost@@@re_detail_500@boost@@AAE_NXZ 0040cbb0 f i NCDoc.obj
 0001:0000bbb0       ?match_fail@?$perl_matcher@V?$_String_const_iterator@V?$_String_val@U?$_Simple_types@D@std@@@std@@@std@@V?$allocator@U?$sub_match@V?$_String_const_iterator@V?$_String_val@U?$_Simple_types@D@std@@@std@@@std@@@boost@@@2@U?$regex_traits@DV?$w32_regex_traits@D@boost@@@boost@@@re_detail_500@boost@@AAE_NXZ 0040cbb0 f i NCDoc.obj
 0001:0000bbb0       ?match_fail@?$perl_matcher@PBDV?$allocator@U?$sub_match@PBD@boost@@@std@@U?$regex_traits@DV?$w32_regex_traits@D@boost@@@boost@@@re_detail_500@boost@@AAE_NXZ 0040cbb0 f i NCDoc.obj
 0001:0000bbc0       _sinf                      0040cbc0 f i MyTemplate.obj
 0001:0000bbe0       _cosf                      0040cbe0 f i MyTemplate.obj
 0001:0000bc00       _atan2f                    0040cc00 f i MyTemplate.obj
 0001:0000bc40       _sqrtf                     0040cc40 f i MyTemplate.obj
 0001:0000bc70       ??0?$wrapexcept@Vbad_function_call@boost@@@boost@@QAE@ABVbad_function_call@1@@Z 0040cc70 f i MyTemplate.obj
 0001:0000bce0       ??1?$wrapexcept@Vinvalid_argument@std@@@boost@@UAE@XZ 0040cce0 f i NCDoc.obj
 0001:0000bce0       ??1?$wrapexcept@Vruntime_error@std@@@boost@@UAE@XZ 0040cce0 f i DXFOption.obj
 0001:0000bce0       ??1?$wrapexcept@Vlogic_error@std@@@boost@@UAE@XZ 0040cce0 f i NCDoc.obj
 0001:0000bce0       ??1?$wrapexcept@Vbad_function_call@boost@@@boost@@UAE@XZ 0040cce0 f i MyTemplate.obj
 0001:0000bce0       ??1?$wrapexcept@Vbad_get@boost@@@boost@@UAE@XZ 0040cce0 f i DXFshape.obj
 0001:0000bce0       ??1?$wrapexcept@Uescaped_list_error@boost@@@boost@@UAE@XZ 0040cce0 f i NCMakeOption.obj
 0001:0000bd60       ??_E?$wrapexcept@Vlogic_error@std@@@boost@@UAEPAXI@Z 0040cd60 f i * CIL library *:* CIL module *
 0001:0000bd60       ??_E?$wrapexcept@Vbad_get@boost@@@boost@@UAEPAXI@Z 0040cd60 f i * CIL library *:* CIL module *
 0001:0000bd60       ??_G?$wrapexcept@Vbad_function_call@boost@@@boost@@UAEPAXI@Z 0040cd60 f i MyTemplate.obj
 0001:0000bd60       ??_G?$wrapexcept@Uescaped_list_error@boost@@@boost@@UAEPAXI@Z 0040cd60 f i NCMakeOption.obj
 0001:0000bd60       ??_G?$wrapexcept@Vbad_get@boost@@@boost@@UAEPAXI@Z 0040cd60 f i DXFshape.obj
 0001:0000bd60       ??_E?$wrapexcept@Vbad_function_call@boost@@@boost@@UAEPAXI@Z 0040cd60 f i * CIL library *:* CIL module *
 0001:0000bd60       ??_E?$wrapexcept@Uescaped_list_error@boost@@@boost@@UAEPAXI@Z 0040cd60 f i * CIL library *:* CIL module *
 0001:0000bd60       ??_E?$wrapexcept@Vruntime_error@std@@@boost@@UAEPAXI@Z 0040cd60 f i * CIL library *:* CIL module *
 0001:0000bd60       ??_G?$wrapexcept@Vlogic_error@std@@@boost@@UAEPAXI@Z 0040cd60 f i NCDoc.obj
 0001:0000bd60       ??_G?$wrapexcept@Vruntime_error@std@@@boost@@UAEPAXI@Z 0040cd60 f i DXFOption.obj
 0001:0000bd60       ??_G?$wrapexcept@Vinvalid_argument@std@@@boost@@UAEPAXI@Z 0040cd60 f i NCDoc.obj
 0001:0000bd60       ??_E?$wrapexcept@Vinvalid_argument@std@@@boost@@UAEPAXI@Z 0040cd60 f i * CIL library *:* CIL module *
 0001:0000bdf0       ?clone@?$wrapexcept@Vbad_function_call@boost@@@boost@@UBEPBVclone_base@exception_detail@2@XZ 0040cdf0 f i MyTemplate.obj
 0001:0000be80       ?rethrow@?$wrapexcept@Vbad_function_call@boost@@@boost@@UBEXXZ 0040ce80 f i MyTemplate.obj
 0001:0000be9d       ??_E?$wrapexcept@Vbad_get@boost@@@boost@@W3AEPAXI@Z 0040ce9d f i DXFshape.obj
 0001:0000be9d       ??_E?$wrapexcept@Vruntime_error@std@@@boost@@W3AEPAXI@Z 0040ce9d f i DXFOption.obj
 0001:0000be9d       ??_E?$wrapexcept@Vlogic_error@std@@@boost@@W3AEPAXI@Z 0040ce9d f i NCDoc.obj
 0001:0000be9d       ??_E?$wrapexcept@Vbad_function_call@boost@@@boost@@W3AEPAXI@Z 0040ce9d f i MyTemplate.obj
 0001:0000be9d       ??_E?$wrapexcept@Uescaped_list_error@boost@@@boost@@W3AEPAXI@Z 0040ce9d f i NCMakeOption.obj
 0001:0000be9d       ??_E?$wrapexcept@Vinvalid_argument@std@@@boost@@W3AEPAXI@Z 0040ce9d f i NCDoc.obj
 0001:0000bea5       ??_E?$wrapexcept@Vbad_get@boost@@@boost@@WBA@AEPAXI@Z 0040cea5 f i DXFshape.obj
 0001:0000bea5       ??_E?$wrapexcept@Vbad_function_call@boost@@@boost@@WBA@AEPAXI@Z 0040cea5 f i MyTemplate.obj
 0001:0000bea5       ??_E?$wrapexcept@Vlogic_error@std@@@boost@@WBA@AEPAXI@Z 0040cea5 f i NCDoc.obj
 0001:0000bea5       ??_E?$wrapexcept@Vruntime_error@std@@@boost@@WBA@AEPAXI@Z 0040cea5 f i DXFOption.obj
 0001:0000bea5       ??_E?$wrapexcept@Vinvalid_argument@std@@@boost@@WBA@AEPAXI@Z 0040cea5 f i NCDoc.obj
 0001:0000bea5       ??_E?$wrapexcept@Uescaped_list_error@boost@@@boost@@WBA@AEPAXI@Z 0040cea5 f i NCMakeOption.obj
 0001:0000beb0       ??0?$wrapexcept@Vbad_function_call@boost@@@boost@@QAE@ABU01@@Z 0040ceb0 f i MyTemplate.obj
 0001:0000bf70       ??0bad_function_call@boost@@QAE@ABV01@@Z 0040cf70 f i MyTemplate.obj
 0001:0000bfb0       ??0runtime_error@std@@QAE@ABV01@@Z 0040cfb0 f i MyTemplate.obj
 0001:0000bff0       ??$throw_exception@Vbad_function_call@boost@@@boost@@YAXABVbad_function_call@0@@Z 0040cff0 f i MyTemplate.obj
 0001:0000c010       ??0bad_function_call@boost@@QAE@XZ 0040d010 f i MyTemplate.obj
 0001:0000c050       ?RoundCt4@DECIMALPOINT@@QAEMM@Z 0040d050 f i MyTemplate.obj
 0001:0000c0c0       ?RoundUp4@DECIMALPOINT@@QAEMM@Z 0040d0c0 f i MyTemplate.obj
 0001:0000c130       ?RoundCt3@DECIMALPOINT@@QAEMM@Z 0040d130 f i MyTemplate.obj
 0001:0000c1a0       ?RoundUp3@DECIMALPOINT@@QAEMM@Z 0040d1a0 f i MyTemplate.obj
 0001:0000c210       ?GetMessageMap@CAboutDlg@@MBEPBUAFX_MSGMAP@@XZ 0040d210 f   AboutDlg.obj
 0001:0000c220       ??_GCAboutDlg@@UAEPAXI@Z   0040d220 f i AboutDlg.obj
 0001:0000c220       ??_ECAboutDlg@@UAEPAXI@Z   0040d220 f i * CIL library *:* CIL module *
 0001:0000c280       ??1CAboutDlg@@UAE@XZ       0040d280 f i AboutDlg.obj
 0001:0000c2b0       ?DoDataExchange@CAboutDlg@@MAEXPAVCDataExchange@@@Z 0040d2b0 f   AboutDlg.obj
 0001:0000c2f0       ?OnInitDialog@CAboutDlg@@MAEHXZ 0040d2f0 f   AboutDlg.obj
 0001:0000c390       ?OnCtlColor@CAboutDlg@@IAEPAUHBRUSH__@@PAVCDC@@PAVCWnd@@I@Z 0040d390 f   AboutDlg.obj
 0001:0000c3d0       ??_ECStatic@@UAEPAXI@Z     0040d3d0 f i * CIL library *:* CIL module *
 0001:0000c3d0       ??_ECThumbnailStatic@@UAEPAXI@Z 0040d3d0 f i * CIL library *:* CIL module *
 0001:0000c3d0       ??_GCThumbnailStatic@@UAEPAXI@Z 0040d3d0 f i ThumbnailDlg.obj
 0001:0000c3d0       ??_GCStatic@@UAEPAXI@Z     0040d3d0 f i AboutDlg.obj
 0001:0000c410       ??0CStatic@@QAE@XZ         0040d410 f i AboutDlg.obj
 0001:0000c430       ?GetMessageMap@CAddinDlg@@MBEPBUAFX_MSGMAP@@XZ 0040d430 f   AddinDlg.obj
 0001:0000c440       ??_GCAddinDlg@@UAEPAXI@Z   0040d440 f i AddinDlg.obj
 0001:0000c440       ??_ECAddinDlg@@UAEPAXI@Z   0040d440 f i * CIL library *:* CIL module *
 0001:0000c4c0       ??1CAddinDlg@@UAE@XZ       0040d4c0 f i AddinDlg.obj
 0001:0000c510       ?DoDataExchange@CAddinDlg@@MAEXPAVCDataExchange@@@Z 0040d510 f   AddinDlg.obj
 0001:0000c580       ?SetDetailData@CAddinDlg@@AAEXPAVCNCVCaddinIF@@@Z 0040d580 f   AddinDlg.obj
 0001:0000c9c0       ?OnInitDialog@CAddinDlg@@MAEHXZ 0040d9c0 f   AddinDlg.obj
 0001:0000cc00       ?OnItemChangedAddinList@CAddinDlg@@IAEXPAUtagNMHDR@@PAJ@Z 0040dc00 f   AddinDlg.obj
 0001:0000cc20       ??_ECListCtrl@@UAEPAXI@Z   0040dc20 f i * CIL library *:* CIL module *
 0001:0000cc20       ??_GCListCtrl@@UAEPAXI@Z   0040dc20 f i AddinDlg.obj
 0001:0000cc60       ??_GCEdit@@UAEPAXI@Z       0040dc60 f i AddinDlg.obj
 0001:0000cc60       ??_ECEdit@@UAEPAXI@Z       0040dc60 f i * CIL library *:* CIL module *
 0001:0000cca0       ??0CEdit@@QAE@XZ           0040dca0 f i AddinDlg.obj
 0001:0000ccc0       ?GetMessageMap@CCADbindDlg@@MBEPBUAFX_MSGMAP@@XZ 0040dcc0 f   CADbindDlg.obj
 0001:0000ccd0       ??_ECCADbindDlg@@UAEPAXI@Z 0040dcd0 f i * CIL library *:* CIL module *
 0001:0000ccd0       ??_GCCADbindDlg@@UAEPAXI@Z 0040dcd0 f i CADbindDlg.obj
 0001:0000cd10       ??1CCADbindDlg@@UAE@XZ     0040dd10 f i CADbindDlg.obj
 0001:0000cda0       ??_FCFloatEdit@@QAEXXZ     0040dda0 f i CADbindDlg.obj
 0001:0000cdc0       ?DoDataExchange@CCADbindDlg@@MAEXPAVCDataExchange@@@Z 0040ddc0 f   CADbindDlg.obj
 0001:0000ce50       ?PathOptimizeAdd@CCADbindDlg@@AAEXABV?$CStringT@DV?$StrTraitMFC_DLL@DV?$ChTraitsCRT@D@ATL@@@@@ATL@@@Z 0040de50 f   CADbindDlg.obj
 0001:0000d070       ??1BINDFILE@@QAE@XZ        0040e070 f i CADbindDlg.obj
 0001:0000d070       ??1?$lambda_functor_base@V?$relational_action@Vequal_action@lambda@boost@@@lambda@boost@@V?$tuple@V?$lambda_functor@U?$placeholder@$00@lambda@boost@@@lambda@boost@@$$CBV?$CStringT@DV?$StrTraitMFC_DLL@DV?$ChTraitsCRT@D@ATL@@@@@ATL@@Unull_type@tuples@3@U673@U673@U673@U673@U673@U673@U673@@tuples@3@@lambda@boost@@QAE@XZ 0040e070 f i ReadDXF.obj
 0001:0000d070       ??1?$lambda_functor@V?$lambda_functor_base@V?$relational_action@Vequal_action@lambda@boost@@@lambda@boost@@V?$tuple@V?$lambda_functor@U?$placeholder@$00@lambda@boost@@@lambda@boost@@$$CBV?$CStringT@DV?$StrTraitMFC_DLL@DV?$ChTraitsCRT@D@ATL@@@@@ATL@@Unull_type@tuples@3@U673@U673@U673@U673@U673@U673@U673@@tuples@3@@lambda@boost@@@lambda@boost@@QAE@XZ 0040e070 f i ReadDXF.obj
 0001:0000d070       ??1?$tuple@HV?$CStringT@DV?$StrTraitMFC_DLL@DV?$ChTraitsCRT@D@ATL@@@@@ATL@@Unull_type@tuples@boost@@U345@U345@U345@U345@U345@U345@U345@@tuples@boost@@QAE@XZ 0040e070 f i MakeCustomCode.obj
 0001:0000d070       ??1?$tuple@V?$lambda_functor@U?$placeholder@$00@lambda@boost@@@lambda@boost@@$$CBV?$CStringT@DV?$StrTraitMFC_DLL@DV?$ChTraitsCRT@D@ATL@@@@@ATL@@Unull_type@tuples@3@U673@U673@U673@U673@U673@U673@U673@@tuples@boost@@QAE@XZ 0040e070 f i ReadDXF.obj
 0001:0000d080       ?OnInitDialog@CCADbindDlg@@MAEHXZ 0040e080 f   CADbindDlg.obj
 0001:0000d210       ?OnOK@CCADbindDlg@@MAEXXZ  0040e210 f   CADbindDlg.obj
 0001:0000d450       ?OnBindFileAdd@CCADbindDlg@@QAEXXZ 0040e450 f   CADbindDlg.obj
 0001:0000d4f0       ?OnBindFileClr@CCADbindDlg@@QAEXXZ 0040e4f0 f   CADbindDlg.obj
 0001:0000d5b0       ?OnBindFileAllClr@CCADbindDlg@@QAEXXZ 0040e5b0 f   CADbindDlg.obj
 0001:0000d610       ?OnDropFiles@CCADbindDlg@@QAEXPAUHDROP__@@@Z 0040e610 f   CADbindDlg.obj
 0001:0000d6d0       ?OnNMDblclkBindList@CCADbindDlg@@QAEXPAUtagNMHDR@@PAJ@Z 0040e6d0 f   CADbindDlg.obj
 0001:0000d710       ?OnLvnBeginlabeledit@CCADbindDlg@@QAEXPAUtagNMHDR@@PAJ@Z 0040e710 f   CADbindDlg.obj
 0001:0000d750       ?OnLvnEndlabeledit@CCADbindDlg@@QAEXPAUtagNMHDR@@PAJ@Z 0040e750 f   CADbindDlg.obj
 0001:0000d880       ??1?$vector@UBINDFILE@@V?$allocator@UBINDFILE@@@std@@@std@@QAE@XZ 0040e880 f i CADbindDlg.obj
 0001:0000d8f0       ?deallocate@?$allocator@UBINDFILE@@@std@@QAEXQAUBINDFILE@@I@Z 0040e8f0 f i CADbindDlg.obj
 0001:0000d930       ??$_Destroy_range@V?$allocator@UBINDFILE@@@std@@@std@@YAXPAUBINDFILE@@QAU1@AAV?$allocator@UBINDFILE@@@0@@Z 0040e930 f i CADbindDlg.obj
 0001:0000d960       ??$_Emplace_reallocate@ABUBINDFILE@@@?$vector@UBINDFILE@@V?$allocator@UBINDFILE@@@std@@@std@@QAEPAUBINDFILE@@QAU2@ABU2@@Z 0040e960 f i CADbindDlg.obj
 0001:0000dbe0       ??1?$_Uninitialized_backout_al@V?$allocator@UBINDFILE@@@std@@@std@@QAE@XZ 0040ebe0 f i CADbindDlg.obj
 0001:0000dc10       ?GetThisMessageMap@CChildBase@@KGPBUAFX_MSGMAP@@XZ 0040ec10 f   ChildBase.obj
 0001:0000dc20       ?ActivateFrame@CChildBase@@UAEXH@Z 0040ec20 f   ChildBase.obj
 0001:0000dc70       ?OnClose@CChildBase@@IAEXXZ 0040ec70 f   ChildBase.obj
 0001:0000dcd0       ?OnUserFileChangeNotify@CChildBase@@IAEJIJ@Z 0040ecd0 f   ChildBase.obj
 0001:0000de50       ?GetMessageMap@CIntEdit@@MBEPBUAFX_MSGMAP@@XZ 0040ee50 f   CustomControl.obj
 0001:0000de60       ?GetMessageMap@CFloatEdit@@MBEPBUAFX_MSGMAP@@XZ 0040ee60 f   CustomControl.obj
 0001:0000de70       ?GetMessageMap@CColComboBox@@MBEPBUAFX_MSGMAP@@XZ 0040ee70 f   CustomControl.obj
 0001:0000ded0       ??0CIntEdit@@QAE@XZ        0040eed0 f   CustomControl.obj
 0001:0000def0       ??_ECIntEdit@@UAEPAXI@Z    0040eef0 f i * CIL library *:* CIL module *
 0001:0000def0       ??_GCIntEdit@@UAEPAXI@Z    0040eef0 f i CustomControl.obj
 0001:0000df30       ??1CIntEdit@@UAE@XZ        0040ef30 f   CustomControl.obj
 0001:0000df40       ??4CIntEdit@@QAEAAV0@H@Z   0040ef40 f   CustomControl.obj
 0001:0000dff0       ?OnChar@CIntEdit@@IAEXIII@Z 0040eff0 f   CustomControl.obj
 0001:0000e0f0       ??_GCFloatEdit@@UAEPAXI@Z  0040f0f0 f i CustomControl.obj
 0001:0000e0f0       ??_ECFloatEdit@@UAEPAXI@Z  0040f0f0 f i * CIL library *:* CIL module *
 0001:0000e130       ??1CFloatEdit@@UAE@XZ      0040f130 f   CustomControl.obj
 0001:0000e140       ??4CFloatEdit@@QAEAAV0@M@Z 0040f140 f   CustomControl.obj
 0001:0000e270       ?OnChar@CFloatEdit@@IAEXIII@Z 0040f270 f   CustomControl.obj
 0001:0000e370       ??0CColComboBox@@QAE@XZ    0040f370 f   CustomControl.obj
 0001:0000e390       ??_ECColComboBox@@UAEPAXI@Z 0040f390 f i * CIL library *:* CIL module *
 0001:0000e390       ??_GCColComboBox@@UAEPAXI@Z 0040f390 f i CustomControl.obj
 0001:0000e3d0       ??1CColComboBox@@UAE@XZ    0040f3d0 f   CustomControl.obj
 0001:0000e3e0       ?MeasureItem@CColComboBox@@UAEXPAUtagMEASUREITEMSTRUCT@@@Z 0040f3e0 f   CustomControl.obj
 0001:0000e400       ?DrawItem@CColComboBox@@UAEXPAUtagDRAWITEMSTRUCT@@@Z 0040f400 f   CustomControl.obj
 0001:0000e450       ?ConvertSTRtoRGB@@YAKPBD@Z 0040f450 f   CustomControl.obj
 0001:0000e540       ?ConvertRGBtoSTR@@YA?AV?$CStringT@DV?$StrTraitMFC_DLL@DV?$ChTraitsCRT@D@ATL@@@@@ATL@@K@Z 0040f540 f   CustomControl.obj
 0001:0000e890       ??0?$basic_string@DU?$char_traits@D@std@@V?$allocator@D@2@@std@@QAE@U_String_constructor_concat_tag@1@AAV01@1@Z 0040f890 f i CustomControl.obj
 0001:0000ea20       ?append@?$basic_string@DU?$char_traits@D@std@@V?$allocator@D@2@@std@@QAEAAV12@QBDI@Z 0040fa20 f i CustomControl.obj
 0001:0000eb70       ??_ECComboBox@@UAEPAXI@Z   0040fb70 f i * CIL library *:* CIL module *
 0001:0000eb70       ??_GCComboBox@@UAEPAXI@Z   0040fb70 f i CustomControl.obj
 0001:0000ebb0       ??0CComboBox@@QAE@XZ       0040fbb0 f i CustomControl.obj
 0001:0000ebd0       _modff                     0040fbd0 f i CustomControl.obj
 0001:0000ec20       ??_GCCustomMenu@@UAEPAXI@Z 0040fc20 f i CustomMenu.obj
 0001:0000ec20       ??_ECCustomMenu@@UAEPAXI@Z 0040fc20 f i * CIL library *:* CIL module *
 0001:0000ece0       ??1CCustomMenu@@UAE@XZ     0040fce0 f   CustomMenu.obj
 0001:0000ed60       ?FindString@CCustomMenu@@IAEHABV?$CStringT@DV?$StrTraitMFC_DLL@DV?$ChTraitsCRT@D@ATL@@@@@ATL@@@Z 0040fd60 f   CustomMenu.obj
 0001:0000edb0       ?DrawItemIcon@CCustomMenu@@MAEHPAVCDC@@PAUtagDRAWITEMSTRUCT@@@Z 0040fdb0 f   CustomMenu.obj
 0001:0000ef90       ?DrawItemString@CCustomMenu@@IAEXPAVCDC@@PAUtagDRAWITEMSTRUCT@@H@Z 0040ff90 f   CustomMenu.obj
 0001:0000f170       ?DrawItemStringText@CCustomMenu@@IAEXPAVCDC@@V?$CStringT@DV?$StrTraitMFC_DLL@DV?$ChTraitsCRT@D@ATL@@@@@ATL@@VCRect@@@Z 00410170 f   CustomMenu.obj
 0001:0000f250       ??1CCustomMenuEx@@UAE@XZ   00410250 f   CustomMenu.obj
 0001:0000f340       ??_ECCustomMenuEx@@UAEPAXI@Z 00410340 f i * CIL library *:* CIL module *
 0001:0000f340       ??_GCCustomMenuEx@@UAEPAXI@Z 00410340 f i CustomMenu.obj
 0001:0000f380       ??1?$CSortArray@VCObArray@@PAVCDXFchain@@@@UAE@XZ 00410380 f i DXFshape.obj
 0001:0000f380       ??1?$CTypedPtrArrayEx@VCObArray@@PAVCDXFdata@@@@UAE@XZ 00410380 f i DXFshape.obj
 0001:0000f380       ??1?$CTypedPtrArrayEx@VCObArray@@PAVCImageList@@@@UAE@XZ 00410380 f i CustomMenu.obj
 0001:0000f380       ??1?$CSortArray@VCObArray@@PAVCDXFcircle@@@@UAE@XZ 00410380 f i TH_MakeNCD.obj
 0001:0000f380       ??1?$CSortArray@VCObArray@@PAVCLayerData@@@@UAE@XZ 00410380 f i DXFDoc.obj
 0001:0000f380       ??1?$CSortArray@VCObArray@@PAVCDXFdata@@@@UAE@XZ 00410380 f i TH_MakeLathe.obj
 0001:0000f380       ??1?$CSortArray@VCObArray@@PAVCDXFshape@@@@UAE@XZ 00410380 f i Layer.obj
 0001:0000f380       ??1?$CTypedPtrArrayEx@VCObArray@@PAVCDXFtext@@@@UAE@XZ 00410380 f i Layer.obj
 0001:0000f390       ?DrawItemIcon@CCustomMenuEx@@MAEHPAVCDC@@PAUtagDRAWITEMSTRUCT@@@Z 00410390 f   CustomMenu.obj
 0001:0000f4f0       ??1CFont@@UAE@XZ           004104f0 f i CustomMenu.obj
 0001:0000f500       ??_ECFont@@UAEPAXI@Z       00410500 f i * CIL library *:* CIL module *
 0001:0000f500       ??_GCFont@@UAEPAXI@Z       00410500 f i CustomMenu.obj
 0001:0000f540       ??0CFont@@QAE@XZ           00410540 f i CustomMenu.obj
 0001:0000f550       ??1CMenu@@UAE@XZ           00410550 f i CustomMenu.obj
 0001:0000f5a0       ??_ECMenu@@UAEPAXI@Z       004105a0 f i * CIL library *:* CIL module *
 0001:0000f5a0       ??_GCMenu@@UAEPAXI@Z       004105a0 f i CustomMenu.obj
 0001:0000f630       ??0CMenu@@QAE@XZ           00410630 f i CustomMenu.obj
 0001:0000f640       ?GetThisMessageMap@CCustomToolBar@@KGPBUAFX_MSGMAP@@XZ 00410640 f   CustomToolBar.obj
 0001:0000f640       ?GetMessageMap@CCustomToolBar@@MBEPBUAFX_MSGMAP@@XZ 00410640 f   CustomToolBar.obj
 0001:0000f650       ??0CCustomToolBar@@QAE@XZ  00410650 f   CustomToolBar.obj
 0001:0000f6d0       ??_GCCustomToolBar@@UAEPAXI@Z 004106d0 f i CustomToolBar.obj
 0001:0000f6d0       ??_ECCustomToolBar@@UAEPAXI@Z 004106d0 f i * CIL library *:* CIL module *
 0001:0000f710       ??_G?$CTypedPtrArrayEx@VCPtrArray@@PAVCNCblock@@@@UAEPAXI@Z 00410710 f i NCDoc.obj
 0001:0000f710       ??_E?$CTypedPtrArrayEx@VCPtrArray@@PAVCDXFMake@@@@UAEPAXI@Z 00410710 f i * CIL library *:* CIL module *
 0001:0000f710       ??_E?$CTypedPtrArrayEx@VCPtrArray@@PAV?$CSortArray@VCObArray@@PAVCDXFdata@@@@@@UAEPAXI@Z 00410710 f i * CIL library *:* CIL module *
 0001:0000f710       ??_E?$CTypedPtrArrayEx@VCPtrArray@@PAVCNCMakeWire@@@@UAEPAXI@Z 00410710 f i * CIL library *:* CIL module *
 0001:0000f710       ??_G?$CTypedPtrArrayEx@VCPtrArray@@PAVCDXFMake@@@@UAEPAXI@Z 00410710 f i DXFDoc.obj
 0001:0000f710       ??_G?$CTypedPtrArrayEx@VCPtrArray@@PAVCNCMakeLathe@@@@UAEPAXI@Z 00410710 f i TH_MakeLathe.obj
 0001:0000f710       ??_E?$CTypedPtrArrayEx@VCPtrArray@@PAVCNCMakeLathe@@@@UAEPAXI@Z 00410710 f i * CIL library *:* CIL module *
 0001:0000f710       ??_G?$CTypedPtrArrayEx@VCPtrArray@@PAVCNCMakeWire@@@@UAEPAXI@Z 00410710 f i TH_MakeWire.obj
 0001:0000f710       ??_G?$CSortArray@VCPtrArray@@PAUCADBINDINFO@@@@UAEPAXI@Z 00410710 f i DXFDoc.obj
 0001:0000f710       ??_E?$CSortArray@VCPtrArray@@PAUTHUMBNAILINFO@@@@UAEPAXI@Z 00410710 f i * CIL library *:* CIL module *
 0001:0000f710       ??_G?$CTypedPtrArrayEx@VCPtrArray@@PAV?$CTypedPtrListEx@VCObList@@PAVCDXFdata@@@@@@UAEPAXI@Z 00410710 f i DXFshape.obj
 0001:0000f710       ??_E?$CTypedPtrArrayEx@VCPtrArray@@PAUCUSTTBINFO@@@@UAEPAXI@Z 00410710 f i * CIL library *:* CIL module *
 0001:0000f710       ??_G?$CTypedPtrArrayEx@VCPtrArray@@PAUCUSTTBINFO@@@@UAEPAXI@Z 00410710 f i CustomToolBar.obj
 0001:0000f710       ??_G?$CTypedPtrArrayEx@VCPtrArray@@PAV?$CSortArray@VCObArray@@PAVCDXFdata@@@@@@UAEPAXI@Z 00410710 f i TH_MakeNCD.obj
 0001:0000f710       ??_G?$CTypedPtrArrayEx@VCPtrArray@@PAVCNCdata@@@@UAEPAXI@Z 00410710 f i NCdata.obj
 0001:0000f710       ??_E?$CTypedPtrArrayEx@VCPtrArray@@PAVCNCdata@@@@UAEPAXI@Z 00410710 f i * CIL library *:* CIL module *
 0001:0000f710       ??_E?$CTypedPtrArrayEx@VCPtrArray@@PAV?$CTypedPtrListEx@VCObList@@PAVCDXFdata@@@@@@UAEPAXI@Z 00410710 f i * CIL library *:* CIL module *
 0001:0000f710       ??_G?$CSortArray@VCPtrArray@@PAUTHUMBNAILINFO@@@@UAEPAXI@Z 00410710 f i ThumbnailDlg.obj
 0001:0000f710       ??_E?$CTypedPtrArrayEx@VCPtrArray@@PAVCNCMakeMill@@@@UAEPAXI@Z 00410710 f i * CIL library *:* CIL module *
 0001:0000f710       ??_G?$CTypedPtrArrayEx@VCPtrArray@@PAVCNCVCaddinIF@@@@UAEPAXI@Z 00410710 f i NCVC.obj
 0001:0000f710       ??_E?$CSortArray@VCPtrArray@@PAUCADBINDINFO@@@@UAEPAXI@Z 00410710 f i * CIL library *:* CIL module *
 0001:0000f710       ??_G?$CTypedPtrArrayEx@VCPtrArray@@PAVCNCMakeMill@@@@UAEPAXI@Z 00410710 f i TH_MakeNCD.obj
 0001:0000f710       ??_E?$CTypedPtrArrayEx@VCPtrArray@@PAVCNCblock@@@@UAEPAXI@Z 00410710 f i * CIL library *:* CIL module *
 0001:0000f710       ??_E?$CTypedPtrArrayEx@VCPtrArray@@PAVCNCVCaddinIF@@@@UAEPAXI@Z 00410710 f i * CIL library *:* CIL module *
 0001:0000f750       ??1CCustomToolBar@@UAE@XZ  00410750 f   CustomToolBar.obj
 0001:0000f800       ??1CUSTTBINFO@@QAE@XZ      00410800 f i CustomToolBar.obj
 0001:0000f810       ?LoadToolBarEx@CCustomToolBar@@QAEHPBDPAUCUSTTBBUTTON@@H@Z 00410810 f   CustomToolBar.obj
 0001:0000fb50       ??0CUSTTBINFO@@QAE@XZ      00410b50 f i CustomToolBar.obj
 0001:0000fb60       ?SetCustomButtons@CCustomToolBar@@QAEHPBDPAVCImageList@@1QAUCUSTTBINFO@@H@Z 00410b60 f   CustomToolBar.obj
 0001:0000fdb0       ?LoadToolBarItem@CCustomToolBar@@IAEHPBDAAV?$CMap@GAAGHAAH@@@Z 00410db0 f   CustomToolBar.obj
 0001:0000feb0       ?RestoreState@CCustomToolBar@@IAEXXZ 00410eb0 f   CustomToolBar.obj
 0001:00010000       ?RemoveAllButtons@CCustomToolBar@@IAEXXZ 00411000 f   CustomToolBar.obj
 0001:00010090       ?GetValueName@CCustomToolBar@@IAE?AV?$CStringT@DV?$StrTraitMFC_DLL@DV?$ChTraitsCRT@D@ATL@@@@@ATL@@XZ 00411090 f   CustomToolBar.obj
 0001:00010110       ?OnDestroy@CCustomToolBar@@IAEXXZ 00411110 f   CustomToolBar.obj
 0001:00010270       ?OnNotifyQueryInsertOrDelete@CCustomToolBar@@IAEXPAUtagNMHDR@@PAJ@Z 00411270 f   CustomToolBar.obj
 0001:00010280       ?OnNotifyGetButtonInfo@CCustomToolBar@@IAEXPAUtagNMHDR@@PAJ@Z 00411280 f   CustomToolBar.obj
 0001:000102f0       ?OnNotifyReset@CCustomToolBar@@IAEXPAUtagNMHDR@@PAJ@Z 004112f0 f   CustomToolBar.obj
 0001:00010330       ?OnNotifyToolBarChange@CCustomToolBar@@IAEXPAUtagNMHDR@@PAJ@Z 00411330 f   CustomToolBar.obj
 0001:00010360       ??1?$CMap@GAAGHAAH@@UAE@XZ 00411360 f i CustomToolBar.obj
 0001:000103e0       ?Serialize@?$CMap@GAAGHAAH@@UAEXAAVCArchive@@@Z 004113e0 f i CustomToolBar.obj
 0001:000104a0       ??_E?$CMap@GAAGHAAH@@UAEPAXI@Z 004114a0 f i * CIL library *:* CIL module *
 0001:000104a0       ??_G?$CMap@GAAGHAAH@@UAEPAXI@Z 004114a0 f i CustomToolBar.obj
 0001:00010560       ??A?$CMap@GAAGHAAH@@QAEAAHAAG@Z 00411560 f i CustomToolBar.obj
 0001:000106c0       ??$SerializeElements@G@@YGXAAVCArchive@@PAGH@Z 004116c0 f i CustomToolBar.obj
 0001:00010750       ??$SerializeElements@H@@YGXAAVCArchive@@PAHH@Z 00411750 f i CustomToolBar.obj
 0001:00010750       ??$SerializeElements@PAV?$CTypedPtrArrayEx@VCObArray@@PAVCDXFdata@@@@@@YGXAAVCArchive@@PAPAV?$CTypedPtrArrayEx@VCObArray@@PAVCDXFdata@@@@H@Z 00411750 f i DXFshape.obj
 0001:000107e0       ??HATL@@YA?AV?$CStringT@DV?$StrTraitMFC_DLL@DV?$ChTraitsCRT@D@ATL@@@@@0@PBDABV10@@Z 004117e0 f i CustomToolBar.obj
 0001:00010880       ?GetSubTreeRegKey@@YA?AV?$CStringT@DV?$StrTraitMFC_DLL@DV?$ChTraitsCRT@D@ATL@@@@@ATL@@HH@Z 00411880 f i CustomToolBar.obj
 0001:00010990       ?Open@CRegKey@ATL@@QAEJPAUHKEY__@@PBDK@Z 00411990 f i CustomToolBar.obj
 0001:00010a50       ??1CRegKey@ATL@@QAE@XZ     00411a50 f i CustomToolBar.obj
 0001:00010a70       ??0CDocBase@@IAE@XZ        00411a70 f   DocBase.obj
 0001:00010b50       ??_GCDocBase@@UAEPAXI@Z    00411b50 f i DocBase.obj
 0001:00010b50       ??_ECDocBase@@UAEPAXI@Z    00411b50 f i * CIL library *:* CIL module *
 0001:00010ba0       ?SetPathName@CDocBase@@UAEXPBDH@Z 00411ba0 f   DocBase.obj
 0001:00010bd0       ?ReportSaveLoadException@CDocBase@@UAEXPBDPAVCException@@HI@Z 00411bd0 f   DocBase.obj
 0001:00010c40       ?SetModifiedFlag@CDocBase@@UAEXH@Z 00411c40 f   DocBase.obj
 0001:00010d10       ?OnOpenDocumentBase@CDocBase@@IAEHPBD@Z 00411d10 f   DocBase.obj
 0001:00010e30       ?FileChangeNotificationThread@@YAIPAX@Z 00411e30 f   DocBase.obj
 0001:00011020       ?Read3dModel@@YAPAVBODY@@PBD0@Z 00412020 f   DocBase.obj
 0001:00011330       ??_ECDxfAutoPocketgDlg@@UAEPAXI@Z 00412330 f i * CIL library *:* CIL module *
 0001:00011330       ??_GCDxfAutoPocketgDlg@@UAEPAXI@Z 00412330 f i DxfAutoPocketDlg.obj
 0001:000113b0       ??1CDxfAutoPocketgDlg@@UAE@XZ 004123b0 f i DxfAutoPocketDlg.obj
 0001:00011400       ?DoDataExchange@CDxfAutoPocketgDlg@@MAEXPAVCDataExchange@@@Z 00412400 f   DxfAutoPocketDlg.obj
 0001:00011470       ?OnInitDialog@CDxfAutoPocketgDlg@@MAEHXZ 00412470 f   DxfAutoPocketDlg.obj
 0001:000114c0       ?OnOK@CDxfAutoPocketgDlg@@MAEXXZ 004124c0 f   DxfAutoPocketDlg.obj
 0001:00011720       ?SetEllipseArgv_Circle@CDXFcircle@@IAEXPBUDXFBLOCK@@PAUDXFEARGV@@MMH@Z 00412720 f i DXFBlock.obj
 0001:00011870       ?CopyBlock@CDXFBlockData@@QAEXPBV1@PBUDXFBLOCK@@@Z 00412870 f   DXFBlock.obj
 0001:00011b90       ?IsDocFlag@CDocBase@@QBEHI@Z 00412b90 f i DXFChild.obj
 0001:00011bc0       ?CreateObject@CDXFChild@@SGPAVCObject@@XZ 00412bc0 f   DXFChild.obj
 0001:00011c70       ?GetRuntimeClass@CDXFChild@@UBEPAUCRuntimeClass@@XZ 00412c70 f   DXFChild.obj
 0001:00011c80       ?GetMessageMap@CDXFChild@@MBEPBUAFX_MSGMAP@@XZ 00412c80 f   DXFChild.obj
 0001:00011c90       ?GetMessageMap@CDXFFrameSplit@@MBEPBUAFX_MSGMAP@@XZ 00412c90 f   DXFChild.obj
 0001:00011ca0       ??_GCDXFChild@@UAEPAXI@Z   00412ca0 f i DXFChild.obj
 0001:00011ca0       ??_ECDXFChild@@UAEPAXI@Z   00412ca0 f i * CIL library *:* CIL module *
 0001:00011d00       ??1CDXFFrameSplit@@UAE@XZ  00412d00 f i DXFChild.obj
 0001:00011d00       ??1CNCViewSplit@@UAE@XZ    00412d00 f i NCViewSplit.obj
 0001:00011d00       ??1CNCFrameSplit@@UAE@XZ   00412d00 f i NCChild.obj
 0001:00011d10       ??_GCNCFrameSplit@@UAEPAXI@Z 00412d10 f i NCChild.obj
 0001:00011d10       ??_ECNCFrameSplit@@UAEPAXI@Z 00412d10 f i * CIL library *:* CIL module *
 0001:00011d10       ??_GCDXFFrameSplit@@UAEPAXI@Z 00412d10 f i DXFChild.obj
 0001:00011d10       ??_ECDXFFrameSplit@@UAEPAXI@Z 00412d10 f i * CIL library *:* CIL module *
 0001:00011d50       ?OnCreateClient@CDXFChild@@MAEHPAUtagCREATESTRUCTA@@PAUCCreateContext@@@Z 00412d50 f   DXFChild.obj
 0001:00011e20       ?OnCmdMsg@CDXFChild@@UAEHIHPAXPAUAFX_CMDHANDLERINFO@@@Z 00412e20 f   DXFChild.obj
 0001:00011f00       ?SetDataInfo@CDXFChild@@QAEXPBVCDXFDoc@@@Z 00412f00 f   DXFChild.obj
 0001:00011fb0       ?ShowShapeView@CDXFChild@@QAEXXZ 00412fb0 f   DXFChild.obj
 0001:00012080       ?OnCreate@CDXFChild@@IAEHPAUtagCREATESTRUCTA@@@Z 00413080 f   DXFChild.obj
 0001:000120e0       ?OnSize@CDXFChild@@IAEXIHH@Z 004130e0 f   DXFChild.obj
 0001:00012150       ?OnMDIActivate@CDXFChild@@IAEXHPAVCWnd@@0@Z 00413150 f   DXFChild.obj
 0001:000121d0       ?OnUserInitialUpdate@CDXFChild@@IAEJIJ@Z 004131d0 f   DXFChild.obj
 0001:000121e0       ?OnLButtonDblClk@CDXFFrameSplit@@IAEXIVCPoint@@@Z 004131e0 f   DXFChild.obj
 0001:00012210       ??_GCCAMHead@@UAEPAXI@Z    00413210 f i DXFdata.obj
 0001:00012210       ??_ECCAMHead@@UAEPAXI@Z    00413210 f i * CIL library *:* CIL module *
 0001:00012240       ?SetNativePoint@CDXFdata@@UAEXIABV?$CPointT@M@@@Z 00413240 f i DXFdata.obj
 0001:00012260       ?IsMatchPoint@CDXFdata@@QBEHABV?$CPointT@M@@@Z 00413260 f i DXFdata.obj
 0001:000122e0       ?IsMakeMatchPoint@CDXFpoint@@UAEHABV?$CPointT@M@@@Z 004132e0 f i DXFdata.obj
 0001:00012320       ?GetEdgeGap@CDXFpoint@@UAEMABV?$CPointT@M@@H@Z 00413320 f i DXFdata.obj
 0001:00012370       ?GetEndCutterPoint@CDXFpoint@@UBE?BV?$CPointT@M@@XZ 00413370 f i DXFdata.obj
 0001:00012370       ?GetStartCutterPoint@CDXFpoint@@UBE?BV?$CPointT@M@@XZ 00413370 f i DXFdata.obj
 0001:00012370       ?GetStartCutterPoint@CDXFline@@UBE?BV?$CPointT@M@@XZ 00413370 f i DXFdata.obj
 0001:00012370       ?GetStartCutterPoint@CDXFarc@@UBE?BV?$CPointT@M@@XZ 00413370 f i DXFdata.obj
 0001:00012390       ?GetStartMakePoint@CDXFline@@UBE?BV?$CPointT@M@@XZ 00413390 f i DXFdata.obj
 0001:00012390       ?GetStartMakePoint@CDXFarc@@UBE?BV?$CPointT@M@@XZ 00413390 f i DXFdata.obj
 0001:00012390       ?GetStartMakePoint@CDXFpoint@@UBE?BV?$CPointT@M@@XZ 00413390 f i DXFdata.obj
 0001:00012390       ?GetEndMakePoint@CDXFpoint@@UBE?BV?$CPointT@M@@XZ 00413390 f i DXFdata.obj
 0001:000123b0       ?OrgTuning_XY@CDXFpoint@@SAMPBV1@@Z 004133b0 f i DXFdata.obj
 0001:000123b0       ?GetLength@CDXFpoint@@UBEMXZ 004133b0 f i DXFdata.obj
 0001:000123c0       ?IsMakeTarget@CDXFline@@UBEHXZ 004133c0 f i DXFdata.obj
 0001:00012410       ?IsMakeMatchPoint@CDXFline@@UAEHABV?$CPointT@M@@@Z 00413410 f i DXFdata.obj
 0001:00012410       ?IsMakeMatchPoint@CDXFarc@@UAEHABV?$CPointT@M@@@Z 00413410 f i DXFdata.obj
 0001:000124b0       ?GetEdgeGap@CDXFline@@UAEMABV?$CPointT@M@@H@Z 004134b0 f i DXFdata.obj
 0001:000124b0       ?GetEdgeGap@CDXFarc@@UAEMABV?$CPointT@M@@H@Z 004134b0 f i DXFdata.obj
 0001:00012560       ?GetEndCutterPoint@CDXFarc@@UBE?BV?$CPointT@M@@XZ 00413560 f i DXFdata.obj
 0001:00012560       ?GetEndCutterPoint@CDXFline@@UBE?BV?$CPointT@M@@XZ 00413560 f i DXFdata.obj
 0001:00012580       ?GetEndMakePoint@CDXFarc@@UBE?BV?$CPointT@M@@XZ 00413580 f i DXFdata.obj
 0001:00012580       ?GetEndMakePoint@CDXFline@@UBE?BV?$CPointT@M@@XZ 00413580 f i DXFdata.obj
 0001:000125a0       ?GetLength@CDXFline@@UBEMXZ 004135a0 f i DXFdata.obj
 0001:000125f0       ?GetQuarterPoint@CDXFcircle@@IBEXABV?$CPointT@M@@QAV2@@Z 004135f0 f i DXFdata.obj
 0001:00012710       ?IsMakeTarget@CDXFcircle@@UBEHXZ 00413710 f i DXFdata.obj
 0001:00012730       ?IsMakeMatchPoint@CDXFcircle@@UAEHABV?$CPointT@M@@@Z 00413730 f i DXFdata.obj
 0001:000127f0       ?GetEdgeGap@CDXFcircle@@UAEMABV?$CPointT@M@@H@Z 004137f0 f i DXFdata.obj
 0001:000128e0       ?GetStartCutterPoint@CDXFcircle@@UBE?BV?$CPointT@M@@XZ 004138e0 f i DXFdata.obj
 0001:000128e0       ?GetEndCutterPoint@CDXFcircle@@UBE?BV?$CPointT@M@@XZ 004138e0 f i DXFdata.obj
 0001:00012910       ?GetStartMakePoint@CDXFcircle@@UBE?BV?$CPointT@M@@XZ 00413910 f i DXFdata.obj
 0001:00012910       ?GetEndMakePoint@CDXFcircle@@UBE?BV?$CPointT@M@@XZ 00413910 f i DXFdata.obj
 0001:00012940       ?GetLength@CDXFcircle@@UBEMXZ 00413940 f i DXFdata.obj
 0001:00012950       ?IsMakeMatchPoint@CDXFcircleEx@@UAEHABV?$CPointT@M@@@Z 00413950 f i DXFdata.obj
 0001:000129a0       ?GetEdgeGap@CDXFcircleEx@@UAEMABV?$CPointT@M@@H@Z 004139a0 f i DXFdata.obj
 0001:000129f0       ?GetStartCutterPoint@CDXFcircleEx@@UBE?BV?$CPointT@M@@XZ 004139f0 f i DXFdata.obj
 0001:00012a10       ?GetStartMakePoint@CDXFcircleEx@@UBE?BV?$CPointT@M@@XZ 00413a10 f i DXFdata.obj
 0001:00012a30       ?GetEndCutterPoint@CDXFcircleEx@@UBE?BV?$CPointT@M@@XZ 00413a30 f i DXFdata.obj
 0001:00012a40       ?GetEndMakePoint@CDXFcircleEx@@UBE?BV?$CPointT@M@@XZ 00413a40 f i DXFdata.obj
 0001:00012a50       ?SetNativePoint@CDXFarc@@UAEXIABV?$CPointT@M@@@Z 00413a50 f i DXFdata.obj
 0001:00012ad0       ?IsMakeTarget@CDXFellipse@@UBEHXZ 00413ad0 f i DXFdata.obj
 0001:00012ad0       ?IsMakeTarget@CDXFarc@@UBEHXZ 00413ad0 f i DXFdata.obj
 0001:00012b20       ?GetLength@CDXFarc@@UBEMXZ 00413b20 f i DXFdata.obj
 0001:00012b80       ?IsMakeMatchPoint@CDXFellipse@@UAEHABV?$CPointT@M@@@Z 00413b80 f i DXFdata.obj
 0001:00012cf0       ?IsStartEqEnd@CDXFellipse@@UBEHXZ 00413cf0 f i DXFdata.obj
 0001:00012d00       ?GetEdgeGap@CDXFellipse@@UAEMABV?$CPointT@M@@H@Z 00413d00 f i DXFdata.obj
 0001:00012ec0       ?GetStartCutterPoint@CDXFellipse@@UBE?BV?$CPointT@M@@XZ 00413ec0 f i DXFdata.obj
 0001:00012f10       ?GetStartMakePoint@CDXFellipse@@UBE?BV?$CPointT@M@@XZ 00413f10 f i DXFdata.obj
 0001:00012f60       ?GetEndCutterPoint@CDXFellipse@@UBE?BV?$CPointT@M@@XZ 00413f60 f i DXFdata.obj
 0001:00012fb0       ?GetEndMakePoint@CDXFellipse@@UBE?BV?$CPointT@M@@XZ 00413fb0 f i DXFdata.obj
 0001:00013000       ?IsStartEqEnd@CDXFpolyline@@UBEHXZ 00414000 f i DXFdata.obj
 0001:00013010       ?GetEdgeGap@CDXFtext@@UAEMABV?$CPointT@M@@H@Z 00414010 f i DXFdata.obj
 0001:00013020       ?CreateObject@CCAMHead@@SGPAVCObject@@XZ 00414020 f   DXFdata.obj
 0001:00013040       ?_GetBaseClass@CDXFshape@@KGPAUCRuntimeClass@@XZ 00414040 f   DXFshape.obj
 0001:00013040       ?_GetBaseClass@CCAMHead@@KGPAUCRuntimeClass@@XZ 00414040 f   DXFdata.obj
 0001:00013040       ?_GetBaseClass@CLayerData@@KGPAUCRuntimeClass@@XZ 00414040 f   Layer.obj
 0001:00013040       ?_GetBaseClass@CDXFdata@@KGPAUCRuntimeClass@@XZ 00414040 f   DXFdata.obj
 0001:00013040       ?_GetBaseClass@CDXFmap@@KGPAUCRuntimeClass@@XZ 00414040 f   DXFshape.obj
 0001:00013040       ?_GetBaseClass@CDXFchain@@KGPAUCRuntimeClass@@XZ 00414040 f   DXFshape.obj
 0001:00013040       ?_GetBaseClass@CDXFworking@@KGPAUCRuntimeClass@@XZ 00414040 f   DXFshape.obj
 0001:00013050       ?GetRuntimeClass@CCAMHead@@UBEPAUCRuntimeClass@@XZ 00414050 f   DXFdata.obj
 0001:00013060       ?_GetBaseClass@CDXFpoint@@KGPAUCRuntimeClass@@XZ 00414060 f   DXFdata.obj
 0001:00013060       ?GetRuntimeClass@CDXFdata@@UBEPAUCRuntimeClass@@XZ 00414060 f   DXFdata.obj
 0001:00013070       ?CreateObject@CDXFpoint@@SGPAVCObject@@XZ 00414070 f   DXFdata.obj
 0001:00013120       ?_GetBaseClass@CDXFline@@KGPAUCRuntimeClass@@XZ 00414120 f   DXFdata.obj
 0001:00013120       ?_GetBaseClass@CDXFtext@@KGPAUCRuntimeClass@@XZ 00414120 f   DXFdata.obj
 0001:00013120       ?GetRuntimeClass@CDXFpoint@@UBEPAUCRuntimeClass@@XZ 00414120 f   DXFdata.obj
 0001:00013130       ?CreateObject@CDXFline@@SGPAVCObject@@XZ 00414130 f   DXFdata.obj
 0001:000131f0       ?GetRuntimeClass@CDXFline@@UBEPAUCRuntimeClass@@XZ 004141f0 f   DXFdata.obj
 0001:000131f0       ?_GetBaseClass@CDXFpolyline@@KGPAUCRuntimeClass@@XZ 004141f0 f   DXFdata.obj
 0001:000131f0       ?_GetBaseClass@CDXFcircle@@KGPAUCRuntimeClass@@XZ 004141f0 f   DXFdata.obj
 0001:00013200       ?CreateObject@CDXFcircle@@SGPAVCObject@@XZ 00414200 f   DXFdata.obj
 0001:00013310       ?GetRuntimeClass@CDXFcircle@@UBEPAUCRuntimeClass@@XZ 00414310 f   DXFdata.obj
 0001:00013310       ?_GetBaseClass@CDXFarc@@KGPAUCRuntimeClass@@XZ 00414310 f   DXFdata.obj
 0001:00013310       ?_GetBaseClass@CDXFcircleEx@@KGPAUCRuntimeClass@@XZ 00414310 f   DXFdata.obj
 0001:00013320       ?CreateObject@CDXFcircleEx@@SGPAVCObject@@XZ 00414320 f   DXFdata.obj
 0001:000133d0       ?GetRuntimeClass@CDXFcircleEx@@UBEPAUCRuntimeClass@@XZ 004143d0 f   DXFdata.obj
 0001:000133e0       ?CreateObject@CDXFarc@@SGPAVCObject@@XZ 004143e0 f   DXFdata.obj
 0001:00013480       ?_GetBaseClass@CDXFellipse@@KGPAUCRuntimeClass@@XZ 00414480 f   DXFdata.obj
 0001:00013480       ?GetRuntimeClass@CDXFarc@@UBEPAUCRuntimeClass@@XZ 00414480 f   DXFdata.obj
 0001:00013490       ?CreateObject@CDXFellipse@@SGPAVCObject@@XZ 00414490 f   DXFdata.obj
 0001:00013590       ?GetRuntimeClass@CDXFellipse@@UBEPAUCRuntimeClass@@XZ 00414590 f   DXFdata.obj
 0001:000135a0       ?CreateObject@CDXFpolyline@@SGPAVCObject@@XZ 004145a0 f   DXFdata.obj
 0001:00013610       ?GetRuntimeClass@CDXFpolyline@@UBEPAUCRuntimeClass@@XZ 00414610 f   DXFdata.obj
 0001:00013620       ?CreateObject@CDXFtext@@SGPAVCObject@@XZ 00414620 f   DXFdata.obj
 0001:000136d0       ?GetRuntimeClass@CDXFtext@@UBEPAUCRuntimeClass@@XZ 004146d0 f   DXFdata.obj
 0001:000136e0       ?Serialize@CCAMHead@@UAEXAAVCArchive@@@Z 004146e0 f   DXFdata.obj
 0001:00013930       ??0CDXFdata@@IAE@W4ENDXFTYPE@@PAVCLayerData@@HK@Z 00414930 f   DXFdata.obj
 0001:00013a90       ??_GCDXFdata@@UAEPAXI@Z    00414a90 f i DXFdata.obj
 0001:00013a90       ??_ECDXFdata@@UAEPAXI@Z    00414a90 f i * CIL library *:* CIL module *
 0001:00013af0       ?Serialize@CDXFdata@@UAEXAAVCArchive@@@Z 00414af0 f   DXFdata.obj
 0001:00013ba0       ?SwapMakePt@CDXFdata@@UAEXH@Z 00414ba0 f   DXFdata.obj
 0001:00013c00       ?SwapNativePt@CDXFdata@@UAEXXZ 00414c00 f   DXFdata.obj
 0001:00013c30       ?RoundObjPoint@CDXFdata@@UAEXABV?$CPointT@M@@M@Z 00414c30 f   DXFdata.obj
 0001:00013d10       ?IsDirectionPoint@CDXFdata@@UAEHABV?$CPointT@M@@0@Z 00414d10 f   DXFdata.obj
 0001:00013d60       ?XRev@CDXFpolyline@@MAEXXZ 00414d60 f   DXFdata.obj
 0001:00013d60       ?XRev@CDXFdata@@MAEXXZ     00414d60 f   DXFdata.obj
 0001:00013da0       ?YRev@CDXFdata@@MAEXXZ     00414da0 f   DXFdata.obj
 0001:00013da0       ?YRev@CDXFpolyline@@MAEXXZ 00414da0 f   DXFdata.obj
 0001:00013de0       ?OrgTuningBase@CDXFdata@@IAEXXZ 00414de0 f   DXFdata.obj
 0001:00013e60       ??_ECDXFpoint@@UAEPAXI@Z   00414e60 f i * CIL library *:* CIL module *
 0001:00013e60       ??_GCDXFpoint@@UAEPAXI@Z   00414e60 f i DXFdata.obj
 0001:00013ec0       ??1CDXFarc@@UAE@XZ         00414ec0 f i DXFdata.obj
 0001:00013ec0       ??1CDXFline@@UAE@XZ        00414ec0 f i DXFdata.obj
 0001:00013ec0       ??1CDXFpoint@@UAE@XZ       00414ec0 f i DXFdata.obj
 0001:00013ec0       ??1CDXFcircle@@UAE@XZ      00414ec0 f i DXFdata.obj
 0001:00013ef0       ??0CDXFpoint@@QAE@PBUDXFPARGV@@K@Z 00414ef0 f   DXFdata.obj
 0001:00013fc0       ??0CDXFpoint@@QAE@PAVCLayerData@@PBV0@PBUDXFBLOCK@@K@Z 00414fc0 f   DXFdata.obj
 0001:00014150       ?Serialize@CDXFpoint@@UAEXAAVCArchive@@@Z 00415150 f   DXFdata.obj
 0001:00014350       ?SetMaxRect@CDXFpoint@@MAEXXZ 00415350 f   DXFdata.obj
 0001:000143c0       ?DrawTuning@CDXFpoint@@UAEXM@Z 004153c0 f   DXFdata.obj
 0001:00014480       ?Draw@CDXFpoint@@UBEXPAVCDC@@@Z 00415480 f   DXFdata.obj
 0001:00014520       ?OrgTuning@CDXFpoint@@UAEMH@Z 00415520 f   DXFdata.obj
 0001:000145b0       ?OrgTuning_Seq@CDXFpoint@@SAMPBV1@@Z 004155b0 f   DXFdata.obj
 0001:00014610       ?GetSelectPointGap@CDXFpoint@@UAEMABV?$CPointT@M@@@Z 00415610 f   DXFdata.obj
 0001:00014620       ?CheckIntersectionCircle@CDXFellipse@@UBEHABV?$CPointT@M@@M@Z 00415620 f   DXFdata.obj
 0001:00014620       ?CheckIntersectionCircle@CDXFpoint@@UBEHABV?$CPointT@M@@M@Z 00415620 f   DXFdata.obj
 0001:00014620       ?GetDirectionArraw@CDXFpoint@@UAEHABV?$CPointT@M@@QAY02V2@@Z 00415620 f   DXFdata.obj
 0001:00014620       ?CheckIntersectionCircle@CDXFcircle@@UBEHABV?$CPointT@M@@M@Z 00415620 f   DXFdata.obj
 0001:00014630       ?GetIntersectionPoint@CDXFpoint@@UBEHPBVCDXFdata@@QAV?$CPointT@M@@H@Z 00415630 f   DXFdata.obj
 0001:00014640       ?GetIntersectionPoint@CDXFpoint@@UBEHABV?$CPointT@M@@0QAV2@H@Z 00415640 f   DXFdata.obj
 0001:00014650       ?CalcPerpendicularPoint@CNCdata@@UBE?AV?$optional@V?$CPointT@M@@@boost@@W4ENPOINTORDER@@MH@Z 00415650 f   NCdata.obj
 0001:00014650       ?CalcPerpendicularPoint@CNCcycle@@UBE?AV?$optional@V?$CPointT@M@@@boost@@W4ENPOINTORDER@@MH@Z 00415650 f   NCdata.obj
 0001:00014650       ?CalcOffsetIntersectionPoint@CDXFcircle@@UBE?AV?$optional@V?$CPointT@M@@@boost@@PBVCDXFdata@@MH@Z 00415650 f   DXFdata.obj
 0001:00014650       ?CalcOffsetIntersectionPoint2@CNCcycle@@UBE?AV?$optional@V?$CPointT@M@@@boost@@PBVCNCdata@@MH@Z 00415650 f   NCdata.obj
 0001:00014650       ?CalcOffsetIntersectionPoint2@CNCdata@@UBE?AV?$optional@V?$CPointT@M@@@boost@@PBV1@MH@Z 00415650 f   NCdata.obj
 0001:00014650       ?CalcOffsetIntersectionPoint@CDXFpoint@@UBE?AV?$optional@V?$CPointT@M@@@boost@@PBVCDXFdata@@MH@Z 00415650 f   DXFdata.obj
 0001:00014660       ?SetVectorPoint@CDXFpoint@@UBEIAAV?$vector@V?$CPointT@M@@V?$allocator@V?$CPointT@M@@@std@@@std@@M@Z 00415660 f   DXFdata.obj
 0001:000146b0       ?DrawWireXZ@CNCcycle@@UBEXPAVCDC@@H@Z 004156b0 f   NCdata.obj
 0001:000146b0       ?DrawWireXY@CNCcycle@@UBEXPAVCDC@@H@Z 004156b0 f   NCdata.obj
 0001:000146b0       ?DrawWireXY@CNCdata@@UBEXPAVCDC@@H@Z 004156b0 f   NCdata.obj
 0001:000146b0       ?DrawWireYZ@CNCcycle@@UBEXPAVCDC@@H@Z 004156b0 f   NCdata.obj
 0001:000146b0       ?DrawWire@CNCcycle@@UBEXPAVCDC@@H@Z 004156b0 f   NCdata.obj
 0001:000146b0       ?DrawWireXZ@CNCdata@@UBEXPAVCDC@@H@Z 004156b0 f   NCdata.obj
 0001:000146b0       ?SetVectorPoint@CDXFpolyline@@UBEXAAV?$vector@V?$CPointT@M@@V?$allocator@V?$CPointT@M@@@std@@@std@@I@Z 004156b0 f   DXFdata.obj
 0001:000146b0       ?DrawWireYZ@CNCdata@@UBEXPAVCDC@@H@Z 004156b0 f   NCdata.obj
 0001:000146b0       ?SetVectorPoint@CDXFellipse@@UBEXAAV?$vector@V?$CPointT@M@@V?$allocator@V?$CPointT@M@@@std@@@std@@I@Z 004156b0 f   DXFdata.obj
 0001:000146b0       ?SetVectorPoint@CDXFpoint@@UBEXAAV?$vector@V?$CPointT@M@@V?$allocator@V?$CPointT@M@@@std@@@std@@I@Z 004156b0 f   DXFdata.obj
 0001:000146b0       ?DrawWire@CNCdata@@UBEXPAVCDC@@H@Z 004156b0 f   NCdata.obj
 0001:000146c0       ?SetWireHeteroData@CDXFellipse@@UBEXPBVCDXFdata@@AAV?$vector@V?$CPointT@M@@V?$allocator@V?$CPointT@M@@@std@@@std@@1M@Z 004156c0 f   DXFdata.obj
 0001:000146c0       ?SetWireHeteroData@CDXFpoint@@UBEXPBVCDXFdata@@AAV?$vector@V?$CPointT@M@@V?$allocator@V?$CPointT@M@@@std@@@std@@1M@Z 004156c0 f   DXFdata.obj
 0001:000146c0       ?SetWireHeteroData@CDXFcircle@@UBEXPBVCDXFdata@@AAV?$vector@V?$CPointT@M@@V?$allocator@V?$CPointT@M@@@std@@@std@@1M@Z 004156c0 f   DXFdata.obj
 0001:000146c0       ?SetWireHeteroData@CDXFpolyline@@UBEXPBVCDXFdata@@AAV?$vector@V?$CPointT@M@@V?$allocator@V?$CPointT@M@@@std@@@std@@1M@Z 004156c0 f   DXFdata.obj
 0001:000146d0       ??_ECDXFline@@UAEPAXI@Z    004156d0 f i * CIL library *:* CIL module *
 0001:000146d0       ??_GCDXFline@@UAEPAXI@Z    004156d0 f i DXFdata.obj
 0001:00014730       ??0CDXFline@@IAE@W4ENDXFTYPE@@PAVCLayerData@@HK@Z 00415730 f   DXFdata.obj
 0001:000147a0       ??0CDXFline@@QAE@PBUDXFLARGV@@K@Z 004157a0 f   DXFdata.obj
 0001:000148a0       ??0CDXFline@@QAE@PAVCLayerData@@PBV0@PBUDXFBLOCK@@K@Z 004158a0 f   DXFdata.obj
 0001:00014ae0       ?Serialize@CDXFline@@UAEXAAVCArchive@@@Z 00415ae0 f   DXFdata.obj
 0001:00014ec0       ?SetMaxRect@CDXFline@@MAEXXZ 00415ec0 f   DXFdata.obj
 0001:00014f30       ?DrawTuning@CDXFline@@UAEXM@Z 00415f30 f   DXFdata.obj
 0001:00014fb0       ?Draw@CDXFline@@UBEXPAVCDC@@@Z 00415fb0 f   DXFdata.obj
 0001:00014ff0       ?OrgTuning@CDXFline@@UAEMH@Z 00415ff0 f   DXFdata.obj
 0001:000150e0       ?GetSelectPointGap@CDXFline@@UAEMABV?$CPointT@M@@@Z 004160e0 f   DXFdata.obj
 0001:00015330       ?GetDirectionArraw@CDXFline@@UAEHABV?$CPointT@M@@QAY02V2@@Z 00416330 f   DXFdata.obj
 0001:00015450       ?GetIntersectionPoint@CDXFline@@UBEHPBVCDXFdata@@QAV?$CPointT@M@@H@Z 00416450 f   DXFdata.obj
 0001:00015750       ?GetIntersectionPoint@CDXFline@@UBEHABV?$CPointT@M@@0QAV2@H@Z 00416750 f   DXFdata.obj
 0001:000159c0       ?CalcOffsetIntersectionPoint@CDXFline@@UBE?AV?$optional@V?$CPointT@M@@@boost@@PBVCDXFdata@@MH@Z 004169c0 f   DXFdata.obj
 0001:00015ca0       ?CheckIntersectionCircle@CDXFline@@UBEHABV?$CPointT@M@@M@Z 00416ca0 f   DXFdata.obj
 0001:00015e60       ?SetVectorPoint@CDXFline@@UBEIAAV?$vector@V?$CPointT@M@@V?$allocator@V?$CPointT@M@@@std@@@std@@M@Z 00416e60 f   DXFdata.obj
 0001:00015f10       ?SetVectorPoint@CDXFline@@UBEXAAV?$vector@V?$CPointT@M@@V?$allocator@V?$CPointT@M@@@std@@@std@@I@Z 00416f10 f   DXFdata.obj
 0001:00016090       ?SetWireHeteroData@CDXFline@@UBEXPBVCDXFdata@@AAV?$vector@V?$CPointT@M@@V?$allocator@V?$CPointT@M@@@std@@@std@@1M@Z 00417090 f   DXFdata.obj
 0001:000160d0       ??_ECDXFcircle@@UAEPAXI@Z  004170d0 f i * CIL library *:* CIL module *
 0001:000160d0       ??_GCDXFcircle@@UAEPAXI@Z  004170d0 f i DXFdata.obj
 0001:00016130       ??0CDXFcircle@@IAE@W4ENDXFTYPE@@PAVCLayerData@@ABV?$CPointT@M@@MHHK@Z 00417130 f   DXFdata.obj
 0001:00016230       ??0CDXFcircle@@QAE@PBUDXFCARGV@@K@Z 00417230 f   DXFdata.obj
 0001:000163c0       ??0CDXFcircle@@QAE@PAVCLayerData@@PBV0@PBUDXFBLOCK@@K@Z 004173c0 f   DXFdata.obj
 0001:000165c0       ?Serialize@CDXFcircle@@UAEXAAVCArchive@@@Z 004175c0 f   DXFdata.obj
 0001:00016900       ?SwapMakePt@CDXFcircle@@UAEXH@Z 00417900 f   DXFdata.obj
 0001:00016910       ?RoundObjPoint@CDXFcircle@@UAEXABV?$CPointT@M@@M@Z 00417910 f   DXFdata.obj
 0001:000169e0       ?SetCirclePoint@CDXFcircle@@MAEXXZ 004179e0 f   DXFdata.obj
 0001:00016a70       ?XRev@CDXFcircle@@MAEXXZ   00417a70 f   DXFdata.obj
 0001:00016af0       ?YRev@CDXFcircle@@MAEXXZ   00417af0 f   DXFdata.obj
 0001:00016b70       ?SetMaxRect@CDXFcircle@@MAEXXZ 00417b70 f   DXFdata.obj
 0001:00016c40       ?IsRangeAngle@CDXFcircle@@UBEHABV?$CPointT@M@@@Z 00417c40 f   DXFdata.obj
 0001:00016c40       ?OnInitPage@CTabViewBase@@MAEHH@Z 00417c40 f   NCInfoTab.obj
 0001:00016c40       ?OnEraseBkgnd@CViewBaseGL@@QAEHPAVCDC@@@Z 00417c40 f   ViewBaseGL.obj
 0001:00016c50       ?DrawTuning@CDXFcircle@@UAEXM@Z 00417c50 f   DXFdata.obj
 0001:00016d30       ?Draw@CDXFcircle@@UBEXPAVCDC@@@Z 00417d30 f   DXFdata.obj
 0001:00016d50       ?OrgTuning@CDXFcircle@@UAEMH@Z 00417d50 f   DXFdata.obj
 0001:00016f00       ?GetSelectPointGap@CDXFcircle@@UAEMABV?$CPointT@M@@@Z 00417f00 f   DXFdata.obj
 0001:00016fd0       ?GetDirectionArraw_Circle@CDXFcircle@@IAEHQBMQBV?$CPointT@M@@QAY02V2@@Z 00417fd0 f   DXFdata.obj
 0001:000170e0       ?GetDirectionArraw@CDXFcircle@@UAEHABV?$CPointT@M@@QAY02V2@@Z 004180e0 f   DXFdata.obj
 0001:000171a0       ?IsDirectionPoint@CDXFcircle@@UAEHABV?$CPointT@M@@0@Z 004181a0 f   DXFdata.obj
 0001:000172e0       ?GetIntersectionPoint@CDXFcircle@@UBEHPBVCDXFdata@@QAV?$CPointT@M@@H@Z 004182e0 f   DXFdata.obj
 0001:00017490       ?GetIntersectionPoint@CDXFcircle@@UBEHABV?$CPointT@M@@0QAV2@H@Z 00418490 f   DXFdata.obj
 0001:00017530       ?SetVectorPoint@CDXFcircle@@UBEIAAV?$vector@V?$CPointT@M@@V?$allocator@V?$CPointT@M@@@std@@@std@@M@Z 00418530 f   DXFdata.obj
 0001:000175b0       ?SetVectorPoint@CDXFcircle@@UBEXAAV?$vector@V?$CPointT@M@@V?$allocator@V?$CPointT@M@@@std@@@std@@I@Z 004185b0 f   DXFdata.obj
 0001:00017660       ?SetVectorPointSub@CDXFcircle@@IBEIHMMMABV?$CPointT@M@@AAV?$vector@V?$CPointT@M@@V?$allocator@V?$CPointT@M@@@std@@@std@@@Z 00418660 f   DXFdata.obj
 0001:00017840       ??_ECDXFcircleEx@@UAEPAXI@Z 00418840 f i * CIL library *:* CIL module *
 0001:00017840       ??_GCDXFcircleEx@@UAEPAXI@Z 00418840 f i DXFdata.obj
 0001:000178a0       ?Serialize@CDXFcircleEx@@UAEXAAVCArchive@@@Z 004188a0 f   DXFdata.obj
 0001:00017c60       ?XRev@CDXFcircleEx@@MAEXXZ 00418c60 f   DXFdata.obj
 0001:00017c90       ?YRev@CDXFcircleEx@@MAEXXZ 00418c90 f   DXFdata.obj
 0001:00017cc0       ?Draw@CDXFcircleEx@@UBEXPAVCDC@@@Z 00418cc0 f   DXFdata.obj
 0001:00017d50       ?OrgTuning@CDXFcircleEx@@UAEMH@Z 00418d50 f   DXFdata.obj
 0001:00017dd0       ??_ECDXFarc@@UAEPAXI@Z     00418dd0 f i * CIL library *:* CIL module *
 0001:00017dd0       ??_GCDXFarc@@UAEPAXI@Z     00418dd0 f i DXFdata.obj
 0001:00017e30       ??0CDXFarc@@QAE@PBUDXFAARGV@@K@Z 00418e30 f   DXFdata.obj
 0001:00018040       ??0CDXFarc@@QAE@PBUDXFAARGV@@HABV?$CPointT@M@@1K@Z 00419040 f   DXFdata.obj
 0001:00018140       ??0CDXFarc@@QAE@PAVCLayerData@@PBV0@PBUDXFBLOCK@@K@Z 00419140 f   DXFdata.obj
 0001:00018540       ?Serialize@CDXFarc@@UAEXAAVCArchive@@@Z 00419540 f   DXFdata.obj
 0001:00018c70       ?SetMaxRect@CDXFarc@@MAEXXZ 00419c70 f   DXFdata.obj
 0001:00018fb0       ?SwapMakePt@CDXFarc@@UAEXH@Z 00419fb0 f   DXFdata.obj
 0001:00019030       ?SwapNativePt@CDXFarc@@UAEXXZ 0041a030 f   DXFdata.obj
 0001:000190b0       ?RoundObjPoint@CDXFarc@@UAEXABV?$CPointT@M@@M@Z 0041a0b0 f   DXFdata.obj
 0001:000191d0       ?SetVectorPoint@CDXFarc@@UBEIAAV?$vector@V?$CPointT@M@@V?$allocator@V?$CPointT@M@@@std@@@std@@M@Z 0041a1d0 f   DXFdata.obj
 0001:00019300       ?SetVectorPoint@CDXFarc@@UBEXAAV?$vector@V?$CPointT@M@@V?$allocator@V?$CPointT@M@@@std@@@std@@I@Z 0041a300 f   DXFdata.obj
 0001:00019390       ?SetWireHeteroData@CDXFarc@@UBEXPBVCDXFdata@@AAV?$vector@V?$CPointT@M@@V?$allocator@V?$CPointT@M@@@std@@@std@@1M@Z 0041a390 f   DXFdata.obj
 0001:00019450       ?XRev@CDXFarc@@MAEXXZ      0041a450 f   DXFdata.obj
 0001:000194a0       ?YRev@CDXFarc@@MAEXXZ      0041a4a0 f   DXFdata.obj
 0001:000194f0       ?AngleTuning@CDXFarc@@IAEXXZ 0041a4f0 f   DXFdata.obj
 0001:000197a0       ?IsRangeAngle@CDXFarc@@UBEHABV?$CPointT@M@@@Z 0041a7a0 f   DXFdata.obj
 0001:00019ae0       ?DrawTuning@CDXFarc@@UAEXM@Z 0041aae0 f   DXFdata.obj
 0001:00019b40       ?Draw@CDXFarc@@UBEXPAVCDC@@@Z 0041ab40 f   DXFdata.obj
 0001:00019d60       ?OrgTuning@CDXFarc@@UAEMH@Z 0041ad60 f   DXFdata.obj
 0001:00019df0       ?GetSelectPointGap@CDXFarc@@UAEMABV?$CPointT@M@@@Z 0041adf0 f   DXFdata.obj
 0001:00019f90       ?GetDirectionArraw@CDXFarc@@UAEHABV?$CPointT@M@@QAY02V2@@Z 0041af90 f   DXFdata.obj
 0001:0001a030       ?GetIntersectionPoint@CDXFarc@@UBEHPBVCDXFdata@@QAV?$CPointT@M@@H@Z 0041b030 f   DXFdata.obj
 0001:0001a270       ?GetIntersectionPoint@CDXFarc@@UBEHABV?$CPointT@M@@0QAV2@H@Z 0041b270 f   DXFdata.obj
 0001:0001a330       ?CalcOffsetIntersectionPoint@CDXFarc@@UBE?AV?$optional@V?$CPointT@M@@@boost@@PBVCDXFdata@@MH@Z 0041b330 f   DXFdata.obj
 0001:0001a690       ?CheckIntersectionCircle@CDXFarc@@UBEHABV?$CPointT@M@@M@Z 0041b690 f   DXFdata.obj
 0001:0001a840       ??_GCDXFellipse@@UAEPAXI@Z 0041b840 f i DXFdata.obj
 0001:0001a840       ??_ECDXFellipse@@UAEPAXI@Z 0041b840 f i * CIL library *:* CIL module *
 0001:0001a8a0       ??0CDXFellipse@@QAE@PBUDXFEARGV@@K@Z 0041b8a0 f   DXFdata.obj
 0001:0001a9e0       ??0CDXFellipse@@QAE@PAVCLayerData@@PBV0@PBUDXFBLOCK@@K@Z 0041b9e0 f   DXFdata.obj
 0001:0001ae50       ?Serialize@CDXFellipse@@UAEXAAVCArchive@@@Z 0041be50 f   DXFdata.obj
 0001:0001b660       ?Construct@CDXFellipse@@AAEXXZ 0041c660 f   DXFdata.obj
 0001:0001b780       ?EllipseCalc@CDXFellipse@@AAEXXZ 0041c780 f   DXFdata.obj
 0001:0001ba00       ?SetMaxRect@CDXFellipse@@MAEXXZ 0041ca00 f   DXFdata.obj
 0001:0001be10       ?SwapMakePt@CDXFellipse@@UAEXH@Z 0041ce10 f   DXFdata.obj
 0001:0001beb0       ?SwapNativePt@CDXFellipse@@UAEXXZ 0041ceb0 f   DXFdata.obj
 0001:0001bf30       ?RoundObjPoint@CDXFellipse@@UAEXABV?$CPointT@M@@M@Z 0041cf30 f   DXFdata.obj
 0001:0001c040       ?SetVectorPoint@CDXFellipse@@UBEIAAV?$vector@V?$CPointT@M@@V?$allocator@V?$CPointT@M@@@std@@@std@@M@Z 0041d040 f   DXFdata.obj
 0001:0001c3b0       ?XRev@CDXFellipse@@MAEXXZ  0041d3b0 f   DXFdata.obj
 0001:0001c4e0       ?YRev@CDXFellipse@@MAEXXZ  0041d4e0 f   DXFdata.obj
 0001:0001c610       ?XYRev@CDXFellipse@@AAEXABV?$CPointT@M@@0@Z 0041d610 f   DXFdata.obj
 0001:0001c7a0       ?DrawTuning@CDXFellipse@@UAEXM@Z 0041d7a0 f   DXFdata.obj
 0001:0001c810       ?Draw@CDXFellipse@@UBEXPAVCDC@@@Z 0041d810 f   DXFdata.obj
 0001:0001cb40       ?OrgTuning@CDXFellipse@@UAEMH@Z 0041db40 f   DXFdata.obj
 0001:0001ceb0       ?GetSelectPointGap@CDXFellipse@@UAEMABV?$CPointT@M@@@Z 0041deb0 f   DXFdata.obj
 0001:0001d0e0       ?GetDirectionArraw@CDXFellipse@@UAEHABV?$CPointT@M@@QAY02V2@@Z 0041e0e0 f   DXFdata.obj
 0001:0001d490       ?IsDirectionPoint@CDXFellipse@@UAEHABV?$CPointT@M@@0@Z 0041e490 f   DXFdata.obj
 0001:0001d5f0       ?GetIntersectionPoint@CDXFellipse@@UBEHPBVCDXFdata@@QAV?$CPointT@M@@H@Z 0041e5f0 f   DXFdata.obj
 0001:0001d7a0       ?GetIntersectionPoint@CDXFellipse@@UBEHABV?$CPointT@M@@0QAV2@H@Z 0041e7a0 f   DXFdata.obj
 0001:0001d8a0       ?CalcOffsetIntersectionPoint@CDXFellipse@@UBE?AV?$optional@V?$CPointT@M@@@boost@@PBVCDXFdata@@MH@Z 0041e8a0 f   DXFdata.obj
 0001:0001dad0       ??0CDXFpolyline@@QAE@XZ    0041ead0 f   DXFdata.obj
 0001:0001dbc0       ??_GCDXFpolyline@@UAEPAXI@Z 0041ebc0 f i DXFdata.obj
 0001:0001dbc0       ??_ECDXFpolyline@@UAEPAXI@Z 0041ebc0 f i * CIL library *:* CIL module *
 0001:0001dca0       ??1?$CTypedPtrListEx@VCObList@@PAVCDXFworking@@@@UAE@XZ 0041eca0 f i DXFshape.obj
 0001:0001dca0       ??1?$CTypedPtrListEx@VCObList@@PAVCDXFworkingOutline@@@@UAE@XZ 0041eca0 f i DXFshape.obj
 0001:0001dca0       ??1?$CTypedPtrList@VCObList@@PAVCDXFDoc@@@@UAE@XZ 0041eca0 f i NCVC.obj
 0001:0001dca0       ??1?$CTypedPtrListEx@VCObList@@PAVCDXFdata@@@@UAE@XZ 0041eca0 f i DXFdata.obj
 0001:0001dcb0       ??_E?$CTypedPtrListEx@VCObList@@PAVCDXFworkingOutline@@@@UAEPAXI@Z 0041ecb0 f i * CIL library *:* CIL module *
 0001:0001dcb0       ??_E?$CTypedPtrListEx@VCObList@@PAVCDXFdata@@@@UAEPAXI@Z 0041ecb0 f i * CIL library *:* CIL module *
 0001:0001dcb0       ??_G?$CTypedPtrListEx@VCObList@@PAVCDXFworkingOutline@@@@UAEPAXI@Z 0041ecb0 f i DXFshape.obj
 0001:0001dcb0       ??_E?$CTypedPtrListEx@VCObList@@PAVCDXFworking@@@@UAEPAXI@Z 0041ecb0 f i * CIL library *:* CIL module *
 0001:0001dcb0       ??_E?$CTypedPtrList@VCObList@@PAVCDXFDoc@@@@UAEPAXI@Z 0041ecb0 f i * CIL library *:* CIL module *
 0001:0001dcb0       ??_G?$CTypedPtrListEx@VCObList@@PAVCDXFworking@@@@UAEPAXI@Z 0041ecb0 f i DXFshape.obj
 0001:0001dcb0       ??_G?$CTypedPtrList@VCObList@@PAVCDXFDoc@@@@UAEPAXI@Z 0041ecb0 f i NCVC.obj
 0001:0001dcb0       ??_G?$CTypedPtrListEx@VCObList@@PAVCDXFdata@@@@UAEPAXI@Z 0041ecb0 f i DXFdata.obj
 0001:0001dcf0       ??0CDXFpolyline@@QAE@PAVCLayerData@@PBV0@PBUDXFBLOCK@@K@Z 0041ecf0 f   DXFdata.obj
 0001:0001dee0       ?Serialize@CDXFpolyline@@UAEXAAVCArchive@@@Z 0041eee0 f   DXFdata.obj
 0001:0001e0e0       ?SetMaxRect@CDXFpolyline@@MAEXXZ 0041f0e0 f   DXFdata.obj
 0001:0001e2b0       ?SwapMakePt@CDXFpolyline@@UAEXH@Z 0041f2b0 f   DXFdata.obj
 0001:0001e320       ?SwapNativePt@CDXFpolyline@@UAEXXZ 0041f320 f   DXFdata.obj
 0001:0001e370       ?RoundObjPoint@CDXFpolyline@@UAEXABV?$CPointT@M@@M@Z 0041f370 f   DXFdata.obj
 0001:0001e3c0       ?IsDirectionPoint@CDXFpolyline@@UAEHABV?$CPointT@M@@0@Z 0041f3c0 f   DXFdata.obj
 0001:0001e490       ?SetVectorPoint@CDXFpolyline@@UBEIAAV?$vector@V?$CPointT@M@@V?$allocator@V?$CPointT@M@@@std@@@std@@M@Z 0041f490 f   DXFdata.obj
 0001:0001e4f0       ?SetVertex@CDXFpolyline@@QAEHPBUDXFPARGV@@MABV?$CPointT@M@@@Z 0041f4f0 f   DXFdata.obj
 0001:0001e960       ?EndSeq@CDXFpolyline@@QAEXXZ 0041f960 f   DXFdata.obj
 0001:0001ea30       ?GetFirstObject@CDXFpolyline@@QBEPAVCDXFdata@@XZ 0041fa30 f   DXFdata.obj
 0001:0001eb00       ?CheckPolylineIntersection_SubLoop@CDXFpolyline@@AAEXABV?$CPointT@M@@0PAU__POSITION@@@Z 0041fb00 f   DXFdata.obj
 0001:0001ef40       ?CheckPolylineIntersection_SubLoop@CDXFpolyline@@AAEXPBVCDXFarc@@PAU__POSITION@@@Z 0041ff40 f   DXFdata.obj
 0001:0001f2c0       ?CheckPolylineIntersection_SubLoop@CDXFpolyline@@AAEXPBVCDXFellipse@@PAU__POSITION@@@Z 004202c0 f   DXFdata.obj
 0001:0001f530       ?DrawTuning@CDXFpolyline@@UAEXM@Z 00420530 f   DXFdata.obj
 0001:0001f560       ?Draw@CDXFpolyline@@UBEXPAVCDC@@@Z 00420560 f   DXFdata.obj
 0001:0001f5f0       ?OrgTuning@CDXFpolyline@@UAEMH@Z 004205f0 f   DXFdata.obj
 0001:0001f640       ?GetSelectPointGap@CDXFpolyline@@UAEMABV?$CPointT@M@@@Z 00420640 f   DXFdata.obj
 0001:0001f7d0       ?GetDirectionArraw@CDXFpolyline@@UAEHABV?$CPointT@M@@QAY02V2@@Z 004207d0 f   DXFdata.obj
 0001:0001f900       ?GetIntersectionPoint@CDXFpolyline@@UBEHPBVCDXFdata@@QAV?$CPointT@M@@H@Z 00420900 f   DXFdata.obj
 0001:0001fa50       ?GetIntersectionPoint@CDXFpolyline@@UBEHABV?$CPointT@M@@0QAV2@H@Z 00420a50 f   DXFdata.obj
 0001:0001fb10       ?CalcOffsetIntersectionPoint@CDXFpolyline@@UBE?AV?$optional@V?$CPointT@M@@@boost@@PBVCDXFdata@@MH@Z 00420b10 f   DXFdata.obj
 0001:0001fcd0       ?CheckIntersectionCircle@CDXFpolyline@@UBEHABV?$CPointT@M@@M@Z 00420cd0 f   DXFdata.obj
 0001:0001fe40       ??_ECDXFtext@@UAEPAXI@Z    00420e40 f i * CIL library *:* CIL module *
 0001:0001fe40       ??_GCDXFtext@@UAEPAXI@Z    00420e40 f i DXFdata.obj
 0001:0001fea0       ??0CDXFtext@@QAE@PBUDXFTARGV@@K@Z 00420ea0 f   DXFdata.obj
 0001:0001ffc0       ??0CDXFtext@@QAE@PAVCLayerData@@PBV0@PBUDXFBLOCK@@K@Z 00420fc0 f   DXFdata.obj
 0001:000201b0       ?Serialize@CDXFtext@@UAEXAAVCArchive@@@Z 004211b0 f   DXFdata.obj
 0001:000203f0       ?Draw@CDXFtext@@UBEXPAVCDC@@@Z 004213f0 f   DXFdata.obj
 0001:00020430       ?OrgTuning@CDXFtext@@UAEMH@Z 00421430 f   DXFdata.obj
 0001:000204a0       ?GetNext@?$_CTypedPtrList@VCObList@@PAVCDXFdata@@@@QAEAAPAVCDXFdata@@AAPAU__POSITION@@@Z 004214a0 f i DXFdata.obj
 0001:000204c0       ?GetTail@?$_CTypedPtrList@VCObList@@PAVCDXFdata@@@@QAEAAPAVCDXFdata@@XZ 004214c0 f i DXFdata.obj
 0001:000204d0       ?GetHead@?$_CTypedPtrList@VCObList@@PAVCDXFdata@@@@QAEAAPAVCDXFdata@@XZ 004214d0 f i DXFdata.obj
 0001:000204e0       ?RoundUp@?$CPointT@M@@QBE?AV1@XZ 004214e0 f i DXFdata.obj
 0001:000205a0       ??$?5DV?$StrTraitMFC_DLL@DV?$ChTraitsCRT@D@ATL@@@@@CArchive@@QAEAAV0@AAV?$CStringT@DV?$StrTraitMFC_DLL@DV?$ChTraitsCRT@D@ATL@@@@@ATL@@@Z 004215a0 f i DXFdata.obj
 0001:00020760       ??$_Emplace_reallocate@ABV?$CPointT@M@@@?$vector@V?$CPointT@M@@V?$allocator@V?$CPointT@M@@@std@@@std@@QAEPAV?$CPointT@M@@QAV2@ABV2@@Z 00421760 f i DXFdata.obj
 0001:00020870       ?allocate@?$allocator@V?$CPointT@M@@@std@@QAEPAV?$CPointT@M@@I@Z 00421870 f i DXFdata.obj
 0001:000208d0       ?AllocateHeap@?$CTempBuffer@D$0IA@VCCRTAllocator@ATL@@@ATL@@AAEXI@Z 004218d0 f i DXFdata.obj
 0001:000208d0       ?AllocateHeap@?$CTempBuffer@_W$0IA@VCCRTAllocator@ATL@@@ATL@@AAEXI@Z 004218d0 f i DXFdata.obj
 0001:00020900       ?FreeHeap@?$CTempBuffer@D$0IA@VCCRTAllocator@ATL@@@ATL@@AAEXXZ 00421900 f i DXFdata.obj
 0001:00020900       ?FreeHeap@?$CTempBuffer@_W$0IA@VCCRTAllocator@ATL@@@ATL@@AAEXXZ 00421900 f i DXFdata.obj
 0001:00020910       ??1?$CTempBuffer@_W$0IA@VCCRTAllocator@ATL@@@ATL@@QAE@XZ 00421910 f i DXFdata.obj
 0001:00020910       ??1?$CTempBuffer@D$0IA@VCCRTAllocator@ATL@@@ATL@@QAE@XZ 00421910 f i DXFdata.obj
 0001:00020920       _atanf                     00421920 f i DXFdata.obj
 0001:00020940       ?GetHeadPosition@CObList@@QBEPAU__POSITION@@XZ 00421940 f i DXFdata.obj
 0001:00020950       ?AtlThrowImpl@ATL@@YGXJ@Z  00421950 f i DXFdata.obj
 0001:00020970       ?GetDocExtString@CNCVCApp@@QAE?AV?$CStringT@DV?$StrTraitMFC_DLL@DV?$ChTraitsCRT@D@ATL@@@@@ATL@@W4DOCTYPE@@@Z 00421970 f i DXFDoc.obj
 0001:000209e0       ?CreateObject@CDXFDoc@@SGPAVCObject@@XZ 004219e0 f   DXFDoc.obj
 0001:00020a50       ?GetRuntimeClass@CDXFDoc@@UBEPAUCRuntimeClass@@XZ 00421a50 f   DXFDoc.obj
 0001:00020a60       ?GetMessageMap@CDXFDoc@@MBEPBUAFX_MSGMAP@@XZ 00421a60 f   DXFDoc.obj
 0001:00020a70       ??0CDXFDoc@@IAE@XZ         00421a70 f   DXFDoc.obj
 0001:00020c60       ??_ECDXFDoc@@UAEPAXI@Z     00421c60 f i * CIL library *:* CIL module *
 0001:00020c60       ??_GCDXFDoc@@UAEPAXI@Z     00421c60 f i DXFDoc.obj
 0001:00020ca0       ??1?$CTypedPtrMap@VCMapStringToOb@@V?$CStringT@DV?$StrTraitMFC_DLL@DV?$ChTraitsCRT@D@ATL@@@@@ATL@@PAVCLayerData@@@@UAE@XZ 00421ca0 f i DXFDoc.obj
 0001:00020cb0       ??1?$CTypedPtrArrayEx@VCPtrArray@@PAV?$CSortArray@VCObArray@@PAVCDXFdata@@@@@@UAE@XZ 00421cb0 f i TH_MakeNCD.obj
 0001:00020cb0       ??1?$CTypedPtrArrayEx@VCPtrArray@@PAVCNCdata@@@@UAE@XZ 00421cb0 f i NCdata.obj
 0001:00020cb0       ??1?$CTypedPtrArrayEx@VCPtrArray@@PAVCNCblock@@@@UAE@XZ 00421cb0 f i NCDoc.obj
 0001:00020cb0       ??1?$CTypedPtrArrayEx@VCPtrArray@@PAVCDXFMake@@@@UAE@XZ 00421cb0 f i DXFDoc.obj
 0001:00020cb0       ??1?$CTypedPtrArrayEx@VCPtrArray@@PAV?$CTypedPtrListEx@VCObList@@PAVCDXFdata@@@@@@UAE@XZ 00421cb0 f i DXFshape.obj
 0001:00020cb0       ??1?$CSortArray@VCPtrArray@@PAUCADBINDINFO@@@@UAE@XZ 00421cb0 f i DXFDoc.obj
 0001:00020cb0       ??1?$CTypedPtrArrayEx@VCPtrArray@@PAVCNCVCaddinIF@@@@UAE@XZ 00421cb0 f i NCVC.obj
 0001:00020cc0       ??_E?$CSortArray@VCObArray@@PAVCDXFcircle@@@@UAEPAXI@Z 00421cc0 f i * CIL library *:* CIL module *
 0001:00020cc0       ??_E?$CTypedPtrArrayEx@VCObArray@@PAVCWnd@@@@UAEPAXI@Z 00421cc0 f i * CIL library *:* CIL module *
 0001:00020cc0       ??_G?$CTypedPtrArrayEx@VCObArray@@PAVCDXFtext@@@@UAEPAXI@Z 00421cc0 f i Layer.obj
 0001:00020cc0       ??_G?$CSortArray@VCObArray@@PAVCDXFdata@@@@UAEPAXI@Z 00421cc0 f i TH_MakeLathe.obj
 0001:00020cc0       ??_E?$CSortArray@VCObArray@@PAVCDXFchain@@@@UAEPAXI@Z 00421cc0 f i * CIL library *:* CIL module *
 0001:00020cc0       ??_G?$CTypedPtrArrayEx@VCObArray@@PAVCDXFdata@@@@UAEPAXI@Z 00421cc0 f i DXFshape.obj
 0001:00020cc0       ??_G?$CSortArray@VCObArray@@PAVCDXFchain@@@@UAEPAXI@Z 00421cc0 f i DXFshape.obj
 0001:00020cc0       ??_E?$CSortArray@VCObArray@@PAVCDXFshape@@@@UAEPAXI@Z 00421cc0 f i * CIL library *:* CIL module *
 0001:00020cc0       ??_G?$CSortArray@VCObArray@@PAVCDXFshape@@@@UAEPAXI@Z 00421cc0 f i Layer.obj
 0001:00020cc0       ??_E?$CTypedPtrArrayEx@VCObArray@@PAVCDXFtext@@@@UAEPAXI@Z 00421cc0 f i * CIL library *:* CIL module *
 0001:00020cc0       ??_G?$CSortArray@VCObArray@@PAVCLayerData@@@@UAEPAXI@Z 00421cc0 f i DXFDoc.obj
 0001:00020cc0       ??_E?$CSortArray@VCObArray@@PAVCLayerData@@@@UAEPAXI@Z 00421cc0 f i * CIL library *:* CIL module *
 0001:00020cc0       ??_G?$CSortArray@VCObArray@@PAVCDXFworkingOutline@@@@UAEPAXI@Z 00421cc0 f i DXFshape.obj
 0001:00020cc0       ??_G?$CTypedPtrArrayEx@VCObArray@@PAVCWnd@@@@UAEPAXI@Z 00421cc0 f i NCInfoTab.obj
 0001:00020cc0       ??_G?$CSortArray@VCObArray@@PAVCDXFcircle@@@@UAEPAXI@Z 00421cc0 f i TH_MakeNCD.obj
 0001:00020cc0       ??_E?$CSortArray@VCObArray@@PAVCDXFworkingOutline@@@@UAEPAXI@Z 00421cc0 f i * CIL library *:* CIL module *
 0001:00020cc0       ??_G?$CTypedPtrArrayEx@VCObArray@@PAVCImageList@@@@UAEPAXI@Z 00421cc0 f i MainFrm.obj
 0001:00020cc0       ??_E?$CTypedPtrArrayEx@VCObArray@@PAVCImageList@@@@UAEPAXI@Z 00421cc0 f i * CIL library *:* CIL module *
 0001:00020cc0       ??_E?$CSortArray@VCObArray@@PAVCDXFdata@@@@UAEPAXI@Z 00421cc0 f i * CIL library *:* CIL module *
 0001:00020cc0       ??_E?$CTypedPtrArrayEx@VCObArray@@PAVCDXFdata@@@@UAEPAXI@Z 00421cc0 f i * CIL library *:* CIL module *
 0001:00020d00       ??1CDXFDoc@@UAE@XZ         00421d00 f   DXFDoc.obj
 0001:00020e80       ?RemoveData@CDXFDoc@@AAEXPAVCLayerData@@H@Z 00421e80 f   DXFDoc.obj
 0001:00020fe0       ?DataOperation@CDXFDoc@@QAEXPAVCDXFdata@@W4ENDXFOPERATION@@H@Z 00421fe0 f   DXFDoc.obj
 0001:00021170       ?AddLayerMap@CDXFDoc@@QAEPAVCLayerData@@ABV?$CStringT@DV?$StrTraitMFC_DLL@DV?$ChTraitsCRT@D@ATL@@@@@ATL@@H@Z 00422170 f   DXFDoc.obj
 0001:00021340       ?CheckDuplexFile@CDXFDoc@@QAE?AV?$CStringT@DV?$StrTraitMFC_DLL@DV?$ChTraitsCRT@D@ATL@@@@@ATL@@ABV23@PBV?$CSortArray@VCObArray@@PAVCLayerData@@@@@Z 00422340 f   DXFDoc.obj
 0001:00021560       ?ReadLayerMap@CDXFDoc@@QAEHPBD@Z 00422560 f   DXFDoc.obj
 0001:000217b0       ?SaveLayerMap@CDXFDoc@@QAEHPBDPBV?$CSortArray@VCObArray@@PAVCLayerData@@@@@Z 004227b0 f   DXFDoc.obj
 0001:00021980       ?AllChangeFactor@CDXFDoc@@QAEXM@Z 00422980 f   DXFDoc.obj
 0001:00021b30       ?AllSetDxfFlg@CDXFDoc@@QAEXKH@Z 00422b30 f   DXFDoc.obj
 0001:00021c10       ?AllRoundObjPoint@CDXFDoc@@QAEXM@Z 00422c10 f   DXFDoc.obj
 0001:00021ef0       ?CreateCutterOrigin@CDXFDoc@@QAEXABV?$CPointT@M@@MH@Z 00422ef0 f   DXFDoc.obj
 0001:00022010       ?CreateLatheLine@CDXFDoc@@QAEXABV?$CPointT@M@@0@Z 00423010 f   DXFDoc.obj
 0001:00022150       ?CreateLatheLine@CDXFDoc@@QAEXPBVCDXFline@@PBUDXFBLOCK@@@Z 00423150 f   DXFDoc.obj
 0001:00022270       ?GetEditOrgPoint@CDXFDoc@@AAEHPBDAAV?$CPointT@M@@@Z 00423270 f   DXFDoc.obj
 0001:000224d0       ?GetSelectObject@CDXFDoc@@QAE?AV?$tuple@PAVCDXFshape@@PAVCDXFdata@@MUnull_type@tuples@boost@@U345@U345@U345@U345@U345@U345@@tuples@boost@@ABV?$CPointT@M@@ABV?$CRectT@M@@@Z 004234d0 f   DXFDoc.obj
 0001:00022670       ?MakeDXF_Sub@@YAXPBVCDXFDoc@@ABV?$CPointT@M@@AAV?$CTypedPtrArrayEx@VCPtrArray@@PAVCDXFMake@@@@@Z 00423670 f   DXFDoc.obj
 0001:000227e0       ?MakeDXF@CDXFDoc@@AAEXABV?$CStringT@DV?$StrTraitMFC_DLL@DV?$ChTraitsCRT@D@ATL@@@@@ATL@@@Z 004237e0 f   DXFDoc.obj
 0001:00022c90       ??1CDXFMakeOption@@QAE@XZ  00423c90 f i DXFDoc.obj
 0001:00022ce0       ?OnCmdMsg@CDXFDoc@@UAEHIHPAXPAUAFX_CMDHANDLERINFO@@@Z 00423ce0 f   DXFDoc.obj
 0001:00022d10       ?OnNewDocument@CDXFDoc@@UAEHXZ 00423d10 f   DXFDoc.obj
 0001:00022e20       ?OnOpenDocument@CDXFDoc@@UAEHPBD@Z 00423e20 f   DXFDoc.obj
 0001:00023280       ?OnSaveDocument@CDXFDoc@@UAEHPBD@Z 00424280 f   DXFDoc.obj
 0001:00023320       ?OnCloseDocument@CDXFDoc@@UAEXXZ 00424320 f   DXFDoc.obj
 0001:000233c0       ?SaveModified@CDXFDoc@@UAEHXZ 004243c0 f   DXFDoc.obj
 0001:00023530       ?UpdateFrameCounts@CDXFDoc@@UAEXXZ 00424530 f   DXFDoc.obj
 0001:00023580       ?Serialize@CDXFDoc@@UAEXAAVCArchive@@@Z 00424580 f   DXFDoc.obj
 0001:00024e40       ?OnEditOrigin@CDXFDoc@@IAEXXZ 00425e40 f   DXFDoc.obj
 0001:00025170       ??1CDxfEditOrgDlg@@UAE@XZ  00426170 f i DXFDoc.obj
 0001:000251c0       ?OnUpdateEditShape@CDXFDoc@@IAEXPAVCCmdUI@@@Z 004261c0 f   DXFDoc.obj
 0001:000251f0       ?OnEditShape@CDXFDoc@@IAEXXZ 004261f0 f   DXFDoc.obj
 0001:000252d0       ??1CThreadDlg@@UAE@XZ      004262d0 f i DXFDoc.obj
 0001:00025300       ?OnEditAuto@CDXFDoc@@IAEXI@Z 00426300 f   DXFDoc.obj
 0001:00025670       ?OnEditStrictOffset@CDXFDoc@@IAEXXZ 00426670 f   DXFDoc.obj
 0001:00025730       ?OnUpdateEditShaping@CDXFDoc@@IAEXPAVCCmdUI@@@Z 00426730 f   DXFDoc.obj
 0001:00025750       ?OnUpdateShapePattern@CDXFDoc@@IAEXPAVCCmdUI@@@Z 00426750 f   DXFDoc.obj
 0001:000257a0       ?OnShapePattern@CDXFDoc@@IAEXI@Z 004267a0 f   DXFDoc.obj
 0001:000257e0       ?OnFileDXF2DXF@CDXFDoc@@IAEXXZ 004267e0 f   DXFDoc.obj
 0001:00025ab0       ?OnUpdateFileDXF2NCD@CDXFDoc@@IAEXPAVCCmdUI@@@Z 00426ab0 f   DXFDoc.obj
 0001:00025bb0       ?OnFileDXF2NCD@CDXFDoc@@IAEXI@Z 00426bb0 f   DXFDoc.obj
 0001:00026550       ??1CMakeNCDlgEx@@UAE@XZ    00427550 f i DXFDoc.obj
 0001:000265b0       ??1CMakeNCDlgEx2@@UAE@XZ   004275b0 f i DXFDoc.obj
 0001:00026690       ??1CMakeNCDlgEx3@@UAE@XZ   00427690 f i DXFDoc.obj
 0001:000266b0       ?OnFileSave@CDXFDoc@@IAEXXZ 004276b0 f   DXFDoc.obj
 0001:00026780       ?OnFileSaveAs@CDXFDoc@@IAEXXZ 00427780 f   DXFDoc.obj
 0001:00026940       ?RestoreCircleTypeThread@CDXFDoc@@CAIPAX@Z 00427940 f   DXFDoc.obj
 0001:00027080       ??_E?$CTypedPtrMap@VCMapStringToOb@@V?$CStringT@DV?$StrTraitMFC_DLL@DV?$ChTraitsCRT@D@ATL@@@@@ATL@@PAVCLayerData@@@@UAEPAXI@Z 00428080 f i * CIL library *:* CIL module *
 0001:00027080       ??_G?$CTypedPtrMap@VCMapStringToOb@@V?$CStringT@DV?$StrTraitMFC_DLL@DV?$ChTraitsCRT@D@ATL@@@@@ATL@@PAVCLayerData@@@@UAEPAXI@Z 00428080 f i DXFDoc.obj
 0001:000270c0       ?QSort@?$CSortArray@VCPtrArray@@PAUCADBINDINFO@@@@AAEXP6AHPAUCADBINDINFO@@0@ZHH@Z 004280c0 f i DXFDoc.obj
 0001:000270c0       ?QSort@?$CSortArray@VCPtrArray@@PAUTHUMBNAILINFO@@@@AAEXP6AHPAUTHUMBNAILINFO@@0@ZHH@Z 004280c0 f i ThumbnailDlg.obj
 0001:000270c0       ?QSort@?$CSortArray@VCObArray@@PAVCDXFshape@@@@AAEXP6AHPAVCDXFshape@@0@ZHH@Z 004280c0 f i Layer.obj
 0001:000270c0       ?QSort@?$CSortArray@VCObArray@@PAVCDXFdata@@@@AAEXP6AHPAVCDXFdata@@0@ZHH@Z 004280c0 f i TH_MakeLathe.obj
 0001:000270c0       ?QSort@?$CSortArray@VCObArray@@PAVCLayerData@@@@AAEXP6AHPAVCLayerData@@0@ZHH@Z 004280c0 f i DXFDoc.obj
 0001:00027180       ??1CCriticalSection@@UAE@XZ 00428180 f i DXFDoc.obj
 0001:000271a0       ??_GCCriticalSection@@UAEPAXI@Z 004281a0 f i DXFDoc.obj
 0001:000271a0       ??_ECCriticalSection@@UAEPAXI@Z 004281a0 f i * CIL library *:* CIL module *
 0001:000271f0       ?Lock@CCriticalSection@@UAEHK@Z 004281f0 f i DXFDoc.obj
 0001:00027210       ?Unlock@CSyncObject@@UAEHJPAJ@Z 00428210 f i DXFDoc.obj
 0001:00027220       ?Unlock@CCriticalSection@@UAEHXZ 00428220 f i DXFDoc.obj
 0001:00027230       ??0CCriticalSection@@QAE@XZ 00428230 f i DXFDoc.obj
 0001:000272b0       ?GetMessageMap@CDxfEditOrgDlg@@MBEPBUAFX_MSGMAP@@XZ 004282b0 f   DxfEditOrgDlg.obj
 0001:000272c0       ??_GCDxfEditOrgDlg@@UAEPAXI@Z 004282c0 f i DxfEditOrgDlg.obj
 0001:000272c0       ??_ECDxfEditOrgDlg@@UAEPAXI@Z 004282c0 f i * CIL library *:* CIL module *
 0001:00027340       ?DoDataExchange@CDxfEditOrgDlg@@MAEXPAVCDataExchange@@@Z 00428340 f   DxfEditOrgDlg.obj
 0001:000273d0       ?OnInitDialog@CDxfEditOrgDlg@@MAEHXZ 004283d0 f   DxfEditOrgDlg.obj
 0001:00027450       ?OnSelect@CDxfEditOrgDlg@@IAEXXZ 00428450 f   DxfEditOrgDlg.obj
 0001:000274b0       ?OnOK@CDxfEditOrgDlg@@MAEXXZ 004284b0 f   DxfEditOrgDlg.obj
 0001:00028900       ??0CDXFMake@@QAE@W4enSECNAME@@PBVCDocBase@@@Z 00429900 f   DXFMakeClass.obj
 0001:00028b10       ??0CDXFMake@@QAE@PBVCDXFdata@@ABV?$CPointT@M@@@Z 00429b10 f   DXFMakeClass.obj
 0001:00028eb0       ??0CDXFMake@@QAE@ABV?$CPoint3T@M@@M@Z 00429eb0 f   DXFMakeClass.obj
 0001:00029490       ??0CDXFMake@@QAE@ABV?$CRectT@M@@@Z 0042a490 f   DXFMakeClass.obj
 0001:000296e0       ?MakeSection_Header@CDXFMake@@AAEXPBVCDocBase@@@Z 0042a6e0 f   DXFMakeClass.obj
 0001:0002a1b0       ?MakeSection_Tables@CDXFMake@@AAEXPBVCDocBase@@@Z 0042b1b0 f   DXFMakeClass.obj
 0001:0002c390       ??1TABLELAYERINFO@@QAE@XZ  0042d390 f i DXFMakeClass.obj
 0001:0002c3b0       ?MakeSection_TableLayer_NCD@CDXFMake@@AAEXAAV?$vector@UTABLELAYERINFO@@V?$allocator@UTABLELAYERINFO@@@std@@@std@@@Z 0042d3b0 f   DXFMakeClass.obj
 0001:0002c590       ?MakeSection_TableLayer_DXF@CDXFMake@@AAEXAAV?$vector@UTABLELAYERINFO@@V?$allocator@UTABLELAYERINFO@@@std@@@std@@PBVCDXFDoc@@@Z 0042d590 f   DXFMakeClass.obj
 0001:0002c7c0       ?MakeDXF_Figure@CDXFMake@@AAE?AV?$CStringT@DV?$StrTraitMFC_DLL@DV?$ChTraitsCRT@D@ATL@@@@@ATL@@HH@Z 0042d7c0 f   DXFMakeClass.obj
 0001:0002ca00       ?MakeValueCycle@CDXFMake@@AAE?AV?$CStringT@DV?$StrTraitMFC_DLL@DV?$ChTraitsCRT@D@ATL@@@@@ATL@@PBVCNCcycle@@HHW4ENPLANE@@@Z 0042da00 f   DXFMakeClass.obj
 0001:0002d870       ?MakeDXF_NCtoLine@CDXFMake@@AAEXPBVCNCline@@H@Z 0042e870 f   DXFMakeClass.obj
 0001:0002de40       ?MakeDXF_NCtoArc@CDXFMake@@AAEXPBVCNCcircle@@H@Z 0042ee40 f   DXFMakeClass.obj
 0001:0002e0a0       ?MakeDXF_NCtoCycle@CDXFMake@@AAEXPBVCNCcycle@@@Z 0042f0a0 f   DXFMakeClass.obj
 0001:0002e3b0       ?MakeValueCycle_XY_Circle@CDXFMake@@AAE?AV?$CStringT@DV?$StrTraitMFC_DLL@DV?$ChTraitsCRT@D@ATL@@@@@ATL@@PBVCNCcycle@@H@Z 0042f3b0 f   DXFMakeClass.obj
 0001:0002e3d0       ?MakeValueCycle_XZ_Circle@CDXFMake@@AAE?AV?$CStringT@DV?$StrTraitMFC_DLL@DV?$ChTraitsCRT@D@ATL@@@@@ATL@@PBVCNCcycle@@H@Z 0042f3d0 f   DXFMakeClass.obj
 0001:0002e3f0       ?MakeValueCycle_YZ_Circle@CDXFMake@@AAE?AV?$CStringT@DV?$StrTraitMFC_DLL@DV?$ChTraitsCRT@D@ATL@@@@@ATL@@PBVCNCcycle@@H@Z 0042f3f0 f   DXFMakeClass.obj
 0001:0002e410       ?MakeValueCycle_XY_Point@CDXFMake@@AAE?AV?$CStringT@DV?$StrTraitMFC_DLL@DV?$ChTraitsCRT@D@ATL@@@@@ATL@@PBVCNCcycle@@H@Z 0042f410 f   DXFMakeClass.obj
 0001:0002e430       ?MakeValueCycle_XZ_Point@CDXFMake@@AAE?AV?$CStringT@DV?$StrTraitMFC_DLL@DV?$ChTraitsCRT@D@ATL@@@@@ATL@@PBVCNCcycle@@H@Z 0042f430 f   DXFMakeClass.obj
 0001:0002e450       ?MakeValueCycle_YZ_Point@CDXFMake@@AAE?AV?$CStringT@DV?$StrTraitMFC_DLL@DV?$ChTraitsCRT@D@ATL@@@@@ATL@@PBVCNCcycle@@H@Z 0042f450 f   DXFMakeClass.obj
 0001:0002e470       ?MakeDXF_PolylineDismantle@CDXFMake@@AAEXPBVCDXFpolyline@@ABV?$CPointT@M@@@Z 0042f470 f   DXFMakeClass.obj
 0001:0002e850       ?SetStaticOption@CDXFMake@@SAXPBVCDXFMakeOption@@@Z 0042f850 f   DXFMakeClass.obj
 0001:0002e8f0       ?InitialColorIndex@@YAXXZ  0042f8f0 f   DXFMakeClass.obj
 0001:0002f8f0       ??1?$vector@UTABLELAYERINFO@@V?$allocator@UTABLELAYERINFO@@@std@@@std@@QAE@XZ 004308f0 f i DXFMakeClass.obj
 0001:0002f980       ?GetYZ@?$CPoint3T@M@@QBE?AV?$CPointT@M@@XZ 00430980 f i DXFMakeClass.obj
 0001:0002f9a0       ?GetXZ@?$CPoint3T@M@@QBE?AV?$CPointT@M@@XZ 004309a0 f i DXFMakeClass.obj
 0001:0002f9c0       ??$_Emplace_reallocate@UTABLELAYERINFO@@@?$vector@UTABLELAYERINFO@@V?$allocator@UTABLELAYERINFO@@@std@@@std@@QAEPAUTABLELAYERINFO@@QAU2@$$QAU2@@Z 004309c0 f i DXFMakeClass.obj
 0001:0002fc70       ??$_Destroy_range@V?$allocator@UTABLELAYERINFO@@@std@@@std@@YAXPAUTABLELAYERINFO@@QAU1@AAV?$allocator@UTABLELAYERINFO@@@0@@Z 00430c70 f i DXFMakeClass.obj
 0001:0002fca0       ??$_Uninitialized_move@PAUTABLELAYERINFO@@V?$allocator@UTABLELAYERINFO@@@std@@@std@@YAPAUTABLELAYERINFO@@QAU1@0PAU1@AAV?$allocator@UTABLELAYERINFO@@@0@@Z 00430ca0 f i DXFMakeClass.obj
 0001:0002fd30       ??1?$_Uninitialized_backout_al@V?$allocator@UTABLELAYERINFO@@@std@@@std@@QAE@XZ 00430d30 f i DXFMakeClass.obj
 0001:0002fd60       ??$_Sort_unchecked@PAUINDEXCOLOR@@U?$less@X@std@@@std@@YAXPAUINDEXCOLOR@@0HU?$less@X@0@@Z 00430d60 f i DXFMakeClass.obj
 0001:0002ffb0       ??$_Partition_by_median_guess_unchecked@PAUINDEXCOLOR@@U?$less@X@std@@@std@@YA?AU?$pair@PAUINDEXCOLOR@@PAU1@@0@PAUINDEXCOLOR@@0U?$less@X@0@@Z 00430fb0 f i DXFMakeClass.obj
 0001:00030260       ??$_Pop_heap_hole_by_index@PAUINDEXCOLOR@@U1@U?$less@X@std@@@std@@YAXPAUINDEXCOLOR@@HH$$QAU1@U?$less@X@0@@Z 00431260 f i DXFMakeClass.obj
 0001:00030360       ??$_Med3_unchecked@PAUINDEXCOLOR@@U?$less@X@std@@@std@@YAXPAUINDEXCOLOR@@00U?$less@X@0@@Z 00431360 f i DXFMakeClass.obj
 0001:000303f0       _tanf                      004313f0 f i DXFMakeClass.obj
 0001:00030410       ??0CDXFMakeOption@@QAE@H@Z 00431410 f   DXFMakeOption.obj
 0001:00030510       ?Initialize_Registry@CDXFMakeOption@@AAEXXZ 00431510 f   DXFMakeOption.obj
 0001:000307c0       ??0CDXFOption@@QAE@XZ      004317c0 f   DXFOption.obj
 0001:00030ce0       ??_FCStringList@@QAEXXZ    00431ce0 f i DXFOption.obj
 0001:00030cf0       ?ReadInitHistory@CDXFOption@@AAEHW4NCMAKETYPE@@@Z 00431cf0 f   DXFOption.obj
 0001:00030f30       ?AddListHistory@CDXFOption@@AAEHW4NCMAKETYPE@@PBD@Z 00431f30 f   DXFOption.obj
 0001:00031050       ?DelInitHistory@CDXFOption@@QAEXW4NCMAKETYPE@@PBD@Z 00432050 f   DXFOption.obj
 0001:000310b0       ?GetIgnoreStr@CDXFOption@@QBE?AV?$CStringT@DV?$StrTraitMFC_DLL@DV?$ChTraitsCRT@D@ATL@@@@@ATL@@XZ 004320b0 f   DXFOption.obj
 0001:000311b0       ?SetIgnoreArray@CDXFOption@@QAEXABV?$CStringT@DV?$StrTraitMFC_DLL@DV?$ChTraitsCRT@D@ATL@@@@@ATL@@@Z 004321b0 f   DXFOption.obj
 0001:00031610       ??1?$no_case_literal_string@QBD$0A@@qi@spirit@boost@@QAE@XZ 00432610 f i TH_NCRead.obj
 0001:00031610       ??1?$no_case_literal_string@AAY02$$CBD$00@qi@spirit@boost@@QAE@XZ 00432610 f i TH_NCRead.obj
 0001:00031610       ??1?$char_separator@DU?$char_traits@D@std@@@boost@@QAE@XZ 00432610 f i DXFOption.obj
 0001:00031610       ??1?$no_case_literal_string@QBD$00@qi@spirit@boost@@QAE@XZ 00432610 f i TH_NCRead.obj
 0001:000316a0       ??1?$tokenizer@V?$char_separator@DU?$char_traits@D@std@@@boost@@V?$_String_const_iterator@V?$_String_val@U?$_Simple_types@D@std@@@std@@@std@@V?$basic_string@DU?$char_traits@D@std@@V?$allocator@D@2@@4@@boost@@QAE@XZ 004326a0 f i DXFOption.obj
 0001:000316b0       ??1?$token_iterator@V?$char_separator@DU?$char_traits@D@std@@@boost@@V?$_String_const_iterator@V?$_String_val@U?$_Simple_types@D@std@@@std@@@std@@V?$basic_string@DU?$char_traits@D@std@@V?$allocator@D@2@@4@@boost@@QAE@XZ 004326b0 f i DXFOption.obj
 0001:000316b0       ??1?$auto_any@V?$token_iterator@V?$char_separator@DU?$char_traits@D@std@@@boost@@V?$_String_const_iterator@V?$_String_val@U?$_Simple_types@D@std@@@std@@@std@@V?$basic_string@DU?$char_traits@D@std@@V?$allocator@D@2@@4@@boost@@@foreach_detail_@boost@@QAE@XZ 004326b0 f i DXFOption.obj
 0001:00031710       ?SaveDXFoption@CDXFOption@@QAEHXZ 00432710 f   DXFOption.obj
 0001:000318c0       ?SaveBindOption@CDXFOption@@QAEHXZ 004328c0 f   DXFOption.obj
 0001:00031b00       ??1?$shared_ptr@V?$regex_iterator_implementation@V?$_String_const_iterator@V?$_String_val@U?$_Simple_types@D@std@@@std@@@std@@DU?$regex_traits@DV?$w32_regex_traits@D@boost@@@boost@@@boost@@@std@@QAE@XZ 00432b00 f i NCDoc.obj
 0001:00031b00       ??1?$shared_ptr@V?$basic_regex_implementation@DU?$regex_traits@DV?$w32_regex_traits@D@boost@@@boost@@@re_detail_500@boost@@@std@@QAE@XZ 00432b00 f i DXFOption.obj
 0001:00031b00       ??1?$basic_regex@DU?$regex_traits@DV?$w32_regex_traits@D@boost@@@boost@@@boost@@QAE@XZ 00432b00 f i DXFOption.obj
 0001:00031b00       ??1?$regex_iterator@V?$_String_const_iterator@V?$_String_val@U?$_Simple_types@D@std@@@std@@@std@@DU?$regex_traits@DV?$w32_regex_traits@D@boost@@@boost@@@boost@@QAE@XZ 00432b00 f i NCDoc.obj
 0001:00031b00       ??1?$pair@V?$shared_ptr@$$CBV?$w32_regex_traits_implementation@D@re_detail_500@boost@@@std@@PBK@std@@QAE@XZ 00432b00 f i DXFOption.obj
 0001:00031b00       ??1?$shared_ptr@X@std@@QAE@XZ 00432b00 f i DXFOption.obj
 0001:00031b00       ??1?$shared_ptr@$$CBV?$w32_regex_traits_implementation@D@re_detail_500@boost@@@std@@QAE@XZ 00432b00 f i DXFOption.obj
 0001:00031b30       ??4?$basic_string@DU?$char_traits@D@std@@V?$allocator@D@2@@std@@QAEAAV01@ABV01@@Z 00432b30 f i DXFOption.obj
 0001:00031b60       ?do_assign@?$basic_regex@DU?$regex_traits@DV?$w32_regex_traits@D@boost@@@boost@@@boost@@AAEAAV12@PBD0I@Z 00432b60 f i DXFOption.obj
 0001:00031f30       ??$begin@V?$tokenizer@V?$char_separator@DU?$char_traits@D@std@@@boost@@V?$_String_const_iterator@V?$_String_val@U?$_Simple_types@D@std@@@std@@@std@@V?$basic_string@DU?$char_traits@D@std@@V?$allocator@D@2@@4@@boost@@U?$bool_@$0A@@mpl@2@@foreach_detail_@boost@@YA?AU?$auto_any@V?$token_iterator@V?$char_separator@DU?$char_traits@D@std@@@boost@@V?$_String_const_iterator@V?$_String_val@U?$_Simple_types@D@std@@@std@@@std@@V?$basic_string@DU?$char_traits@D@std@@V?$allocator@D@2@@4@@boost@@@01@ABUauto_any_base@01@PAU?$type2type@V?$tokenizer@V?$char_separator@DU?$char_traits@D@std@@@boost@@V?$_String_const_iterator@V?$_String_val@U?$_Simple_types@D@std@@@std@@@std@@V?$basic_string@DU?$char_traits@D@std@@V?$allocator@D@2@@4@@boost@@U?$bool_@$0A@@mpl@2@@01@PAU?$bool_@$0A@@mpl@1@@Z 00432f30 f i DXFOption.obj
 0001:00032040       ??$end@V?$tokenizer@V?$char_separator@DU?$char_traits@D@std@@@boost@@V?$_String_const_iterator@V?$_String_val@U?$_Simple_types@D@std@@@std@@@std@@V?$basic_string@DU?$char_traits@D@std@@V?$allocator@D@2@@4@@boost@@U?$bool_@$0A@@mpl@2@@foreach_detail_@boost@@YA?AU?$auto_any@V?$token_iterator@V?$char_separator@DU?$char_traits@D@std@@@boost@@V?$_String_const_iterator@V?$_String_val@U?$_Simple_types@D@std@@@std@@@std@@V?$basic_string@DU?$char_traits@D@std@@V?$allocator@D@2@@4@@boost@@@01@ABUauto_any_base@01@PAU?$type2type@V?$tokenizer@V?$char_separator@DU?$char_traits@D@std@@@boost@@V?$_String_const_iterator@V?$_String_val@U?$_Simple_types@D@std@@@std@@@std@@V?$basic_string@DU?$char_traits@D@std@@V?$allocator@D@2@@4@@boost@@U?$bool_@$0A@@mpl@2@@01@PAU?$bool_@$0A@@mpl@1@@Z 00433040 f i DXFOption.obj
 0001:00032150       ??1?$basic_regex_parser@DU?$regex_traits@DV?$w32_regex_traits@D@boost@@@boost@@@re_detail_500@boost@@QAE@XZ 00433150 f i DXFOption.obj
 0001:00032170       ??1?$basic_regex_creator@DU?$regex_traits@DV?$w32_regex_traits@D@boost@@@boost@@@re_detail_500@boost@@QAE@XZ 00433170 f i DXFOption.obj
 0001:000321d0       ??1named_subexpressions@re_detail_500@boost@@QAE@XZ 004331d0 f i DXFOption.obj
 0001:000321d0       ??1?$vector@V?$CPointT@M@@V?$allocator@V?$CPointT@M@@@std@@@std@@QAE@XZ 004331d0 f i DXFshape.obj
 0001:000321e0       ??0?$regex_data@DU?$regex_traits@DV?$w32_regex_traits@D@boost@@@boost@@@re_detail_500@boost@@QAE@XZ 004331e0 f i DXFOption.obj
 0001:000323f0       ?_Tidy@?$vector@MV?$allocator@M@std@@@std@@AAEXXZ 004333f0 f i NCdataGL.obj
 0001:000323f0       ??1?$vector@PAXV?$allocator@PAX@std@@@std@@QAE@XZ 004333f0 f i NCViewGL_Mill.obj
 0001:000323f0       ?_Tidy@?$vector@IV?$allocator@I@std@@@std@@AAEXXZ 004333f0 f i DXFshape.obj
 0001:000323f0       ??1?$vector@JV?$allocator@J@std@@@std@@QAE@XZ 004333f0 f i DXFOption.obj
 0001:000323f0       ??1?$vector@HV?$allocator@H@std@@@std@@QAE@XZ 004333f0 f i TH_MakeNurbs.obj
 0001:000323f0       ??1?$vector@PAUCREATEBOTTOMVERTEXPARAM@@V?$allocator@PAUCREATEBOTTOMVERTEXPARAM@@@std@@@std@@QAE@XZ 004333f0 f i NCViewGL_Mill.obj
 0001:000323f0       ??1?$vector@PAU__POSITION@@V?$allocator@PAU__POSITION@@@std@@@std@@QAE@XZ 004333f0 f i DXFshape.obj
 0001:00032450       ??1?$vector@Uname@named_subexpressions@re_detail_500@boost@@V?$allocator@Uname@named_subexpressions@re_detail_500@boost@@@std@@@std@@QAE@XZ 00433450 f i DXFOption.obj
 0001:00032450       ??1?$vector@U?$pair@_NPAUre_syntax_base@re_detail_500@boost@@@std@@V?$allocator@U?$pair@_NPAUre_syntax_base@re_detail_500@boost@@@std@@@2@@std@@QAE@XZ 00433450 f i DXFOption.obj
 0001:00032450       ??1?$vector@U?$pair@II@std@@V?$allocator@U?$pair@II@std@@@2@@std@@QAE@XZ 00433450 f i DXFOption.obj
 0001:00032450       ?_Tidy@?$vector@V?$CPointT@M@@V?$allocator@V?$CPointT@M@@@std@@@std@@AAEXXZ 00433450 f i DXFshape.obj
 0001:000324b0       ??$?0V?$basic_regex_implementation@DU?$regex_traits@DV?$w32_regex_traits@D@boost@@@boost@@@re_detail_500@boost@@$0A@@?$shared_ptr@V?$basic_regex_implementation@DU?$regex_traits@DV?$w32_regex_traits@D@boost@@@boost@@@re_detail_500@boost@@@std@@QAE@PAV?$basic_regex_implementation@DU?$regex_traits@DV?$w32_regex_traits@D@boost@@@boost@@@re_detail_500@boost@@@Z 004334b0 f i DXFOption.obj
 0001:00032550       ?parse@?$basic_regex_parser@DU?$regex_traits@DV?$w32_regex_traits@D@boost@@@boost@@@re_detail_500@boost@@QAEXPBD0I@Z 00433550 f i DXFOption.obj
 0001:00032830       ?_Delete_this@?$_Ref_count@V?$regex_iterator_implementation@V?$_String_const_iterator@V?$_String_val@U?$_Simple_types@D@std@@@std@@@std@@DU?$regex_traits@DV?$w32_regex_traits@D@boost@@@boost@@@boost@@@std@@EAEXXZ 00433830 f i NCDoc.obj
 0001:00032830       ?_Delete_this@?$_Ref_count@V?$w32_regex_traits_implementation@D@re_detail_500@boost@@@std@@EAEXXZ 00433830 f i DXFOption.obj
 0001:00032830       ?_Delete_this@?$_Ref_count_resource@PAUHINSTANCE__@@P6AXPAX@Z@std@@EAEXXZ 00433830 f i DXFOption.obj
 0001:00032830       ?_Delete_this@?$_Ref_count@U?$regex_traits_wrapper@U?$regex_traits@DV?$w32_regex_traits@D@boost@@@boost@@@boost@@@std@@EAEXXZ 00433830 f i DXFOption.obj
 0001:00032830       ?_Delete_this@?$_Ref_count@V?$basic_regex_implementation@DU?$regex_traits@DV?$w32_regex_traits@D@boost@@@boost@@@re_detail_500@boost@@@std@@EAEXXZ 00433830 f i DXFOption.obj
 0001:00032840       ?_Destroy@?$_Ref_count@U?$regex_traits_wrapper@U?$regex_traits@DV?$w32_regex_traits@D@boost@@@boost@@@boost@@@std@@EAEXXZ 00433840 f i DXFOption.obj
 0001:00032890       ??1?$_Temporary_owner@U?$regex_traits_wrapper@U?$regex_traits@DV?$w32_regex_traits@D@boost@@@boost@@@boost@@@std@@QAE@XZ 00433890 f i DXFOption.obj
 0001:000328d0       ?_Destroy@?$_Ref_count@V?$basic_regex_implementation@DU?$regex_traits@DV?$w32_regex_traits@D@boost@@@boost@@@re_detail_500@boost@@@std@@EAEXXZ 004338d0 f i DXFOption.obj
 0001:000328e0       ??1?$_Temporary_owner@V?$basic_regex_implementation@DU?$regex_traits@DV?$w32_regex_traits@D@boost@@@boost@@@re_detail_500@boost@@@std@@QAE@XZ 004338e0 f i DXFOption.obj
 0001:000328f0       ??B?$integral_constant@_N$00@boost@@QBEABU?$bool_@$00@mpl@1@XZ 004338f0 f i DXFOption.obj
 0001:00032900       ??_G?$_Ref_count@U?$regex_traits_wrapper@U?$regex_traits@DV?$w32_regex_traits@D@boost@@@boost@@@boost@@@std@@UAEPAXI@Z 00433900 f i DXFOption.obj
 0001:00032900       ??_E?$_Ref_count@V?$regex_iterator_implementation@V?$_String_const_iterator@V?$_String_val@U?$_Simple_types@D@std@@@std@@@std@@DU?$regex_traits@DV?$w32_regex_traits@D@boost@@@boost@@@boost@@@std@@UAEPAXI@Z 00433900 f i * CIL library *:* CIL module *
 0001:00032900       ??_E?$_Ref_count@V?$w32_regex_traits_implementation@D@re_detail_500@boost@@@std@@UAEPAXI@Z 00433900 f i * CIL library *:* CIL module *
 0001:00032900       ??_G?$_Ref_count@V?$w32_regex_traits_implementation@D@re_detail_500@boost@@@std@@UAEPAXI@Z 00433900 f i DXFOption.obj
 0001:00032900       ??_G?$_Ref_count@V?$regex_iterator_implementation@V?$_String_const_iterator@V?$_String_val@U?$_Simple_types@D@std@@@std@@@std@@DU?$regex_traits@DV?$w32_regex_traits@D@boost@@@boost@@@boost@@@std@@UAEPAXI@Z 00433900 f i NCDoc.obj
 0001:00032900       ??_E?$_Ref_count@V?$basic_regex_implementation@DU?$regex_traits@DV?$w32_regex_traits@D@boost@@@boost@@@re_detail_500@boost@@@std@@UAEPAXI@Z 00433900 f i * CIL library *:* CIL module *
 0001:00032900       ??_G?$_Ref_count@V?$basic_regex_implementation@DU?$regex_traits@DV?$w32_regex_traits@D@boost@@@boost@@@re_detail_500@boost@@@std@@UAEPAXI@Z 00433900 f i DXFOption.obj
 0001:00032900       ??_E?$_Ref_count@U?$regex_traits_wrapper@U?$regex_traits@DV?$w32_regex_traits@D@boost@@@boost@@@boost@@@std@@UAEPAXI@Z 00433900 f i * CIL library *:* CIL module *
 0001:00032920       ??_G?$basic_regex_implementation@DU?$regex_traits@DV?$w32_regex_traits@D@boost@@@boost@@@re_detail_500@boost@@QAEPAXI@Z 00433920 f i DXFOption.obj
 0001:00032990       ?fail@?$basic_regex_parser@DU?$regex_traits@DV?$w32_regex_traits@D@boost@@@boost@@@re_detail_500@boost@@QAEXW4error_type@regex_constants@3@HV?$basic_string@DU?$char_traits@D@std@@V?$allocator@D@2@@std@@H@Z 00433990 f i DXFOption.obj
 0001:00032be0       ?fail@?$basic_regex_parser@DU?$regex_traits@DV?$w32_regex_traits@D@boost@@@boost@@@re_detail_500@boost@@QAEXW4error_type@regex_constants@3@H@Z 00433be0 f i DXFOption.obj
 0001:00032ca0       ?parse_all@?$basic_regex_parser@DU?$regex_traits@DV?$w32_regex_traits@D@boost@@@boost@@@re_detail_500@boost@@QAE_NXZ 00433ca0 f i DXFOption.obj
 0001:00032db0       ?parse_basic@?$basic_regex_parser@DU?$regex_traits@DV?$w32_regex_traits@D@boost@@@boost@@@re_detail_500@boost@@QAE_NXZ 00433db0 f i DXFOption.obj
 0001:00032fa0       ?parse_extended@?$basic_regex_parser@DU?$regex_traits@DV?$w32_regex_traits@D@boost@@@boost@@@re_detail_500@boost@@QAE_NXZ 00433fa0 f i DXFOption.obj
 0001:00033380       ?parse_literal@?$basic_regex_parser@DU?$regex_traits@DV?$w32_regex_traits@D@boost@@@boost@@@re_detail_500@boost@@QAE_NXZ 00434380 f i DXFOption.obj
 0001:000333d0       ?unwind_alts@?$basic_regex_parser@DU?$regex_traits@DV?$w32_regex_traits@D@boost@@@boost@@@re_detail_500@boost@@QAE_NH@Z 004343d0 f i DXFOption.obj
 0001:000335c0       ?append_state@?$basic_regex_creator@DU?$regex_traits@DV?$w32_regex_traits@D@boost@@@boost@@@re_detail_500@boost@@QAEPAUre_syntax_base@23@W4syntax_element_type@23@I@Z 004345c0 f i DXFOption.obj
 0001:00033650       ?finalize@?$basic_regex_creator@DU?$regex_traits@DV?$w32_regex_traits@D@boost@@@boost@@@re_detail_500@boost@@QAEXPBD0@Z 00434650 f i DXFOption.obj
 0001:00033940       ??$trim_right_if@V?$basic_string@DU?$char_traits@D@std@@V?$allocator@D@2@@std@@Uis_classifiedF@detail@algorithm@boost@@@algorithm@boost@@YAXAAV?$basic_string@DU?$char_traits@D@std@@V?$allocator@D@2@@std@@Uis_classifiedF@detail@01@@Z 00434940 f i DXFOption.obj
 0001:00033aa0       ??$trim_left_if@V?$basic_string@DU?$char_traits@D@std@@V?$allocator@D@2@@std@@Uis_classifiedF@detail@algorithm@boost@@@algorithm@boost@@YAXAAV?$basic_string@DU?$char_traits@D@std@@V?$allocator@D@2@@std@@Uis_classifiedF@detail@01@@Z 00434aa0 f i DXFOption.obj
 0001:00033bc0       ??$?RV?$_String_const_iterator@V?$_String_val@U?$_Simple_types@D@std@@@std@@@std@@V?$basic_string@DU?$char_traits@D@std@@V?$allocator@D@2@@1@@?$char_separator@DU?$char_traits@D@std@@@boost@@QAE_NAAV?$_String_const_iterator@V?$_String_val@U?$_Simple_types@D@std@@@std@@@std@@V23@AAV?$basic_string@DU?$char_traits@D@std@@V?$allocator@D@2@@3@@Z 00434bc0 f i DXFOption.obj
 0001:00033d20       ?end@?$tokenizer@V?$char_separator@DU?$char_traits@D@std@@@boost@@V?$_String_const_iterator@V?$_String_val@U?$_Simple_types@D@std@@@std@@@std@@V?$basic_string@DU?$char_traits@D@std@@V?$allocator@D@2@@4@@boost@@QBE?AV?$token_iterator@V?$char_separator@DU?$char_traits@D@std@@@boost@@V?$_String_const_iterator@V?$_String_val@U?$_Simple_types@D@std@@@std@@@std@@V?$basic_string@DU?$char_traits@D@std@@V?$allocator@D@2@@4@@2@XZ 00434d20 f i DXFOption.obj
 0001:00033dc0       ?begin@?$tokenizer@V?$char_separator@DU?$char_traits@D@std@@@boost@@V?$_String_const_iterator@V?$_String_val@U?$_Simple_types@D@std@@@std@@@std@@V?$basic_string@DU?$char_traits@D@std@@V?$allocator@D@2@@4@@boost@@QBE?AV?$token_iterator@V?$char_separator@DU?$char_traits@D@std@@@boost@@V?$_String_const_iterator@V?$_String_val@U?$_Simple_types@D@std@@@std@@@std@@V?$basic_string@DU?$char_traits@D@std@@V?$allocator@D@2@@4@@2@XZ 00434dc0 f i DXFOption.obj
 0001:00033e60       ?is_dropped@?$char_separator@DU?$char_traits@D@std@@@boost@@ABE_ND@Z 00434e60 f i DXFOption.obj
 0001:00033ed0       ?is_kept@?$char_separator@DU?$char_traits@D@std@@@boost@@ABE_ND@Z 00434ed0 f i DXFOption.obj
 0001:00033f40       ?assign@?$vector@EV?$allocator@E@std@@@std@@QAEXIABE@Z 00434f40 f i DXFOption.obj
 0001:00034040       ?error_string@?$w32_regex_traits@D@boost@@QBE?AV?$basic_string@DU?$char_traits@D@std@@V?$allocator@D@2@@std@@W4error_type@regex_constants@2@@Z 00435040 f i DXFOption.obj
 0001:00034060       ?isctype@?$w32_regex_traits@D@boost@@QBE_NDI@Z 00435060 f i DXFOption.obj
 0001:000340f0       ?lookup_classname@?$w32_regex_traits@D@boost@@QBEIPBD0@Z 004350f0 f i DXFOption.obj
 0001:00034210       ??0?$token_iterator@V?$char_separator@DU?$char_traits@D@std@@@boost@@V?$_String_const_iterator@V?$_String_val@U?$_Simple_types@D@std@@@std@@@std@@V?$basic_string@DU?$char_traits@D@std@@V?$allocator@D@2@@4@@boost@@QAE@V?$char_separator@DU?$char_traits@D@std@@@1@V?$_String_const_iterator@V?$_String_val@U?$_Simple_types@D@std@@@std@@@std@@1@Z 00435210 f i DXFOption.obj
 0001:000342f0       ?error_string@?$w32_regex_traits_implementation@D@re_detail_500@boost@@QBE?AV?$basic_string@DU?$char_traits@D@std@@V?$allocator@D@2@@std@@W4error_type@regex_constants@3@@Z 004352f0 f i DXFOption.obj
 0001:00034520       ?lookup_classname_imp@?$w32_regex_traits_implementation@D@re_detail_500@boost@@ABEIPBD0@Z 00435520 f i DXFOption.obj
 0001:00034760       ?parse_open_paren@?$basic_regex_parser@DU?$regex_traits@DV?$w32_regex_traits@D@boost@@@boost@@@re_detail_500@boost@@QAE_NXZ 00435760 f i DXFOption.obj
 0001:000349a0       ?parse_basic_escape@?$basic_regex_parser@DU?$regex_traits@DV?$w32_regex_traits@D@boost@@@boost@@@re_detail_500@boost@@QAE_NXZ 004359a0 f i DXFOption.obj
 0001:00035020       ?parse_extended_escape@?$basic_regex_parser@DU?$regex_traits@DV?$w32_regex_traits@D@boost@@@boost@@@re_detail_500@boost@@QAE_NXZ 00436020 f i DXFOption.obj
 0001:00035910       ?parse_repeat@?$basic_regex_parser@DU?$regex_traits@DV?$w32_regex_traits@D@boost@@@boost@@@re_detail_500@boost@@QAE_NII@Z 00436910 f i DXFOption.obj
 0001:00035d50       ?parse_repeat_range@?$basic_regex_parser@DU?$regex_traits@DV?$w32_regex_traits@D@boost@@@boost@@@re_detail_500@boost@@QAE_N_N@Z 00436d50 f i DXFOption.obj
 0001:00036330       ?parse_alt@?$basic_regex_parser@DU?$regex_traits@DV?$w32_regex_traits@D@boost@@@boost@@@re_detail_500@boost@@QAE_NXZ 00437330 f i DXFOption.obj
 0001:000364f0       ?parse_set@?$basic_regex_parser@DU?$regex_traits@DV?$w32_regex_traits@D@boost@@@boost@@@re_detail_500@boost@@QAE_NXZ 004374f0 f i DXFOption.obj
 0001:00036730       ?append_literal@?$basic_regex_creator@DU?$regex_traits@DV?$w32_regex_traits@D@boost@@@boost@@@re_detail_500@boost@@QAEPAUre_literal@23@D@Z 00437730 f i DXFOption.obj
 0001:00036800       ?fixup_recursions@?$basic_regex_creator@DU?$regex_traits@DV?$w32_regex_traits@D@boost@@@boost@@@re_detail_500@boost@@AAEXPAUre_syntax_base@23@@Z 00437800 f i DXFOption.obj
 0001:00036a90       ?create_startmaps@?$basic_regex_creator@DU?$regex_traits@DV?$w32_regex_traits@D@boost@@@boost@@@re_detail_500@boost@@AAEXPAUre_syntax_base@23@@Z 00437a90 f i DXFOption.obj
 0001:00036d20       ?create_startmap@?$basic_regex_creator@DU?$regex_traits@DV?$w32_regex_traits@D@boost@@@boost@@@re_detail_500@boost@@AAEXPAUre_syntax_base@23@PAEPAIE@Z 00437d20 f i DXFOption.obj
 0001:000374a0       ?do_get@?$object_cache@KV?$w32_regex_traits_implementation@D@re_detail_500@boost@@@boost@@CA?AV?$shared_ptr@$$CBV?$w32_regex_traits_implementation@D@re_detail_500@boost@@@std@@ABKI@Z 004384a0 f i DXFOption.obj
 0001:000378e0       ??1?$basic_char_set@DU?$regex_traits@DV?$w32_regex_traits@D@boost@@@boost@@@re_detail_500@boost@@QAE@XZ 004388e0 f i DXFOption.obj
 0001:00037900       ??1?$set@U?$digraph@D@re_detail_500@boost@@U?$less@U?$digraph@D@re_detail_500@boost@@@std@@V?$allocator@U?$digraph@D@re_detail_500@boost@@@5@@std@@QAE@XZ 00438900 f i DXFOption.obj
 0001:00037910       ??1?$_Tree@V?$_Tset_traits@U?$digraph@D@re_detail_500@boost@@U?$less@U?$digraph@D@re_detail_500@boost@@@std@@V?$allocator@U?$digraph@D@re_detail_500@boost@@@5@$0A@@std@@@std@@QAE@XZ 00438910 f i DXFOption.obj
 0001:00037950       ??1?$vector@U?$digraph@D@re_detail_500@boost@@V?$allocator@U?$digraph@D@re_detail_500@boost@@@std@@@std@@QAE@XZ 00438950 f i DXFOption.obj
 0001:000379b0       ??0?$basic_char_set@DU?$regex_traits@DV?$w32_regex_traits@D@boost@@@boost@@@re_detail_500@boost@@QAE@XZ 004389b0 f i DXFOption.obj
 0001:00037a80       ?erase@?$_Tree@V?$_Tmap_traits@KV?$_List_iterator@V?$_List_val@U?$_List_simple_types@U?$pair@V?$shared_ptr@$$CBV?$w32_regex_traits_implementation@D@re_detail_500@boost@@@std@@PBK@std@@@std@@@std@@@std@@U?$less@K@2@V?$allocator@U?$pair@$$CBKV?$_List_iterator@V?$_List_val@U?$_List_simple_types@U?$pair@V?$shared_ptr@$$CBV?$w32_regex_traits_implementation@D@re_detail_500@boost@@@std@@PBK@std@@@std@@@std@@@std@@@std@@@2@$0A@@std@@@std@@QAEIABK@Z 00438a80 f i DXFOption.obj
 0001:00037c80       ??1?$list@U?$pair@V?$shared_ptr@$$CBV?$w32_regex_traits_implementation@D@re_detail_500@boost@@@std@@PBK@std@@V?$allocator@U?$pair@V?$shared_ptr@$$CBV?$w32_regex_traits_implementation@D@re_detail_500@boost@@@std@@PBK@std@@@2@@std@@QAE@XZ 00438c80 f i DXFOption.obj
 0001:00037cf0       ?_Xrange@?$vector@U?$pair@II@std@@V?$allocator@U?$pair@II@std@@@2@@std@@CAXXZ 00438cf0 f i DXFOption.obj
 0001:00037d00       ?_Extract@?$_Tree_val@U?$_Tree_simple_types@U?$pair@$$CBKV?$_List_iterator@V?$_List_val@U?$_List_simple_types@U?$pair@V?$shared_ptr@$$CBV?$w32_regex_traits_implementation@D@re_detail_500@boost@@@std@@PBK@std@@@std@@@std@@@std@@@std@@@std@@@std@@QAEPAU?$_Tree_node@U?$pair@$$CBKV?$_List_iterator@V?$_List_val@U?$_List_simple_types@U?$pair@V?$shared_ptr@$$CBV?$w32_regex_traits_implementation@D@re_detail_500@boost@@@std@@PBK@std@@@std@@@std@@@std@@@std@@PAX@2@V?$_Tree_unchecked_const_iterator@V?$_Tree_val@U?$_Tree_simple_types@U?$pair@$$CBKV?$_List_iterator@V?$_List_val@U?$_List_simple_types@U?$pair@V?$shared_ptr@$$CBV?$w32_regex_traits_implementation@D@re_detail_500@boost@@@std@@PBK@std@@@std@@@std@@@std@@@std@@@std@@@std@@U_Iterator_base0@2@@2@@Z 00438d00 f i DXFOption.obj
 0001:00038150       ??0?$w32_regex_traits_implementation@D@re_detail_500@boost@@QAE@K@Z 00439150 f i DXFOption.obj
 0001:000387c0       ?parse_backref@?$basic_regex_parser@DU?$regex_traits@DV?$w32_regex_traits@D@boost@@@boost@@@re_detail_500@boost@@QAE_NXZ 004397c0 f i DXFOption.obj
 0001:000388b0       ?parse_set_literal@?$basic_regex_parser@DU?$regex_traits@DV?$w32_regex_traits@D@boost@@@boost@@@re_detail_500@boost@@QAEXAAV?$basic_char_set@DU?$regex_traits@DV?$w32_regex_traits@D@boost@@@boost@@@23@@Z 004398b0 f i DXFOption.obj
 0001:00038a60       ?parse_inner_set@?$basic_regex_parser@DU?$regex_traits@DV?$w32_regex_traits@D@boost@@@boost@@@re_detail_500@boost@@QAE_NAAV?$basic_char_set@DU?$regex_traits@DV?$w32_regex_traits@D@boost@@@boost@@@23@@Z 00439a60 f i DXFOption.obj
 0001:00038fb0       ?parse_QE@?$basic_regex_parser@DU?$regex_traits@DV?$w32_regex_traits@D@boost@@@boost@@@re_detail_500@boost@@QAE_NXZ 00439fb0 f i DXFOption.obj
 0001:00039110       ?parse_perl_extension@?$basic_regex_parser@DU?$regex_traits@DV?$w32_regex_traits@D@boost@@@boost@@@re_detail_500@boost@@QAE_NXZ 0043a110 f i DXFOption.obj
 0001:0003a5f0       ?parse_perl_verb@?$basic_regex_parser@DU?$regex_traits@DV?$w32_regex_traits@D@boost@@@boost@@@re_detail_500@boost@@QAE_NXZ 0043b5f0 f i DXFOption.obj
 0001:0003ab80       ?add_emacs_code@?$basic_regex_parser@DU?$regex_traits@DV?$w32_regex_traits@D@boost@@@boost@@@re_detail_500@boost@@QAE_N_N@Z 0043bb80 f i DXFOption.obj
 0001:0003b0f0       ?unescape_character@?$basic_regex_parser@DU?$regex_traits@DV?$w32_regex_traits@D@boost@@@boost@@@re_detail_500@boost@@QAEDXZ 0043c0f0 f i DXFOption.obj
 0001:0003b820       ?insert_state@?$basic_regex_creator@DU?$regex_traits@DV?$w32_regex_traits@D@boost@@@boost@@@re_detail_500@boost@@QAEPAUre_syntax_base@23@HW4syntax_element_type@23@I@Z 0043c820 f i DXFOption.obj
 0001:0003b8d0       ?append_set@?$basic_regex_creator@DU?$regex_traits@DV?$w32_regex_traits@D@boost@@@boost@@@re_detail_500@boost@@QAEPAUre_syntax_base@23@ABV?$basic_char_set@DU?$regex_traits@DV?$w32_regex_traits@D@boost@@@boost@@@23@@Z 0043c8d0 f i DXFOption.obj
 0001:0003b900       ?calculate_backstep@?$basic_regex_creator@DU?$regex_traits@DV?$w32_regex_traits@D@boost@@@boost@@@re_detail_500@boost@@AAEHPAUre_syntax_base@23@@Z 0043c900 f i DXFOption.obj
 0001:0003ba30       ?set_all_masks@?$basic_regex_creator@DU?$regex_traits@DV?$w32_regex_traits@D@boost@@@boost@@@re_detail_500@boost@@AAEXPAEE@Z 0043ca30 f i DXFOption.obj
 0001:0003bad0       ?get_repeat_type@?$basic_regex_creator@DU?$regex_traits@DV?$w32_regex_traits@D@boost@@@boost@@@re_detail_500@boost@@AAE?AW4syntax_element_type@23@PAUre_syntax_base@23@@Z 0043cad0 f i DXFOption.obj
 0001:0003bb60       ??$hash_value_from_capture_name@PBD@re_detail_500@boost@@YAHPBD0@Z 0043cb60 f i DXFOption.obj
 0001:0003bbb0       ??$re_is_set_member@PADDU?$regex_traits@DV?$w32_regex_traits@D@boost@@@boost@@I@re_detail_500@boost@@YAPADPAD0PBU?$re_set_long@I@01@ABU?$regex_data@DU?$regex_traits@DV?$w32_regex_traits@D@boost@@@boost@@@01@_N@Z 0043cbb0 f i DXFOption.obj
 0001:0003bbb0       ??$re_is_set_member@PBDDU?$regex_traits@DV?$w32_regex_traits@D@boost@@@boost@@I@re_detail_500@boost@@YAPBDPBD0PBU?$re_set_long@I@01@ABU?$regex_data@DU?$regex_traits@DV?$w32_regex_traits@D@boost@@@boost@@@01@_N@Z 0043cbb0 f i NCDoc.obj
 0001:0003c040       ??$_Find_lower_bound@H@?$_Tree@V?$_Tmap_traits@HV?$basic_string@DU?$char_traits@D@std@@V?$allocator@D@2@@std@@U?$less@H@2@V?$allocator@U?$pair@$$CBHV?$basic_string@DU?$char_traits@D@std@@V?$allocator@D@2@@std@@@std@@@2@$0A@@std@@@std@@IBE?AU?$_Tree_find_result@PAU?$_Tree_node@U?$pair@$$CBHV?$basic_string@DU?$char_traits@D@std@@V?$allocator@D@2@@std@@@std@@PAX@std@@@1@ABH@Z 0043d040 f i DXFOption.obj
 0001:0003c090       ??$_Emplace_reallocate@U?$pair@II@std@@@?$vector@U?$pair@II@std@@V?$allocator@U?$pair@II@std@@@2@@std@@QAEPAU?$pair@II@1@QAU21@$$QAU21@@Z 0043d090 f i DXFOption.obj
 0001:0003c090       ??$_Emplace_reallocate@U?$pair@_NPAUre_syntax_base@re_detail_500@boost@@@std@@@?$vector@U?$pair@_NPAUre_syntax_base@re_detail_500@boost@@@std@@V?$allocator@U?$pair@_NPAUre_syntax_base@re_detail_500@boost@@@std@@@2@@std@@QAEPAU?$pair@_NPAUre_syntax_base@re_detail_500@boost@@@1@QAU21@$$QAU21@@Z 0043d090 f i DXFOption.obj
 0001:0003c090       ??$_Emplace_reallocate@Uname@named_subexpressions@re_detail_500@boost@@@?$vector@Uname@named_subexpressions@re_detail_500@boost@@V?$allocator@Uname@named_subexpressions@re_detail_500@boost@@@std@@@std@@QAEPAUname@named_subexpressions@re_detail_500@boost@@QAU2345@$$QAU2345@@Z 0043d090 f i DXFOption.obj
 0001:0003c1f0       ??$_Emplace_reallocate@H@?$vector@HV?$allocator@H@std@@@std@@QAEPAHQAH$$QAH@Z 0043d1f0 f i TH_MakeNurbs.obj
 0001:0003c1f0       ??$_Emplace_reallocate@PAX@?$vector@PAXV?$allocator@PAX@std@@@std@@QAEPAPAXQAPAX$$QAPAX@Z 0043d1f0 f i NCViewGL_Mill.obj
 0001:0003c1f0       ??$_Emplace_reallocate@ABQAUCREATEBOTTOMVERTEXPARAM@@@?$vector@PAUCREATEBOTTOMVERTEXPARAM@@V?$allocator@PAUCREATEBOTTOMVERTEXPARAM@@@std@@@std@@QAEPAPAUCREATEBOTTOMVERTEXPARAM@@QAPAU2@ABQAU2@@Z 0043d1f0 f i NCViewGL_Mill.obj
 0001:0003c1f0       ??$_Emplace_reallocate@J@?$vector@JV?$allocator@J@std@@@std@@QAEPAJQAJ$$QAJ@Z 0043d1f0 f i DXFOption.obj
 0001:0003c1f0       ??$_Emplace_reallocate@ABQAU__POSITION@@@?$vector@PAU__POSITION@@V?$allocator@PAU__POSITION@@@std@@@std@@QAEPAPAU__POSITION@@QAPAU2@ABQAU2@@Z 0043d1f0 f i DXFshape.obj
 0001:0003c350       ??$global_toi@DV?$w32_regex_traits@D@boost@@@re_detail_500@boost@@YA_JAAPBDPBDHABV?$w32_regex_traits@D@1@@Z 0043d350 f i DXFOption.obj
 0001:0003c470       ??1?$map@HV?$basic_string@DU?$char_traits@D@std@@V?$allocator@D@2@@std@@U?$less@H@2@V?$allocator@U?$pair@$$CBHV?$basic_string@DU?$char_traits@D@std@@V?$allocator@D@2@@std@@@std@@@2@@std@@QAE@XZ 0043d470 f i DXFOption.obj
 0001:0003c490       ??1?$map@V?$basic_string@DU?$char_traits@D@std@@V?$allocator@D@2@@std@@IU?$less@V?$basic_string@DU?$char_traits@D@std@@V?$allocator@D@2@@std@@@2@V?$allocator@U?$pair@$$CBV?$basic_string@DU?$char_traits@D@std@@V?$allocator@D@2@@std@@I@std@@@2@@std@@QAE@XZ 0043d490 f i DXFOption.obj
 0001:0003c4b0       ??1?$map@V?$basic_string@DU?$char_traits@D@std@@V?$allocator@D@2@@std@@V12@U?$less@V?$basic_string@DU?$char_traits@D@std@@V?$allocator@D@2@@std@@@2@V?$allocator@U?$pair@$$CBV?$basic_string@DU?$char_traits@D@std@@V?$allocator@D@2@@std@@V12@@std@@@2@@std@@QAE@XZ 0043d4b0 f i DXFOption.obj
 0001:0003c4d0       ?_Destroy@?$_Ref_count@V?$w32_regex_traits_implementation@D@re_detail_500@boost@@@std@@EAEXXZ 0043d4d0 f i DXFOption.obj
 0001:0003c4e0       ??1?$_Temporary_owner@V?$w32_regex_traits_implementation@D@re_detail_500@boost@@@std@@QAE@XZ 0043d4e0 f i DXFOption.obj
 0001:0003c4f0       ?add_equivalent@?$basic_char_set@DU?$regex_traits@DV?$w32_regex_traits@D@boost@@@boost@@@re_detail_500@boost@@QAEXABU?$digraph@D@23@@Z 0043d4f0 f i DXFOption.obj
 0001:0003c540       ??A?$map@V?$basic_string@DU?$char_traits@D@std@@V?$allocator@D@2@@std@@IU?$less@V?$basic_string@DU?$char_traits@D@std@@V?$allocator@D@2@@std@@@2@V?$allocator@U?$pair@$$CBV?$basic_string@DU?$char_traits@D@std@@V?$allocator@D@2@@std@@I@std@@@2@@std@@QAEAAIABV?$basic_string@DU?$char_traits@D@std@@V?$allocator@D@2@@1@@Z 0043d540 f i DXFOption.obj
 0001:0003c630       ?value@?$w32_regex_traits@D@boost@@QBEHDH@Z 0043d630 f i DXFOption.obj
 0001:0003c6a0       ??A?$map@HV?$basic_string@DU?$char_traits@D@std@@V?$allocator@D@2@@std@@U?$less@H@2@V?$allocator@U?$pair@$$CBHV?$basic_string@DU?$char_traits@D@std@@V?$allocator@D@2@@std@@@std@@@2@@std@@QAEAAV?$basic_string@DU?$char_traits@D@std@@V?$allocator@D@2@@1@$$QAH@Z 0043d6a0 f i DXFOption.obj
 0001:0003c770       ??_G?$w32_regex_traits_implementation@D@re_detail_500@boost@@QAEPAXI@Z 0043d770 f i DXFOption.obj
 0001:0003c7f0       ??1?$_Alloc_construct_ptr@V?$allocator@U?$_List_node@U?$pair@V?$shared_ptr@$$CBV?$w32_regex_traits_implementation@D@re_detail_500@boost@@@std@@PBK@std@@PAX@std@@@std@@@std@@QAE@XZ 0043d7f0 f i DXFOption.obj
 0001:0003c810       ?lookup_collatename@?$w32_regex_traits_implementation@D@re_detail_500@boost@@QBE?AV?$basic_string@DU?$char_traits@D@std@@V?$allocator@D@2@@std@@PBD0@Z 0043d810 f i DXFOption.obj
 0001:0003cb70       ?transform_primary@?$w32_regex_traits_implementation@D@re_detail_500@boost@@QBE?AV?$basic_string@DU?$char_traits@D@std@@V?$allocator@D@2@@std@@PBD0@Z 0043db70 f i DXFOption.obj
 0001:0003ce60       ?match_verb@?$basic_regex_parser@DU?$regex_traits@DV?$w32_regex_traits@D@boost@@@boost@@@re_detail_500@boost@@QAE_NPBD@Z 0043de60 f i DXFOption.obj
 0001:0003cf10       ?get_next_set_literal@?$basic_regex_parser@DU?$regex_traits@DV?$w32_regex_traits@D@boost@@@boost@@@re_detail_500@boost@@QAE?AU?$digraph@D@23@AAV?$basic_char_set@DU?$regex_traits@DV?$w32_regex_traits@D@boost@@@boost@@@23@@Z 0043df10 f i DXFOption.obj
 0001:0003d1a0       ?parse_options@?$basic_regex_parser@DU?$regex_traits@DV?$w32_regex_traits@D@boost@@@boost@@@re_detail_500@boost@@QAEIXZ 0043e1a0 f i DXFOption.obj
 0001:0003d360       ?append_set@?$basic_regex_creator@DU?$regex_traits@DV?$w32_regex_traits@D@boost@@@boost@@@re_detail_500@boost@@QAEPAUre_syntax_base@23@ABV?$basic_char_set@DU?$regex_traits@DV?$w32_regex_traits@D@boost@@@boost@@@23@PAU?$integral_constant@_N$00@std@@@Z 0043e360 f i DXFOption.obj
 0001:0003dbb0       ?append_set@?$basic_regex_creator@DU?$regex_traits@DV?$w32_regex_traits@D@boost@@@boost@@@re_detail_500@boost@@QAEPAUre_syntax_base@23@ABV?$basic_char_set@DU?$regex_traits@DV?$w32_regex_traits@D@boost@@@boost@@@23@PAU?$integral_constant@_N$0A@@std@@@Z 0043ebb0 f i DXFOption.obj
 0001:0003e520       ??$find_sort_syntax@V?$w32_regex_traits_implementation@D@re_detail_500@boost@@D@re_detail_500@boost@@YAIPBV?$w32_regex_traits_implementation@D@01@PAD@Z 0043f520 f i DXFOption.obj
 0001:0003e770       ??$valid_value@D@re_detail_500@boost@@YA_ND_J@Z 0043f770 f i DXFOption.obj
 0001:0003e790       ??$emplace@U?$pair@KV?$_List_iterator@V?$_List_val@U?$_List_simple_types@U?$pair@V?$shared_ptr@$$CBV?$w32_regex_traits_implementation@D@re_detail_500@boost@@@std@@PBK@std@@@std@@@std@@@std@@@std@@@?$_Tree@V?$_Tmap_traits@KV?$_List_iterator@V?$_List_val@U?$_List_simple_types@U?$pair@V?$shared_ptr@$$CBV?$w32_regex_traits_implementation@D@re_detail_500@boost@@@std@@PBK@std@@@std@@@std@@@std@@U?$less@K@2@V?$allocator@U?$pair@$$CBKV?$_List_iterator@V?$_List_val@U?$_List_simple_types@U?$pair@V?$shared_ptr@$$CBV?$w32_regex_traits_implementation@D@re_detail_500@boost@@@std@@PBK@std@@@std@@@std@@@std@@@std@@@2@$0A@@std@@@std@@QAE?AU?$pair@V?$_Tree_iterator@V?$_Tree_val@U?$_Tree_simple_types@U?$pair@$$CBKV?$_List_iterator@V?$_List_val@U?$_List_simple_types@U?$pair@V?$shared_ptr@$$CBV?$w32_regex_traits_implementation@D@re_detail_500@boost@@@std@@PBK@std@@@std@@@std@@@std@@@std@@@std@@@std@@@std@@_N@1@$$QAU?$pair@KV?$_List_iterator@V?$_List_val@U?$_List_simple_types@U?$pair@V?$shared_ptr@$$CBV?$w32_regex_traits_implementation@D@re_detail_500@boost@@@std@@PBK@std@@@std@@@std@@@std@@@1@@Z 0043f790 f i DXFOption.obj
 0001:0003e860       ??$_Erase_tree@V?$allocator@U?$_Tree_node@U?$digraph@D@re_detail_500@boost@@PAX@std@@@std@@@?$_Tree_val@U?$_Tree_simple_types@U?$digraph@D@re_detail_500@boost@@@std@@@std@@QAEXAAV?$allocator@U?$_Tree_node@U?$digraph@D@re_detail_500@boost@@PAX@std@@@1@PAU?$_Tree_node@U?$digraph@D@re_detail_500@boost@@PAX@1@@Z 0043f860 f i DXFOption.obj
 0001:0003e8a0       ??$_Find_lower_bound@K@?$_Tree@V?$_Tmap_traits@KV?$_List_iterator@V?$_List_val@U?$_List_simple_types@U?$pair@V?$shared_ptr@$$CBV?$w32_regex_traits_implementation@D@re_detail_500@boost@@@std@@PBK@std@@@std@@@std@@@std@@U?$less@K@2@V?$allocator@U?$pair@$$CBKV?$_List_iterator@V?$_List_val@U?$_List_simple_types@U?$pair@V?$shared_ptr@$$CBV?$w32_regex_traits_implementation@D@re_detail_500@boost@@@std@@PBK@std@@@std@@@std@@@std@@@std@@@2@$0A@@std@@@std@@IBE?AU?$_Tree_find_result@PAU?$_Tree_node@U?$pair@$$CBKV?$_List_iterator@V?$_List_val@U?$_List_simple_types@U?$pair@V?$shared_ptr@$$CBV?$w32_regex_traits_implementation@D@re_detail_500@boost@@@std@@PBK@std@@@std@@@std@@@std@@@std@@PAX@std@@@1@ABK@Z 0043f8a0 f i DXFOption.obj
 0001:0003e8f0       ??$_Find_lower_bound@V?$basic_string@DU?$char_traits@D@std@@V?$allocator@D@2@@std@@@?$_Tree@V?$_Tmap_traits@V?$basic_string@DU?$char_traits@D@std@@V?$allocator@D@2@@std@@IU?$less@V?$basic_string@DU?$char_traits@D@std@@V?$allocator@D@2@@std@@@2@V?$allocator@U?$pair@$$CBV?$basic_string@DU?$char_traits@D@std@@V?$allocator@D@2@@std@@I@std@@@2@$0A@@std@@@std@@IBE?AU?$_Tree_find_result@PAU?$_Tree_node@U?$pair@$$CBV?$basic_string@DU?$char_traits@D@std@@V?$allocator@D@2@@std@@I@std@@PAX@std@@@1@ABV?$basic_string@DU?$char_traits@D@std@@V?$allocator@D@2@@1@@Z 0043f8f0 f i DXFOption.obj
 0001:0003e970       ??$insert@$0A@$0A@@?$_Tree@V?$_Tset_traits@U?$digraph@D@re_detail_500@boost@@U?$less@U?$digraph@D@re_detail_500@boost@@@std@@V?$allocator@U?$digraph@D@re_detail_500@boost@@@5@$0A@@std@@@std@@QAE?AU?$pair@V?$_Tree_const_iterator@V?$_Tree_val@U?$_Tree_simple_types@U?$digraph@D@re_detail_500@boost@@@std@@@std@@@std@@_N@1@ABU?$digraph@D@re_detail_500@boost@@@Z 0043f970 f i DXFOption.obj
 0001:0003ea80       ??$_Emplace_reallocate@ABU?$digraph@D@re_detail_500@boost@@@?$vector@U?$digraph@D@re_detail_500@boost@@V?$allocator@U?$digraph@D@re_detail_500@boost@@@std@@@std@@QAEPAU?$digraph@D@re_detail_500@boost@@QAU234@ABU234@@Z 0043fa80 f i DXFOption.obj
 0001:0003ec20       ??1?$_Tree_temp_node_alloc@V?$allocator@U?$_Tree_node@U?$pair@$$CBV?$basic_string@DU?$char_traits@D@std@@V?$allocator@D@2@@std@@I@std@@PAX@std@@@std@@@std@@QAE@XZ 0043fc20 f i DXFOption.obj
 0001:0003ec20       ??1?$_Alloc_construct_ptr@V?$allocator@U?$_Tree_node@U?$pair@$$CBHV?$basic_string@DU?$char_traits@D@std@@V?$allocator@D@2@@std@@@std@@PAX@std@@@std@@@std@@QAE@XZ 0043fc20 f i DXFOption.obj
 0001:0003ec20       ??1?$_Alloc_construct_ptr@V?$allocator@U?$_Tree_node@U?$pair@$$CBV?$basic_string@DU?$char_traits@D@std@@V?$allocator@D@2@@std@@I@std@@PAX@std@@@std@@@std@@QAE@XZ 0043fc20 f i DXFOption.obj
 0001:0003ec40       ??$distance@V?$_Tree_const_iterator@V?$_Tree_val@U?$_Tree_simple_types@U?$digraph@D@re_detail_500@boost@@@std@@@std@@@std@@@std@@YAHV?$_Tree_const_iterator@V?$_Tree_val@U?$_Tree_simple_types@U?$digraph@D@re_detail_500@boost@@@std@@@std@@@0@0@Z 0043fc40 f i DXFOption.obj
 0001:0003eca0       ??$_Erase_tree@V?$allocator@U?$_Tree_node@U?$pair@$$CBV?$basic_string@DU?$char_traits@D@std@@V?$allocator@D@2@@std@@V12@@std@@PAX@std@@@std@@@?$_Tree_val@U?$_Tree_simple_types@U?$pair@$$CBV?$basic_string@DU?$char_traits@D@std@@V?$allocator@D@2@@std@@V12@@std@@@std@@@std@@QAEXAAV?$allocator@U?$_Tree_node@U?$pair@$$CBV?$basic_string@DU?$char_traits@D@std@@V?$allocator@D@2@@std@@V12@@std@@PAX@std@@@1@PAU?$_Tree_node@U?$pair@$$CBV?$basic_string@DU?$char_traits@D@std@@V?$allocator@D@2@@std@@V12@@std@@PAX@1@@Z 0043fca0 f i DXFOption.obj
 0001:0003ed70       ??$_Erase_tree@V?$allocator@U?$_Tree_node@U?$pair@$$CBV?$basic_string@DU?$char_traits@D@std@@V?$allocator@D@2@@std@@I@std@@PAX@std@@@std@@@?$_Tree_val@U?$_Tree_simple_types@U?$pair@$$CBV?$basic_string@DU?$char_traits@D@std@@V?$allocator@D@2@@std@@I@std@@@std@@@std@@QAEXAAV?$allocator@U?$_Tree_node@U?$pair@$$CBV?$basic_string@DU?$char_traits@D@std@@V?$allocator@D@2@@std@@I@std@@PAX@std@@@1@PAU?$_Tree_node@U?$pair@$$CBV?$basic_string@DU?$char_traits@D@std@@V?$allocator@D@2@@std@@I@std@@PAX@1@@Z 0043fd70 f i DXFOption.obj
 0001:0003ee00       ??$_Erase_tree@V?$allocator@U?$_Tree_node@U?$pair@$$CBHV?$basic_string@DU?$char_traits@D@std@@V?$allocator@D@2@@std@@@std@@PAX@std@@@std@@@?$_Tree_val@U?$_Tree_simple_types@U?$pair@$$CBHV?$basic_string@DU?$char_traits@D@std@@V?$allocator@D@2@@std@@@std@@@std@@@std@@QAEXAAV?$allocator@U?$_Tree_node@U?$pair@$$CBHV?$basic_string@DU?$char_traits@D@std@@V?$allocator@D@2@@std@@@std@@PAX@std@@@1@PAU?$_Tree_node@U?$pair@$$CBHV?$basic_string@DU?$char_traits@D@std@@V?$allocator@D@2@@std@@@std@@PAX@1@@Z 0043fe00 f i DXFOption.obj
 0001:0003ee90       ??1?$_Alloc_construct_ptr@V?$allocator@U?$_Tree_node@U?$digraph@D@re_detail_500@boost@@PAX@std@@@std@@@std@@QAE@XZ 0043fe90 f i DXFOption.obj
 0001:0003eeb0       ??$count_chars@V?$basic_string@DU?$char_traits@D@std@@V?$allocator@D@2@@std@@D@re_detail_500@boost@@YAIABV?$basic_string@DU?$char_traits@D@std@@V?$allocator@D@2@@std@@D@Z 0043feb0 f i DXFOption.obj
 0001:0003ef10       ?insert@?$basic_string@DU?$char_traits@D@std@@V?$allocator@D@2@@std@@QAEAAV12@IID@Z 0043ff10 f i DXFOption.obj
 0001:0003f0b0       ??$_Traits_equal@U?$char_traits@D@std@@@std@@YA_NQBDI0I@Z 004400b0 f i DXFOption.obj
 0001:0003f120       ?lookup_default_collate_name@re_detail_500@boost@@YA?AV?$basic_string@DU?$char_traits@D@std@@V?$allocator@D@2@@std@@ABV34@@Z 00440120 f i DXFOption.obj
 0001:0003f2a0       ?_Xran@?$_String_val@U?$_Simple_types@D@std@@@std@@SAXXZ 004402a0 f i DXFOption.obj
 0001:0003f2b0       ?w32_transform@re_detail_500@boost@@YA?AV?$basic_string@DU?$char_traits@D@std@@V?$allocator@D@2@@std@@KPBD0@Z 004402b0 f i DXFOption.obj
 0001:0003f4a0       ??4?$basic_string@DU?$char_traits@D@std@@V?$allocator@D@2@@std@@QAEAAV01@$$QAV01@@Z 004404a0 f i DXFOption.obj
 0001:0003f520       ?assign@?$basic_string@DU?$char_traits@D@std@@V?$allocator@D@2@@std@@QAEAAV12@ID@Z 00440520 f i DXFOption.obj
 0001:0003f610       ?append@?$basic_string@DU?$char_traits@D@std@@V?$allocator@D@2@@std@@QAEAAV12@ID@Z 00440610 f i DXFOption.obj
 0001:0003f770       ?get_catalog_name@?$w32_regex_traits@D@boost@@SA?AV?$basic_string@DU?$char_traits@D@std@@V?$allocator@D@2@@std@@XZ 00440770 f i DXFOption.obj
 0001:0003f8a0       ??1?$_Temporary_owner_del@PAUHINSTANCE__@@P6AXPAX@Z@std@@QAE@XZ 004408a0 f i DXFOption.obj
 0001:0003f8f0       ?_Destroy@?$_Ref_count_resource@PAUHINSTANCE__@@P6AXPAX@Z@std@@EAEXXZ 004408f0 f i DXFOption.obj
 0001:0003f940       ??_E?$_Ref_count_resource@PAUHINSTANCE__@@P6AXPAX@Z@std@@UAEPAXI@Z 00440940 f i * CIL library *:* CIL module *
 0001:0003f940       ??_G?$_Ref_count_resource@PAUHINSTANCE__@@P6AXPAX@Z@std@@UAEPAXI@Z 00440940 f i DXFOption.obj
 0001:0003f960       ?_Get_deleter@?$_Ref_count_resource@PAUHINSTANCE__@@P6AXPAX@Z@std@@UBEPAXABVtype_info@@@Z 00440960 f i DXFOption.obj
 0001:0003f990       ?free_module@re_detail_500@boost@@YAXPAX@Z 00440990 f i DXFOption.obj
 0001:0003f9a0       ?w32_cat_open@re_detail_500@boost@@YA?AV?$shared_ptr@X@std@@ABV?$basic_string@DU?$char_traits@D@std@@V?$allocator@D@2@@4@@Z 004409a0 f i DXFOption.obj
 0001:0003fa60       ??$?HDU?$char_traits@D@std@@V?$allocator@D@1@@std@@YA?AV?$basic_string@DU?$char_traits@D@std@@V?$allocator@D@2@@0@ABV10@0@Z 00440a60 f i DXFOption.obj
 0001:0003fb40       ??0?$wrapexcept@Vruntime_error@std@@@boost@@QAE@ABVruntime_error@std@@@Z 00440b40 f i DXFOption.obj
 0001:0003fbb0       ?clone@?$wrapexcept@Vruntime_error@std@@@boost@@UBEPBVclone_base@exception_detail@2@XZ 00440bb0 f i DXFOption.obj
 0001:0003fc40       ?rethrow@?$wrapexcept@Vruntime_error@std@@@boost@@UBEXXZ 00440c40 f i DXFOption.obj
 0001:0003fc60       ??0?$wrapexcept@Vruntime_error@std@@@boost@@QAE@ABU01@@Z 00440c60 f i DXFOption.obj
 0001:0003fd20       ??$throw_exception@Vruntime_error@std@@@boost@@YAXABVruntime_error@std@@@Z 00440d20 f i DXFOption.obj
 0001:0003fd40       ??$raise_runtime_error@Vruntime_error@std@@@re_detail_500@boost@@YAXABVruntime_error@std@@@Z 00440d40 f i DXFOption.obj
 0001:0003fd50       ?get_default_syntax@re_detail_500@boost@@YAPBDE@Z 00440d50 f i DXFOption.obj
 0001:0003ffe0       ??$init@D@?$w32_regex_traits_char_layer@D@re_detail_500@boost@@AAEXXZ 00440fe0 f i DXFOption.obj
 0001:00040460       ??1recursion_saver@re_detail_500@boost@@QAE@XZ 00441460 f i DXFOption.obj
 0001:000404e0       ?_Buy_raw@?$vector@EV?$allocator@E@std@@@std@@AAEXI@Z 004414e0 f i DXFOption.obj
 0001:00040560       ??1?$lock_guard@Vmutex@std@@@std@@QAE@XZ 00441560 f i DXFOption.obj
 0001:00040570       ?resize@raw_storage@re_detail_500@boost@@QAEXI@Z 00441570 f i DXFOption.obj
 0001:000405e0       ??0?$wrapexcept@Vregex_error@boost@@@boost@@QAE@ABVregex_error@1@@Z 004415e0 f i DXFOption.obj
 0001:00040660       ?clone@?$wrapexcept@Vregex_error@boost@@@boost@@UBEPBVclone_base@exception_detail@2@XZ 00441660 f i DXFOption.obj
 0001:000406f0       ?rethrow@?$wrapexcept@Vregex_error@boost@@@boost@@UBEXXZ 004416f0 f i DXFOption.obj
 0001:00040710       ??0?$wrapexcept@Vregex_error@boost@@@boost@@QAE@ABU01@@Z 00441710 f i DXFOption.obj
 0001:000407e0       ??0regex_error@boost@@QAE@ABV01@@Z 004417e0 f i DXFOption.obj
 0001:00040820       ??$throw_exception@Vregex_error@boost@@@boost@@YAXABVregex_error@0@@Z 00441820 f i DXFOption.obj
 0001:00040840       ??$raise_runtime_error@Vregex_error@boost@@@re_detail_500@boost@@YAXABVregex_error@1@@Z 00441840 f i NCDoc.obj
 0001:00040840       ?raise@regex_error@boost@@QBEXXZ 00441840 f i DXFOption.obj
 0001:00040850       ??0runtime_error@std@@QAE@ABV?$basic_string@DU?$char_traits@D@std@@V?$allocator@D@2@@1@@Z 00441850 f i DXFOption.obj
 0001:000408a0       ??0regex_error@boost@@QAE@ABV?$basic_string@DU?$char_traits@D@std@@V?$allocator@D@2@@std@@W4error_type@regex_constants@1@H@Z 004418a0 f i DXFOption.obj
 0001:00040900       ??1?$vector@EV?$allocator@E@std@@@std@@QAE@XZ 00441900 f i DXFOption.obj
 0001:00040950       ??0?$basic_string@DU?$char_traits@D@std@@V?$allocator@D@2@@std@@QAE@ABV01@@Z 00441950 f i DXFOption.obj
 0001:000409d0       ?GetMessageMap@CDxfSetup@@MBEPBUAFX_MSGMAP@@XZ 004419d0 f   DxfSetup.obj
 0001:000409e0       ??0CDxfSetup@@QAE@I@Z      004419e0 f   DxfSetup.obj
 0001:00040c60       ??_ECDxfSetup@@UAEPAXI@Z   00441c60 f i * CIL library *:* CIL module *
 0001:00040c60       ??_GCDxfSetup@@UAEPAXI@Z   00441c60 f i DxfSetup.obj
 0001:00040ca0       ??1CDxfSetup@@UAE@XZ       00441ca0 f i DxfSetup.obj
 0001:00040d80       ??1CDxfSetup1@@UAE@XZ      00441d80 f i DxfSetup.obj
 0001:00040dd0       ??1CDxfSetup2@@UAE@XZ      00441dd0 f i DxfSetup.obj
 0001:00040e20       ?OnReload@CDxfSetup@@QAEHPAVCPropertyPage@@@Z 00441e20 f   DxfSetup.obj
 0001:00041010       ??1CDxfSetupReload@@UAE@XZ 00442010 f i DxfSetup.obj
 0001:00041030       ?OnDestroy@CDxfSetup@@IAEXXZ 00442030 f   DxfSetup.obj
 0001:00041050       ?GetMessageMap@CDxfSetup1@@MBEPBUAFX_MSGMAP@@XZ 00442050 f   DxfSetup1.obj
 0001:00041060       ??_GCDxfSetup1@@UAEPAXI@Z  00442060 f i DxfSetup1.obj
 0001:00041060       ??_ECDxfSetup1@@UAEPAXI@Z  00442060 f i * CIL library *:* CIL module *
 0001:000410e0       ?DoDataExchange@CDxfSetup1@@MAEXPAVCDataExchange@@@Z 004420e0 f   DxfSetup1.obj
 0001:00041160       ?OnInitDialog@CDxfSetup1@@MAEHXZ 00442160 f   DxfSetup1.obj
 0001:000411e0       ?OnApply@CDxfSetup1@@UAEHXZ 004421e0 f   DxfSetup1.obj
 0001:000412d0       ?OnSetActive@CDxfSetup1@@UAEHXZ 004422d0 f   DxfSetup1.obj
 0001:00041300       ?OnKillActive@CDxfSetup1@@UAEHXZ 00442300 f   DxfSetup1.obj
 0001:00041370       ?OnReload@CDxfSetup1@@IAEXXZ 00442370 f   DxfSetup1.obj
 0001:00041400       ?GetMessageMap@CDxfSetup2@@MBEPBUAFX_MSGMAP@@XZ 00442400 f   DxfSetup2.obj
 0001:00041410       ??_GCDxfSetup2@@UAEPAXI@Z  00442410 f i DxfSetup2.obj
 0001:00041410       ??_ECDxfSetup2@@UAEPAXI@Z  00442410 f i * CIL library *:* CIL module *
 0001:00041490       ?DoDataExchange@CDxfSetup2@@MAEXPAVCDataExchange@@@Z 00442490 f   DxfSetup2.obj
 0001:00041500       ?OnInitDialog@CDxfSetup2@@MAEHXZ 00442500 f   DxfSetup2.obj
 0001:00041540       ?OnApply@CDxfSetup2@@UAEHXZ 00442540 f   DxfSetup2.obj
 0001:00041590       ?OnReload@CDxfSetup2@@IAEXXZ 00442590 f   DxfSetup2.obj
 0001:00041620       ?OnSetActive@CDxfSetup2@@UAEHXZ 00442620 f   DxfSetup2.obj
 0001:00041660       ??_ECDxfSetupReload@@UAEPAXI@Z 00442660 f i * CIL library *:* CIL module *
 0001:00041660       ??_GCDxfSetupReload@@UAEPAXI@Z 00442660 f i DxfSetupReload.obj
 0001:000416b0       ?OnInitDialog@CDxfSetupReload@@MAEHXZ 004426b0 f   DxfSetupReload.obj
 0001:00041820       ?OnOK@CDxfSetupReload@@MAEXXZ 00442820 f   DxfSetupReload.obj
 0001:000418a0       ??_ECListBox@@UAEPAXI@Z    004428a0 f i * CIL library *:* CIL module *
 0001:000418a0       ??_GCListBox@@UAEPAXI@Z    004428a0 f i DxfSetupReload.obj
 0001:000418e0       ??0CListBox@@QAE@XZ        004428e0 f i DxfSetupReload.obj
 0001:00041900       ??_ECCheckListBox@@UAEPAXI@Z 00442900 f i * CIL library *:* CIL module *
 0001:00041900       ??_GCCheckListBox@@UAEPAXI@Z 00442900 f i DxfSetupReload.obj
 0001:00041940       ??_ECDXFworkingDirection@@UAEPAXI@Z 00442940 f i * CIL library *:* CIL module *
 0001:00041940       ??_GCDXFworkingDirection@@UAEPAXI@Z 00442940 f i DXFshape.obj
 0001:00041980       ??1CDXFworking@@UAE@XZ     00442980 f i DXFshape.obj
 0001:00041980       ??1DXFTARGV@@QAE@XZ        00442980 f i NCVCaddinDXF.obj
 0001:00041990       ??_GCDXFworkingStart@@UAEPAXI@Z 00442990 f i DXFshape.obj
 0001:00041990       ??_ECDXFworkingStart@@UAEPAXI@Z 00442990 f i * CIL library *:* CIL module *
 0001:000419d0       ??_ECDXFworkingOutline@@UAEPAXI@Z 004429d0 f i * CIL library *:* CIL module *
 0001:000419d0       ??_GCDXFworkingOutline@@UAEPAXI@Z 004429d0 f i DXFshape.obj
 0001:00041ad0       ??_GCDXFworkingPocket@@UAEPAXI@Z 00442ad0 f i DXFshape.obj
 0001:00041ad0       ??_ECDXFworkingPocket@@UAEPAXI@Z 00442ad0 f i * CIL library *:* CIL module *
 0001:00041ba0       ?GetShapeChain@CDXFshape@@QBEPAVCDXFchain@@XZ 00442ba0 f i DXFshape.obj
 0001:00041c40       ?GetShapeMap@CDXFshape@@QBEPAVCDXFmap@@XZ 00442c40 f i DXFshape.obj
 0001:00041ce0       ?_GetBaseClass@CDXFworkingPocket@@KGPAUCRuntimeClass@@XZ 00442ce0 f   DXFshape.obj
 0001:00041ce0       ?_GetBaseClass@CDXFworkingOutline@@KGPAUCRuntimeClass@@XZ 00442ce0 f   DXFshape.obj
 0001:00041ce0       ?_GetBaseClass@CDXFworkingStart@@KGPAUCRuntimeClass@@XZ 00442ce0 f   DXFshape.obj
 0001:00041ce0       ?GetRuntimeClass@CDXFworking@@UBEPAUCRuntimeClass@@XZ 00442ce0 f   DXFshape.obj
 0001:00041ce0       ?_GetBaseClass@CDXFworkingDirection@@KGPAUCRuntimeClass@@XZ 00442ce0 f   DXFshape.obj
 0001:00041cf0       ?CreateObject@CDXFworkingDirection@@SGPAVCObject@@XZ 00442cf0 f   DXFshape.obj
 0001:00041dd0       ?GetRuntimeClass@CDXFworkingDirection@@UBEPAUCRuntimeClass@@XZ 00442dd0 f   DXFshape.obj
 0001:00041de0       ?CreateObject@CDXFworkingStart@@SGPAVCObject@@XZ 00442de0 f   DXFshape.obj
 0001:00041e90       ?GetRuntimeClass@CDXFworkingStart@@UBEPAUCRuntimeClass@@XZ 00442e90 f   DXFshape.obj
 0001:00041ea0       ?CreateObject@CDXFworkingOutline@@SGPAVCObject@@XZ 00442ea0 f   DXFshape.obj
 0001:00041f80       ?GetRuntimeClass@CDXFworkingOutline@@UBEPAUCRuntimeClass@@XZ 00442f80 f   DXFshape.obj
 0001:00041f90       ?CreateObject@CDXFworkingPocket@@SGPAVCObject@@XZ 00442f90 f   DXFshape.obj
 0001:00042030       ?GetRuntimeClass@CDXFworkingPocket@@UBEPAUCRuntimeClass@@XZ 00443030 f   DXFshape.obj
 0001:00042040       ?CreateObject@CDXFmap@@SGPAVCObject@@XZ 00443040 f   DXFshape.obj
 0001:00042090       ?GetRuntimeClass@CDXFmap@@UBEPAUCRuntimeClass@@XZ 00443090 f   DXFshape.obj
 0001:000420a0       ?CreateObject@CDXFchain@@SGPAVCObject@@XZ 004430a0 f   DXFshape.obj
 0001:00042150       ?GetRuntimeClass@CDXFchain@@UBEPAUCRuntimeClass@@XZ 00443150 f   DXFshape.obj
 0001:00042160       ?CreateObject@CDXFshape@@SGPAVCObject@@XZ 00443160 f   DXFshape.obj
 0001:000422e0       ?GetRuntimeClass@CDXFshape@@UBEPAUCRuntimeClass@@XZ 004432e0 f   DXFshape.obj
 0001:000422f0       ??0CDXFworking@@IAE@W4ENWORKINGTYPE@@PAVCDXFshape@@PAVCDXFdata@@K@Z 004432f0 f   DXFshape.obj
 0001:00042500       ??_ECDXFworking@@UAEPAXI@Z 00443500 f i * CIL library *:* CIL module *
 0001:00042500       ??_GCDXFworking@@UAEPAXI@Z 00443500 f i DXFshape.obj
 0001:00042540       ?Serialize@CDXFworking@@UAEXAAVCArchive@@@Z 00443540 f   DXFshape.obj
 0001:00042740       ?DrawTuning@CDXFworkingDirection@@UAEXM@Z 00443740 f   DXFshape.obj
 0001:000427f0       ?Draw@CDXFworkingDirection@@UBEXPAVCDC@@@Z 004437f0 f   DXFshape.obj
 0001:00042810       ?Serialize@CDXFworkingDirection@@UAEXAAVCArchive@@@Z 00443810 f   DXFshape.obj
 0001:00042bb0       ?DrawTuning@CDXFworkingStart@@UAEXM@Z 00443bb0 f   DXFshape.obj
 0001:00042c60       ?Draw@CDXFworkingStart@@UBEXPAVCDC@@@Z 00443c60 f   DXFshape.obj
 0001:00042c80       ?Serialize@CDXFworkingStart@@UAEXAAVCArchive@@@Z 00443c80 f   DXFshape.obj
 0001:00042e60       ??0CDXFworkingOutline@@QAE@PAVCDXFshape@@PBVCDXFchain@@MK@Z 00443e60 f   DXFshape.obj
 0001:00042f70       ?SeparateAdd_Construct@CDXFworkingOutline@@AAEXPBVCDXFchain@@@Z 00443f70 f   DXFshape.obj
 0001:00043130       ?SeparateModify@CDXFworkingOutline@@QAEXXZ 00444130 f   DXFshape.obj
 0001:00043790       ?SetMergeHandle@CDXFworkingOutline@@QAEXABV?$CStringT@DV?$StrTraitMFC_DLL@DV?$ChTraitsCRT@D@ATL@@@@@ATL@@@Z 00444790 f   DXFshape.obj
 0001:000437f0       ?DrawTuning@CDXFworkingOutline@@UAEXM@Z 004447f0 f   DXFshape.obj
 0001:00043850       ?Draw@CDXFworkingOutline@@UBEXPAVCDC@@@Z 00444850 f   DXFshape.obj
 0001:000438b0       ?Serialize@CDXFworkingOutline@@UAEXAAVCArchive@@@Z 004448b0 f   DXFshape.obj
 0001:00043f20       ?DrawTuning@CDXFworkingPocket@@UAEXM@Z 00444f20 f   DXFshape.obj
 0001:00043f70       ?Draw@CDXFworkingPocket@@UBEXPAVCDC@@@Z 00444f70 f   DXFshape.obj
 0001:00043fb0       ?Serialize@CDXFworkingPocket@@UAEXAAVCArchive@@@Z 00444fb0 f   DXFshape.obj
 0001:00043fd0       ??_ECDXFmap@@UAEPAXI@Z     00444fd0 f i * CIL library *:* CIL module *
 0001:00043fd0       ??_GCDXFmap@@UAEPAXI@Z     00444fd0 f i DXFshape.obj
 0001:000440a0       ??1CDXFmap@@UAE@XZ         004450a0 f   DXFshape.obj
 0001:00044130       ?Serialize@CDXFmap@@UAEXAAVCArchive@@@Z 00445130 f   DXFshape.obj
 0001:00044610       ??0?$CTypedPtrArrayEx@VCObArray@@PAVCDXFdata@@@@QAE@XZ 00445610 f i DXFshape.obj
 0001:00044630       ?RemoveAll@CDXFmap@@QAEXXZ 00445630 f   DXFshape.obj
 0001:000446b0       ?SetPointMap@CDXFmap@@QAEXPAVCDXFdata@@@Z 004456b0 f   DXFshape.obj
 0001:000447b0       ?SetMakePointMap@CDXFmap@@QAEXPAVCDXFdata@@@Z 004457b0 f   DXFshape.obj
 0001:000448d0       ?IsEulerRequirement@CDXFmap@@QBE?AV?$tuple@HPAV?$CTypedPtrArrayEx@VCObArray@@PAVCDXFdata@@@@V?$CPointT@M@@Unull_type@tuples@boost@@U345@U345@U345@U345@U345@U345@@tuples@boost@@ABV?$CPointT@M@@@Z 004458d0 f   DXFshape.obj
 0001:00044b30       ?GetMapTypeFlag@CDXFmap@@QBEKXZ 00445b30 f   DXFshape.obj
 0001:00044da0       ?IsAllSearchFlg@CDXFmap@@QBEHXZ 00445da0 f   DXFshape.obj
 0001:00044e20       ?AllMapObject_ClearSearchFlg@CDXFmap@@QBEXH@Z 00445e20 f   DXFshape.obj
 0001:00044ea0       ?CopyToChain@CDXFmap@@QAEHPAVCDXFchain@@@Z 00445ea0 f   DXFshape.obj
 0001:00045230       ?Append@CDXFmap@@QAEXPBV1@@Z 00446230 f   DXFshape.obj
 0001:00045350       ?GetObjectCount@CDXFmap@@QBEHXZ 00446350 f   DXFshape.obj
 0001:000453d0       ?RemoveObject@CDXFmap@@QAEXPBVCDXFdata@@@Z 004463d0 f   DXFshape.obj
 0001:00045590       ?DrawShape@CDXFmap@@QBEXPAVCDC@@@Z 00446590 f   DXFshape.obj
 0001:00045720       ??_ECDXFchain@@UAEPAXI@Z   00446720 f i * CIL library *:* CIL module *
 0001:00045720       ??_GCDXFchain@@UAEPAXI@Z   00446720 f i DXFshape.obj
 0001:00045760       ??1CDXFchain@@UAE@XZ       00446760 f   DXFshape.obj
 0001:00045770       ?Serialize@CDXFchain@@UAEXAAVCArchive@@@Z 00446770 f   DXFshape.obj
 0001:000459c0       ?IsPointInPolygon@CDXFchain@@QBEHABV?$CPointT@M@@@Z 004469c0 f   DXFshape.obj
 0001:00045c70       ?SetLoopFunc@CDXFchain@@QAEPAU__POSITION@@PBVCDXFdata@@HH@Z 00446c70 f   DXFshape.obj
 0001:00045df0       ?GetSelectObjectFromShape@CDXFchain@@QAEMABV?$CPointT@M@@PBV?$CRectT@M@@PAPAVCDXFdata@@@Z 00446df0 f   DXFshape.obj
 0001:00045f80       ?SetVectorPoint@CDXFchain@@QAEXPAU__POSITION@@AAV?$vector@V?$CPointT@M@@V?$allocator@V?$CPointT@M@@@std@@@std@@I@Z 00446f80 f   DXFshape.obj
 0001:000461a0       ??_GCDXFshape@@UAEPAXI@Z   004471a0 f i DXFshape.obj
 0001:000461a0       ??_ECDXFshape@@UAEPAXI@Z   004471a0 f i * CIL library *:* CIL module *
 0001:000461e0       ??0CDXFshape@@QAE@W4DXFSHAPE_ASSEMBLE@@PBDKPAVCLayerData@@PAVCDXFmap@@@Z 004471e0 f   DXFshape.obj
 0001:00046330       ?Constructor@CDXFshape@@AAEXW4DXFSHAPE_ASSEMBLE@@PBDKPAVCLayerData@@@Z 00447330 f   DXFshape.obj
 0001:000463e0       ?SetDetailInfo@CDXFshape@@AAEXPAVCDXFchain@@@Z 004473e0 f   DXFshape.obj
 0001:000464a0       ?SetDetailInfo@CDXFshape@@AAEXPAVCDXFmap@@@Z 004474a0 f   DXFshape.obj
 0001:000465b0       ??1CDXFshape@@UAE@XZ       004475b0 f   DXFshape.obj
 0001:00046700       ?Serialize@CDXFshape@@UAEXAAVCArchive@@@Z 00447700 f   DXFshape.obj
 0001:00046da0       ?DelWorkingData@CDXFshape@@QAEHPAVCDXFworking@@PAV1@@Z 00447da0 f   DXFshape.obj
 0001:00046e50       ?DelOutlineData@CDXFshape@@QAEHPAVCDXFworkingOutline@@@Z 00447e50 f   DXFshape.obj
 0001:00046ed0       ?GetFirstChainPosition@CDXFshape@@QAEPAU__POSITION@@XZ 00447ed0 f   DXFshape.obj
 0001:000471c0       ?LinkObject@CDXFshape@@QAEHXZ 004481c0 f   DXFshape.obj
 0001:00047230       ?ChangeCreate_MapToChain@CDXFshape@@QAEHPAVCDXFmap@@@Z 00448230 f   DXFshape.obj
 0001:000473a0       ?ChangeCreate_ChainToMap@CDXFshape@@QAEHPAVCDXFchain@@@Z 004483a0 f   DXFshape.obj
 0001:00047530       ?LinkShape@CDXFshape@@QAEHPAV1@@Z 00448530 f   DXFshape.obj
 0001:000478d0       ?CreateOutlineTempObject@CDXFshape@@QAEHHPAVCDXFchain@@M@Z 004488d0 f   DXFshape.obj
 0001:00048250       ?CreateOutlineTempObject_polyline@CDXFshape@@AAEHPBVCDXFpolyline@@HMPAVCDXFchain@@AAV?$CTypedPtrArrayEx@VCPtrArray@@PAV?$CTypedPtrListEx@VCObList@@PAVCDXFdata@@@@@@@Z 00449250 f   DXFshape.obj
 0001:000488e0       ?CreateScanLine_X@CDXFshape@@QAEHPAVCDXFchain@@@Z 004498e0 f   DXFshape.obj
 0001:00048bd0       ?CreateScanLine_Y@CDXFshape@@QAEHPAVCDXFchain@@@Z 00449bd0 f   DXFshape.obj
 0001:00048ee0       ?CreateScanLine_ScrollCircle@CDXFshape@@QAEHPAVCDXFchain@@@Z 00449ee0 f   DXFshape.obj
 0001:00049250       ?CreateScanLine_Lathe@CDXFshape@@QAEXHM@Z 0044a250 f   DXFshape.obj
 0001:00049620       ?CrearScanLine_Lathe@CDXFshape@@QAEXXZ 0044a620 f   DXFshape.obj
 0001:00049690       ?SeparateOutlineIntersection@CDXFshape@@AAEHPAVCDXFchain@@AAV?$CTypedPtrArrayEx@VCPtrArray@@PAV?$CTypedPtrListEx@VCObList@@PAVCDXFdata@@@@@@H@Z 0044a690 f   DXFshape.obj
 0001:00049a30       ?CheckSeparateChain@CDXFshape@@AAEHPAV?$CTypedPtrListEx@VCObList@@PAVCDXFdata@@@@M@Z 0044aa30 f   DXFshape.obj
 0001:00049d50       ?DrawWorking@CDXFshape@@QBEXPAVCDC@@@Z 0044ad50 f   DXFshape.obj
 0001:00049ed0       ?GetSelectObjectFromShape@CDXFshape@@QAEMABV?$CPointT@M@@PBV?$CRectT@M@@PAPAVCDXFdata@@@Z 0044aed0 f   DXFshape.obj
 0001:0004a170       ?SetShapeSwitch@CDXFshape@@QAEXH@Z 0044b170 f   DXFshape.obj
 0001:0004a2e0       ?DrawShape@CDXFshape@@QBEXPAVCDC@@@Z 0044b2e0 f   DXFshape.obj
 0001:0004a4e0       ?CreateDxfOffsetObject@@YAPAVCDXFdata@@PBV1@ABV?$CPointT@M@@1HM@Z 0044b4e0 f   DXFshape.obj
 0001:0004af10       ??1?$vector@_NV?$allocator@_N@std@@@std@@QAE@XZ 0044bf10 f i NCInfoView.obj
 0001:0004af10       ??1?$vector@MV?$allocator@M@std@@@std@@QAE@XZ 0044bf10 f i NCdataGL.obj
 0001:0004af10       ??1?$vector@IV?$allocator@I@std@@@std@@QAE@XZ 0044bf10 f i DXFshape.obj
 0001:0004af20       ?GetPrev@?$_CTypedPtrList@VCObList@@PAVCDXFdata@@@@QAEAAPAVCDXFdata@@AAPAU__POSITION@@@Z 0044bf20 f i DXFshape.obj
 0001:0004af40       ?SetAt@?$CMap@V?$CPointT@M@@AAV1@PAV?$CTypedPtrArrayEx@VCObArray@@PAVCDXFdata@@@@AAPAV2@@@QAEXAAV?$CPointT@M@@AAPAV?$CTypedPtrArrayEx@VCObArray@@PAVCDXFdata@@@@@Z 0044bf40 f i DXFshape.obj
 0001:0004b060       ?GetNextAssoc@?$CMap@V?$CPointT@M@@AAV1@PAV?$CTypedPtrArrayEx@VCObArray@@PAVCDXFdata@@@@AAPAV2@@@QBEXAAPAU__POSITION@@AAV?$CPointT@M@@AAPAV?$CTypedPtrArrayEx@VCObArray@@PAVCDXFdata@@@@@Z 0044c060 f i DXFshape.obj
 0001:0004b0e0       ?Serialize@?$CMap@V?$CPointT@M@@AAV1@PAV?$CTypedPtrArrayEx@VCObArray@@PAVCDXFdata@@@@AAPAV2@@@UAEXAAVCArchive@@@Z 0044c0e0 f i DXFshape.obj
 0001:0004b1d0       ??$_Emplace_reallocate@ABM@?$vector@MV?$allocator@M@std@@@std@@QAEPAMQAMABM@Z 0044c1d0 f i NCViewGL_Wire.obj
 0001:0004b1d0       ??$_Emplace_reallocate@ABI@?$vector@IV?$allocator@I@std@@@std@@QAEPAIQAIABI@Z 0044c1d0 f i DXFshape.obj
 0001:0004b1d0       ??$_Emplace_reallocate@I@?$vector@IV?$allocator@I@std@@@std@@QAEPAIQAI$$QAI@Z 0044c1d0 f i NCdataGL.obj
 0001:0004b2b0       ??_E?$CMap@V?$CPointT@M@@AAV1@PAV?$CTypedPtrArrayEx@VCObArray@@PAVCDXFdata@@@@AAPAV2@@@UAEPAXI@Z 0044c2b0 f i * CIL library *:* CIL module *
 0001:0004b2b0       ??_G?$CMap@V?$CPointT@M@@AAV1@PAV?$CTypedPtrArrayEx@VCObArray@@PAVCDXFdata@@@@AAPAV2@@@UAEPAXI@Z 0044c2b0 f i DXFshape.obj
 0001:0004b370       ?_Change_array@?$vector@MV?$allocator@M@std@@@std@@AAEXQAMII@Z 0044c370 f i NCdataGL.obj
 0001:0004b370       ?_Change_array@?$vector@IV?$allocator@I@std@@@std@@AAEXQAIII@Z 0044c370 f i DXFshape.obj
 0001:0004b3d0       ?allocate@?$allocator@I@std@@QAEPAII@Z 0044c3d0 f i DXFshape.obj
 0001:0004b3d0       ?allocate@?$allocator@M@std@@QAEPAMI@Z 0044c3d0 f i NCdataGL.obj
 0001:0004b430       ?GetAssocAt@?$CMap@V?$CPointT@M@@AAV1@PAV?$CTypedPtrArrayEx@VCObArray@@PAVCDXFdata@@@@AAPAV2@@@IBEPAVCAssoc@1@AAV?$CPointT@M@@AAI1@Z 0044c430 f i DXFshape.obj
 0001:0004b4f0       ??$SerializeElements@V?$CPointT@M@@@@YGXAAVCArchive@@PAV?$CPointT@M@@H@Z 0044c4f0 f i DXFshape.obj
 0001:0004b580       ??$apply_visitor@$$CBUGetObjectCount_Visitor@@@?$variant@PAVCDXFchain@@PAVCDXFmap@@@boost@@QGBEHABUGetObjectCount_Visitor@@@Z 0044c580 f i DXFshape.obj
 0001:0004b700       ??$apply_visitor@$$CBUOrgTuning_Visitor@@@?$variant@PAVCDXFchain@@PAVCDXFmap@@@boost@@QGAEXABUOrgTuning_Visitor@@@Z 0044c700 f i DXFshape.obj
 0001:0004b8b0       ?variant_assign@?$variant@PAVCNCblock@@PAVCNCdata@@@boost@@AAEX$$QAV12@@Z 0044c8b0 f i NCChild.obj
 0001:0004b8b0       ?variant_assign@?$variant@PAVCDXFchain@@PAVCDXFmap@@@boost@@AAEX$$QAV12@@Z 0044c8b0 f i DXFshape.obj
 0001:0004bbb0       ??$apply_visitor@V?$direct_assigner@PAVCDXFchain@@@variant@detail@boost@@@?$variant@PAVCDXFchain@@PAVCDXFmap@@@boost@@QGAE_NAAV?$direct_assigner@PAVCDXFchain@@@variant@detail@1@@Z 0044cbb0 f i DXFshape.obj
 0001:0004bbb0       ??$apply_visitor@V?$direct_assigner@PAVCNCblock@@@variant@detail@boost@@@?$variant@PAVCNCblock@@PAVCNCdata@@@boost@@QGAE_NAAV?$direct_assigner@PAVCNCblock@@@variant@detail@1@@Z 0044cbb0 f i NCListView.obj
 0001:0004bbb0       ??$apply_visitor@V?$direct_assigner@PAVCNCdata@@@variant@detail@boost@@@?$variant@PAVCNCdata@@URANGEPARAM@@@boost@@QGAE_NAAV?$direct_assigner@PAVCNCdata@@@variant@detail@1@@Z 0044cbb0 f i NCViewGL.obj
 0001:0004bd30       ??$apply_visitor@V?$direct_assigner@PAVCDXFmap@@@variant@detail@boost@@@?$variant@PAVCDXFchain@@PAVCDXFmap@@@boost@@QGAE_NAAV?$direct_assigner@PAVCDXFmap@@@variant@detail@1@@Z 0044cd30 f i DXFshape.obj
 0001:0004bd30       ??$apply_visitor@V?$direct_mover@PAVCNCdata@@@variant@detail@boost@@@?$variant@PAVCNCblock@@PAVCNCdata@@@boost@@QGAE_NAAV?$direct_mover@PAVCNCdata@@@variant@detail@1@@Z 0044cd30 f i NCChild.obj
 0001:0004bd30       ??$apply_visitor@V?$direct_assigner@PAVCNCdata@@@variant@detail@boost@@@?$variant@PAVCNCblock@@PAVCNCdata@@@boost@@QGAE_NAAV?$direct_assigner@PAVCNCdata@@@variant@detail@1@@Z 0044cd30 f i NCListView.obj
 0001:0004beb0       ??0bad_get@boost@@QAE@XZ   0044ceb0 f i DXFshape.obj
 0001:0004bed0       ??$throw_exception@Vbad_get@boost@@@boost@@YAXABVbad_get@0@@Z 0044ced0 f i DXFshape.obj
 0001:0004bef0       ??0?$wrapexcept@Vbad_get@boost@@@boost@@QAE@ABU01@@Z 0044cef0 f i DXFshape.obj
 0001:0004bfb0       ??0bad_get@boost@@QAE@ABV01@@Z 0044cfb0 f i DXFshape.obj
 0001:0004bff0       ?rethrow@?$wrapexcept@Vbad_get@boost@@@boost@@UBEXXZ 0044cff0 f i DXFshape.obj
 0001:0004c010       ?clone@?$wrapexcept@Vbad_get@boost@@@boost@@UBEPBVclone_base@exception_detail@2@XZ 0044d010 f i DXFshape.obj
 0001:0004c0a0       ??0?$wrapexcept@Vbad_get@boost@@@boost@@QAE@ABVbad_get@1@@Z 0044d0a0 f i DXFshape.obj
 0001:0004c110       ??$apply_visitor@U?$get_visitor@PAVCNCdata@@@variant@detail@boost@@@?$variant@PAVCNCdata@@URANGEPARAM@@@boost@@QGAEPAPAVCNCdata@@AAU?$get_visitor@PAVCNCdata@@@variant@detail@1@@Z 0044d110 f i NCViewGL_Mill.obj
 0001:0004c110       ??$apply_visitor@U?$get_visitor@PAVCNCblock@@@variant@detail@boost@@@?$variant@PAVCNCblock@@PAVCNCdata@@@boost@@QGAEPAPAVCNCblock@@AAU?$get_visitor@PAVCNCblock@@@variant@detail@1@@Z 0044d110 f i NCChild.obj
 0001:0004c110       ??$apply_visitor@U?$get_visitor@PAVCDXFchain@@@variant@detail@boost@@@?$variant@PAVCDXFchain@@PAVCDXFmap@@@boost@@QGAEPAPAVCDXFchain@@AAU?$get_visitor@PAVCDXFchain@@@variant@detail@1@@Z 0044d110 f i DXFshape.obj
 0001:0004c110       ??$apply_visitor@U?$get_visitor@QAVCDXFchain@@@variant@detail@boost@@@?$variant@PAVCDXFchain@@PAVCDXFmap@@@boost@@QGBEPBQAVCDXFchain@@AAU?$get_visitor@QAVCDXFchain@@@variant@detail@1@@Z 0044d110 f i DXFshape.obj
 0001:0004c290       ??$apply_visitor@U?$get_visitor@PAVCNCdata@@@variant@detail@boost@@@?$variant@PAVCNCblock@@PAVCNCdata@@@boost@@QGAEPAPAVCNCdata@@AAU?$get_visitor@PAVCNCdata@@@variant@detail@1@@Z 0044d290 f i NCChild.obj
 0001:0004c290       ??$apply_visitor@U?$get_visitor@PAVCDXFmap@@@variant@detail@boost@@@?$variant@PAVCDXFchain@@PAVCDXFmap@@@boost@@QGAEPAPAVCDXFmap@@AAU?$get_visitor@PAVCDXFmap@@@variant@detail@1@@Z 0044d290 f i DXFshape.obj
 0001:0004c290       ??$apply_visitor@U?$get_visitor@URANGEPARAM@@@variant@detail@boost@@@?$variant@PAVCNCdata@@URANGEPARAM@@@boost@@QGAEPAURANGEPARAM@@AAU?$get_visitor@URANGEPARAM@@@variant@detail@1@@Z 0044d290 f i NCViewGL_Mill.obj
 0001:0004c290       ??$apply_visitor@U?$get_visitor@QAVCDXFmap@@@variant@detail@boost@@@?$variant@PAVCDXFchain@@PAVCDXFmap@@@boost@@QGBEPBQAVCDXFmap@@AAU?$get_visitor@QAVCDXFmap@@@variant@detail@1@@Z 0044d290 f i DXFshape.obj
 0001:0004c410       ??$forced_return@PAPAVCDXFshape@@@variant@detail@boost@@YAPAPAVCDXFshape@@XZ 0044d410 f i DXFView.obj
 0001:0004c410       ??$forced_return@PAPAVCNCblock@@@variant@detail@boost@@YAPAPAVCNCblock@@XZ 0044d410 f i NCChild.obj
 0001:0004c410       ??$forced_return@PAPAVCNCdata@@@variant@detail@boost@@YAPAPAVCNCdata@@XZ 0044d410 f i NCChild.obj
 0001:0004c410       ??$forced_return@H@variant@detail@boost@@YAHXZ 0044d410 f i DXFshape.obj
 0001:0004c410       ??$forced_return@PAPAVCLayerData@@@variant@detail@boost@@YAPAPAVCLayerData@@XZ 0044d410 f i TH_AutoWorkingSet.obj
 0001:0004c410       ??$forced_return@PBQAVCDXFchain@@@variant@detail@boost@@YAPBQAVCDXFchain@@XZ 0044d410 f i DXFshape.obj
 0001:0004c410       ??$forced_return@PAPAVCDXFmap@@@variant@detail@boost@@YAPAPAVCDXFmap@@XZ 0044d410 f i DXFshape.obj
 0001:0004c410       ??$forced_return@X@variant@detail@boost@@YAXXZ 0044d410 f i DXFshape.obj
 0001:0004c410       ??$forced_return@PAPAVCDXFworking@@@variant@detail@boost@@YAPAPAVCDXFworking@@XZ 0044d410 f i DXFView.obj
 0001:0004c410       ??$forced_return@PAPAVCDXFchain@@@variant@detail@boost@@YAPAPAVCDXFchain@@XZ 0044d410 f i DXFshape.obj
 0001:0004c410       ??$forced_return@_N@variant@detail@boost@@YA_NXZ 0044d410 f i DXFshape.obj
 0001:0004c410       ??$forced_return@PBQAVCDXFmap@@@variant@detail@boost@@YAPBQAVCDXFmap@@XZ 0044d410 f i DXFshape.obj
 0001:0004c410       ??$forced_return@PAURANGEPARAM@@@variant@detail@boost@@YAPAURANGEPARAM@@XZ 0044d410 f i NCViewGL_Mill.obj
 0001:0004c420       ??$visitation_impl@U?$int_@$0BE@@mpl@boost@@U?$visitation_impl_step@U?$l_iter@Ul_end@mpl@boost@@@mpl@boost@@U123@@variant@detail@3@V?$invoke_visitor@V?$direct_assigner@PAVCNCblock@@@variant@detail@boost@@$0A@@563@PAXUhas_fallback_type_@?$variant@PAVCNCblock@@PAVCNCdata@@@3@@variant@detail@boost@@YA_NHHAAV?$invoke_visitor@V?$direct_assigner@PAVCNCblock@@@variant@detail@boost@@$0A@@012@PAXU?$bool_@$00@mpl@2@Uhas_fallback_type_@?$variant@PAVCNCblock@@PAVCNCdata@@@2@PAU?$int_@$0BE@@52@PAU?$visitation_impl_step@U?$l_iter@Ul_end@mpl@boost@@@mpl@boost@@U123@@012@@Z 0044d420 f i NCListView.obj
 0001:0004c420       ??$visitation_impl_invoke@V?$invoke_visitor@U?$get_visitor@PAVCLayerData@@@variant@detail@boost@@$0A@@variant@detail@boost@@PAXUhas_fallback_type_@?$variant@KPAVCLayerData@@PAVCDXFshape@@PAVCDXFworking@@@4@@variant@detail@boost@@YAPAPAVCLayerData@@HAAV?$invoke_visitor@U?$get_visitor@PAVCLayerData@@@variant@detail@boost@@$0A@@012@PAXPAUapply_visitor_unrolled@012@Uhas_fallback_type_@?$variant@KPAVCLayerData@@PAVCDXFshape@@PAVCDXFworking@@@2@J@Z 0044d420 f i TH_AutoWorkingSet.obj
 0001:0004c420       ??$visitation_impl@U?$int_@$0BE@@mpl@boost@@U?$visitation_impl_step@U?$l_iter@Ul_end@mpl@boost@@@mpl@boost@@U123@@variant@detail@3@V?$invoke_visitor@U?$get_visitor@PAVCNCblock@@@variant@detail@boost@@$0A@@563@PAXUhas_fallback_type_@?$variant@PAVCNCblock@@PAVCNCdata@@@3@@variant@detail@boost@@YAPAPAVCNCblock@@HHAAV?$invoke_visitor@U?$get_visitor@PAVCNCblock@@@variant@detail@boost@@$0A@@012@PAXU?$bool_@$00@mpl@2@Uhas_fallback_type_@?$variant@PAVCNCblock@@PAVCNCdata@@@2@PAU?$int_@$0BE@@62@PAU?$visitation_impl_step@U?$l_iter@Ul_end@mpl@boost@@@mpl@boost@@U123@@012@@Z 0044d420 f i NCChild.obj
 0001:0004c420       ??$visitation_impl_invoke@V?$invoke_visitor@V?$direct_assigner@PAVCNCblock@@@variant@detail@boost@@$0A@@variant@detail@boost@@PAXUhas_fallback_type_@?$variant@PAVCNCblock@@PAVCNCdata@@@4@@variant@detail@boost@@YA_NHAAV?$invoke_visitor@V?$direct_assigner@PAVCNCblock@@@variant@detail@boost@@$0A@@012@PAXPAUapply_visitor_unrolled@012@Uhas_fallback_type_@?$variant@PAVCNCblock@@PAVCNCdata@@@2@J@Z 0044d420 f i NCListView.obj
 0001:0004c420       ??$visitation_impl@U?$int_@$0BE@@mpl@boost@@U?$visitation_impl_step@U?$l_iter@Ul_end@mpl@boost@@@mpl@boost@@U123@@variant@detail@3@V?$invoke_visitor@U?$get_visitor@PAVCNCdata@@@variant@detail@boost@@$0A@@563@PAXUhas_fallback_type_@?$variant@PAVCNCdata@@URANGEPARAM@@@3@@variant@detail@boost@@YAPAPAVCNCdata@@HHAAV?$invoke_visitor@U?$get_visitor@PAVCNCdata@@@variant@detail@boost@@$0A@@012@PAXU?$bool_@$00@mpl@2@Uhas_fallback_type_@?$variant@PAVCNCdata@@URANGEPARAM@@@2@PAU?$int_@$0BE@@62@PAU?$visitation_impl_step@U?$l_iter@Ul_end@mpl@boost@@@mpl@boost@@U123@@012@@Z 0044d420 f i NCViewGL_Mill.obj
 0001:0004c420       ??$visitation_impl_invoke@V?$invoke_visitor@U?$get_visitor@PAVCNCblock@@@variant@detail@boost@@$0A@@variant@detail@boost@@PAXUhas_fallback_type_@?$variant@PAVCNCblock@@PAVCNCdata@@@4@@variant@detail@boost@@YAPAPAVCNCblock@@HAAV?$invoke_visitor@U?$get_visitor@PAVCNCblock@@@variant@detail@boost@@$0A@@012@PAXPAUapply_visitor_unrolled@012@Uhas_fallback_type_@?$variant@PAVCNCblock@@PAVCNCdata@@@2@J@Z 0044d420 f i NCChild.obj
 0001:0004c420       ??$visitation_impl_invoke@V?$invoke_visitor@$$CBUOrgTuning_Visitor@@$0A@@variant@detail@boost@@PAXUhas_fallback_type_@?$variant@PAVCDXFchain@@PAVCDXFmap@@@4@@variant@detail@boost@@YAXHAAV?$invoke_visitor@$$CBUOrgTuning_Visitor@@$0A@@012@PAXPAUapply_visitor_unrolled@012@Uhas_fallback_type_@?$variant@PAVCDXFchain@@PAVCDXFmap@@@2@J@Z 0044d420 f i DXFshape.obj
 0001:0004c420       ??$visitation_impl_invoke@Vmove_assigner@?$variant@PAVCNCdata@@URANGEPARAM@@@boost@@PAXUhas_fallback_type_@23@@variant@detail@boost@@YAXHAAVmove_assigner@?$variant@PAVCNCdata@@URANGEPARAM@@@2@PAXPAUapply_visitor_unrolled@012@Uhas_fallback_type_@42@J@Z 0044d420 f i NCViewGL.obj
 0001:0004c420       ??$visitation_impl_invoke@V?$invoke_visitor@V?$direct_assigner@PAVCDXFmap@@@variant@detail@boost@@$0A@@variant@detail@boost@@PAXUhas_fallback_type_@?$variant@PAVCDXFchain@@PAVCDXFmap@@@4@@variant@detail@boost@@YA_NHAAV?$invoke_visitor@V?$direct_assigner@PAVCDXFmap@@@variant@detail@boost@@$0A@@012@PAXPAUapply_visitor_unrolled@012@Uhas_fallback_type_@?$variant@PAVCDXFchain@@PAVCDXFmap@@@2@J@Z 0044d420 f i DXFshape.obj
 0001:0004c420       ??$visitation_impl@U?$int_@$0BE@@mpl@boost@@U?$visitation_impl_step@U?$l_iter@Ul_end@mpl@boost@@@mpl@boost@@U123@@variant@detail@3@V?$invoke_visitor@V?$direct_assigner@PAVCDXFshape@@@variant@detail@boost@@$0A@@563@PAXUhas_fallback_type_@?$variant@KPAVCLayerData@@PAVCDXFshape@@PAVCDXFworking@@@3@@variant@detail@boost@@YA_NHHAAV?$invoke_visitor@V?$direct_assigner@PAVCDXFshape@@@variant@detail@boost@@$0A@@012@PAXU?$bool_@$00@mpl@2@Uhas_fallback_type_@?$variant@KPAVCLayerData@@PAVCDXFshape@@PAVCDXFworking@@@2@PAU?$int_@$0BE@@52@PAU?$visitation_impl_step@U?$l_iter@Ul_end@mpl@boost@@@mpl@boost@@U123@@012@@Z 0044d420 f i DXFShapeView.obj
 0001:0004c420       ??$visitation_impl@U?$int_@$0BE@@mpl@boost@@U?$visitation_impl_step@U?$l_iter@Ul_end@mpl@boost@@@mpl@boost@@U123@@variant@detail@3@V?$invoke_visitor@U?$get_visitor@PAVCLayerData@@@variant@detail@boost@@$0A@@563@PAXUhas_fallback_type_@?$variant@KPAVCLayerData@@PAVCDXFshape@@PAVCDXFworking@@@3@@variant@detail@boost@@YAPAPAVCLayerData@@HHAAV?$invoke_visitor@U?$get_visitor@PAVCLayerData@@@variant@detail@boost@@$0A@@012@PAXU?$bool_@$00@mpl@2@Uhas_fallback_type_@?$variant@KPAVCLayerData@@PAVCDXFshape@@PAVCDXFworking@@@2@PAU?$int_@$0BE@@62@PAU?$visitation_impl_step@U?$l_iter@Ul_end@mpl@boost@@@mpl@boost@@U123@@012@@Z 0044d420 f i TH_AutoWorkingSet.obj
 0001:0004c420       ??$visitation_impl_invoke@V?$invoke_visitor@V?$direct_assigner@PAVCDXFchain@@@variant@detail@boost@@$0A@@variant@detail@boost@@PAXUhas_fallback_type_@?$variant@PAVCDXFchain@@PAVCDXFmap@@@4@@variant@detail@boost@@YA_NHAAV?$invoke_visitor@V?$direct_assigner@PAVCDXFchain@@@variant@detail@boost@@$0A@@012@PAXPAUapply_visitor_unrolled@012@Uhas_fallback_type_@?$variant@PAVCDXFchain@@PAVCDXFmap@@@2@J@Z 0044d420 f i DXFshape.obj
 0001:0004c420       ??$visitation_impl_invoke@Umove_storage@variant@detail@boost@@PAXUhas_fallback_type_@?$variant@KPAVCLayerData@@PAVCDXFshape@@PAVCDXFworking@@@4@@variant@detail@boost@@YAXHAAUmove_storage@012@PAXPAUapply_visitor_unrolled@012@Uhas_fallback_type_@?$variant@KPAVCLayerData@@PAVCDXFshape@@PAVCDXFworking@@@2@J@Z 0044d420 f i DXFShapeView.obj
 0001:0004c420       ??$visitation_impl@U?$int_@$0BE@@mpl@boost@@U?$visitation_impl_step@U?$l_iter@Ul_end@mpl@boost@@@mpl@boost@@U123@@variant@detail@3@Umove_storage@563@PAXUhas_fallback_type_@?$variant@KPAVCLayerData@@PAVCDXFshape@@PAVCDXFworking@@@3@@variant@detail@boost@@YAXHHAAUmove_storage@012@PAXU?$bool_@$00@mpl@2@Uhas_fallback_type_@?$variant@KPAVCLayerData@@PAVCDXFshape@@PAVCDXFworking@@@2@PAU?$int_@$0BE@@52@PAU?$visitation_impl_step@U?$l_iter@Ul_end@mpl@boost@@@mpl@boost@@U123@@012@@Z 0044d420 f i DXFShapeView.obj
 0001:0004c420       ??$visitation_impl@U?$int_@$0BE@@mpl@boost@@U?$visitation_impl_step@U?$l_iter@Ul_end@mpl@boost@@@mpl@boost@@U123@@variant@detail@3@V?$invoke_visitor@V?$direct_assigner@PAVCDXFchain@@@variant@detail@boost@@$0A@@563@PAXUhas_fallback_type_@?$variant@PAVCDXFchain@@PAVCDXFmap@@@3@@variant@detail@boost@@YA_NHHAAV?$invoke_visitor@V?$direct_assigner@PAVCDXFchain@@@variant@detail@boost@@$0A@@012@PAXU?$bool_@$00@mpl@2@Uhas_fallback_type_@?$variant@PAVCDXFchain@@PAVCDXFmap@@@2@PAU?$int_@$0BE@@52@PAU?$visitation_impl_step@U?$l_iter@Ul_end@mpl@boost@@@mpl@boost@@U123@@012@@Z 0044d420 f i DXFshape.obj
 0001:0004c420       ??$visitation_impl_invoke@V?$invoke_visitor@U?$get_visitor@PAVCDXFworking@@@variant@detail@boost@@$0A@@variant@detail@boost@@PAXUhas_fallback_type_@?$variant@KPAVCLayerData@@PAVCDXFshape@@PAVCDXFworking@@@4@@variant@detail@boost@@YAPAPAVCDXFworking@@HAAV?$invoke_visitor@U?$get_visitor@PAVCDXFworking@@@variant@detail@boost@@$0A@@012@PAXPAUapply_visitor_unrolled@012@Uhas_fallback_type_@?$variant@KPAVCLayerData@@PAVCDXFshape@@PAVCDXFworking@@@2@J@Z 0044d420 f i DXFView.obj
 0001:0004c420       ??$visitation_impl_invoke@Vmove_assigner@?$variant@PAVCDXFchain@@PAVCDXFmap@@@boost@@PAXUhas_fallback_type_@23@@variant@detail@boost@@YAXHAAVmove_assigner@?$variant@PAVCDXFchain@@PAVCDXFmap@@@2@PAXPAUapply_visitor_unrolled@012@Uhas_fallback_type_@42@J@Z 0044d420 f i DXFshape.obj
 0001:0004c420       ??$visitation_impl_invoke@Vmove_assigner@?$variant@KPAVCLayerData@@PAVCDXFshape@@PAVCDXFworking@@@boost@@PAXUhas_fallback_type_@23@@variant@detail@boost@@YAXHAAVmove_assigner@?$variant@KPAVCLayerData@@PAVCDXFshape@@PAVCDXFworking@@@2@PAXPAUapply_visitor_unrolled@012@Uhas_fallback_type_@42@J@Z 0044d420 f i DXFShapeView.obj
 0001:0004c420       ??$visitation_impl_invoke@V?$invoke_visitor@U?$get_visitor@PAVCDXFmap@@@variant@detail@boost@@$0A@@variant@detail@boost@@PAXUhas_fallback_type_@?$variant@PAVCDXFchain@@PAVCDXFmap@@@4@@variant@detail@boost@@YAPAPAVCDXFmap@@HAAV?$invoke_visitor@U?$get_visitor@PAVCDXFmap@@@variant@detail@boost@@$0A@@012@PAXPAUapply_visitor_unrolled@012@Uhas_fallback_type_@?$variant@PAVCDXFchain@@PAVCDXFmap@@@2@J@Z 0044d420 f i DXFshape.obj
 0001:0004c420       ??$visitation_impl_invoke@Uassign_storage@variant@detail@boost@@PAXUhas_fallback_type_@?$variant@KPAVCLayerData@@PAVCDXFshape@@PAVCDXFworking@@@4@@variant@detail@boost@@YAXHAAUassign_storage@012@PAXPAUapply_visitor_unrolled@012@Uhas_fallback_type_@?$variant@KPAVCLayerData@@PAVCDXFshape@@PAVCDXFworking@@@2@J@Z 0044d420 f i DXFView.obj
 0001:0004c420       ??$visitation_impl@U?$int_@$0BE@@mpl@boost@@U?$visitation_impl_step@U?$l_iter@Ul_end@mpl@boost@@@mpl@boost@@U123@@variant@detail@3@V?$invoke_visitor@V?$direct_assigner@PAVCNCdata@@@variant@detail@boost@@$0A@@563@PAXUhas_fallback_type_@?$variant@PAVCNCblock@@PAVCNCdata@@@3@@variant@detail@boost@@YA_NHHAAV?$invoke_visitor@V?$direct_assigner@PAVCNCdata@@@variant@detail@boost@@$0A@@012@PAXU?$bool_@$00@mpl@2@Uhas_fallback_type_@?$variant@PAVCNCblock@@PAVCNCdata@@@2@PAU?$int_@$0BE@@52@PAU?$visitation_impl_step@U?$l_iter@Ul_end@mpl@boost@@@mpl@boost@@U123@@012@@Z 0044d420 f i NCListView.obj
 0001:0004c420       ??$visitation_impl_invoke@V?$invoke_visitor@V?$direct_mover@URANGEPARAM@@@variant@detail@boost@@$0A@@variant@detail@boost@@PAXUhas_fallback_type_@?$variant@PAVCNCdata@@URANGEPARAM@@@4@@variant@detail@boost@@YA_NHAAV?$invoke_visitor@V?$direct_mover@URANGEPARAM@@@variant@detail@boost@@$0A@@012@PAXPAUapply_visitor_unrolled@012@Uhas_fallback_type_@?$variant@PAVCNCdata@@URANGEPARAM@@@2@J@Z 0044d420 f i NCViewGL.obj
 0001:0004c420       ??$visitation_impl_invoke@V?$invoke_visitor@U?$get_visitor@QAVCDXFchain@@@variant@detail@boost@@$0A@@variant@detail@boost@@PBXUhas_fallback_type_@?$variant@PAVCDXFchain@@PAVCDXFmap@@@4@@variant@detail@boost@@YAPBQAVCDXFchain@@HAAV?$invoke_visitor@U?$get_visitor@QAVCDXFchain@@@variant@detail@boost@@$0A@@012@PBXPAUapply_visitor_unrolled@012@Uhas_fallback_type_@?$variant@PAVCDXFchain@@PAVCDXFmap@@@2@J@Z 0044d420 f i DXFshape.obj
 0001:0004c420       ??$visitation_impl_invoke@Umove_storage@variant@detail@boost@@PAXUhas_fallback_type_@?$variant@PAVCNCblock@@PAVCNCdata@@@4@@variant@detail@boost@@YAXHAAUmove_storage@012@PAXPAUapply_visitor_unrolled@012@Uhas_fallback_type_@?$variant@PAVCNCblock@@PAVCNCdata@@@2@J@Z 0044d420 f i NCChild.obj
 0001:0004c420       ??$visitation_impl_invoke@V?$invoke_visitor@V?$direct_assigner@PAVCNCdata@@@variant@detail@boost@@$0A@@variant@detail@boost@@PAXUhas_fallback_type_@?$variant@PAVCNCblock@@PAVCNCdata@@@4@@variant@detail@boost@@YA_NHAAV?$invoke_visitor@V?$direct_assigner@PAVCNCdata@@@variant@detail@boost@@$0A@@012@PAXPAUapply_visitor_unrolled@012@Uhas_fallback_type_@?$variant@PAVCNCblock@@PAVCNCdata@@@2@J@Z 0044d420 f i NCListView.obj
 0001:0004c420       ??$visitation_impl@U?$int_@$0BE@@mpl@boost@@U?$visitation_impl_step@U?$l_iter@Ul_end@mpl@boost@@@mpl@boost@@U123@@variant@detail@3@V?$invoke_visitor@V?$direct_mover@URANGEPARAM@@@variant@detail@boost@@$0A@@563@PAXUhas_fallback_type_@?$variant@PAVCNCdata@@URANGEPARAM@@@3@@variant@detail@boost@@YA_NHHAAV?$invoke_visitor@V?$direct_mover@URANGEPARAM@@@variant@detail@boost@@$0A@@012@PAXU?$bool_@$00@mpl@2@Uhas_fallback_type_@?$variant@PAVCNCdata@@URANGEPARAM@@@2@PAU?$int_@$0BE@@52@PAU?$visitation_impl_step@U?$l_iter@Ul_end@mpl@boost@@@mpl@boost@@U123@@012@@Z 0044d420 f i NCViewGL.obj
 0001:0004c420       ??$visitation_impl_invoke@Vassigner@?$variant@KPAVCLayerData@@PAVCDXFshape@@PAVCDXFworking@@@boost@@PBXUhas_fallback_type_@23@@variant@detail@boost@@YAXHAAVassigner@?$variant@KPAVCLayerData@@PAVCDXFshape@@PAVCDXFworking@@@2@PBXPAUapply_visitor_unrolled@012@Uhas_fallback_type_@42@J@Z 0044d420 f i DXFView.obj
 0001:0004c420       ??$visitation_impl@U?$int_@$0BE@@mpl@boost@@U?$visitation_impl_step@U?$l_iter@Ul_end@mpl@boost@@@mpl@boost@@U123@@variant@detail@3@Vmove_assigner@?$variant@PAVCDXFchain@@PAVCDXFmap@@@3@PAXUhas_fallback_type_@83@@variant@detail@boost@@YAXHHAAVmove_assigner@?$variant@PAVCDXFchain@@PAVCDXFmap@@@2@PAXU?$bool_@$00@mpl@2@Uhas_fallback_type_@42@PAU?$int_@$0BE@@62@PAU?$visitation_impl_step@U?$l_iter@Ul_end@mpl@boost@@@mpl@boost@@U123@@012@@Z 0044d420 f i DXFshape.obj
 0001:0004c420       ??$visitation_impl_invoke@Vmove_assigner@?$variant@PAVCNCblock@@PAVCNCdata@@@boost@@PAXUhas_fallback_type_@23@@variant@detail@boost@@YAXHAAVmove_assigner@?$variant@PAVCNCblock@@PAVCNCdata@@@2@PAXPAUapply_visitor_unrolled@012@Uhas_fallback_type_@42@J@Z 0044d420 f i NCChild.obj
 0001:0004c420       ??$visitation_impl_invoke@V?$invoke_visitor@$$CBUGetObjectCount_Visitor@@$0A@@variant@detail@boost@@PBXUhas_fallback_type_@?$variant@PAVCDXFchain@@PAVCDXFmap@@@4@@variant@detail@boost@@YAHHAAV?$invoke_visitor@$$CBUGetObjectCount_Visitor@@$0A@@012@PBXPAUapply_visitor_unrolled@012@Uhas_fallback_type_@?$variant@PAVCDXFchain@@PAVCDXFmap@@@2@J@Z 0044d420 f i DXFshape.obj
 0001:0004c420       ??$visitation_impl@U?$int_@$0BE@@mpl@boost@@U?$visitation_impl_step@U?$l_iter@Ul_end@mpl@boost@@@mpl@boost@@U123@@variant@detail@3@V?$invoke_visitor@$$CBUGetObjectCount_Visitor@@$0A@@563@PBXUhas_fallback_type_@?$variant@PAVCDXFchain@@PAVCDXFmap@@@3@@variant@detail@boost@@YAHHHAAV?$invoke_visitor@$$CBUGetObjectCount_Visitor@@$0A@@012@PBXU?$bool_@$00@mpl@2@Uhas_fallback_type_@?$variant@PAVCDXFchain@@PAVCDXFmap@@@2@PAU?$int_@$0BE@@52@PAU?$visitation_impl_step@U?$l_iter@Ul_end@mpl@boost@@@mpl@boost@@U123@@012@@Z 0044d420 f i DXFshape.obj
 0001:0004c420       ??$visitation_impl_invoke@V?$invoke_visitor@U?$get_visitor@PAVCNCdata@@@variant@detail@boost@@$0A@@variant@detail@boost@@PAXUhas_fallback_type_@?$variant@PAVCNCblock@@PAVCNCdata@@@4@@variant@detail@boost@@YAPAPAVCNCdata@@HAAV?$invoke_visitor@U?$get_visitor@PAVCNCdata@@@variant@detail@boost@@$0A@@012@PAXPAUapply_visitor_unrolled@012@Uhas_fallback_type_@?$variant@PAVCNCblock@@PAVCNCdata@@@2@J@Z 0044d420 f i NCChild.obj
 0001:0004c420       ??$visitation_impl@U?$int_@$0BE@@mpl@boost@@U?$visitation_impl_step@U?$l_iter@Ul_end@mpl@boost@@@mpl@boost@@U123@@variant@detail@3@V?$invoke_visitor@U?$get_visitor@PAVCDXFchain@@@variant@detail@boost@@$0A@@563@PAXUhas_fallback_type_@?$variant@PAVCDXFchain@@PAVCDXFmap@@@3@@variant@detail@boost@@YAPAPAVCDXFchain@@HHAAV?$invoke_visitor@U?$get_visitor@PAVCDXFchain@@@variant@detail@boost@@$0A@@012@PAXU?$bool_@$00@mpl@2@Uhas_fallback_type_@?$variant@PAVCDXFchain@@PAVCDXFmap@@@2@PAU?$int_@$0BE@@62@PAU?$visitation_impl_step@U?$l_iter@Ul_end@mpl@boost@@@mpl@boost@@U123@@012@@Z 0044d420 f i DXFshape.obj
 0001:0004c420       ??$visitation_impl_invoke@V?$invoke_visitor@V?$direct_mover@PAVCNCdata@@@variant@detail@boost@@$0A@@variant@detail@boost@@PAXUhas_fallback_type_@?$variant@PAVCNCblock@@PAVCNCdata@@@4@@variant@detail@boost@@YA_NHAAV?$invoke_visitor@V?$direct_mover@PAVCNCdata@@@variant@detail@boost@@$0A@@012@PAXPAUapply_visitor_unrolled@012@Uhas_fallback_type_@?$variant@PAVCNCblock@@PAVCNCdata@@@2@J@Z 0044d420 f i NCChild.obj
 0001:0004c420       ??$visitation_impl@U?$int_@$0BE@@mpl@boost@@U?$visitation_impl_step@U?$l_iter@Ul_end@mpl@boost@@@mpl@boost@@U123@@variant@detail@3@V?$invoke_visitor@U?$get_visitor@PAVCNCdata@@@variant@detail@boost@@$0A@@563@PAXUhas_fallback_type_@?$variant@PAVCNCblock@@PAVCNCdata@@@3@@variant@detail@boost@@YAPAPAVCNCdata@@HHAAV?$invoke_visitor@U?$get_visitor@PAVCNCdata@@@variant@detail@boost@@$0A@@012@PAXU?$bool_@$00@mpl@2@Uhas_fallback_type_@?$variant@PAVCNCblock@@PAVCNCdata@@@2@PAU?$int_@$0BE@@62@PAU?$visitation_impl_step@U?$l_iter@Ul_end@mpl@boost@@@mpl@boost@@U123@@012@@Z 0044d420 f i NCChild.obj
 0001:0004c420       ??$visitation_impl@U?$int_@$0BE@@mpl@boost@@U?$visitation_impl_step@U?$l_iter@Ul_end@mpl@boost@@@mpl@boost@@U123@@variant@detail@3@V?$invoke_visitor@V?$direct_assigner@PAVCDXFworking@@@variant@detail@boost@@$0A@@563@PAXUhas_fallback_type_@?$variant@KPAVCLayerData@@PAVCDXFshape@@PAVCDXFworking@@@3@@variant@detail@boost@@YA_NHHAAV?$invoke_visitor@V?$direct_assigner@PAVCDXFworking@@@variant@detail@boost@@$0A@@012@PAXU?$bool_@$00@mpl@2@Uhas_fallback_type_@?$variant@KPAVCLayerData@@PAVCDXFshape@@PAVCDXFworking@@@2@PAU?$int_@$0BE@@52@PAU?$visitation_impl_step@U?$l_iter@Ul_end@mpl@boost@@@mpl@boost@@U123@@012@@Z 0044d420 f i DXFShapeView.obj
 0001:0004c420       ??$visitation_impl@U?$int_@$0BE@@mpl@boost@@U?$visitation_impl_step@U?$l_iter@Ul_end@mpl@boost@@@mpl@boost@@U123@@variant@detail@3@V?$invoke_visitor@U?$get_visitor@PAVCDXFmap@@@variant@detail@boost@@$0A@@563@PAXUhas_fallback_type_@?$variant@PAVCDXFchain@@PAVCDXFmap@@@3@@variant@detail@boost@@YAPAPAVCDXFmap@@HHAAV?$invoke_visitor@U?$get_visitor@PAVCDXFmap@@@variant@detail@boost@@$0A@@012@PAXU?$bool_@$00@mpl@2@Uhas_fallback_type_@?$variant@PAVCDXFchain@@PAVCDXFmap@@@2@PAU?$int_@$0BE@@62@PAU?$visitation_impl_step@U?$l_iter@Ul_end@mpl@boost@@@mpl@boost@@U123@@012@@Z 0044d420 f i DXFshape.obj
 0001:0004c420       ??$visitation_impl@U?$int_@$0BE@@mpl@boost@@U?$visitation_impl_step@U?$l_iter@Ul_end@mpl@boost@@@mpl@boost@@U123@@variant@detail@3@V?$invoke_visitor@$$CBUOrgTuning_Visitor@@$0A@@563@PAXUhas_fallback_type_@?$variant@PAVCDXFchain@@PAVCDXFmap@@@3@@variant@detail@boost@@YAXHHAAV?$invoke_visitor@$$CBUOrgTuning_Visitor@@$0A@@012@PAXU?$bool_@$00@mpl@2@Uhas_fallback_type_@?$variant@PAVCDXFchain@@PAVCDXFmap@@@2@PAU?$int_@$0BE@@52@PAU?$visitation_impl_step@U?$l_iter@Ul_end@mpl@boost@@@mpl@boost@@U123@@012@@Z 0044d420 f i DXFshape.obj
 0001:0004c420       ??$visitation_impl@U?$int_@$0BE@@mpl@boost@@U?$visitation_impl_step@U?$l_iter@Ul_end@mpl@boost@@@mpl@boost@@U123@@variant@detail@3@Uassign_storage@563@PAXUhas_fallback_type_@?$variant@KPAVCLayerData@@PAVCDXFshape@@PAVCDXFworking@@@3@@variant@detail@boost@@YAXHHAAUassign_storage@012@PAXU?$bool_@$00@mpl@2@Uhas_fallback_type_@?$variant@KPAVCLayerData@@PAVCDXFshape@@PAVCDXFworking@@@2@PAU?$int_@$0BE@@52@PAU?$visitation_impl_step@U?$l_iter@Ul_end@mpl@boost@@@mpl@boost@@U123@@012@@Z 0044d420 f i DXFView.obj
 0001:0004c420       ??$visitation_impl@U?$int_@$0BE@@mpl@boost@@U?$visitation_impl_step@U?$l_iter@Ul_end@mpl@boost@@@mpl@boost@@U123@@variant@detail@3@V?$invoke_visitor@V?$direct_assigner@PAVCNCdata@@@variant@detail@boost@@$0A@@563@PAXUhas_fallback_type_@?$variant@PAVCNCdata@@URANGEPARAM@@@3@@variant@detail@boost@@YA_NHHAAV?$invoke_visitor@V?$direct_assigner@PAVCNCdata@@@variant@detail@boost@@$0A@@012@PAXU?$bool_@$00@mpl@2@Uhas_fallback_type_@?$variant@PAVCNCdata@@URANGEPARAM@@@2@PAU?$int_@$0BE@@52@PAU?$visitation_impl_step@U?$l_iter@Ul_end@mpl@boost@@@mpl@boost@@U123@@012@@Z 0044d420 f i NCViewGL.obj
 0001:0004c420       ??$visitation_impl@U?$int_@$0BE@@mpl@boost@@U?$visitation_impl_step@U?$l_iter@Ul_end@mpl@boost@@@mpl@boost@@U123@@variant@detail@3@Umove_storage@563@PAXUhas_fallback_type_@?$variant@PAVCDXFchain@@PAVCDXFmap@@@3@@variant@detail@boost@@YAXHHAAUmove_storage@012@PAXU?$bool_@$00@mpl@2@Uhas_fallback_type_@?$variant@PAVCDXFchain@@PAVCDXFmap@@@2@PAU?$int_@$0BE@@52@PAU?$visitation_impl_step@U?$l_iter@Ul_end@mpl@boost@@@mpl@boost@@U123@@012@@Z 0044d420 f i DXFshape.obj
 0001:0004c420       ??$visitation_impl_invoke@V?$invoke_visitor@U?$get_visitor@PAVCDXFshape@@@variant@detail@boost@@$0A@@variant@detail@boost@@PAXUhas_fallback_type_@?$variant@KPAVCLayerData@@PAVCDXFshape@@PAVCDXFworking@@@4@@variant@detail@boost@@YAPAPAVCDXFshape@@HAAV?$invoke_visitor@U?$get_visitor@PAVCDXFshape@@@variant@detail@boost@@$0A@@012@PAXPAUapply_visitor_unrolled@012@Uhas_fallback_type_@?$variant@KPAVCLayerData@@PAVCDXFshape@@PAVCDXFworking@@@2@J@Z 0044d420 f i DXFView.obj
 0001:0004c420       ??$visitation_impl@U?$int_@$0BE@@mpl@boost@@U?$visitation_impl_step@U?$l_iter@Ul_end@mpl@boost@@@mpl@boost@@U123@@variant@detail@3@Umove_storage@563@PAXUhas_fallback_type_@?$variant@PAVCNCblock@@PAVCNCdata@@@3@@variant@detail@boost@@YAXHHAAUmove_storage@012@PAXU?$bool_@$00@mpl@2@Uhas_fallback_type_@?$variant@PAVCNCblock@@PAVCNCdata@@@2@PAU?$int_@$0BE@@52@PAU?$visitation_impl_step@U?$l_iter@Ul_end@mpl@boost@@@mpl@boost@@U123@@012@@Z 0044d420 f i NCChild.obj
 0001:0004c420       ??$visitation_impl@U?$int_@$0BE@@mpl@boost@@U?$visitation_impl_step@U?$l_iter@Ul_end@mpl@boost@@@mpl@boost@@U123@@variant@detail@3@Vmove_assigner@?$variant@KPAVCLayerData@@PAVCDXFshape@@PAVCDXFworking@@@3@PAXUhas_fallback_type_@83@@variant@detail@boost@@YAXHHAAVmove_assigner@?$variant@KPAVCLayerData@@PAVCDXFshape@@PAVCDXFworking@@@2@PAXU?$bool_@$00@mpl@2@Uhas_fallback_type_@42@PAU?$int_@$0BE@@62@PAU?$visitation_impl_step@U?$l_iter@Ul_end@mpl@boost@@@mpl@boost@@U123@@012@@Z 0044d420 f i DXFShapeView.obj
 0001:0004c420       ??$visitation_impl_invoke@V?$invoke_visitor@V?$direct_assigner@PAVCDXFworking@@@variant@detail@boost@@$0A@@variant@detail@boost@@PAXUhas_fallback_type_@?$variant@KPAVCLayerData@@PAVCDXFshape@@PAVCDXFworking@@@4@@variant@detail@boost@@YA_NHAAV?$invoke_visitor@V?$direct_assigner@PAVCDXFworking@@@variant@detail@boost@@$0A@@012@PAXPAUapply_visitor_unrolled@012@Uhas_fallback_type_@?$variant@KPAVCLayerData@@PAVCDXFshape@@PAVCDXFworking@@@2@J@Z 0044d420 f i DXFShapeView.obj
 0001:0004c420       ??$visitation_impl@U?$int_@$0BE@@mpl@boost@@U?$visitation_impl_step@U?$l_iter@Ul_end@mpl@boost@@@mpl@boost@@U123@@variant@detail@3@Vmove_assigner@?$variant@PAVCNCdata@@URANGEPARAM@@@3@PAXUhas_fallback_type_@83@@variant@detail@boost@@YAXHHAAVmove_assigner@?$variant@PAVCNCdata@@URANGEPARAM@@@2@PAXU?$bool_@$00@mpl@2@Uhas_fallback_type_@42@PAU?$int_@$0BE@@62@PAU?$visitation_impl_step@U?$l_iter@Ul_end@mpl@boost@@@mpl@boost@@U123@@012@@Z 0044d420 f i NCViewGL.obj
 0001:0004c420       ??$visitation_impl_invoke@V?$invoke_visitor@V?$direct_assigner@PAVCDXFshape@@@variant@detail@boost@@$0A@@variant@detail@boost@@PAXUhas_fallback_type_@?$variant@KPAVCLayerData@@PAVCDXFshape@@PAVCDXFworking@@@4@@variant@detail@boost@@YA_NHAAV?$invoke_visitor@V?$direct_assigner@PAVCDXFshape@@@variant@detail@boost@@$0A@@012@PAXPAUapply_visitor_unrolled@012@Uhas_fallback_type_@?$variant@KPAVCLayerData@@PAVCDXFshape@@PAVCDXFworking@@@2@J@Z 0044d420 f i DXFShapeView.obj
 0001:0004c420       ??$visitation_impl_invoke@Umove_storage@variant@detail@boost@@PAXUhas_fallback_type_@?$variant@PAVCDXFchain@@PAVCDXFmap@@@4@@variant@detail@boost@@YAXHAAUmove_storage@012@PAXPAUapply_visitor_unrolled@012@Uhas_fallback_type_@?$variant@PAVCDXFchain@@PAVCDXFmap@@@2@J@Z 0044d420 f i DXFshape.obj
 0001:0004c420       ??$visitation_impl_invoke@V?$invoke_visitor@U?$get_visitor@URANGEPARAM@@@variant@detail@boost@@$0A@@variant@detail@boost@@PAXUhas_fallback_type_@?$variant@PAVCNCdata@@URANGEPARAM@@@4@@variant@detail@boost@@YAPAURANGEPARAM@@HAAV?$invoke_visitor@U?$get_visitor@URANGEPARAM@@@variant@detail@boost@@$0A@@012@PAXPAUapply_visitor_unrolled@012@Uhas_fallback_type_@?$variant@PAVCNCdata@@URANGEPARAM@@@2@J@Z 0044d420 f i NCViewGL_Mill.obj
 0001:0004c420       ??$visitation_impl_invoke@V?$invoke_visitor@U?$get_visitor@PAVCDXFchain@@@variant@detail@boost@@$0A@@variant@detail@boost@@PAXUhas_fallback_type_@?$variant@PAVCDXFchain@@PAVCDXFmap@@@4@@variant@detail@boost@@YAPAPAVCDXFchain@@HAAV?$invoke_visitor@U?$get_visitor@PAVCDXFchain@@@variant@detail@boost@@$0A@@012@PAXPAUapply_visitor_unrolled@012@Uhas_fallback_type_@?$variant@PAVCDXFchain@@PAVCDXFmap@@@2@J@Z 0044d420 f i DXFshape.obj
 0001:0004c420       ??$visitation_impl_invoke@V?$invoke_visitor@V?$direct_assigner@PAVCNCdata@@@variant@detail@boost@@$0A@@variant@detail@boost@@PAXUhas_fallback_type_@?$variant@PAVCNCdata@@URANGEPARAM@@@4@@variant@detail@boost@@YA_NHAAV?$invoke_visitor@V?$direct_assigner@PAVCNCdata@@@variant@detail@boost@@$0A@@012@PAXPAUapply_visitor_unrolled@012@Uhas_fallback_type_@?$variant@PAVCNCdata@@URANGEPARAM@@@2@J@Z 0044d420 f i NCViewGL.obj
 0001:0004c420       ??$visitation_impl_invoke@V?$invoke_visitor@U?$get_visitor@QAVCDXFmap@@@variant@detail@boost@@$0A@@variant@detail@boost@@PBXUhas_fallback_type_@?$variant@PAVCDXFchain@@PAVCDXFmap@@@4@@variant@detail@boost@@YAPBQAVCDXFmap@@HAAV?$invoke_visitor@U?$get_visitor@QAVCDXFmap@@@variant@detail@boost@@$0A@@012@PBXPAUapply_visitor_unrolled@012@Uhas_fallback_type_@?$variant@PAVCDXFchain@@PAVCDXFmap@@@2@J@Z 0044d420 f i DXFshape.obj
 0001:0004c420       ??$visitation_impl@U?$int_@$0BE@@mpl@boost@@U?$visitation_impl_step@U?$l_iter@Ul_end@mpl@boost@@@mpl@boost@@U123@@variant@detail@3@Vmove_assigner@?$variant@PAVCNCblock@@PAVCNCdata@@@3@PAXUhas_fallback_type_@83@@variant@detail@boost@@YAXHHAAVmove_assigner@?$variant@PAVCNCblock@@PAVCNCdata@@@2@PAXU?$bool_@$00@mpl@2@Uhas_fallback_type_@42@PAU?$int_@$0BE@@62@PAU?$visitation_impl_step@U?$l_iter@Ul_end@mpl@boost@@@mpl@boost@@U123@@012@@Z 0044d420 f i NCChild.obj
 0001:0004c420       ??$visitation_impl@U?$int_@$0BE@@mpl@boost@@U?$visitation_impl_step@U?$l_iter@Ul_end@mpl@boost@@@mpl@boost@@U123@@variant@detail@3@Umove_storage@563@PAXUhas_fallback_type_@?$variant@PAVCNCdata@@URANGEPARAM@@@3@@variant@detail@boost@@YAXHHAAUmove_storage@012@PAXU?$bool_@$00@mpl@2@Uhas_fallback_type_@?$variant@PAVCNCdata@@URANGEPARAM@@@2@PAU?$int_@$0BE@@52@PAU?$visitation_impl_step@U?$l_iter@Ul_end@mpl@boost@@@mpl@boost@@U123@@012@@Z 0044d420 f i NCViewGL.obj
 0001:0004c420       ??$visitation_impl@U?$int_@$0BE@@mpl@boost@@U?$visitation_impl_step@U?$l_iter@Ul_end@mpl@boost@@@mpl@boost@@U123@@variant@detail@3@V?$invoke_visitor@U?$get_visitor@QAVCDXFmap@@@variant@detail@boost@@$0A@@563@PBXUhas_fallback_type_@?$variant@PAVCDXFchain@@PAVCDXFmap@@@3@@variant@detail@boost@@YAPBQAVCDXFmap@@HHAAV?$invoke_visitor@U?$get_visitor@QAVCDXFmap@@@variant@detail@boost@@$0A@@012@PBXU?$bool_@$00@mpl@2@Uhas_fallback_type_@?$variant@PAVCDXFchain@@PAVCDXFmap@@@2@PAU?$int_@$0BE@@62@PAU?$visitation_impl_step@U?$l_iter@Ul_end@mpl@boost@@@mpl@boost@@U123@@012@@Z 0044d420 f i DXFshape.obj
 0001:0004c420       ??$visitation_impl_invoke@Umove_storage@variant@detail@boost@@PAXUhas_fallback_type_@?$variant@PAVCNCdata@@URANGEPARAM@@@4@@variant@detail@boost@@YAXHAAUmove_storage@012@PAXPAUapply_visitor_unrolled@012@Uhas_fallback_type_@?$variant@PAVCNCdata@@URANGEPARAM@@@2@J@Z 0044d420 f i NCViewGL.obj
 0001:0004c420       ??$visitation_impl@U?$int_@$0BE@@mpl@boost@@U?$visitation_impl_step@U?$l_iter@Ul_end@mpl@boost@@@mpl@boost@@U123@@variant@detail@3@V?$invoke_visitor@U?$get_visitor@URANGEPARAM@@@variant@detail@boost@@$0A@@563@PAXUhas_fallback_type_@?$variant@PAVCNCdata@@URANGEPARAM@@@3@@variant@detail@boost@@YAPAURANGEPARAM@@HHAAV?$invoke_visitor@U?$get_visitor@URANGEPARAM@@@variant@detail@boost@@$0A@@012@PAXU?$bool_@$00@mpl@2@Uhas_fallback_type_@?$variant@PAVCNCdata@@URANGEPARAM@@@2@PAU?$int_@$0BE@@62@PAU?$visitation_impl_step@U?$l_iter@Ul_end@mpl@boost@@@mpl@boost@@U123@@012@@Z 0044d420 f i NCViewGL_Mill.obj
 0001:0004c420       ??$visitation_impl_invoke@V?$invoke_visitor@U?$get_visitor@PAVCNCdata@@@variant@detail@boost@@$0A@@variant@detail@boost@@PAXUhas_fallback_type_@?$variant@PAVCNCdata@@URANGEPARAM@@@4@@variant@detail@boost@@YAPAPAVCNCdata@@HAAV?$invoke_visitor@U?$get_visitor@PAVCNCdata@@@variant@detail@boost@@$0A@@012@PAXPAUapply_visitor_unrolled@012@Uhas_fallback_type_@?$variant@PAVCNCdata@@URANGEPARAM@@@2@J@Z 0044d420 f i NCViewGL_Mill.obj
 0001:0004c420       ??$visitation_impl@U?$int_@$0BE@@mpl@boost@@U?$visitation_impl_step@U?$l_iter@Ul_end@mpl@boost@@@mpl@boost@@U123@@variant@detail@3@V?$invoke_visitor@V?$direct_mover@PAVCLayerData@@@variant@detail@boost@@$0A@@563@PAXUhas_fallback_type_@?$variant@KPAVCLayerData@@PAVCDXFshape@@PAVCDXFworking@@@3@@variant@detail@boost@@YA_NHHAAV?$invoke_visitor@V?$direct_mover@PAVCLayerData@@@variant@detail@boost@@$0A@@012@PAXU?$bool_@$00@mpl@2@Uhas_fallback_type_@?$variant@KPAVCLayerData@@PAVCDXFshape@@PAVCDXFworking@@@2@PAU?$int_@$0BE@@52@PAU?$visitation_impl_step@U?$l_iter@Ul_end@mpl@boost@@@mpl@boost@@U123@@012@@Z 0044d420 f i DXFShapeView.obj
 0001:0004c420       ??$visitation_impl@U?$int_@$0BE@@mpl@boost@@U?$visitation_impl_step@U?$l_iter@Ul_end@mpl@boost@@@mpl@boost@@U123@@variant@detail@3@Vassigner@?$variant@KPAVCLayerData@@PAVCDXFshape@@PAVCDXFworking@@@3@PBXUhas_fallback_type_@83@@variant@detail@boost@@YAXHHAAVassigner@?$variant@KPAVCLayerData@@PAVCDXFshape@@PAVCDXFworking@@@2@PBXU?$bool_@$00@mpl@2@Uhas_fallback_type_@42@PAU?$int_@$0BE@@62@PAU?$visitation_impl_step@U?$l_iter@Ul_end@mpl@boost@@@mpl@boost@@U123@@012@@Z 0044d420 f i DXFView.obj
 0001:0004c420       ??$visitation_impl_invoke@V?$invoke_visitor@V?$direct_mover@PAVCLayerData@@@variant@detail@boost@@$0A@@variant@detail@boost@@PAXUhas_fallback_type_@?$variant@KPAVCLayerData@@PAVCDXFshape@@PAVCDXFworking@@@4@@variant@detail@boost@@YA_NHAAV?$invoke_visitor@V?$direct_mover@PAVCLayerData@@@variant@detail@boost@@$0A@@012@PAXPAUapply_visitor_unrolled@012@Uhas_fallback_type_@?$variant@KPAVCLayerData@@PAVCDXFshape@@PAVCDXFworking@@@2@J@Z 0044d420 f i DXFShapeView.obj
 0001:0004c420       ??$visitation_impl@U?$int_@$0BE@@mpl@boost@@U?$visitation_impl_step@U?$l_iter@Ul_end@mpl@boost@@@mpl@boost@@U123@@variant@detail@3@V?$invoke_visitor@V?$direct_mover@K@variant@detail@boost@@$0A@@563@PAXUhas_fallback_type_@?$variant@KPAVCLayerData@@PAVCDXFshape@@PAVCDXFworking@@@3@@variant@detail@boost@@YA_NHHAAV?$invoke_visitor@V?$direct_mover@K@variant@detail@boost@@$0A@@012@PAXU?$bool_@$00@mpl@2@Uhas_fallback_type_@?$variant@KPAVCLayerData@@PAVCDXFshape@@PAVCDXFworking@@@2@PAU?$int_@$0BE@@52@PAU?$visitation_impl_step@U?$l_iter@Ul_end@mpl@boost@@@mpl@boost@@U123@@012@@Z 0044d420 f i DXFShapeView.obj
 0001:0004c420       ??$visitation_impl@U?$int_@$0BE@@mpl@boost@@U?$visitation_impl_step@U?$l_iter@Ul_end@mpl@boost@@@mpl@boost@@U123@@variant@detail@3@V?$invoke_visitor@U?$get_visitor@QAVCDXFchain@@@variant@detail@boost@@$0A@@563@PBXUhas_fallback_type_@?$variant@PAVCDXFchain@@PAVCDXFmap@@@3@@variant@detail@boost@@YAPBQAVCDXFchain@@HHAAV?$invoke_visitor@U?$get_visitor@QAVCDXFchain@@@variant@detail@boost@@$0A@@012@PBXU?$bool_@$00@mpl@2@Uhas_fallback_type_@?$variant@PAVCDXFchain@@PAVCDXFmap@@@2@PAU?$int_@$0BE@@62@PAU?$visitation_impl_step@U?$l_iter@Ul_end@mpl@boost@@@mpl@boost@@U123@@012@@Z 0044d420 f i DXFshape.obj
 0001:0004c420       ??$visitation_impl@U?$int_@$0BE@@mpl@boost@@U?$visitation_impl_step@U?$l_iter@Ul_end@mpl@boost@@@mpl@boost@@U123@@variant@detail@3@V?$invoke_visitor@V?$direct_mover@PAVCNCdata@@@variant@detail@boost@@$0A@@563@PAXUhas_fallback_type_@?$variant@PAVCNCblock@@PAVCNCdata@@@3@@variant@detail@boost@@YA_NHHAAV?$invoke_visitor@V?$direct_mover@PAVCNCdata@@@variant@detail@boost@@$0A@@012@PAXU?$bool_@$00@mpl@2@Uhas_fallback_type_@?$variant@PAVCNCblock@@PAVCNCdata@@@2@PAU?$int_@$0BE@@52@PAU?$visitation_impl_step@U?$l_iter@Ul_end@mpl@boost@@@mpl@boost@@U123@@012@@Z 0044d420 f i NCChild.obj
 0001:0004c420       ??$visitation_impl@U?$int_@$0BE@@mpl@boost@@U?$visitation_impl_step@U?$l_iter@Ul_end@mpl@boost@@@mpl@boost@@U123@@variant@detail@3@V?$invoke_visitor@U?$get_visitor@PAVCDXFshape@@@variant@detail@boost@@$0A@@563@PAXUhas_fallback_type_@?$variant@KPAVCLayerData@@PAVCDXFshape@@PAVCDXFworking@@@3@@variant@detail@boost@@YAPAPAVCDXFshape@@HHAAV?$invoke_visitor@U?$get_visitor@PAVCDXFshape@@@variant@detail@boost@@$0A@@012@PAXU?$bool_@$00@mpl@2@Uhas_fallback_type_@?$variant@KPAVCLayerData@@PAVCDXFshape@@PAVCDXFworking@@@2@PAU?$int_@$0BE@@62@PAU?$visitation_impl_step@U?$l_iter@Ul_end@mpl@boost@@@mpl@boost@@U123@@012@@Z 0044d420 f i DXFView.obj
 0001:0004c420       ??$visitation_impl@U?$int_@$0BE@@mpl@boost@@U?$visitation_impl_step@U?$l_iter@Ul_end@mpl@boost@@@mpl@boost@@U123@@variant@detail@3@V?$invoke_visitor@V?$direct_assigner@PAVCLayerData@@@variant@detail@boost@@$0A@@563@PAXUhas_fallback_type_@?$variant@KPAVCLayerData@@PAVCDXFshape@@PAVCDXFworking@@@3@@variant@detail@boost@@YA_NHHAAV?$invoke_visitor@V?$direct_assigner@PAVCLayerData@@@variant@detail@boost@@$0A@@012@PAXU?$bool_@$00@mpl@2@Uhas_fallback_type_@?$variant@KPAVCLayerData@@PAVCDXFshape@@PAVCDXFworking@@@2@PAU?$int_@$0BE@@52@PAU?$visitation_impl_step@U?$l_iter@Ul_end@mpl@boost@@@mpl@boost@@U123@@012@@Z 0044d420 f i DXFShapeView.obj
 0001:0004c420       ??$visitation_impl_invoke@V?$invoke_visitor@V?$direct_assigner@PAVCLayerData@@@variant@detail@boost@@$0A@@variant@detail@boost@@PAXUhas_fallback_type_@?$variant@KPAVCLayerData@@PAVCDXFshape@@PAVCDXFworking@@@4@@variant@detail@boost@@YA_NHAAV?$invoke_visitor@V?$direct_assigner@PAVCLayerData@@@variant@detail@boost@@$0A@@012@PAXPAUapply_visitor_unrolled@012@Uhas_fallback_type_@?$variant@KPAVCLayerData@@PAVCDXFshape@@PAVCDXFworking@@@2@J@Z 0044d420 f i DXFShapeView.obj
 0001:0004c420       ??$visitation_impl@U?$int_@$0BE@@mpl@boost@@U?$visitation_impl_step@U?$l_iter@Ul_end@mpl@boost@@@mpl@boost@@U123@@variant@detail@3@V?$invoke_visitor@U?$get_visitor@PAVCDXFworking@@@variant@detail@boost@@$0A@@563@PAXUhas_fallback_type_@?$variant@KPAVCLayerData@@PAVCDXFshape@@PAVCDXFworking@@@3@@variant@detail@boost@@YAPAPAVCDXFworking@@HHAAV?$invoke_visitor@U?$get_visitor@PAVCDXFworking@@@variant@detail@boost@@$0A@@012@PAXU?$bool_@$00@mpl@2@Uhas_fallback_type_@?$variant@KPAVCLayerData@@PAVCDXFshape@@PAVCDXFworking@@@2@PAU?$int_@$0BE@@62@PAU?$visitation_impl_step@U?$l_iter@Ul_end@mpl@boost@@@mpl@boost@@U123@@012@@Z 0044d420 f i DXFView.obj
 0001:0004c420       ??$visitation_impl_invoke@V?$invoke_visitor@V?$direct_mover@K@variant@detail@boost@@$0A@@variant@detail@boost@@PAXUhas_fallback_type_@?$variant@KPAVCLayerData@@PAVCDXFshape@@PAVCDXFworking@@@4@@variant@detail@boost@@YA_NHAAV?$invoke_visitor@V?$direct_mover@K@variant@detail@boost@@$0A@@012@PAXPAUapply_visitor_unrolled@012@Uhas_fallback_type_@?$variant@KPAVCLayerData@@PAVCDXFshape@@PAVCDXFworking@@@2@J@Z 0044d420 f i DXFShapeView.obj
 0001:0004c420       ??$visitation_impl@U?$int_@$0BE@@mpl@boost@@U?$visitation_impl_step@U?$l_iter@Ul_end@mpl@boost@@@mpl@boost@@U123@@variant@detail@3@V?$invoke_visitor@V?$direct_assigner@PAVCDXFmap@@@variant@detail@boost@@$0A@@563@PAXUhas_fallback_type_@?$variant@PAVCDXFchain@@PAVCDXFmap@@@3@@variant@detail@boost@@YA_NHHAAV?$invoke_visitor@V?$direct_assigner@PAVCDXFmap@@@variant@detail@boost@@$0A@@012@PAXU?$bool_@$00@mpl@2@Uhas_fallback_type_@?$variant@PAVCDXFchain@@PAVCDXFmap@@@2@PAU?$int_@$0BE@@52@PAU?$visitation_impl_step@U?$l_iter@Ul_end@mpl@boost@@@mpl@boost@@U123@@012@@Z 0044d420 f i DXFshape.obj
 0001:0004c430       ??$visitation_impl_invoke@V?$invoke_visitor@$$CBUOrgTuning_Visitor@@$0A@@variant@detail@boost@@PAXPAVCDXFmap@@Uhas_fallback_type_@?$variant@PAVCDXFchain@@PAVCDXFmap@@@4@@variant@detail@boost@@YAXHAAV?$invoke_visitor@$$CBUOrgTuning_Visitor@@$0A@@012@PAXPAPAVCDXFmap@@Uhas_fallback_type_@?$variant@PAVCDXFchain@@PAVCDXFmap@@@2@H@Z 0044d430 f i DXFshape.obj
 0001:0004c4b0       ?what@bad_get@boost@@UBEPBDXZ 0044d4b0 f i DXFshape.obj
 0001:0004c4c0       _acosf                     0044d4c0 f i DXFshape.obj
 0001:0004c4e0       ?CreateObject@CDXFShapeView@@SGPAVCObject@@XZ 0044d4e0 f   DXFShapeView.obj
 0001:0004c590       ?_GetBaseClass@CDXFShapeView@@KGPAUCRuntimeClass@@XZ 0044d590 f   DXFShapeView.obj
 0001:0004c5a0       ?GetRuntimeClass@CDXFShapeView@@UBEPAUCRuntimeClass@@XZ 0044d5a0 f   DXFShapeView.obj
 0001:0004c5b0       ?GetMessageMap@CDXFShapeView@@MBEPBUAFX_MSGMAP@@XZ 0044d5b0 f   DXFShapeView.obj
 0001:0004c5c0       ??_ECDXFShapeView@@UAEPAXI@Z 0044d5c0 f i * CIL library *:* CIL module *
 0001:0004c5c0       ??_GCDXFShapeView@@UAEPAXI@Z 0044d5c0 f i DXFShapeView.obj
 0001:0004c600       ?PreCreateWindow@CDXFShapeView@@MAEHAAUtagCREATESTRUCTA@@@Z 0044d600 f   DXFShapeView.obj
 0001:0004c620       ?OnInitialUpdate@CDXFShapeView@@UAEXXZ 0044d620 f   DXFShapeView.obj
 0001:0004c790       ?OnUpdate@CDXFShapeView@@MAEXPAVCView@@JPAVCObject@@@Z 0044d790 f   DXFShapeView.obj
 0001:0004ca50       ?PreTranslateMessage@CDXFShapeView@@UAEHPAUtagMSG@@@Z 0044da50 f   DXFShapeView.obj
 0001:0004cb40       ?OnUpdateShape@CDXFShapeView@@AAEXPAUDXFADDSHAPE@@@Z 0044db40 f   DXFShapeView.obj
 0001:0004cd90       ?DragInsert@CDXFShapeView@@AAEXXZ 0044dd90 f   DXFShapeView.obj
 0001:0004cf10       ?DragInsertLayer@CDXFShapeView@@AAEPAU_TREEITEM@@XZ 0044df10 f   DXFShapeView.obj
 0001:0004d350       ?DragInsertShape@CDXFShapeView@@AAEPAU_TREEITEM@@XZ 0044e350 f   DXFShapeView.obj
 0001:0004d6c0       ?DragLink@CDXFShapeView@@AAEXXZ 0044e6c0 f   DXFShapeView.obj
 0001:0004da00       ?DragCancel@CDXFShapeView@@AAEXHH@Z 0044ea00 f   DXFShapeView.obj
 0001:0004dac0       ?SearchLayerTree@CDXFShapeView@@AAEPAU_TREEITEM@@PAU2@PBVCLayerData@@@Z 0044eac0 f   DXFShapeView.obj
 0001:0004db10       ?GetParentAssemble@CDXFShapeView@@AAEKPAU_TREEITEM@@@Z 0044eb10 f   DXFShapeView.obj
 0001:0004db90       ?SetShapeSwitch_SubordinateTree@CDXFShapeView@@AAEXPAU_TREEITEM@@H@Z 0044eb90 f   DXFShapeView.obj
 0001:0004dc60       ?SetShapeTree@CDXFShapeView@@AAEXXZ 0044ec60 f   DXFShapeView.obj
 0001:0004de30       ?AutoWorkingDel@CDXFShapeView@@AAEXPBVCLayerData@@PBVCDXFshape@@@Z 0044ee30 f   DXFShapeView.obj
 0001:0004dfa0       ?AutoWorkingSet@CDXFShapeView@@AAEXHPBVCLayerData@@PBVCDXFshape@@@Z 0044efa0 f   DXFShapeView.obj
 0001:0004e180       ?OnSortShape@CDXFShapeView@@IAEXXZ 0044f180 f   DXFShapeView.obj
 0001:0004e210       ?OnUpdateWorkingDel@CDXFShapeView@@IAEXPAVCCmdUI@@@Z 0044f210 f   DXFShapeView.obj
 0001:0004e290       ?OnWorkingDel@CDXFShapeView@@IAEXXZ 0044f290 f   DXFShapeView.obj
 0001:0004e360       ?OnUpdateEditShapeProp@CDXFShapeView@@IAEXPAVCCmdUI@@@Z 0044f360 f   DXFShapeView.obj
 0001:0004e3d0       ?OnEditShapeProp@CDXFShapeView@@IAEXXZ 0044f3d0 f   DXFShapeView.obj
 0001:0004ee40       ??1CShapePropDlg@@UAE@XZ   0044fe40 f i DXFShapeView.obj
 0001:0004ee90       ?OnUpdateEditShapeName@CDXFShapeView@@IAEXPAVCCmdUI@@@Z 0044fe90 f   DXFShapeView.obj
 0001:0004ef00       ?OnEditShapeName@CDXFShapeView@@IAEXXZ 0044ff00 f   DXFShapeView.obj
 0001:0004ef70       ?OnCreate@CDXFShapeView@@IAEHPAUtagCREATESTRUCTA@@@Z 0044ff70 f   DXFShapeView.obj
 0001:0004efd0       ?OnContextMenu@CDXFShapeView@@IAEXPAVCWnd@@VCPoint@@@Z 0044ffd0 f   DXFShapeView.obj
 0001:0004f0a0       ?OnGetDispInfo@CDXFShapeView@@IAEXPAUtagNMHDR@@PAJ@Z 004500a0 f   DXFShapeView.obj
 0001:0004f140       ?OnBeginLabelEdit@CDXFShapeView@@IAEXPAUtagNMHDR@@PAJ@Z 00450140 f   DXFShapeView.obj
 0001:0004f1a0       ?OnEndLabelEdit@CDXFShapeView@@IAEXPAUtagNMHDR@@PAJ@Z 004501a0 f   DXFShapeView.obj
 0001:0004f2a0       ?OnKeyDown@CDXFShapeView@@IAEXPAUtagNMHDR@@PAJ@Z 004502a0 f   DXFShapeView.obj
 0001:0004f3b0       ?OnChar@CDXFShapeView@@IAEXIII@Z 004503b0 f   DXFShapeView.obj
 0001:0004f3c0       ?OnSelChanged@CDXFShapeView@@IAEXPAUtagNMHDR@@PAJ@Z 004503c0 f   DXFShapeView.obj
 0001:0004f6a0       ?OnBeginDrag@CDXFShapeView@@IAEXPAUtagNMHDR@@PAJ@Z 004506a0 f   DXFShapeView.obj
 0001:0004f860       ?OnMouseMove@CDXFShapeView@@IAEXIVCPoint@@@Z 00450860 f   DXFShapeView.obj
 0001:0004f9d0       ?OnLButtonUp@CDXFShapeView@@IAEXIVCPoint@@@Z 004509d0 f   DXFShapeView.obj
 0001:0004fa30       ?OnRButtonDown@CDXFShapeView@@IAEXIVCPoint@@@Z 00450a30 f   DXFShapeView.obj
 0001:0004fa30       ?SetCorrectPoint@CNCdata@@UAEXW4ENPOINTORDER@@ABV?$CPointT@M@@M@Z 00450a30 f   NCdata.obj
 0001:0004fa30       ?DrawWireLine@CNCdata@@UBEXW4ENNCDRAWVIEW@@PAVCDC@@H@Z 00450a30 f   NCdata.obj
 0001:0004fa30       ?SetCorrectPoint@CNCcycle@@UAEXW4ENPOINTORDER@@ABV?$CPointT@M@@M@Z 00450a30 f   NCdata.obj
 0001:0004fa40       ?OnRButtonUp@CDXFShapeView@@IAEXIVCPoint@@@Z 00450a40 f   DXFShapeView.obj
 0001:0004fa90       ??0?$variant@KPAVCLayerData@@PAVCDXFshape@@PAVCDXFworking@@@boost@@QAE@XZ 00450a90 f i DXFShapeView.obj
 0001:0004faa0       ?variant_assign@?$variant@KPAVCLayerData@@PAVCDXFshape@@PAVCDXFworking@@@boost@@AAEXABV12@@Z 00450aa0 f i DXFView.obj
 0001:0004faa0       ?variant_assign@?$variant@KPAVCLayerData@@PAVCDXFshape@@PAVCDXFworking@@@boost@@AAEX$$QAV12@@Z 00450aa0 f i DXFShapeView.obj
 0001:0004fd70       ??$apply_visitor@V?$direct_mover@K@variant@detail@boost@@@?$variant@KPAVCLayerData@@PAVCDXFshape@@PAVCDXFworking@@@boost@@QGAE_NAAV?$direct_mover@K@variant@detail@1@@Z 00450d70 f i DXFShapeView.obj
 0001:0004fee0       ??$apply_visitor@V?$direct_assigner@PAVCLayerData@@@variant@detail@boost@@@?$variant@KPAVCLayerData@@PAVCDXFshape@@PAVCDXFworking@@@boost@@QGAE_NAAV?$direct_assigner@PAVCLayerData@@@variant@detail@1@@Z 00450ee0 f i DXFShapeView.obj
 0001:0004fee0       ??$apply_visitor@V?$direct_mover@PAVCLayerData@@@variant@detail@boost@@@?$variant@KPAVCLayerData@@PAVCDXFshape@@PAVCDXFworking@@@boost@@QGAE_NAAV?$direct_mover@PAVCLayerData@@@variant@detail@1@@Z 00450ee0 f i DXFShapeView.obj
 0001:00050050       ??$apply_visitor@V?$direct_assigner@PAVCDXFshape@@@variant@detail@boost@@@?$variant@KPAVCLayerData@@PAVCDXFshape@@PAVCDXFworking@@@boost@@QGAE_NAAV?$direct_assigner@PAVCDXFshape@@@variant@detail@1@@Z 00451050 f i DXFShapeView.obj
 0001:000501c0       ??$apply_visitor@V?$direct_assigner@PAVCDXFworking@@@variant@detail@boost@@@?$variant@KPAVCLayerData@@PAVCDXFshape@@PAVCDXFworking@@@boost@@QGAE_NAAV?$direct_assigner@PAVCDXFworking@@@variant@detail@1@@Z 004511c0 f i DXFShapeView.obj
 0001:00050330       ?GetBindInfo_fromView@CDXFDoc@@QBEHPBVCDXFView@@@Z 00451330 f i DXFView.obj
 0001:00050370       ?DrawMagnifyRect@CViewBase@@QAEXPAVCDC@@@Z 00451370 f i DXFView.obj
 0001:00050400       ?CreateObject@CDXFView@@SGPAVCObject@@XZ 00451400 f   DXFView.obj
 0001:00050600       ?_GetBaseClass@CDXFView@@KGPAUCRuntimeClass@@XZ 00451600 f   DXFView.obj
 0001:00050600       ?GetRuntimeClass@CViewBase@@UBEPAUCRuntimeClass@@XZ 00451600 f   ViewBase.obj
 0001:00050600       ?_GetBaseClass@CNCViewBase@@KGPAUCRuntimeClass@@XZ 00451600 f   NCViewBase.obj
 0001:00050610       ?GetRuntimeClass@CDXFView@@UBEPAUCRuntimeClass@@XZ 00451610 f   DXFView.obj
 0001:00050620       ?GetMessageMap@CDXFView@@MBEPBUAFX_MSGMAP@@XZ 00451620 f   DXFView.obj
 0001:00050630       ??_GCDXFView@@UAEPAXI@Z    00451630 f i DXFView.obj
 0001:00050630       ??_ECDXFView@@UAEPAXI@Z    00451630 f i * CIL library *:* CIL module *
 0001:00050700       ??1CViewBase@@UAE@XZ       00451700 f i DXFView.obj
 0001:00050710       ??_FCDXFchain@@QAEXXZ      00451710 f i DXFView.obj
 0001:00050760       ??_E?$CTypedPtrList@VCPtrList@@PAVCExecOption@@@@UAEPAXI@Z 00451760 f i * CIL library *:* CIL module *
 0001:00050760       ??_E?$CTypedPtrList@VCPtrList@@PAVCMCTOOLINFO@@@@UAEPAXI@Z 00451760 f i * CIL library *:* CIL module *
 0001:00050760       ??_G?$CTypedPtrList@VCPtrList@@PAVCMCTOOLINFO@@@@UAEPAXI@Z 00451760 f i MachineOption.obj
 0001:00050760       ??_G?$CTypedPtrList@VCPtrList@@PAVCExecOption@@@@UAEPAXI@Z 00451760 f i NCVC.obj
 0001:00050760       ??_E?$CTypedPtrList@VCPtrList@@PAVCRecentViewInfo@@@@UAEPAXI@Z 00451760 f i * CIL library *:* CIL module *
 0001:00050760       ??_E?$CTypedPtrListEx@VCPtrList@@PAUCADBINDINFO@@@@UAEPAXI@Z 00451760 f i * CIL library *:* CIL module *
 0001:00050760       ??_G?$CTypedPtrListEx@VCPtrList@@PAUCADBINDINFO@@@@UAEPAXI@Z 00451760 f i DXFView.obj
 0001:00050760       ??_G?$CTypedPtrList@VCPtrList@@PAVCRecentViewInfo@@@@UAEPAXI@Z 00451760 f i NCVC.obj
 0001:000507a0       ?OnCmdMsg@CDXFView@@UAEHIHPAXPAUAFX_CMDHANDLERINFO@@@Z 004517a0 f   DXFView.obj
 0001:000507d0       ?OnInitialUpdate@CDXFView@@UAEXXZ 004517d0 f   DXFView.obj
 0001:00050860       ?OnUpdate@CDXFView@@MAEXPAVCView@@JPAVCObject@@@Z 00451860 f   DXFView.obj
 0001:00050ac0       ?OnUpdateShape@CDXFView@@AAEHQAV?$variant@KPAVCLayerData@@PAVCDXFshape@@PAVCDXFworking@@@boost@@@Z 00451ac0 f   DXFView.obj
 0001:00050ce0       ?CreateWorkingData@CDXFView@@AAEPAVCDXFworking@@XZ 00451ce0 f   DXFView.obj
 0001:00051080       ?CreateOutlineTempObject@CDXFView@@AAEHPAVCDXFshape@@@Z 00452080 f   DXFView.obj
 0001:000511b0       ?DeleteOutlineTempObject@CDXFView@@AAEXXZ 004521b0 f   DXFView.obj
 0001:000511f0       ?CancelForSelect@CDXFView@@AAEHPAVCDC@@@Z 004521f0 f   DXFView.obj
 0001:000512d0       ?AllChangeFactor_OutlineTempObject@CDXFView@@AAEXXZ 004522d0 f   DXFView.obj
 0001:00051320       ?BindMove@CDXFView@@AAEXH@Z 00452320 f   DXFView.obj
 0001:000514d0       ?BindMsgPost@CDXFView@@AAEXPAVCDC@@PAUCADBINDINFO@@PAVCPoint@@@Z 004524d0 f   DXFView.obj
 0001:00051610       ?ClearBindSelectData@CDXFView@@AAEXXZ 00452610 f   DXFView.obj
 0001:00051690       ?OnDraw@CDXFView@@MAEXPAVCDC@@@Z 00452690 f   DXFView.obj
 0001:00051e20       ?DrawTemporaryProcess@CDXFView@@AAEXPAVCDC@@@Z 00452e20 f   DXFView.obj
 0001:00051f40       ?DrawTempArraw@CDXFView@@AAEXPAVCDC@@@Z 00452f40 f   DXFView.obj
 0001:000520c0       ?DrawTempStart@CDXFView@@AAEXPAVCDC@@@Z 004530c0 f   DXFView.obj
 0001:000521f0       ?DrawTempOutline@CDXFView@@AAEXPAVCDC@@@Z 004531f0 f   DXFView.obj
 0001:000522b0       ?OnUpdateEditUndo@CDXFView@@IAEXPAVCCmdUI@@@Z 004532b0 f   DXFView.obj
 0001:000522d0       ?OnEditUndo@CDXFView@@IAEXXZ 004532d0 f   DXFView.obj
 0001:00052430       ?OnEditCopy@CDXFView@@IAEXXZ 00453430 f   DXFView.obj
 0001:00052430       ?OnEditCopy@CNCViewBase@@QAEXXZ 00453430 f   NCViewBase.obj
 0001:00052560       ?OnUpdateEditBind@CDXFView@@IAEXPAVCCmdUI@@@Z 00453560 f   DXFView.obj
 0001:00052590       ?OnEditBindDel@CDXFView@@IAEXXZ 00453590 f   DXFView.obj
 0001:000526a0       ?OnEditBindTarget@CDXFView@@IAEXXZ 004536a0 f   DXFView.obj
 0001:00052710       ?OnUpdateViewLayer@CDXFView@@IAEXPAVCCmdUI@@@Z 00453710 f   DXFView.obj
 0001:00052750       ?OnViewLayer@CDXFView@@IAEXXZ 00453750 f   DXFView.obj
 0001:00052880       ?OnUpdateMouseCursor@CDXFView@@IAEXPAVCCmdUI@@@Z 00453880 f   DXFView.obj
 0001:00052a90       ?OnMoveKey@CDXFView@@IAEXI@Z 00453a90 f   DXFView.obj
 0001:00052b10       ?OnLensKey@CDXFView@@IAEXI@Z 00453b10 f   DXFView.obj
 0001:00052cf0       ?OnViewLensComm@CDXFView@@MAEXXZ 00453cf0 f   DXFView.obj
 0001:00052ec0       ?OnDestroy@CDXFView@@IAEXXZ 00453ec0 f   DXFView.obj
 0001:00052ee0       ?OnContextMenu@CDXFView@@IAEXPAVCWnd@@VCPoint@@@Z 00453ee0 f   DXFView.obj
 0001:00052f20       ?OnUserViewFitMsg@CDXFView@@IAEJIJ@Z 00453f20 f   DXFView.obj
 0001:000530c0       ?OnBindInitMsg@CDXFView@@IAEJIJ@Z 004540c0 f   DXFView.obj
 0001:00053940       ?OnBindLButtonDown@CDXFView@@IAEJIJ@Z 00454940 f   DXFView.obj
 0001:00053b20       ?OnBindRoundMsg@CDXFView@@IAEJIJ@Z 00454b20 f   DXFView.obj
 0001:00053ca0       ?OnBindCancel@CDXFView@@IAEJIJ@Z 00454ca0 f   DXFView.obj
 0001:00053d70       ?OnLButtonDown@CDXFView@@IAEXIVCPoint@@@Z 00454d70 f   DXFView.obj
 0001:00053e70       ?OnLButtonUp@CDXFView@@IAEXIVCPoint@@@Z 00454e70 f   DXFView.obj
 0001:000545b0       ?OnRButtonDown@CDXFView@@IAEXIVCPoint@@@Z 004555b0 f   DXFView.obj
 0001:00054660       ?OnRButtonUp@CDXFView@@IAEXIVCPoint@@@Z 00455660 f   DXFView.obj
 0001:00054780       ?OnLButtonDblClk@CDXFView@@IAEXIVCPoint@@@Z 00455780 f   DXFView.obj
 0001:000549e0       ?OnLButtonUp_Separate@CDXFView@@AAEXPAVCDC@@PAVCDXFdata@@ABV?$CPointT@M@@ABV?$CRectT@M@@@Z 004559e0 f   DXFView.obj
 0001:00054fa0       ?OnLButtonUp_Vector@CDXFView@@AAEXPAVCDC@@PAVCDXFdata@@ABV?$CPointT@M@@ABV?$CRectT@M@@@Z 00455fa0 f   DXFView.obj
 0001:00055190       ?OnLButtonUp_Start@CDXFView@@AAEXPAVCDC@@PAVCDXFdata@@ABV?$CPointT@M@@ABV?$CRectT@M@@@Z 00456190 f   DXFView.obj
 0001:000553b0       ?OnLButtonUp_Outline@CDXFView@@AAEXPAVCDC@@PAVCDXFdata@@ABV?$CPointT@M@@ABV?$CRectT@M@@@Z 004563b0 f   DXFView.obj
 0001:000555f0       ?OnMouseMove@CDXFView@@IAEXIVCPoint@@@Z 004565f0 f   DXFView.obj
 0001:00055a30       ?OnMouseMove_Vector@CDXFView@@AAEXPAVCDC@@ABV?$CPointT@M@@ABV?$CRectT@M@@@Z 00456a30 f   DXFView.obj
 0001:00055af0       ?OnMouseMove_Start@CDXFView@@AAEXPAVCDC@@ABV?$CPointT@M@@ABV?$CRectT@M@@@Z 00456af0 f   DXFView.obj
 0001:00055ba0       ?OnMouseMove_Outline@CDXFView@@AAEXPAVCDC@@ABV?$CPointT@M@@ABV?$CRectT@M@@@Z 00456ba0 f   DXFView.obj
 0001:00055c20       ?OnMouseWheel@CDXFView@@IAEHIFVCPoint@@@Z 00456c20 f   DXFView.obj
 0001:00055c80       ?OnKeyDown@CDXFView@@IAEXIII@Z 00456c80 f   DXFView.obj
 0001:00055d30       ?OnEraseBkgnd@CDXFView@@IAEHPAVCDC@@@Z 00456d30 f   DXFView.obj
 0001:00055d80       ?OnNcHitTest@CDXFView@@IAEJVCPoint@@@Z 00456d80 f   DXFView.obj
 0001:00055dd0       ?OnToolTipNotify@CDXFView@@IAEHIPAUtagNMHDR@@PAJ@Z 00456dd0 f   DXFView.obj
 0001:00055e80       ?OnToolHitTest@CDXFView@@UBEHVCPoint@@PAUtagTOOLINFOA@@@Z 00456e80 f   DXFView.obj
 0001:00055ee0       ??1?$vector@V?$vector@V?$CPointT@M@@V?$allocator@V?$CPointT@M@@@std@@@std@@V?$allocator@V?$vector@V?$CPointT@M@@V?$allocator@V?$CPointT@M@@@std@@@std@@@2@@std@@QAE@XZ 00456ee0 f i DXFView.obj
 0001:00055f60       ??1?$vector@USELECTBIND@@V?$allocator@USELECTBIND@@@std@@@std@@QAE@XZ 00456f60 f i DXFView.obj
 0001:00055fd0       ??$_Emplace_reallocate@ABV?$vector@V?$CPointT@M@@V?$allocator@V?$CPointT@M@@@std@@@std@@@?$vector@V?$vector@V?$CPointT@M@@V?$allocator@V?$CPointT@M@@@std@@@std@@V?$allocator@V?$vector@V?$CPointT@M@@V?$allocator@V?$CPointT@M@@@std@@@std@@@2@@std@@QAEPAV?$vector@V?$CPointT@M@@V?$allocator@V?$CPointT@M@@@std@@@1@QAV21@ABV21@@Z 00456fd0 f i DXFView.obj
 0001:00056250       ??$_Emplace_reallocate@ABUSELECTBIND@@@?$vector@USELECTBIND@@V?$allocator@USELECTBIND@@@std@@@std@@QAEPAUSELECTBIND@@QAU2@ABU2@@Z 00457250 f i DXFView.obj
 0001:00056430       ??$_Destroy_range@V?$allocator@V?$vector@V?$CPointT@M@@V?$allocator@V?$CPointT@M@@@std@@@std@@@std@@@std@@YAXPAV?$vector@V?$CPointT@M@@V?$allocator@V?$CPointT@M@@@std@@@0@QAV10@AAV?$allocator@V?$vector@V?$CPointT@M@@V?$allocator@V?$CPointT@M@@@std@@@std@@@0@@Z 00457430 f i DXFView.obj
 0001:00056460       ??$_Sort_unchecked@PAUSELECTBIND@@U?$less@X@std@@@std@@YAXPAUSELECTBIND@@0HU?$less@X@0@@Z 00457460 f i DXFView.obj
 0001:00056730       ??$apply_visitor@U?$get_visitor@PAVCDXFshape@@@variant@detail@boost@@@?$variant@KPAVCLayerData@@PAVCDXFshape@@PAVCDXFworking@@@boost@@QGAEPAPAVCDXFshape@@AAU?$get_visitor@PAVCDXFshape@@@variant@detail@1@@Z 00457730 f i DXFView.obj
 0001:00056890       ??$apply_visitor@U?$get_visitor@PAVCDXFworking@@@variant@detail@boost@@@?$variant@KPAVCLayerData@@PAVCDXFshape@@PAVCDXFworking@@@boost@@QGAEPAPAVCDXFworking@@AAU?$get_visitor@PAVCDXFworking@@@variant@detail@1@@Z 00457890 f i DXFView.obj
 0001:000569f0       ??$_Partition_by_median_guess_unchecked@PAUSELECTBIND@@U?$less@X@std@@@std@@YA?AU?$pair@PAUSELECTBIND@@PAU1@@0@PAUSELECTBIND@@0U?$less@X@0@@Z 004579f0 f i DXFView.obj
 0001:00056d10       ??$_Pop_heap_hole_by_index@PAUSELECTBIND@@U1@U?$less@X@std@@@std@@YAXPAUSELECTBIND@@HH$$QAU1@U?$less@X@0@@Z 00457d10 f i DXFView.obj
 0001:00056e50       ??$_Med3_unchecked@PAUSELECTBIND@@U?$less@X@std@@@std@@YAXPAUSELECTBIND@@00U?$less@X@0@@Z 00457e50 f i DXFView.obj
 0001:00056ef0       ??0CExecOption@@QAE@ABV?$CStringT@DV?$StrTraitMFC_DLL@DV?$ChTraitsCRT@D@ATL@@@@@ATL@@@Z 00457ef0 f   ExecOption.obj
 0001:00057480       ??0CExecOption@@QAE@ABV?$CStringT@DV?$StrTraitMFC_DLL@DV?$ChTraitsCRT@D@ATL@@@@@ATL@@00HHH@Z 00458480 f   ExecOption.obj
 0001:00057530       ??0CExecOption@@QAE@ABV?$CStringT@DV?$StrTraitMFC_DLL@DV?$ChTraitsCRT@D@ATL@@@@@ATL@@W4DOCTYPE@@@Z 00458530 f   ExecOption.obj
 0001:000577a0       ?GetStringData@CExecOption@@QBE?AV?$CStringT@DV?$StrTraitMFC_DLL@DV?$ChTraitsCRT@D@ATL@@@@@ATL@@XZ 004587a0 f   ExecOption.obj
 0001:00057c30       ?GetMessageMap@CExecSetupDlg@@MBEPBUAFX_MSGMAP@@XZ 00458c30 f   ExecSetupDlg.obj
 0001:00057c40       ??_GCExecSetupDlg@@UAEPAXI@Z 00458c40 f i ExecSetupDlg.obj
 0001:00057c40       ??_ECExecSetupDlg@@UAEPAXI@Z 00458c40 f i * CIL library *:* CIL module *
 0001:00057c80       ??1CExecSetupDlg@@UAE@XZ   00458c80 f i ExecSetupDlg.obj
 0001:00057ce0       ?DoDataExchange@CExecSetupDlg@@MAEXPAVCDataExchange@@@Z 00458ce0 f   ExecSetupDlg.obj
 0001:00057d80       ?SetDetailData@CExecSetupDlg@@AAEXPBVCExecOption@@@Z 00458d80 f   ExecSetupDlg.obj
 0001:00057e20       ?CheckData@CExecSetupDlg@@AAEHXZ 00458e20 f   ExecSetupDlg.obj
 0001:00057f00       ?SwapObject@CExecSetupDlg@@AAEXHH@Z 00458f00 f   ExecSetupDlg.obj
 0001:00057fb0       ?OnInitDialog@CExecSetupDlg@@MAEHXZ 00458fb0 f   ExecSetupDlg.obj
 0001:00058150       ?OnOK@CExecSetupDlg@@MAEXXZ 00459150 f   ExecSetupDlg.obj
 0001:00058220       ?OnCancel@CExecSetupDlg@@MAEXXZ 00459220 f   ExecSetupDlg.obj
 0001:000582a0       ?OnItemChangedExeList@CExecSetupDlg@@IAEXPAUtagNMHDR@@PAJ@Z 004592a0 f   ExecSetupDlg.obj
 0001:000582c0       ?OnGetDispInfoExeList@CExecSetupDlg@@IAEXPAUtagNMHDR@@PAJ@Z 004592c0 f   ExecSetupDlg.obj
 0001:00058300       ?OnKeyDownList@CExecSetupDlg@@IAEXPAUtagNMHDR@@PAJ@Z 00459300 f   ExecSetupDlg.obj
 0001:00058320       ?OnAdd@CExecSetupDlg@@IAEXXZ 00459320 f   ExecSetupDlg.obj
 0001:000586a0       ?OnMod@CExecSetupDlg@@IAEXXZ 004596a0 f   ExecSetupDlg.obj
 0001:000589d0       ?OnDel@CExecSetupDlg@@IAEXXZ 004599d0 f   ExecSetupDlg.obj
 0001:00058a30       ?OnUp@CExecSetupDlg@@IAEXXZ 00459a30 f   ExecSetupDlg.obj
 0001:00058a80       ?OnDown@CExecSetupDlg@@IAEXXZ 00459a80 f   ExecSetupDlg.obj
 0001:00058ae0       ?OnFileUP@CExecSetupDlg@@IAEXXZ 00459ae0 f   ExecSetupDlg.obj
 0001:00058ca0       ?OnDropFiles@CExecSetupDlg@@IAEXPAUHDROP__@@@Z 00459ca0 f   ExecSetupDlg.obj
 0001:00058e50       ?GetMessageMap@CExtensionDlg@@MBEPBUAFX_MSGMAP@@XZ 00459e50 f   ExtensionDlg.obj
 0001:00058e60       ??_ECExtensionDlg@@UAEPAXI@Z 00459e60 f i * CIL library *:* CIL module *
 0001:00058e60       ??_GCExtensionDlg@@UAEPAXI@Z 00459e60 f i ExtensionDlg.obj
 0001:00058ea0       ??1CExtensionDlg@@UAE@XZ   00459ea0 f i ExtensionDlg.obj
 0001:00058f60       ?DoDataExchange@CExtensionDlg@@MAEXPAVCDataExchange@@@Z 00459f60 f   ExtensionDlg.obj
 0001:00059020       ?OnInitDialog@CExtensionDlg@@MAEHXZ 0045a020 f   ExtensionDlg.obj
 0001:000591d0       ?OnOK@CExtensionDlg@@MAEXXZ 0045a1d0 f   ExtensionDlg.obj
 0001:000593a0       ?OnExtAdd@CExtensionDlg@@IAEXXZ 0045a3a0 f   ExtensionDlg.obj
 0001:00059510       ?OnExtDel@CExtensionDlg@@IAEXXZ 0045a510 f   ExtensionDlg.obj
 0001:00059660       ?OnExtDefault@CExtensionDlg@@IAEXXZ 0045a660 f   ExtensionDlg.obj
 0001:00059710       ?OnExtSelchangeList@CExtensionDlg@@IAEXXZ 0045a710 f   ExtensionDlg.obj
 0001:00059820       ?CreateObject@CLayerData@@SGPAVCObject@@XZ 0045a820 f   Layer.obj
 0001:00059960       ?GetRuntimeClass@CLayerData@@UBEPAUCRuntimeClass@@XZ 0045a960 f   Layer.obj
 0001:00059970       ??_ECLayerData@@UAEPAXI@Z  0045a970 f i * CIL library *:* CIL module *
 0001:00059970       ??_GCLayerData@@UAEPAXI@Z  0045a970 f i Layer.obj
 0001:000599b0       ??0CLayerData@@QAE@PBV0@H@Z 0045a9b0 f   Layer.obj
 0001:00059b20       ??1CLayerData@@UAE@XZ      0045ab20 f   Layer.obj
 0001:00059c50       ?SetInitFile@CLayerData@@QAEXPBD@Z 0045ac50 f   Layer.obj
 0001:00059d70       ?SetLayerInfo@CLayerData@@QAEXABV?$CStringT@DV?$StrTraitMFC_DLL@DV?$ChTraitsCRT@D@ATL@@@@@ATL@@@Z 0045ad70 f   Layer.obj
 0001:0005a470       ?FormatLayerInfo@CLayerData@@QAE?AV?$CStringT@DV?$StrTraitMFC_DLL@DV?$ChTraitsCRT@D@ATL@@@@@ATL@@PBD@Z 0045b470 f   Layer.obj
 0001:0005a650       ?Serialize@CLayerData@@UAEXAAVCArchive@@@Z 0045b650 f   Layer.obj
 0001:0005a9e0       ?GetMessageMap@CLayerDlg@@MBEPBUAFX_MSGMAP@@XZ 0045b9e0 f   LayerDlg.obj
 0001:0005a9f0       ??_ECLayerDlg@@UAEPAXI@Z   0045b9f0 f i * CIL library *:* CIL module *
 0001:0005a9f0       ??_GCLayerDlg@@UAEPAXI@Z   0045b9f0 f i LayerDlg.obj
 0001:0005aa50       ?DoDataExchange@CLayerDlg@@MAEXPAVCDataExchange@@@Z 0045ba50 f   LayerDlg.obj
 0001:0005aa80       ?SetLayerTree@CLayerDlg@@AAEXPBVCDXFDoc@@@Z 0045ba80 f   LayerDlg.obj
 0001:0005ac10       ?SetChildCheck@CLayerDlg@@AAEXPAU_TREEITEM@@@Z 0045bc10 f   LayerDlg.obj
 0001:0005ac80       ?SetParentCheck@CLayerDlg@@AAEXPAU_TREEITEM@@@Z 0045bc80 f   LayerDlg.obj
 0001:0005ad60       ?OnInitDialog@CLayerDlg@@MAEHXZ 0045bd60 f   LayerDlg.obj
 0001:0005ae70       ?OnOK@CLayerDlg@@MAEXXZ    0045be70 f   LayerDlg.obj
 0001:0005b090       ?OnCancel@CLayerDlg@@MAEXXZ 0045c090 f   LayerDlg.obj
 0001:0005b0b0       ?PostNcDestroy@CLayerDlg@@MAEXXZ 0045c0b0 f   LayerDlg.obj
 0001:0005b0f0       ?OnUserSwitchDocument@CLayerDlg@@IAEJIJ@Z 0045c0f0 f   LayerDlg.obj
 0001:0005b360       ?OnLayerTreeKeydown@CLayerDlg@@IAEXPAUtagNMHDR@@PAJ@Z 0045c360 f   LayerDlg.obj
 0001:0005b3d0       ?OnLayerTreeClick@CLayerDlg@@IAEXPAUtagNMHDR@@PAJ@Z 0045c3d0 f   LayerDlg.obj
 0001:0005b470       ?OnLayerTreeGetdispinfo@CLayerDlg@@IAEXPAUtagNMHDR@@PAJ@Z 0045c470 f   LayerDlg.obj
 0001:0005b4c0       ??_ECTreeCtrl@@UAEPAXI@Z   0045c4c0 f i * CIL library *:* CIL module *
 0001:0005b4c0       ??_GCTreeCtrl@@UAEPAXI@Z   0045c4c0 f i LayerDlg.obj
 0001:0005b500       ?LoadToolBar@CCustomMenu@@QAEHI@Z 0045c500 f i MainFrm.obj
 0001:0005b5f0       ?_GetBaseClass@CMainFrame@@KGPAUCRuntimeClass@@XZ 0045c5f0 f   MainFrm.obj
 0001:0005b600       ?GetRuntimeClass@CMainFrame@@UBEPAUCRuntimeClass@@XZ 0045c600 f   MainFrm.obj
 0001:0005b610       ?GetMessageMap@CMainFrame@@MBEPBUAFX_MSGMAP@@XZ 0045c610 f   MainFrm.obj
 0001:0005b620       ??0CMainFrame@@QAE@XZ      0045c620 f   MainFrm.obj
 0001:0005ba60       ??_GCMainFrame@@UAEPAXI@Z  0045ca60 f i MainFrm.obj
 0001:0005ba60       ??_ECMainFrame@@UAEPAXI@Z  0045ca60 f i * CIL library *:* CIL module *
 0001:0005bc00       ??1CMainStatusBar@@UAE@XZ  0045cc00 f i MainFrm.obj
 0001:0005bc20       ??1CMachineToolBar@@UAE@XZ 0045cc20 f i MainFrm.obj
 0001:0005bc40       ??_ECMachineToolBar@@UAEPAXI@Z 0045cc40 f i * CIL library *:* CIL module *
 0001:0005bc40       ??_GCMachineToolBar@@UAEPAXI@Z 0045cc40 f i MainFrm.obj
 0001:0005bc90       ?OnCommand@CMainFrame@@MAEHIJ@Z 0045cc90 f   MainFrm.obj
 0001:0005bec0       ?SaveWindowState@CMainFrame@@AAEXXZ 0045cec0 f   MainFrm.obj
 0001:0005bf50       ?ChangeViewOption@CMainFrame@@QAEXXZ 0045cf50 f   MainFrm.obj
 0001:0005c3f0       ?GetIconHandle@CMainFrame@@QAEPAUHICON__@@HPBD@Z 0045d3f0 f   MainFrm.obj
 0001:0005c4c0       ?CreateDisableToolBar@CMainFrame@@AAEXW4EN_TOOLBARIMAGE@@@Z 0045d4c0 f   MainFrm.obj
 0001:0005c6d0       ?CommandReplace@CMainFrame@@AAE?AV?$CStringT@DV?$StrTraitMFC_DLL@DV?$ChTraitsCRT@D@ATL@@@@@ATL@@PBVCExecOption@@PBVCDocument@@@Z 0045d6d0 f   MainFrm.obj
 0001:0005ca40       ?CreateOutsideProcess@CMainFrame@@QAEHPBD0HH@Z 0045da40 f   MainFrm.obj
 0001:0005cc90       ?SetExecButtons@CMainFrame@@QAEXH@Z 0045dc90 f   MainFrm.obj
 0001:0005d1d0       ?SetAddinButtons@CMainFrame@@QAEXXZ 0045e1d0 f   MainFrm.obj
 0001:0005d530       ?StatusBarEventTimerProc@CMainFrame@@SGXPAUHWND__@@IIK@Z 0045e530 f   MainFrm.obj
 0001:0005d550       ?OnCreate@CMainFrame@@IAEHPAUtagCREATESTRUCTA@@@Z 0045e550 f   MainFrm.obj
 0001:0005dba0       ?OnSize@CMainFrame@@IAEXIHH@Z 0045eba0 f   MainFrm.obj
 0001:0005dbf0       ?OnClose@CMainFrame@@IAEXXZ 0045ebf0 f   MainFrm.obj
 0001:0005dc90       ?OnDestroy@CMainFrame@@IAEXXZ 0045ec90 f   MainFrm.obj
 0001:0005dd40       ?OnEndSession@CMainFrame@@IAEXH@Z 0045ed40 f   MainFrm.obj
 0001:0005dde0       ?OnMenuSelect@CMainFrame@@IAEXIIPAUHMENU__@@@Z 0045ede0 f   MainFrm.obj
 0001:0005de60       ?OnInitMenuPopup@CMainFrame@@IAEXPAVCMenu@@IH@Z 0045ee60 f   MainFrm.obj
 0001:0005e030       ?OnUserFileChange@CMainFrame@@IAEJIJ@Z 0045f030 f   MainFrm.obj
 0001:0005e120       ?OnDrawItem@CMainFrame@@IAEXHPAUtagDRAWITEMSTRUCT@@@Z 0045f120 f   MainFrm.obj
 0001:0005e2a0       ?OnMeasureItem@CMainFrame@@IAEXHPAUtagMEASUREITEMSTRUCT@@@Z 0045f2a0 f   MainFrm.obj
 0001:0005e3f0       ?OnSysColorChange@CMainFrame@@IAEXXZ 0045f3f0 f   MainFrm.obj
 0001:0005e490       ?OnToolTipText@CMainFrame@@IAEHIPAUtagNMHDR@@PAJ@Z 0045f490 f   MainFrm.obj
 0001:0005e580       ?OnUpdateExecButtonCheck@CMainFrame@@IAEXPAVCCmdUI@@@Z 0045f580 f   MainFrm.obj
 0001:0005e670       ?OnUpdateAddinButtonCheck@CMainFrame@@IAEXPAVCCmdUI@@@Z 0045f670 f   MainFrm.obj
 0001:0005e760       ?OnUpdateDate@CMainFrame@@IAEXPAVCCmdUI@@@Z 0045f760 f   MainFrm.obj
 0001:0005e820       ?OnUpdateTime@CMainFrame@@IAEXPAVCCmdUI@@@Z 0045f820 f   MainFrm.obj
 0001:0005e8e0       ?OnNextPane@CMainFrame@@IAEXXZ 0045f8e0 f   MainFrm.obj
 0001:0005e900       ?OnUpdateEditCopy@CNCListView@@IAEXPAVCCmdUI@@@Z 0045f900 f   NCListView.obj
 0001:0005e900       ?OnUpdateEditCopy@CViewBaseGL@@QAEXPAVCCmdUI@@@Z 0045f900 f   ViewBaseGL.obj
 0001:0005e900       ?OnUpdateEditPaste@CMainFrame@@IAEXPAVCCmdUI@@@Z 0045f900 f   MainFrm.obj
 0001:0005e900       ?OnUpdateRoundKey@CNCViewBase@@QAEXPAVCCmdUI@@@Z 0045f900 f   NCViewBase.obj
 0001:0005e900       ?OnUpdateEditCut@CMainFrame@@IAEXPAVCCmdUI@@@Z 0045f900 f   MainFrm.obj
 0001:0005e900       ?OnUpdateMoveRoundKey@CNCListView@@IAEXPAVCCmdUI@@@Z 0045f900 f   NCListView.obj
 0001:0005e900       ?OnUpdateMoveRoundKey@CNCInfoBase@@QAEXPAVCCmdUI@@@Z 0045f900 f   NCInfoView.obj
 0001:0005e910       ?OnViewToolbarCustom@CMainFrame@@IAEXXZ 0045f910 f   MainFrm.obj
 0001:0005ea70       ??1CToolBarSetupDlg@@UAE@XZ 0045fa70 f i MainFrm.obj
 0001:0005ea70       ??1CMakeBindOptDlg@@UAE@XZ 0045fa70 f i MakeBindOptDlg.obj
 0001:0005ea80       ?OnContextMenu@CMainFrame@@IAEXPAVCWnd@@VCPoint@@@Z 0045fa80 f   MainFrm.obj
 0001:0005eab0       ?GetMessageMap@CMachineToolBar@@MBEPBUAFX_MSGMAP@@XZ 0045fab0 f   MainFrm.obj
 0001:0005eac0       ?OnCreate@CMachineToolBar@@IAEHPAUtagCREATESTRUCTA@@@Z 0045fac0 f   MainFrm.obj
 0001:0005ec40       ?OnSelchangeMC@CMachineToolBar@@IAEXXZ 0045fc40 f   MainFrm.obj
 0001:0005ee20       ?ChangeMachine@CMachineToolBar@@QAEXXZ 0045fe20 f   MainFrm.obj
 0001:0005ef50       ??_E?$CTypedPtrMap@VCMapWordToPtr@@GPAVCExecOption@@@@UAEPAXI@Z 0045ff50 f i * CIL library *:* CIL module *
 0001:0005ef50       ??_E?$CTypedPtrMap@VCMapWordToPtr@@GPAVCNCVCaddinMap@@@@UAEPAXI@Z 0045ff50 f i * CIL library *:* CIL module *
 0001:0005ef50       ??_G?$CTypedPtrMap@VCMapWordToPtr@@GPAVCExecOption@@@@UAEPAXI@Z 0045ff50 f i NCVC.obj
 0001:0005ef50       ??_E?$CTypedPtrMap@VCMapWordToPtr@@GPAUCUSTMENUINFO@@@@UAEPAXI@Z 0045ff50 f i * CIL library *:* CIL module *
 0001:0005ef50       ??_G?$CTypedPtrMap@VCMapWordToPtr@@GPAUCUSTMENUINFO@@@@UAEPAXI@Z 0045ff50 f i MainFrm.obj
 0001:0005ef50       ??_G?$CTypedPtrMap@VCMapWordToPtr@@GPAVCNCVCaddinMap@@@@UAEPAXI@Z 0045ff50 f i NCVC.obj
 0001:0005ef90       ?GetTrackingID@CFrameWnd@@UAEIXZ 0045ff90 f i MainFrm.obj
 0001:0005efa0       ?Format@CTime@ATL@@QBE?AV?$CStringT@DV?$StrTraitMFC_DLL@DV?$ChTraitsCRT@D@ATL@@@@@2@PBD@Z 0045ffa0 f i MainFrm.obj
 0001:0005f040       ?GetTickCount@CTime@ATL@@SG?AV12@XZ 00460040 f i MainFrm.obj
 0001:0005f070       ??1CBitmap@@UAE@XZ         00460070 f i MainFrm.obj
 0001:0005f080       ??_ECBitmap@@UAEPAXI@Z     00460080 f i * CIL library *:* CIL module *
 0001:0005f080       ??_GCBitmap@@UAEPAXI@Z     00460080 f i MainFrm.obj
 0001:0005f0c0       ??0CBrush@@QAE@XZ          004600c0 f i MainFrm.obj
 0001:0005f0d0       ??0CPen@@QAE@XZ            004600d0 f i MainFrm.obj
 0001:0005f0e0       ??_ECPen@@UAEPAXI@Z        004600e0 f i * CIL library *:* CIL module *
 0001:0005f0e0       ??_GCPen@@UAEPAXI@Z        004600e0 f i MainFrm.obj
 0001:0005f120       ??1CPen@@UAE@XZ            00460120 f i MainFrm.obj
 0001:0005f130       ?GetMessageMap@CMainStatusBar@@MBEPBUAFX_MSGMAP@@XZ 00460130 f   MainStatusBar.obj
 0001:0005f140       ??_ECMainStatusBar@@UAEPAXI@Z 00460140 f i * CIL library *:* CIL module *
 0001:0005f140       ??_GCMainStatusBar@@UAEPAXI@Z 00460140 f i MainStatusBar.obj
 0001:0005f190       ?OnCreate@CMainStatusBar@@IAEHPAUtagCREATESTRUCTA@@@Z 00460190 f   MainStatusBar.obj
 0001:0005f250       ?ChangeProgressSize@CMainStatusBar@@QAEXHH@Z 00460250 f   MainStatusBar.obj
 0001:0005f2d0       ?OnUserProgressPos@CMainStatusBar@@IAEJIJ@Z 004602d0 f   MainStatusBar.obj
 0001:0005f2f0       ??_GCProgressCtrl@@UAEPAXI@Z 004602f0 f i MainStatusBar.obj
 0001:0005f2f0       ??_ECProgressCtrl@@UAEPAXI@Z 004602f0 f i * CIL library *:* CIL module *
 0001:0005f330       ??_ECMakeBindOptDlg@@UAEPAXI@Z 00460330 f i * CIL library *:* CIL module *
 0001:0005f330       ??_GCMakeBindOptDlg@@UAEPAXI@Z 00460330 f i MakeBindOptDlg.obj
 0001:0005f370       ?DoDataExchange@CMakeBindOptDlg@@MAEXPAVCDataExchange@@@Z 00460370 f   MakeBindOptDlg.obj
 0001:0005f3b0       ?OnOK@CMakeBindOptDlg@@MAEXXZ 004603b0 f   MakeBindOptDlg.obj
 0001:0005f3f0       ?ReplaceCustomCode@CMakeCustomCode@@QBE?AV?$tuple@HV?$CStringT@DV?$StrTraitMFC_DLL@DV?$ChTraitsCRT@D@ATL@@@@@ATL@@Unull_type@tuples@boost@@U345@U345@U345@U345@U345@U345@U345@@tuples@boost@@ABV?$basic_string@DU?$char_traits@D@std@@V?$allocator@D@2@@std@@@Z 004603f0 f   MakeCustomCode.obj
 0001:0005f880       ?substr@?$basic_string@DU?$char_traits@D@std@@V?$allocator@D@2@@std@@QBE?AV12@II@Z 00460880 f i MakeCustomCode.obj
 0001:0005f8f0       ?AddElement@CStringKeyIndex@@QAEXIQAPBD@Z 004608f0 f i MakeCustomCode.obj
 0001:0005f990       ?SetElement@CStringKeyIndex@@QAEXIQAPBD@Z 00460990 f i MakeCustomCode.obj
 0001:0005f9f0       ??1CStringKeyIndex@@UAE@XZ 004609f0 f i MakeCustomCode.obj
 0001:0005fa00       ??_GCStringKeyIndex@@UAEPAXI@Z 00460a00 f i MakeCustomCode.obj
 0001:0005fa00       ??_ECStringKeyIndex@@UAEPAXI@Z 00460a00 f i * CIL library *:* CIL module *
 0001:0005fa40       ?GetMessageMap@CMakeNCDlgEx@@MBEPBUAFX_MSGMAP@@XZ 00460a40 f   MakeNCDlgEx.obj
 0001:0005fa40       ?GetMessageMap@CMakeDXFDlg@@MBEPBUAFX_MSGMAP@@XZ 00460a40 f   MakeDXFDlg.obj
 0001:0005fa50       ??0CMakeDXFDlg@@QAE@PAVCNCDoc@@@Z 00460a50 f   MakeDXFDlg.obj
 0001:0005fcc0       ??_GCMakeDXFDlg@@UAEPAXI@Z 00460cc0 f i MakeDXFDlg.obj
 0001:0005fcc0       ??_ECMakeDXFDlg@@UAEPAXI@Z 00460cc0 f i * CIL library *:* CIL module *
 0001:0005fd00       ??1CMakeDXFDlg@@UAE@XZ     00460d00 f i MakeDXFDlg.obj
 0001:0005fda0       ??1CMakeDXFDlg1@@UAE@XZ    00460da0 f i MakeDXFDlg.obj
 0001:0005fe50       ??1CMakeDXFDlg2@@UAE@XZ    00460e50 f i MakeDXFDlg.obj
 0001:0005fe80       ?GetMessageMap@CMakeDXFDlg1@@MBEPBUAFX_MSGMAP@@XZ 00460e80 f   MakeDXFDlg1.obj
 0001:0005fe90       ??_GCMakeDXFDlg1@@UAEPAXI@Z 00460e90 f i MakeDXFDlg1.obj
 0001:0005fe90       ??_ECMakeDXFDlg1@@UAEPAXI@Z 00460e90 f i * CIL library *:* CIL module *
 0001:0005fed0       ?DoDataExchange@CMakeDXFDlg1@@MAEXPAVCDataExchange@@@Z 00460ed0 f   MakeDXFDlg1.obj
 0001:00060020       ?OnInitDialog@CMakeDXFDlg1@@MAEHXZ 00461020 f   MakeDXFDlg1.obj
 0001:00060330       ?OnKillFocusDXFFile@CMakeDXFDlg1@@IAEXXZ 00461330 f   MakeDXFDlg1.obj
 0001:00060360       ?OnMKDXFileUp@CMakeDXFDlg1@@IAEXXZ 00461360 f   MakeDXFDlg1.obj
 0001:00060430       ?OnApply@CMakeDXFDlg1@@UAEHXZ 00461430 f   MakeDXFDlg1.obj
 0001:000604d0       ?OnKillActive@CMakeDXFDlg1@@UAEHXZ 004614d0 f   MakeDXFDlg1.obj
 0001:000605f0       ?GetMessageMap@CMakeDXFDlg2@@MBEPBUAFX_MSGMAP@@XZ 004615f0 f   MakeDXFDlg2.obj
 0001:00060600       ??_ECMakeDXFDlg2@@UAEPAXI@Z 00461600 f i * CIL library *:* CIL module *
 0001:00060600       ??_GCMakeDXFDlg2@@UAEPAXI@Z 00461600 f i MakeDXFDlg2.obj
 0001:00060660       ?DoDataExchange@CMakeDXFDlg2@@MAEXPAVCDataExchange@@@Z 00461660 f   MakeDXFDlg2.obj
 0001:000606d0       ?OnInitDialog@CMakeDXFDlg2@@MAEHXZ 004616d0 f   MakeDXFDlg2.obj
 0001:00060770       ?OnSelchangeCycle@CMakeDXFDlg2@@IAEXXZ 00461770 f   MakeDXFDlg2.obj
 0001:000607a0       ?OnApply@CMakeDXFDlg2@@UAEHXZ 004617a0 f   MakeDXFDlg2.obj
 0001:000608b0       ?OnKillActive@CMakeDXFDlg2@@UAEHXZ 004618b0 f   MakeDXFDlg2.obj
 0001:00060a60       ?GetUserDefaultExt@CNCVCDocTemplate@@QBE?AV?$CStringT@DV?$StrTraitMFC_DLL@DV?$ChTraitsCRT@D@ATL@@@@@ATL@@XZ 00461a60 f i MakeNCDlg.obj
 0001:00060b40       ?GetFilterString@CNCVCApp@@QAE?AV?$CStringT@DV?$StrTraitMFC_DLL@DV?$ChTraitsCRT@D@ATL@@@@@ATL@@W4DOCTYPE@@@Z 00461b40 f i MakeNCDlg.obj
 0001:00060be0       ?GetMessageMap@CMakeNCDlg@@MBEPBUAFX_MSGMAP@@XZ 00461be0 f   MakeNCDlg.obj
 0001:00060bf0       ??_GCMakeNCDlg@@UAEPAXI@Z  00461bf0 f i MakeNCDlg.obj
 0001:00060bf0       ??_ECMakeNCDlg@@UAEPAXI@Z  00461bf0 f i * CIL library *:* CIL module *
 0001:00060c30       ??0CMakeNCDlg@@QAE@IW4NCMAKETYPE@@PAVC3dModelDoc@@@Z 00461c30 f   MakeNCDlg.obj
 0001:00060e90       ?CommonConstructor@CMakeNCDlg@@AAEXIW4NCMAKETYPE@@PAVCDocBase@@@Z 00461e90 f   MakeNCDlg.obj
 0001:00060f10       ?DoDataExchange@CMakeNCDlg@@MAEXPAVCDataExchange@@@Z 00461f10 f   MakeNCDlg.obj
 0001:00060fa0       ?OnInitDialog@CMakeNCDlg@@MAEHXZ 00461fa0 f   MakeNCDlg.obj
 0001:00061090       ?OnOK@CMakeNCDlg@@MAEXXZ   00462090 f   MakeNCDlg.obj
 0001:000612f0       ?OnMKNCFileUp@CMakeNCDlg@@IAEXXZ 004622f0 f   MakeNCDlg.obj
 0001:000613c0       ?OnMKNCInitUp@CMakeNCDlg@@IAEXXZ 004623c0 f   MakeNCDlg.obj
 0001:00061490       ?OnMKNCInitEdit@CMakeNCDlg@@IAEXXZ 00462490 f   MakeNCDlg.obj
 0001:000619f0       ?OnBindOpt@CMakeNCDlg@@IAEXXZ 004629f0 f   MakeNCDlg.obj
 0001:00061a90       ?OnSelChangeInit@CMakeNCDlg@@IAEXXZ 00462a90 f   MakeNCDlg.obj
 0001:00061be0       ?OnKillFocusNCFile@CMakeNCDlg@@IAEXXZ 00462be0 f   MakeNCDlg.obj
 0001:00061c20       ?OnKillFocusInit@CMakeNCDlg@@IAEXXZ 00462c20 f   MakeNCDlg.obj
 0001:00061c60       ?CreateNCFile@@YAXPAVCDXFDoc@@AAV?$CStringT@DV?$StrTraitMFC_DLL@DV?$ChTraitsCRT@D@ATL@@@@@ATL@@1@Z 00462c60 f   MakeNCDlg.obj
 0001:00061e70       ?CreateLayerFile@@YAXPBVCDXFDoc@@AAV?$CStringT@DV?$StrTraitMFC_DLL@DV?$ChTraitsCRT@D@ATL@@@@@ATL@@1@Z 00462e70 f   MakeNCDlg.obj
 0001:00061fa0       ?CheckMakeDlgFileExt@@YAHW4DOCTYPE@@AAV?$CStringT@DV?$StrTraitMFC_DLL@DV?$ChTraitsCRT@D@ATL@@@@@ATL@@@Z 00462fa0 f   MakeNCDlg.obj
 0001:00062160       ?MakeDlgFileRefer@@YA?AV?$CStringT@DV?$StrTraitMFC_DLL@DV?$ChTraitsCRT@D@ATL@@@@@ATL@@HABV12@PAVCDialog@@HAAV12@2H@Z 00463160 f   MakeNCDlg.obj
 0001:00062290       ?MakeNCDlgInitFileEdit@@YAXAAV?$CStringT@DV?$StrTraitMFC_DLL@DV?$ChTraitsCRT@D@ATL@@@@@ATL@@0PAVCDialog@@HAAVCComboBox@@@Z 00463290 f   MakeNCDlg.obj
 0001:00062420       ?MakeDlgKillFocus@@YAXAAV?$CStringT@DV?$StrTraitMFC_DLL@DV?$ChTraitsCRT@D@ATL@@@@@ATL@@0PAVCDialog@@H@Z 00463420 f   MakeNCDlg.obj
 0001:000624e0       ?InitialMakeNCDlgComboBox@@YAHPBVCStringList@@AAVCComboBox@@@Z 004634e0 f   MakeNCDlg.obj
 0001:000625a0       ??0CMakeNCDlgEx@@QAE@IPAVCDXFDoc@@@Z 004635a0 f   MakeNCDlgEx.obj
 0001:00062a20       ??_GCMakeNCDlgEx@@UAEPAXI@Z 00463a20 f i MakeNCDlgEx.obj
 0001:00062a20       ??_ECMakeNCDlgEx@@UAEPAXI@Z 00463a20 f i * CIL library *:* CIL module *
 0001:00062a60       ?GetMessageMap@CMakeNCDlgEx11@@MBEPBUAFX_MSGMAP@@XZ 00463a60 f   MakeNCDlgEx11.obj
 0001:00062a70       ??0CMakeNCDlgEx11@@QAE@PAVCMakeNCDlgEx@@H@Z 00463a70 f   MakeNCDlgEx11.obj
 0001:00062ea0       ??_GCMakeNCDlgEx11@@UAEPAXI@Z 00463ea0 f i MakeNCDlgEx11.obj
 0001:00062ea0       ??_ECMakeNCDlgEx11@@UAEPAXI@Z 00463ea0 f i * CIL library *:* CIL module *
 0001:00062ee0       ??1CMakeNCDlgEx11@@UAE@XZ  00463ee0 f   MakeNCDlgEx11.obj
 0001:00063040       ?DoDataExchange@CMakeNCDlgEx11@@MAEXPAVCDataExchange@@@Z 00464040 f   MakeNCDlgEx11.obj
 0001:00063160       ?GetNowState@CMakeNCDlgEx11@@AAEXXZ 00464160 f   MakeNCDlgEx11.obj
 0001:000632f0       ?SetNowState@CMakeNCDlgEx11@@AAEXH@Z 004642f0 f   MakeNCDlgEx11.obj
 0001:00063400       ?EnablePartOut@CMakeNCDlgEx11@@AAEXXZ 00464400 f   MakeNCDlgEx11.obj
 0001:00063700       ?OnInitDialog@CMakeNCDlgEx11@@MAEHXZ 00464700 f   MakeNCDlgEx11.obj
 0001:000638a0       ?OnOK@CMakeNCDlgEx11@@MAEXXZ 004648a0 f   MakeNCDlgEx11.obj
 0001:00063b40       ?OnNewLayer@CMakeNCDlgEx11@@IAEXXZ 00464b40 f   MakeNCDlgEx11.obj
 0001:00063ce0       ?OnSetFocusLayer@CMakeNCDlgEx11@@IAEXXZ 00464ce0 f   MakeNCDlgEx11.obj
 0001:00063d00       ?OnSelChangeLayer@CMakeNCDlgEx11@@IAEXXZ 00464d00 f   MakeNCDlgEx11.obj
 0001:00063da0       ?OnMKNCInitUp@CMakeNCDlgEx11@@IAEXXZ 00464da0 f   MakeNCDlgEx11.obj
 0001:00063e70       ?OnMKNCInitEdit@CMakeNCDlgEx11@@IAEXXZ 00464e70 f   MakeNCDlgEx11.obj
 0001:00063eb0       ?OnSelChangeInit@CMakeNCDlgEx11@@IAEXXZ 00464eb0 f   MakeNCDlgEx11.obj
 0001:00064000       ?OnMKNCFileUp@CMakeNCDlgEx11@@IAEXXZ 00465000 f   MakeNCDlgEx11.obj
 0001:000640e0       ?OnKillFocusInit@CMakeNCDlgEx11@@IAEXXZ 004650e0 f   MakeNCDlgEx11.obj
 0001:00064110       ?OnKillFocusNCFile@CMakeNCDlgEx11@@IAEXXZ 00465110 f   MakeNCDlgEx11.obj
 0001:00064140       ?OnCopy@CMakeNCDlgEx11@@IAEXXZ 00465140 f   MakeNCDlgEx11.obj
 0001:00064570       ?OnPartOut@CMakeNCDlgEx11@@IAEXXZ 00465570 f   MakeNCDlgEx11.obj
 0001:000645f0       ?GetMessageMap@CMakeNCDlgEx2@@MBEPBUAFX_MSGMAP@@XZ 004655f0 f   MakeNCDlgEx2.obj
 0001:00064600       ??_GCMakeNCDlgEx2@@UAEPAXI@Z 00465600 f i MakeNCDlgEx2.obj
 0001:00064600       ??_ECMakeNCDlgEx2@@UAEPAXI@Z 00465600 f i * CIL library *:* CIL module *
 0001:00064640       ?DoDataExchange@CMakeNCDlgEx2@@MAEXPAVCDataExchange@@@Z 00465640 f   MakeNCDlgEx2.obj
 0001:00064730       ?CheckNewLayer@CMakeNCDlgEx2@@AAEXXZ 00465730 f   MakeNCDlgEx2.obj
 0001:00064840       ?OnInitDialog@CMakeNCDlgEx2@@MAEHXZ 00465840 f   MakeNCDlgEx2.obj
 0001:00064b90       ?OnSetActive@CMakeNCDlgEx2@@UAEHXZ 00465b90 f   MakeNCDlgEx2.obj
 0001:00064bc0       ?OnWizardNext@CMakeNCDlgEx2@@UAEJXZ 00465bc0 f   MakeNCDlgEx2.obj
 0001:00064ed0       ?OnMKNCFileUp@CMakeNCDlgEx2@@IAEXXZ 00465ed0 f   MakeNCDlgEx2.obj
 0001:00064fa0       ?OnMKNCInitUp@CMakeNCDlgEx2@@IAEXXZ 00465fa0 f   MakeNCDlgEx2.obj
 0001:00065060       ?OnMKNCLayerUp@CMakeNCDlgEx2@@IAEXXZ 00466060 f   MakeNCDlgEx2.obj
 0001:00065130       ?OnMKNCInitEdit@CMakeNCDlgEx2@@IAEXXZ 00466130 f   MakeNCDlgEx2.obj
 0001:00065160       ?OnMKNCLayerEdit@CMakeNCDlgEx2@@IAEXXZ 00466160 f   MakeNCDlgEx2.obj
 0001:00065390       ?OnSelChangeInit@CMakeNCDlgEx2@@IAEXXZ 00466390 f   MakeNCDlgEx2.obj
 0001:000654e0       ?OnSelChangeLayerToInit@CMakeNCDlgEx2@@IAEXXZ 004664e0 f   MakeNCDlgEx2.obj
 0001:00065540       ?OnKillFocusNCFile@CMakeNCDlgEx2@@IAEXXZ 00466540 f   MakeNCDlgEx2.obj
 0001:00065580       ?OnKillFocusInit@CMakeNCDlgEx2@@IAEXXZ 00466580 f   MakeNCDlgEx2.obj
 0001:000655c0       ?OnKillFocusLayerToInit@CMakeNCDlgEx2@@IAEXXZ 004665c0 f   MakeNCDlgEx2.obj
 0001:00065760       ?GetMessageMap@CMakeNCDlgEx21@@MBEPBUAFX_MSGMAP@@XZ 00466760 f   MakeNCDlgEx21.obj
 0001:00065770       ??0CMakeNCDlgEx21@@QAE@PAVCMakeNCDlgEx@@H@Z 00466770 f   MakeNCDlgEx21.obj
 0001:00065b70       ??_ECMakeNCDlgEx21@@UAEPAXI@Z 00466b70 f i * CIL library *:* CIL module *
 0001:00065b70       ??_GCMakeNCDlgEx21@@UAEPAXI@Z 00466b70 f i MakeNCDlgEx21.obj
 0001:00065bb0       ??1CMakeNCDlgEx21@@UAE@XZ  00466bb0 f   MakeNCDlgEx21.obj
 0001:00065d00       ?DoDataExchange@CMakeNCDlgEx21@@MAEXPAVCDataExchange@@@Z 00466d00 f   MakeNCDlgEx21.obj
 0001:00065e10       ?GetNowState@CMakeNCDlgEx21@@AAEXXZ 00466e10 f   MakeNCDlgEx21.obj
 0001:00065fa0       ?SetNowState@CMakeNCDlgEx21@@AAEXH@Z 00466fa0 f   MakeNCDlgEx21.obj
 0001:00066080       ?EnablePartOut@CMakeNCDlgEx21@@AAEXXZ 00467080 f   MakeNCDlgEx21.obj
 0001:00066380       ?OnInitDialog@CMakeNCDlgEx21@@MAEHXZ 00467380 f   MakeNCDlgEx21.obj
 0001:00066510       ?OnOK@CMakeNCDlgEx21@@MAEXXZ 00467510 f   MakeNCDlgEx21.obj
 0001:000666d0       ?OnNewLayer@CMakeNCDlgEx21@@IAEXXZ 004676d0 f   MakeNCDlgEx21.obj
 0001:00066870       ?OnSetFocusLayer@CMakeNCDlgEx21@@IAEXXZ 00467870 f   MakeNCDlgEx21.obj
 0001:00066890       ?OnSelChangeLayer@CMakeNCDlgEx21@@IAEXXZ 00467890 f   MakeNCDlgEx21.obj
 0001:00066940       ?OnMKNCFileUp@CMakeNCDlgEx21@@IAEXXZ 00467940 f   MakeNCDlgEx21.obj
 0001:00066a20       ?OnKillFocusNCFile@CMakeNCDlgEx21@@IAEXXZ 00467a20 f   MakeNCDlgEx21.obj
 0001:00066a50       ?OnCopy@CMakeNCDlgEx21@@IAEXXZ 00467a50 f   MakeNCDlgEx21.obj
 0001:00066e80       ?OnStep@CMakeNCDlgEx21@@IAEXXZ 00467e80 f   MakeNCDlgEx21.obj
 0001:00066f80       ?OnPartOut@CMakeNCDlgEx21@@IAEXXZ 00467f80 f   MakeNCDlgEx21.obj
 0001:00067000       ?GetMessageMap@CMakeNCDlgEx3@@MBEPBUAFX_MSGMAP@@XZ 00468000 f   MakeNCDlgEx3.obj
 0001:00067010       ??_GCMakeNCDlgEx3@@UAEPAXI@Z 00468010 f i MakeNCDlgEx3.obj
 0001:00067010       ??_ECMakeNCDlgEx3@@UAEPAXI@Z 00468010 f i * CIL library *:* CIL module *
 0001:00067060       ?DoDataExchange@CMakeNCDlgEx3@@MAEXPAVCDataExchange@@@Z 00468060 f   MakeNCDlgEx3.obj
 0001:00067080       ?OnInitDialog@CMakeNCDlgEx3@@MAEHXZ 00468080 f   MakeNCDlgEx3.obj
 0001:000673c0       ?OnSetActive@CMakeNCDlgEx3@@UAEHXZ 004683c0 f   MakeNCDlgEx3.obj
 0001:000673e0       ?OnWizardFinish@CMakeNCDlgEx3@@UAEHXZ 004683e0 f   MakeNCDlgEx3.obj
 0001:00067870       ?OnKillActive@CMakeNCDlgEx3@@UAEHXZ 00468870 f   MakeNCDlgEx3.obj
 0001:00067a40       ?OnGetDispInfoLayerList@CMakeNCDlgEx3@@IAEXPAUtagNMHDR@@PAJ@Z 00468a40 f   MakeNCDlgEx3.obj
 0001:00067b60       ?OnDblClkLayerList@CMakeNCDlgEx3@@IAEXPAUtagNMHDR@@PAJ@Z 00468b60 f   MakeNCDlgEx3.obj
 0001:00067c80       ?OnColumnClickLayerList@CMakeNCDlgEx3@@IAEXPAUtagNMHDR@@PAJ@Z 00468c80 f   MakeNCDlgEx3.obj
 0001:00067cd0       ?OnEndScrollLayerList@CMakeNCDlgEx3@@IAEXPAUtagNMHDR@@PAJ@Z 00468cd0 f   MakeNCDlgEx3.obj
 0001:00067cf0       ?CompareFunc@CMakeNCDlgEx3@@KGHJJJ@Z 00468cf0 f   MakeNCDlgEx3.obj
 0001:00067dc0       ?OnUp@CMakeNCDlgEx3@@IAEXXZ 00468dc0 f   MakeNCDlgEx3.obj
 0001:00067e70       ?OnDown@CMakeNCDlgEx3@@IAEXXZ 00468e70 f   MakeNCDlgEx3.obj
 0001:00067f40       ?SwapObject@CMakeNCDlgEx3@@AAEXHH@Z 00468f40 f   MakeNCDlgEx3.obj
 0001:00067ff0       ?OnQuerySiblings@CMakeNCDlgEx3@@IAEJIJ@Z 00468ff0 f   MakeNCDlgEx3.obj
 0001:00068140       ?SetHeaderMark@CMakeNCDlgEx3@@AAEXH@Z 00469140 f   MakeNCDlgEx3.obj
 0001:00068210       ??0CMachineOption@@QAE@XZ  00469210 f   MachineOption.obj
 0001:000686f0       ??1?$CTypedPtrList@VCPtrList@@PAVCRecentViewInfo@@@@UAE@XZ 004696f0 f i NCVC.obj
 0001:000686f0       ??1?$CTypedPtrList@VCPtrList@@PAVCMCTOOLINFO@@@@UAE@XZ 004696f0 f i MachineOption.obj
 0001:000686f0       ??1?$CTypedPtrList@VCPtrList@@PAVCExecOption@@@@UAE@XZ 004696f0 f i NCVC.obj
 0001:00068700       ??1CMachineOption@@QAE@XZ  00469700 f   MachineOption.obj
 0001:000688c0       ??1CMCTOOLINFO@@QAE@XZ     004698c0 f i MachineOption.obj
 0001:000688d0       ?Convert@CMachineOption@@AAEXXZ 004698d0 f   MachineOption.obj
 0001:00068b70       ?ReadMachineOption@CMachineOption@@QAEHPBDH@Z 00469b70 f   MachineOption.obj
 0001:00069f50       ?SaveMachineOption@CMachineOption@@QAEHPBD@Z 0046af50 f   MachineOption.obj
 0001:0006a960       ?ConvertWorkOffset@CMachineOption@@AAEXIPBD@Z 0046b960 f   MachineOption.obj
 0001:0006abd0       ?AddMCListHistory@CMachineOption@@AAEHPBD@Z 0046bbd0 f   MachineOption.obj
 0001:0006ace0       ?AddTool@CMachineOption@@QAEHHMH@Z 0046bce0 f   MachineOption.obj
 0001:0006ae70       ?ReductionTools@CMachineOption@@QAEXH@Z 0046be70 f   MachineOption.obj
 0001:0006aed0       ?GetMCHeadFileName@CMachineOption@@QBE?AV?$CStringT@DV?$StrTraitMFC_DLL@DV?$ChTraitsCRT@D@ATL@@@@@ATL@@XZ 0046bed0 f i MachineSetup.obj
 0001:0006af50       ?GetMessageMap@CMachineSetup@@MBEPBUAFX_MSGMAP@@XZ 0046bf50 f   MachineSetup.obj
 0001:0006af60       ??0CMachineSetup@@QAE@PBD0@Z 0046bf60 f   MachineSetup.obj
 0001:0006b4c0       ??_GCMachineSetup@@UAEPAXI@Z 0046c4c0 f i MachineSetup.obj
 0001:0006b4c0       ??_ECMachineSetup@@UAEPAXI@Z 0046c4c0 f i * CIL library *:* CIL module *
 0001:0006b500       ??1CMachineSetup@@UAE@XZ   0046c500 f i MachineSetup.obj
 0001:0006b640       ??1CMachineSetup1@@UAE@XZ  0046c640 f i MachineSetup.obj
 0001:0006b6d0       ??1CMachineSetup2@@UAE@XZ  0046c6d0 f i MachineSetup.obj
 0001:0006b750       ??1CMachineSetup3@@UAE@XZ  0046c750 f i MachineSetup.obj
 0001:0006b7b0       ??1CMachineSetup4@@UAE@XZ  0046c7b0 f i MachineSetup.obj
 0001:0006b830       ??1CMachineSetup5@@UAE@XZ  0046c830 f i MachineSetup.obj
 0001:0006b880       ?OnInitDialog@CMachineSetup@@UAEHXZ 0046c880 f   MachineSetup.obj
 0001:0006b920       ?OnDestroy@CMachineSetup@@IAEXXZ 0046c920 f   MachineSetup.obj
 0001:0006b940       ?OnApplyNow@CMachineSetup@@IAEXXZ 0046c940 f   MachineSetup.obj
 0001:0006bb60       ?GetMessageMap@CMachineSetup1@@MBEPBUAFX_MSGMAP@@XZ 0046cb60 f   MachineSetup1.obj
 0001:0006bb60       ?GetMessageMap@CMakeNCSetup8@@MBEPBUAFX_MSGMAP@@XZ 0046cb60 f   MakeNCSetup8.obj
 0001:0006bb60       ?GetMessageMap@CMakeWireSetup2@@MBEPBUAFX_MSGMAP@@XZ 0046cb60 f   MakeWireSetup2.obj
 0001:0006bb60       ?GetMessageMap@CMachineSetup2@@MBEPBUAFX_MSGMAP@@XZ 0046cb60 f   MachineSetup2.obj
 0001:0006bb60       ?GetMessageMap@CMakeLatheSetup5@@MBEPBUAFX_MSGMAP@@XZ 0046cb60 f   MakeLatheSetup5.obj
 0001:0006bb70       ??_GCMachineSetup1@@UAEPAXI@Z 0046cb70 f i MachineSetup1.obj
 0001:0006bb70       ??_ECMachineSetup1@@UAEPAXI@Z 0046cb70 f i * CIL library *:* CIL module *
 0001:0006bbb0       ?DoDataExchange@CMachineSetup1@@MAEXPAVCDataExchange@@@Z 0046cbb0 f   MachineSetup1.obj
 0001:0006bc60       ?OnInitDialog@CMachineSetup1@@MAEHXZ 0046cc60 f   MachineSetup1.obj
 0001:0006bd30       ?OnApply@CMachineSetup1@@UAEHXZ 0046cd30 f   MachineSetup1.obj
 0001:0006c030       ?OnKillActive@CMachineSetup1@@UAEHXZ 0046d030 f   MachineSetup1.obj
 0001:0006c270       ??_ECMachineSetup2@@UAEPAXI@Z 0046d270 f i * CIL library *:* CIL module *
 0001:0006c270       ??_GCMachineSetup2@@UAEPAXI@Z 0046d270 f i MachineSetup2.obj
 0001:0006c330       ?DoDataExchange@CMachineSetup2@@MAEXPAVCDataExchange@@@Z 0046d330 f   MachineSetup2.obj
 0001:0006c3a0       ?OnInitDialog@CMachineSetup2@@MAEHXZ 0046d3a0 f   MachineSetup2.obj
 0001:0006c450       ?OnApply@CMachineSetup2@@UAEHXZ 0046d450 f   MachineSetup2.obj
 0001:0006c650       ?GetMessageMap@CMachineSetup3@@MBEPBUAFX_MSGMAP@@XZ 0046d650 f   MachineSetup3.obj
 0001:0006c660       ??_GCMachineSetup3@@UAEPAXI@Z 0046d660 f i MachineSetup3.obj
 0001:0006c660       ??_ECMachineSetup3@@UAEPAXI@Z 0046d660 f i * CIL library *:* CIL module *
 0001:0006c6a0       ?DoDataExchange@CMachineSetup3@@MAEXPAVCDataExchange@@@Z 0046d6a0 f   MachineSetup3.obj
 0001:0006c730       ?SetDetailData@CMachineSetup3@@AAEXPBVCMCTOOLINFO@@@Z 0046d730 f   MachineSetup3.obj
 0001:0006c7d0       ?CheckData@CMachineSetup3@@AAEHXZ 0046d7d0 f   MachineSetup3.obj
 0001:0006c8c0       ?SetHeaderMark@CMachineSetup3@@AAEXH@Z 0046d8c0 f   MachineSetup3.obj
 0001:0006c990       ?OnInitDialog@CMachineSetup3@@MAEHXZ 0046d990 f   MachineSetup3.obj
 0001:0006cca0       ?OnApply@CMachineSetup3@@UAEHXZ 0046dca0 f   MachineSetup3.obj
 0001:0006cd90       ?OnCancel@CMachineSetup3@@UAEXXZ 0046dd90 f   MachineSetup3.obj
 0001:0006cdc0       ?OnItemChangedToolList@CMachineSetup3@@IAEXPAUtagNMHDR@@PAJ@Z 0046ddc0 f   MachineSetup3.obj
 0001:0006cde0       ?OnGetDispInfoToolList@CMachineSetup3@@IAEXPAUtagNMHDR@@PAJ@Z 0046dde0 f   MachineSetup3.obj
 0001:0006cf60       ?OnColumnClickToolList@CMachineSetup3@@IAEXPAUtagNMHDR@@PAJ@Z 0046df60 f   MachineSetup3.obj
 0001:0006cfb0       ?CompareToolListFunc@CMachineSetup3@@KGHJJJ@Z 0046dfb0 f   MachineSetup3.obj
 0001:0006d070       ?OnKeyDownToolList@CMachineSetup3@@IAEXPAUtagNMHDR@@PAJ@Z 0046e070 f   MachineSetup3.obj
 0001:0006d090       ?OnAdd@CMachineSetup3@@IAEXXZ 0046e090 f   MachineSetup3.obj
 0001:0006d3f0       ?OnMod@CMachineSetup3@@IAEXXZ 0046e3f0 f   MachineSetup3.obj
 0001:0006d740       ?OnDel@CMachineSetup3@@IAEXXZ 0046e740 f   MachineSetup3.obj
 0001:0006d7e0       ?GetMessageMap@CMachineSetup4@@MBEPBUAFX_MSGMAP@@XZ 0046e7e0 f   MachineSetup4.obj
 0001:0006d7f0       ??_ECMachineSetup4@@UAEPAXI@Z 0046e7f0 f i * CIL library *:* CIL module *
 0001:0006d7f0       ??_GCMachineSetup4@@UAEPAXI@Z 0046e7f0 f i MachineSetup4.obj
 0001:0006d8b0       ?DoDataExchange@CMachineSetup4@@MAEXPAVCDataExchange@@@Z 0046e8b0 f   MachineSetup4.obj
 0001:0006d900       ?OnFolder@CMachineSetup4@@IAEXXZ 0046e900 f   MachineSetup4.obj
 0001:0006d9d0       ?OnMacroIF@CMachineSetup4@@IAEXXZ 0046e9d0 f   MachineSetup4.obj
 0001:0006dae0       ?OnKillFocusMacroCode@CMachineSetup4@@IAEXXZ 0046eae0 f   MachineSetup4.obj
 0001:0006dc40       ?OnApply@CMachineSetup4@@UAEHXZ 0046ec40 f   MachineSetup4.obj
 0001:0006dcd0       ?OnKillActive@CMachineSetup4@@UAEHXZ 0046ecd0 f   MachineSetup4.obj
 0001:0006dd40       ?GetMessageMap@CMachineSetup5@@MBEPBUAFX_MSGMAP@@XZ 0046ed40 f   MachineSetup5.obj
 0001:0006dd50       ??_GCMachineSetup5@@UAEPAXI@Z 0046ed50 f i MachineSetup5.obj
 0001:0006dd50       ??_ECMachineSetup5@@UAEPAXI@Z 0046ed50 f i * CIL library *:* CIL module *
 0001:0006ddd0       ?DoDataExchange@CMachineSetup5@@MAEXPAVCDataExchange@@@Z 0046edd0 f   MachineSetup5.obj
 0001:0006de80       ?EnableControl_ViewMode@CMachineSetup5@@AAEXXZ 0046ee80 f   MachineSetup5.obj
 0001:0006def0       ?OnInitDialog@CMachineSetup5@@MAEHXZ 0046eef0 f   MachineSetup5.obj
 0001:0006df30       ?OnApply@CMachineSetup5@@UAEHXZ 0046ef30 f   MachineSetup5.obj
 0001:0006e1a0       ?OnSelchangeViewMode@CMachineSetup5@@IAEXXZ 0046f1a0 f   MachineSetup5.obj
 0001:0006e1c0       ?OnAllON@CMachineSetup5@@IAEXXZ 0046f1c0 f   MachineSetup5.obj
 0001:0006e230       ?OnAllOFF@CMachineSetup5@@IAEXXZ 0046f230 f   MachineSetup5.obj
 0001:0006e2a0       ?GetRuntimeClass@CMakeLatheSetup@@UBEPAUCRuntimeClass@@XZ 0046f2a0 f   MakeLatheSetup.obj
 0001:0006e2b0       ?GetMessageMap@CMakeLatheSetup@@MBEPBUAFX_MSGMAP@@XZ 0046f2b0 f   MakeLatheSetup.obj
 0001:0006e2c0       ??0CMakeLatheSetup@@QAE@PBD0@Z 0046f2c0 f   MakeLatheSetup.obj
 0001:0006eb70       ??_GCMakeLatheSetup@@UAEPAXI@Z 0046fb70 f i MakeLatheSetup.obj
 0001:0006eb70       ??_ECMakeLatheSetup@@UAEPAXI@Z 0046fb70 f i * CIL library *:* CIL module *
 0001:0006ebb0       ??1CMakeLatheSetup0@@UAE@XZ 0046fbb0 f i MakeLatheSetup.obj
 0001:0006ec20       ??1CMakeLatheSetup4@@UAE@XZ 0046fc20 f i MakeLatheSetup.obj
 0001:0006eca0       ??1CMakeLatheSetup2@@UAE@XZ 0046fca0 f i MakeLatheSetup.obj
 0001:0006ed50       ??1CMakeLatheSetup1@@UAE@XZ 0046fd50 f i MakeLatheSetup.obj
 0001:0006ed50       ??1CMakeLatheSetup3@@UAE@XZ 0046fd50 f i MakeLatheSetup.obj
 0001:0006ede0       ??1CMakeLatheSetup5@@UAE@XZ 0046fde0 f i MakeLatheSetup.obj
 0001:0006ee60       ??1CMakeLatheSetup@@UAE@XZ 0046fe60 f   MakeLatheSetup.obj
 0001:0006eee0       ?OnDestroy@CMakeLatheSetup@@IAEXXZ 0046fee0 f   MakeLatheSetup.obj
 0001:0006ef00       ?OnApplyNow@CMakeLatheSetup@@IAEXXZ 0046ff00 f   MakeLatheSetup.obj
 0001:0006f110       ?GetMessageMap@CMakeLatheSetup0@@MBEPBUAFX_MSGMAP@@XZ 00470110 f   MakeLatheSetup0.obj
 0001:0006f120       ??_GCMakeLatheSetup0@@UAEPAXI@Z 00470120 f i MakeLatheSetup0.obj
 0001:0006f120       ??_ECMakeLatheSetup0@@UAEPAXI@Z 00470120 f i * CIL library *:* CIL module *
 0001:0006f160       ?DoDataExchange@CMakeLatheSetup0@@MAEXPAVCDataExchange@@@Z 00470160 f   MakeLatheSetup0.obj
 0001:0006f1e0       ?OnInitDialog@CMakeLatheSetup0@@MAEHXZ 004701e0 f   MakeLatheSetup0.obj
 0001:0006f2c0       ?OnApply@CMakeLatheSetup0@@MAEHXZ 004702c0 f   MakeLatheSetup0.obj
 0001:0006f3f0       ?OnKillActive@CMakeLatheSetup0@@MAEHXZ 004703f0 f   MakeLatheSetup0.obj
 0001:0006f5e0       ?OnHeaderLoopup@CMakeLatheSetup0@@IAEXXZ 004705e0 f   MakeLatheSetup0.obj
 0001:0006f6f0       ?OnFooterLoopup@CMakeLatheSetup0@@IAEXXZ 004706f0 f   MakeLatheSetup0.obj
 0001:0006f800       ?OnHeaderEdit@CMakeLatheSetup0@@IAEXXZ 00470800 f   MakeLatheSetup0.obj
 0001:0006f990       ?OnFooterEdit@CMakeLatheSetup0@@IAEXXZ 00470990 f   MakeLatheSetup0.obj
 0001:0006fb20       ?GetMessageMap@CMakeLatheSetup1@@MBEPBUAFX_MSGMAP@@XZ 00470b20 f   MakeLatheSetup1.obj
 0001:0006fb30       ??_ECMakeLatheSetup3@@UAEPAXI@Z 00470b30 f i * CIL library *:* CIL module *
 0001:0006fb30       ??_GCMakeLatheSetup3@@UAEPAXI@Z 00470b30 f i MakeLatheSetup3.obj
 0001:0006fb30       ??_ECMakeLatheSetup1@@UAEPAXI@Z 00470b30 f i * CIL library *:* CIL module *
 0001:0006fb30       ??_GCMakeLatheSetup1@@UAEPAXI@Z 00470b30 f i MakeLatheSetup1.obj
 0001:0006fb70       ?DoDataExchange@CMakeLatheSetup1@@MAEXPAVCDataExchange@@@Z 00470b70 f   MakeLatheSetup1.obj
 0001:0006fb70       ?DoDataExchange@CMakeLatheSetup3@@MAEXPAVCDataExchange@@@Z 00470b70 f   MakeLatheSetup3.obj
 0001:0006fc10       ?OnInitDialog@CMakeLatheSetup1@@MAEHXZ 00470c10 f   MakeLatheSetup1.obj
 0001:0006fd10       ?OnApply@CMakeLatheSetup1@@MAEHXZ 00470d10 f   MakeLatheSetup1.obj
 0001:00070000       ?OnKillActive@CMakeLatheSetup1@@MAEHXZ 00471000 f   MakeLatheSetup1.obj
 0001:00070000       ?OnKillActive@CMakeLatheSetup3@@MAEHXZ 00471000 f   MakeLatheSetup3.obj
 0001:000704d0       ?OnCopyFromIn@CMakeLatheSetup1@@IAEXXZ 004714d0 f   MakeLatheSetup1.obj
 0001:000708c0       ?GetMessageMap@CMakeLatheSetup2@@MBEPBUAFX_MSGMAP@@XZ 004718c0 f   MakeLatheSetup2.obj
 0001:000708d0       ??_ECMakeLatheSetup2@@UAEPAXI@Z 004718d0 f i * CIL library *:* CIL module *
 0001:000708d0       ??_GCMakeLatheSetup2@@UAEPAXI@Z 004718d0 f i MakeLatheSetup2.obj
 0001:00070910       ?DoDataExchange@CMakeLatheSetup2@@MAEXPAVCDataExchange@@@Z 00471910 f   MakeLatheSetup2.obj
 0001:000709f0       ?OnInitDialog@CMakeLatheSetup2@@MAEHXZ 004719f0 f   MakeLatheSetup2.obj
 0001:00070b50       ?OnApply@CMakeLatheSetup2@@MAEHXZ 00471b50 f   MakeLatheSetup2.obj
 0001:00070df0       ?OnKillActive@CMakeLatheSetup2@@MAEHXZ 00471df0 f   MakeLatheSetup2.obj
 0001:00071190       ?OnCycle@CMakeLatheSetup2@@IAEXXZ 00472190 f   MakeLatheSetup2.obj
 0001:000711d0       ?GetMessageMap@CMakeLatheSetup3@@MBEPBUAFX_MSGMAP@@XZ 004721d0 f   MakeLatheSetup3.obj
 0001:000711e0       ?OnInitDialog@CMakeLatheSetup3@@MAEHXZ 004721e0 f   MakeLatheSetup3.obj
 0001:000712e0       ?OnApply@CMakeLatheSetup3@@MAEHXZ 004722e0 f   MakeLatheSetup3.obj
 0001:000715d0       ?OnCopyFromOut@CMakeLatheSetup3@@IAEXXZ 004725d0 f   MakeLatheSetup3.obj
 0001:000719c0       ?GetMessageMap@CMakeLatheSetup4@@MBEPBUAFX_MSGMAP@@XZ 004729c0 f   MakeLatheSetup4.obj
 0001:000719d0       ??_GCMakeLatheSetup4@@UAEPAXI@Z 004729d0 f i MakeLatheSetup4.obj
 0001:000719d0       ??_ECMakeLatheSetup4@@UAEPAXI@Z 004729d0 f i * CIL library *:* CIL module *
 0001:00071a10       ?DoDataExchange@CMakeLatheSetup4@@MAEXPAVCDataExchange@@@Z 00472a10 f   MakeLatheSetup4.obj
 0001:00071ac0       ?EnableControl@CMakeLatheSetup4@@AAEXXZ 00472ac0 f   MakeLatheSetup4.obj
 0001:00071b30       ?OnInitDialog@CMakeLatheSetup4@@MAEHXZ 00472b30 f   MakeLatheSetup4.obj
 0001:00071c10       ?OnApply@CMakeLatheSetup4@@MAEHXZ 00472c10 f   MakeLatheSetup4.obj
 0001:00071e50       ?OnKillActive@CMakeLatheSetup4@@MAEHXZ 00472e50 f   MakeLatheSetup4.obj
 0001:000721f0       ?OnCheck@CMakeLatheSetup4@@IAEXXZ 004731f0 f   MakeLatheSetup4.obj
 0001:00072210       ??_GCMakeLatheSetup5@@UAEPAXI@Z 00473210 f i MakeLatheSetup5.obj
 0001:00072210       ??_ECMakeLatheSetup5@@UAEPAXI@Z 00473210 f i * CIL library *:* CIL module *
 0001:00072250       ?DoDataExchange@CMakeLatheSetup5@@MAEXPAVCDataExchange@@@Z 00473250 f   MakeLatheSetup5.obj
 0001:000722f0       ?OnInitDialog@CMakeLatheSetup5@@MAEHXZ 004732f0 f   MakeLatheSetup5.obj
 0001:000723d0       ?OnApply@CMakeLatheSetup5@@MAEHXZ 004733d0 f   MakeLatheSetup5.obj
 0001:00072620       ?OnKillActive@CMakeLatheSetup5@@MAEHXZ 00473620 f   MakeLatheSetup5.obj
 0001:00072860       ?GetRuntimeClass@CMakeNCSetup@@UBEPAUCRuntimeClass@@XZ 00473860 f   MakeNCSetup.obj
 0001:00072870       ?GetMessageMap@CMakeNCSetup@@MBEPBUAFX_MSGMAP@@XZ 00473870 f   MakeNCSetup.obj
 0001:00072880       ??0CMakeNCSetup@@QAE@PBD0@Z 00473880 f   MakeNCSetup.obj
 0001:00072be0       ??_GCMakeNCSetup@@UAEPAXI@Z 00473be0 f i MakeNCSetup.obj
 0001:00072be0       ??_ECMakeNCSetup@@UAEPAXI@Z 00473be0 f i * CIL library *:* CIL module *
 0001:00072c20       ??1CMakeNCSetup3@@UAE@XZ   00473c20 f i MakeNCSetup.obj
 0001:00072cf0       ??1CMakeNCSetup4@@UAE@XZ   00473cf0 f i MakeNCSetup.obj
 0001:00072da0       ??1CMakeNCSetup5@@UAE@XZ   00473da0 f i MakeNCSetup.obj
 0001:00072e10       ??1CMakeNCSetup8@@UAE@XZ   00473e10 f i MakeNCSetup.obj
 0001:00072e40       ??1CMakeNCSetup@@UAE@XZ    00473e40 f   MakeNCSetup.obj
 0001:00072ed0       ?OnDestroy@CMakeNCSetup@@IAEXXZ 00473ed0 f   MakeNCSetup.obj
 0001:00072ef0       ?GetMessageMap@CMakeNCSetup1@@MBEPBUAFX_MSGMAP@@XZ 00473ef0 f   MakeNCSetup1.obj
 0001:00072f00       ??0CMakeNCSetup1@@QAE@XZ   00473f00 f   MakeNCSetup1.obj
 0001:00073100       ??_ECMakeNCSetup1@@UAEPAXI@Z 00474100 f i * CIL library *:* CIL module *
 0001:00073100       ??_GCMakeNCSetup1@@UAEPAXI@Z 00474100 f i MakeNCSetup1.obj
 0001:00073140       ?DoDataExchange@CMakeNCSetup1@@MAEXPAVCDataExchange@@@Z 00474140 f   MakeNCSetup1.obj
 0001:00073270       ?OnInitDialog@CMakeNCSetup1@@MAEHXZ 00474270 f   MakeNCSetup1.obj
 0001:00073430       ?OnHeaderLoopup@CMakeNCSetup1@@IAEXXZ 00474430 f   MakeNCSetup1.obj
 0001:00073540       ?OnFooterLoopup@CMakeNCSetup1@@IAEXXZ 00474540 f   MakeNCSetup1.obj
 0001:00073650       ?OnHeaderEdit@CMakeNCSetup1@@IAEXXZ 00474650 f   MakeNCSetup1.obj
 0001:000737e0       ?OnFooterEdit@CMakeNCSetup1@@IAEXXZ 004747e0 f   MakeNCSetup1.obj
 0001:00073970       ?OnApply@CMakeNCSetup1@@UAEHXZ 00474970 f   MakeNCSetup1.obj
 0001:00073fa0       ?OnKillActive@CMakeNCSetup1@@UAEHXZ 00474fa0 f   MakeNCSetup1.obj
 0001:000743d0       ?GetMessageMap@CMakeNCSetup2@@MBEPBUAFX_MSGMAP@@XZ 004753d0 f   MakeNCSetup2.obj
 0001:000743e0       ??0CMakeNCSetup2@@QAE@XZ   004753e0 f   MakeNCSetup2.obj
 0001:00074560       ??_GCMakeNCSetup2@@UAEPAXI@Z 00475560 f i MakeNCSetup2.obj
 0001:00074560       ??_ECMakeNCSetup2@@UAEPAXI@Z 00475560 f i * CIL library *:* CIL module *
 0001:000745a0       ?DoDataExchange@CMakeNCSetup2@@MAEXPAVCDataExchange@@@Z 004755a0 f   MakeNCSetup2.obj
 0001:000746d0       ?OnInitDialog@CMakeNCSetup2@@MAEHXZ 004756d0 f   MakeNCSetup2.obj
 0001:00074950       ?OnProgNo@CMakeNCSetup2@@IAEXXZ 00475950 f   MakeNCSetup2.obj
 0001:000749a0       ?OnLineAdd@CMakeNCSetup2@@IAEXXZ 004759a0 f   MakeNCSetup2.obj
 0001:000749e0       ?OnApply@CMakeNCSetup2@@UAEHXZ 004759e0 f   MakeNCSetup2.obj
 0001:00074ca0       ?OnKillActive@CMakeNCSetup2@@UAEHXZ 00475ca0 f   MakeNCSetup2.obj
 0001:00074db0       ?GetMessageMap@CMakeNCSetup3@@MBEPBUAFX_MSGMAP@@XZ 00475db0 f   MakeNCSetup3.obj
 0001:00074dc0       ??0CMakeNCSetup3@@QAE@XZ   00475dc0 f   MakeNCSetup3.obj
 0001:00075000       ??_ECMakeNCSetup3@@UAEPAXI@Z 00476000 f i * CIL library *:* CIL module *
 0001:00075000       ??_GCMakeNCSetup3@@UAEPAXI@Z 00476000 f i MakeNCSetup3.obj
 0001:00075040       ?DoDataExchange@CMakeNCSetup3@@MAEXPAVCDataExchange@@@Z 00476040 f   MakeNCSetup3.obj
 0001:000751a0       ?EnableControl_Deep@CMakeNCSetup3@@AAEXXZ 004761a0 f   MakeNCSetup3.obj
 0001:00075260       ?OnInitDialog@CMakeNCSetup3@@MAEHXZ 00476260 f   MakeNCSetup3.obj
 0001:000754c0       ?OnSelchangeMakeEnd@CMakeNCSetup3@@IAEXXZ 004764c0 f   MakeNCSetup3.obj
 0001:00075520       ?OnSelchangeProcess@CMakeNCSetup3@@IAEXXZ 00476520 f   MakeNCSetup3.obj
 0001:00075570       ?OnDeep@CMakeNCSetup3@@IAEXXZ 00476570 f   MakeNCSetup3.obj
 0001:00075590       ?OnDeepFinish@CMakeNCSetup3@@IAEXXZ 00476590 f   MakeNCSetup3.obj
 0001:000755e0       ?OnSetActive@CMakeNCSetup3@@UAEHXZ 004765e0 f   MakeNCSetup3.obj
 0001:00075720       ?OnApply@CMakeNCSetup3@@UAEHXZ 00476720 f   MakeNCSetup3.obj
 0001:00075c40       ?OnKillActive@CMakeNCSetup3@@UAEHXZ 00476c40 f   MakeNCSetup3.obj
 0001:00076030       ?GetMessageMap@CMakeNCSetup4@@MBEPBUAFX_MSGMAP@@XZ 00477030 f   MakeNCSetup4.obj
 0001:00076040       ??0CMakeNCSetup4@@QAE@XZ   00477040 f   MakeNCSetup4.obj
 0001:00076250       ??_ECMakeNCSetup4@@UAEPAXI@Z 00477250 f i * CIL library *:* CIL module *
 0001:00076250       ??_GCMakeNCSetup4@@UAEPAXI@Z 00477250 f i MakeNCSetup4.obj
 0001:00076290       ?DoDataExchange@CMakeNCSetup4@@MAEXPAVCDataExchange@@@Z 00477290 f   MakeNCSetup4.obj
 0001:000763e0       ?OnInitDialog@CMakeNCSetup4@@MAEHXZ 004773e0 f   MakeNCSetup4.obj
 0001:000765a0       ?OnSelchangeDwellFormat@CMakeNCSetup4@@IAEXXZ 004775a0 f   MakeNCSetup4.obj
 0001:00076600       ?OnSelchangeZProcess@CMakeNCSetup4@@IAEXXZ 00477600 f   MakeNCSetup4.obj
 0001:00076630       ?OnCircle@CMakeNCSetup4@@IAEXXZ 00477630 f   MakeNCSetup4.obj
 0001:00076680       ?OnApply@CMakeNCSetup4@@UAEHXZ 00477680 f   MakeNCSetup4.obj
 0001:00076940       ?OnKillActive@CMakeNCSetup4@@UAEHXZ 00477940 f   MakeNCSetup4.obj
 0001:00076d10       ?GetMessageMap@CMakeNCSetup5@@MBEPBUAFX_MSGMAP@@XZ 00477d10 f   MakeNCSetup5.obj
 0001:00076d20       ??_ECMakeNCSetup5@@UAEPAXI@Z 00477d20 f i * CIL library *:* CIL module *
 0001:00076d20       ??_GCMakeNCSetup5@@UAEPAXI@Z 00477d20 f i MakeNCSetup5.obj
 0001:00076d60       ?DoDataExchange@CMakeNCSetup5@@MAEXPAVCDataExchange@@@Z 00477d60 f   MakeNCSetup5.obj
 0001:00076e00       ?OnInitDialog@CMakeNCSetup5@@MAEHXZ 00477e00 f   MakeNCSetup5.obj
 0001:00076f00       ?OnSelchangeDrill@CMakeNCSetup5@@IAEXXZ 00477f00 f   MakeNCSetup5.obj
 0001:00076f30       ?OnScriptLookup@CMakeNCSetup5@@IAEXXZ 00477f30 f   MakeNCSetup5.obj
 0001:00077040       ?OnApply@CMakeNCSetup5@@UAEHXZ 00478040 f   MakeNCSetup5.obj
 0001:00077270       ?OnKillActive@CMakeNCSetup5@@UAEHXZ 00478270 f   MakeNCSetup5.obj
 0001:000774d0       ?GetMessageMap@CMakeNCSetup6@@MBEPBUAFX_MSGMAP@@XZ 004784d0 f   MakeNCSetup6.obj
 0001:000774e0       ??0CMakeNCSetup6@@QAE@XZ   004784e0 f   MakeNCSetup6.obj
 0001:00077640       ??_GCMakeNCSetup6@@UAEPAXI@Z 00478640 f i MakeNCSetup6.obj
 0001:00077640       ??_ECMakeNCSetup6@@UAEPAXI@Z 00478640 f i * CIL library *:* CIL module *
 0001:00077680       ?DoDataExchange@CMakeNCSetup6@@MAEXPAVCDataExchange@@@Z 00478680 f   MakeNCSetup6.obj
 0001:00077780       ?OnInitDialog@CMakeNCSetup6@@MAEHXZ 00478780 f   MakeNCSetup6.obj
 0001:00077970       ?OnCircleR@CMakeNCSetup6@@IAEXXZ 00478970 f   MakeNCSetup6.obj
 0001:000779a0       ?OnCircleIJ@CMakeNCSetup6@@IAEXXZ 004789a0 f   MakeNCSetup6.obj
 0001:000779d0       ?OnApply@CMakeNCSetup6@@UAEHXZ 004789d0 f   MakeNCSetup6.obj
 0001:00077cb0       ?OnKillActive@CMakeNCSetup6@@UAEHXZ 00478cb0 f   MakeNCSetup6.obj
 0001:00077db0       ??_GCMakeNCSetup8@@UAEPAXI@Z 00478db0 f i MakeNCSetup8.obj
 0001:00077db0       ??_ECMakeNCSetup8@@UAEPAXI@Z 00478db0 f i * CIL library *:* CIL module *
 0001:00077e10       ?DoDataExchange@CMakeNCSetup8@@MAEXPAVCDataExchange@@@Z 00478e10 f   MakeNCSetup8.obj
 0001:00077e80       ?OnInitDialog@CMakeNCSetup8@@MAEHXZ 00478e80 f   MakeNCSetup8.obj
 0001:00077f10       ?OnApply@CMakeNCSetup8@@UAEHXZ 00478f10 f   MakeNCSetup8.obj
 0001:00077f90       ?GetRuntimeClass@CMakeWireSetup@@UBEPAUCRuntimeClass@@XZ 00478f90 f   MakeWireSetup.obj
 0001:00077fa0       ?GetMessageMap@CMakeWireSetup@@MBEPBUAFX_MSGMAP@@XZ 00478fa0 f   MakeWireSetup.obj
 0001:00077fb0       ??0CMakeWireSetup@@QAE@PBD0@Z 00478fb0 f   MakeWireSetup.obj
 0001:000781d0       ??_ECMakeWireSetup@@UAEPAXI@Z 004791d0 f i * CIL library *:* CIL module *
 0001:000781d0       ??_GCMakeWireSetup@@UAEPAXI@Z 004791d0 f i MakeWireSetup.obj
 0001:00078210       ??1CMakeWireSetup1@@UAE@XZ 00479210 f i MakeWireSetup.obj
 0001:000782d0       ??1CMakeWireSetup2@@UAE@XZ 004792d0 f i MakeWireSetup.obj
 0001:00078320       ??1CMakeWireSetup@@UAE@XZ  00479320 f   MakeWireSetup.obj
 0001:000783b0       ?OnDestroy@CMakeWireSetup@@IAEXXZ 004793b0 f   MakeWireSetup.obj
 0001:000783d0       ?OnApplyNow@CMakeWireSetup@@IAEXXZ 004793d0 f   MakeWireSetup.obj
 0001:000785e0       ?GetMessageMap@CMakeWireSetup1@@MBEPBUAFX_MSGMAP@@XZ 004795e0 f   MakeWireSetup1.obj
 0001:000785f0       ??0CMakeWireSetup1@@QAE@XZ 004795f0 f   MakeWireSetup1.obj
 0001:000787a0       ??_ECMakeWireSetup1@@UAEPAXI@Z 004797a0 f i * CIL library *:* CIL module *
 0001:000787a0       ??_GCMakeWireSetup1@@UAEPAXI@Z 004797a0 f i MakeWireSetup1.obj
 0001:000787e0       ?DoDataExchange@CMakeWireSetup1@@MAEXPAVCDataExchange@@@Z 004797e0 f   MakeWireSetup1.obj
 0001:000788b0       ?OnInitDialog@CMakeWireSetup1@@MAEHXZ 004798b0 f   MakeWireSetup1.obj
 0001:00078a10       ?OnHeaderLoopup@CMakeWireSetup1@@IAEXXZ 00479a10 f   MakeWireSetup1.obj
 0001:00078b20       ?OnFooterLoopup@CMakeWireSetup1@@IAEXXZ 00479b20 f   MakeWireSetup1.obj
 0001:00078c30       ?OnHeaderEdit@CMakeWireSetup1@@IAEXXZ 00479c30 f   MakeWireSetup1.obj
 0001:00078dc0       ?OnFooterEdit@CMakeWireSetup1@@IAEXXZ 00479dc0 f   MakeWireSetup1.obj
 0001:00078f50       ?OnApply@CMakeWireSetup1@@MAEHXZ 00479f50 f   MakeWireSetup1.obj
 0001:00079220       ?OnKillActive@CMakeWireSetup1@@MAEHXZ 0047a220 f   MakeWireSetup1.obj
 0001:00079610       ??_ECMakeWireSetup2@@UAEPAXI@Z 0047a610 f i * CIL library *:* CIL module *
 0001:00079610       ??_GCMakeWireSetup2@@UAEPAXI@Z 0047a610 f i MakeWireSetup2.obj
 0001:00079690       ?DoDataExchange@CMakeWireSetup2@@MAEXPAVCDataExchange@@@Z 0047a690 f   MakeWireSetup2.obj
 0001:00079710       ?OnInitDialog@CMakeWireSetup2@@MAEHXZ 0047a710 f   MakeWireSetup2.obj
 0001:000797c0       ?OnApply@CMakeWireSetup2@@MAEHXZ 0047a7c0 f   MakeWireSetup2.obj
 0001:00079900       ?OnKillActive@CMakeWireSetup2@@MAEHXZ 0047a900 f   MakeWireSetup2.obj
 0001:00079a50       ?CreateObject@CNCChild@@SGPAVCObject@@XZ 0047aa50 f   NCChild.obj
 0001:00079ba0       ?GetRuntimeClass@CNCChild@@UBEPAUCRuntimeClass@@XZ 0047aba0 f   NCChild.obj
 0001:00079bb0       ?GetMessageMap@CNCChild@@MBEPBUAFX_MSGMAP@@XZ 0047abb0 f   NCChild.obj
 0001:00079bc0       ?GetMessageMap@CNCFrameSplit@@MBEPBUAFX_MSGMAP@@XZ 0047abc0 f   NCChild.obj
 0001:00079bd0       ??_GCNCChild@@UAEPAXI@Z    0047abd0 f i NCChild.obj
 0001:00079bd0       ??_ECNCChild@@UAEPAXI@Z    0047abd0 f i * CIL library *:* CIL module *
 0001:00079c40       ?OnCreateClient@CNCChild@@MAEHPAUtagCREATESTRUCTA@@PAUCCreateContext@@@Z 0047ac40 f   NCChild.obj
 0001:00079d20       ?OnCmdMsg@CNCChild@@UAEHIHPAXPAUAFX_CMDHANDLERINFO@@@Z 0047ad20 f   NCChild.obj
 0001:00079e20       ?SetFactorInfo@CNCChild@@QAEXMABV?$CStringT@DV?$StrTraitMFC_DLL@DV?$ChTraitsCRT@D@ATL@@@@@ATL@@H@Z 0047ae20 f   NCChild.obj
 0001:00079ee0       ?OnCreate@CNCChild@@IAEHPAUtagCREATESTRUCTA@@@Z 0047aee0 f   NCChild.obj
 0001:00079f50       ?OnSize@CNCChild@@IAEXIHH@Z 0047af50 f   NCChild.obj
 0001:00079fe0       ?OnMDIActivate@CNCChild@@IAEXHPAVCWnd@@0@Z 0047afe0 f   NCChild.obj
 0001:0007a060       ?OnUpdateStatusLineNo@CNCChild@@IAEJIJ@Z 0047b060 f   NCChild.obj
 0001:0007a330       ?OnUserInitialUpdate@CNCFrameSplit@@IAEJIJ@Z 0047b330 f   NCChild.obj
 0001:0007a4f0       ?OnDestroy@CNCFrameSplit@@IAEXXZ 0047b4f0 f   NCChild.obj
 0001:0007a5e0       ?OnLButtonDblClk@CNCFrameSplit@@IAEXIVCPoint@@@Z 0047b5e0 f   NCChild.obj
 0001:0007a630       ??0CNCline@@IAE@W4ENNCDTYPE@@PBVCNCdata@@PAUtagNCARGV@@ABV?$CPoint3T@M@@@Z 0047b630 f i NCdata.obj
 0001:0007a710       ??_GCNCline@@UAEPAXI@Z     0047b710 f i NCdata.obj
 0001:0007a710       ??_ECNCline@@UAEPAXI@Z     0047b710 f i * CIL library *:* CIL module *
 0001:0007a740       ??1CNCline@@UAE@XZ         0047b740 f i NCdata.obj
 0001:0007a750       ?Constracter@CNCdata@@AAEXPAUtagNCARGV@@@Z 0047b750 f i NCdata.obj
 0001:0007a950       ??_ECNCread@@UAEPAXI@Z     0047b950 f i * CIL library *:* CIL module *
 0001:0007a950       ??_GCNCread@@UAEPAXI@Z     0047b950 f i NCdata.obj
 0001:0007a9a0       ?GetMaxRect@CNCdata@@UBE?AV?$CRect3T@M@@XZ 0047b9a0 f i NCdata.obj
 0001:0007a9a0       ?GetMaxCutRect@CNCdata@@UBE?AV?$CRect3T@M@@XZ 0047b9a0 f i NCdata.obj
 0001:0007a9d0       ?CalcRoundPoint@CNCdata@@UBE?AV?$tuple@HV?$CPointT@M@@MMUnull_type@tuples@boost@@U234@U234@U234@U234@U234@@tuples@boost@@PBV1@M@Z 0047b9d0 f i NCdata.obj
 0001:0007a9d0       ?CalcRoundPoint@CNCcycle@@UBE?AV?$tuple@HV?$CPointT@M@@MMUnull_type@tuples@boost@@U234@U234@U234@U234@U234@@tuples@boost@@PBVCNCdata@@M@Z 0047b9d0 f i NCdata.obj
 0001:0007aa10       ?SetChamferingPoint@CNCcycle@@UAE?AV?$optional@V?$CPointT@M@@@boost@@HM@Z 0047ba10 f i NCdata.obj
 0001:0007aa10       ?SetChamferingPoint@CNCdata@@UAE?AV?$optional@V?$CPointT@M@@@boost@@HM@Z 0047ba10 f i NCdata.obj
 0001:0007aa20       ?CalcBetweenAngle@CNCcycle@@UBEMPBVCNCdata@@@Z 0047ba20 f i NCdata.obj
 0001:0007aa20       ?CalcBetweenAngle@CNCdata@@UBEMPBV1@@Z 0047ba20 f i NCdata.obj
 0001:0007aa30       ?CalcOffsetIntersectionPoint@CNCcycle@@UBE?AV?$optional@V?$CPointT@M@@@boost@@PBVCNCdata@@MMH@Z 0047ba30 f i NCdata.obj
 0001:0007aa30       ?CalcOffsetIntersectionPoint@CNCdata@@UBE?AV?$optional@V?$CPointT@M@@@boost@@PBV1@MMH@Z 0047ba30 f i NCdata.obj
 0001:0007aa40       ?SetCalcLength@CNCdata@@UAEMXZ 0047ba40 f i NCdata.obj
 0001:0007aa70       ?GetMaxRect@CNCline@@UBE?AV?$CRect3T@M@@XZ 0047ba70 f i NCdata.obj
 0001:0007ab60       ?GetMaxCutRect@CNCline@@UBE?AV?$CRect3T@M@@XZ 0047bb60 f i NCdata.obj
 0001:0007abd0       ?GetDrawStartPoint@CNCline@@UBE?AVCPoint@@I@Z 0047bbd0 f i NCdata.obj
 0001:0007abf0       ?GetDrawEndPoint@CNCline@@UBE?AVCPoint@@I@Z 0047bbf0 f i NCdata.obj
 0001:0007ac10       ?DrawTuning@PTCYCLE@@QAEXM@Z 0047bc10 f i NCdata.obj
 0001:0007ad70       ?GetMaxRect@CNCcycle@@UBE?AV?$CRect3T@M@@XZ 0047bd70 f i NCdata.obj
 0001:0007ae80       ?GetMaxCutRect@CNCcycle@@UBE?AV?$CRect3T@M@@XZ 0047be80 f i NCdata.obj
 0001:0007afb0       ?SetCalcLength@CNCcycle@@UAEMXZ 0047bfb0 f i NCdata.obj
 0001:0007afc0       ?GetMaxCutRect@CNCcircle@@UBE?AV?$CRect3T@M@@XZ 0047bfc0 f i NCdata.obj
 0001:0007afd0       ??0CNCdata@@QAE@PAUtagNCARGV@@@Z 0047bfd0 f   NCdata.obj
 0001:0007b230       ??_ECNCdata@@UAEPAXI@Z     0047c230 f i * CIL library *:* CIL module *
 0001:0007b230       ??_GCNCdata@@UAEPAXI@Z     0047c230 f i NCdata.obj
 0001:0007b260       ??0CNCdata@@QAE@PBV0@PAUtagNCARGV@@ABV?$CPoint3T@M@@@Z 0047c260 f   NCdata.obj
 0001:0007b690       ??0CNCdata@@IAE@W4ENNCDTYPE@@PBV0@PAUtagNCARGV@@ABV?$CPoint3T@M@@@Z 0047c690 f   NCdata.obj
 0001:0007b860       ??0CNCdata@@IAE@PBV0@@Z    0047c860 f   NCdata.obj
 0001:0007bb50       ??1CNCdata@@UAE@XZ         0047cb50 f   NCdata.obj
 0001:0007bc00       ?DeleteReadData@CNCdata@@QAEXXZ 0047cc00 f   NCdata.obj
 0001:0007bc60       ?GetPlaneValueOrg@CNCdata@@QBE?AV?$CPointT@M@@ABV?$CPoint3T@M@@0@Z 0047cc60 f   NCdata.obj
 0001:0007bdb0       ?CalcG68Round@CNCdata@@IBEXPAUtagG68ROUND@@AAV?$CPoint3T@M@@@Z 0047cdb0 f   NCdata.obj
 0001:0007bed0       ?NC_CopyObject@CNCdata@@QAEPAV1@XZ 0047ced0 f   NCdata.obj
 0001:0007c0c0       ?DrawTuning@CNCdata@@UAEXM@Z 0047d0c0 f   NCdata.obj
 0001:0007c130       ?DrawTuningXY@CNCdata@@UAEXM@Z 0047d130 f   NCdata.obj
 0001:0007c1a0       ?DrawTuningXZ@CNCdata@@UAEXM@Z 0047d1a0 f   NCdata.obj
 0001:0007c210       ?DrawTuningYZ@CNCdata@@UAEXM@Z 0047d210 f   NCdata.obj
 0001:0007c280       ?Draw@CNCdata@@UBEXPAVCDC@@H@Z 0047d280 f   NCdata.obj
 0001:0007c2d0       ?DrawXY@CNCdata@@UBEXPAVCDC@@H@Z 0047d2d0 f   NCdata.obj
 0001:0007c320       ?DrawXZ@CNCdata@@UBEXPAVCDC@@H@Z 0047d320 f   NCdata.obj
 0001:0007c370       ?DrawYZ@CNCdata@@UBEXPAVCDC@@H@Z 0047d370 f   NCdata.obj
 0001:0007c3c0       ?GetDrawEndPoint@CNCdata@@UBE?AVCPoint@@I@Z 0047d3c0 f   NCdata.obj
 0001:0007c3c0       ?GetDrawStartPoint@CNCdata@@UBE?AVCPoint@@I@Z 0047d3c0 f   NCdata.obj
 0001:0007c3e0       ??0CNCline@@QAE@PBVCNCdata@@PAUtagNCARGV@@ABV?$CPoint3T@M@@@Z 0047d3e0 f   NCdata.obj
 0001:0007c630       ??0CNCline@@QAE@PBVCNCdata@@@Z 0047d630 f   NCdata.obj
 0001:0007c860       ?SetCalcLength@CNCline@@UAEMXZ 0047d860 f   NCdata.obj
 0001:0007ca70       ?DrawTuning@CNCline@@UAEXM@Z 0047da70 f   NCdata.obj
 0001:0007cb10       ?DrawTuningXY@CNCline@@UAEXM@Z 0047db10 f   NCdata.obj
 0001:0007cb90       ?DrawTuningXZ@CNCline@@UAEXM@Z 0047db90 f   NCdata.obj
 0001:0007cc10       ?DrawTuningYZ@CNCline@@UAEXM@Z 0047dc10 f   NCdata.obj
 0001:0007cc90       ?Draw@CNCline@@UBEXPAVCDC@@H@Z 0047dc90 f   NCdata.obj
 0001:0007cce0       ?DrawXY@CNCline@@UBEXPAVCDC@@H@Z 0047dce0 f   NCdata.obj
 0001:0007cd30       ?DrawXZ@CNCline@@UBEXPAVCDC@@H@Z 0047dd30 f   NCdata.obj
 0001:0007cd80       ?DrawYZ@CNCline@@UBEXPAVCDC@@H@Z 0047dd80 f   NCdata.obj
 0001:0007cdd0       ?DrawWire@CNCcircle@@UBEXPAVCDC@@H@Z 0047ddd0 f   NCdata.obj
 0001:0007cdd0       ?DrawWire@CNCline@@UBEXPAVCDC@@H@Z 0047ddd0 f   NCdata.obj
 0001:0007cdf0       ?DrawWireXY@CNCline@@UBEXPAVCDC@@H@Z 0047ddf0 f   NCdata.obj
 0001:0007cdf0       ?DrawWireXY@CNCcircle@@UBEXPAVCDC@@H@Z 0047ddf0 f   NCdata.obj
 0001:0007ce10       ?DrawWireXZ@CNCline@@UBEXPAVCDC@@H@Z 0047de10 f   NCdata.obj
 0001:0007ce10       ?DrawWireXZ@CNCcircle@@UBEXPAVCDC@@H@Z 0047de10 f   NCdata.obj
 0001:0007ce30       ?DrawWireYZ@CNCline@@UBEXPAVCDC@@H@Z 0047de30 f   NCdata.obj
 0001:0007ce30       ?DrawWireYZ@CNCcircle@@UBEXPAVCDC@@H@Z 0047de30 f   NCdata.obj
 0001:0007ce50       ?DrawLine@CNCline@@ABEXW4ENNCDRAWVIEW@@PAVCDC@@H@Z 0047de50 f   NCdata.obj
 0001:0007cf40       ?DrawWireLine@CNCline@@UBEXW4ENNCDRAWVIEW@@PAVCDC@@H@Z 0047df40 f   NCdata.obj
 0001:0007d0c0       ?CalcRoundPoint@CNCline@@UBE?AV?$tuple@HV?$CPointT@M@@MMUnull_type@tuples@boost@@U234@U234@U234@U234@U234@@tuples@boost@@PBVCNCdata@@M@Z 0047e0c0 f   NCdata.obj
 0001:0007d5c0       ?SetChamferingPoint@CNCline@@UAE?AV?$optional@V?$CPointT@M@@@boost@@HM@Z 0047e5c0 f   NCdata.obj
 0001:0007db90       ?CalcBetweenAngle@CNCline@@UBEMPBVCNCdata@@@Z 0047eb90 f   NCdata.obj
 0001:0007dce0       ?CalcOffsetSign@CNCline@@UBEHXZ 0047ece0 f   NCdata.obj
 0001:0007ddc0       ?CalcPerpendicularPoint@CNCline@@UBE?AV?$optional@V?$CPointT@M@@@boost@@W4ENPOINTORDER@@MH@Z 0047edc0 f   NCdata.obj
 0001:0007df10       ?CalcOffsetIntersectionPoint@CNCline@@UBE?AV?$optional@V?$CPointT@M@@@boost@@PBVCNCdata@@MMH@Z 0047ef10 f   NCdata.obj
 0001:0007e0e0       ?CalcOffsetIntersectionPoint2@CNCline@@UBE?AV?$optional@V?$CPointT@M@@@boost@@PBVCNCdata@@MH@Z 0047f0e0 f   NCdata.obj
 0001:0007e2c0       ?SetCorrectPoint@CNCline@@UAEXW4ENPOINTORDER@@ABV?$CPointT@M@@M@Z 0047f2c0 f   NCdata.obj
 0001:0007e3d0       ??0CNCcycle@@QAE@PBVCNCdata@@PAUtagNCARGV@@ABV?$CPoint3T@M@@HW4NCMAKETYPE@@@Z 0047f3d0 f   NCdata.obj
 0001:0007f5a0       ??_GCNCcycle@@UAEPAXI@Z    004805a0 f i NCdata.obj
 0001:0007f5a0       ??_ECNCcycle@@UAEPAXI@Z    004805a0 f i * CIL library *:* CIL module *
 0001:0007f610       ?DrawTuning@CNCcycle@@UAEXM@Z 00480610 f   NCdata.obj
 0001:0007f830       ?DrawTuningXY@CNCcycle@@UAEXM@Z 00480830 f   NCdata.obj
 0001:0007f940       ?DrawTuningXZ@CNCcycle@@UAEXM@Z 00480940 f   NCdata.obj
 0001:0007fa50       ?DrawTuningYZ@CNCcycle@@UAEXM@Z 00480a50 f   NCdata.obj
 0001:0007fb60       ?Draw@CNCcycle@@UBEXPAVCDC@@H@Z 00480b60 f   NCdata.obj
 0001:0007fb80       ?DrawXY@CNCcycle@@UBEXPAVCDC@@H@Z 00480b80 f   NCdata.obj
 0001:0007fbf0       ?DrawXZ@CNCcycle@@UBEXPAVCDC@@H@Z 00480bf0 f   NCdata.obj
 0001:0007fc70       ?DrawYZ@CNCcycle@@UBEXPAVCDC@@H@Z 00480c70 f   NCdata.obj
 0001:0007fce0       ?DrawCyclePlane@CNCcycle@@ABEXW4ENNCDRAWVIEW@@PAVCDC@@H@Z 00480ce0 f   NCdata.obj
 0001:0007fdf0       ?DrawCycle@CNCcycle@@ABEXW4ENNCDRAWVIEW@@PAVCDC@@H@Z 00480df0 f   NCdata.obj
 0001:0007ffd0       ??0CNCcircle@@QAE@PBVCNCdata@@PAUtagNCARGV@@ABV?$CPoint3T@M@@W4NCMAKETYPE@@@Z 00480fd0 f   NCdata.obj
 0001:00080520       ??_ECNCcircle@@UAEPAXI@Z   00481520 f i * CIL library *:* CIL module *
 0001:00080520       ??_GCNCcircle@@UAEPAXI@Z   00481520 f i NCdata.obj
 0001:00080550       ?Constracter@CNCcircle@@AAEXXZ 00481550 f   NCdata.obj
 0001:00080600       ?CalcCenter@CNCcircle@@AAEHABV?$CPointT@M@@0@Z 00481600 f   NCdata.obj
 0001:000808a0       ?SetCenter@CNCcircle@@AAEXABV?$CPointT@M@@@Z 004818a0 f   NCdata.obj
 0001:00080920       ?CalcAngle@CNCcircle@@ABE?AV?$tuple@MMUnull_type@tuples@boost@@U123@U123@U123@U123@U123@U123@U123@@tuples@boost@@HABV?$CPointT@M@@0@Z 00481920 f   NCdata.obj
 0001:00080b30       ?AngleTuning@CNCcircle@@AAEXABV?$CPointT@M@@0@Z 00481b30 f   NCdata.obj
 0001:00080b70       ?SetCalcLength@CNCcircle@@UAEMXZ 00481b70 f   NCdata.obj
 0001:00080c40       ?DrawTuning@CNCcircle@@UAEXM@Z 00481c40 f   NCdata.obj
 0001:00080e90       ?DrawTuningXY@CNCcircle@@UAEXM@Z 00481e90 f   NCdata.obj
 0001:00080fc0       ?DrawTuningXZ@CNCcircle@@UAEXM@Z 00481fc0 f   NCdata.obj
 0001:000810d0       ?DrawTuningYZ@CNCcircle@@UAEXM@Z 004820d0 f   NCdata.obj
 0001:000811e0       ?Draw@CNCcircle@@UBEXPAVCDC@@H@Z 004821e0 f   NCdata.obj
 0001:00081390       ?DrawXY@CNCcircle@@UBEXPAVCDC@@H@Z 00482390 f   NCdata.obj
 0001:000814b0       ?DrawXZ@CNCcircle@@UBEXPAVCDC@@H@Z 004824b0 f   NCdata.obj
 0001:000815d0       ?DrawYZ@CNCcircle@@UBEXPAVCDC@@H@Z 004825d0 f   NCdata.obj
 0001:000816f0       ?DrawWireLine@CNCcircle@@UBEXW4ENNCDRAWVIEW@@PAVCDC@@H@Z 004826f0 f   NCdata.obj
 0001:00081840       ?DrawG17@CNCcircle@@ABEXW4ENNCDRAWVIEW@@PAVCDC@@@Z 00482840 f   NCdata.obj
 0001:00082250       ?DrawG18@CNCcircle@@ABEXW4ENNCDRAWVIEW@@PAVCDC@@@Z 00483250 f   NCdata.obj
 0001:00082c60       ?DrawG19@CNCcircle@@ABEXW4ENNCDRAWVIEW@@PAVCDC@@@Z 00483c60 f   NCdata.obj
 0001:00083680       ?GetMaxRect@CNCcircle@@UBE?AV?$CRect3T@M@@XZ 00484680 f   NCdata.obj
 0001:00083ae0       ?CalcRoundPoint@CNCcircle@@UBE?AV?$tuple@HV?$CPointT@M@@MMUnull_type@tuples@boost@@U234@U234@U234@U234@U234@@tuples@boost@@PBVCNCdata@@M@Z 00484ae0 f   NCdata.obj
 0001:000842c0       ?SetChamferingPoint@CNCcircle@@UAE?AV?$optional@V?$CPointT@M@@@boost@@HM@Z 004852c0 f   NCdata.obj
 0001:00084b50       ?CalcBetweenAngle@CNCcircle@@UBEMPBVCNCdata@@@Z 00485b50 f   NCdata.obj
 0001:00084ce0       ?CalcOffsetSign@CNCcircle@@UBEHXZ 00485ce0 f   NCdata.obj
 0001:00084d00       ?CalcPerpendicularPoint@CNCcircle@@UBE?AV?$optional@V?$CPointT@M@@@boost@@W4ENPOINTORDER@@MH@Z 00485d00 f   NCdata.obj
 0001:00084e40       ?CalcOffsetIntersectionPoint@CNCcircle@@UBE?AV?$optional@V?$CPointT@M@@@boost@@PBVCNCdata@@MMH@Z 00485e40 f   NCdata.obj
 0001:00085290       ?CalcOffsetIntersectionPoint2@CNCcircle@@UBE?AV?$optional@V?$CPointT@M@@@boost@@PBVCNCdata@@MH@Z 00486290 f   NCdata.obj
 0001:000854b0       ?SetCorrectPoint@CNCcircle@@UAEXW4ENPOINTORDER@@ABV?$CPointT@M@@M@Z 004864b0 f   NCdata.obj
 0001:000859a0       ?Draw@CVBtmDraw@@QAEXXZ    004869a0 f   NCdataGL.obj
 0001:00085b80       ?DrawGLWirePass@CNCdata@@UBEXXZ 00486b80 f   NCdataGL.obj
 0001:00085bc0       ?AddGLBottomFaceVertex@CNCdata@@UBEHAAVCVBtmDraw@@H@Z 00486bc0 f   NCdataGL.obj
 0001:00085c20       ?AddGLWireVertex@CNCdata@@UBEHAAV?$vector@MV?$allocator@M@std@@@std@@0AAV?$vector@IV?$allocator@I@std@@@3@AAUWIRELINE@@H@Z 00486c20 f   NCdataGL.obj
 0001:00085d70       ?AddGLWireTexture@CNCcycle@@UBEHIAAMMPAM@Z 00486d70 f   NCdataGL.obj
 0001:00085d70       ?AddGLWireTexture@CNCdata@@UBEHIAAMMPAM@Z 00486d70 f   NCdataGL.obj
 0001:00085d80       ?SetChamfermillOrg@CNCdata@@QBEXABV?$CPoint3T@M@@AAV?$vector@MV?$allocator@M@std@@@std@@@Z 00486d80 f   NCdataGL.obj
 0001:00085de0       ?SetDrillOrg@CNCdata@@QBEXABV?$CPoint3T@M@@AAV?$vector@MV?$allocator@M@std@@@std@@@Z 00486de0 f   NCdataGL.obj
 0001:00085e50       ?AddEndmillSphere@CNCdata@@QBEXABV?$CPoint3T@M@@AAUBOTTOMDRAW@@AAVCVBtmDraw@@@Z 00486e50 f   NCdataGL.obj
 0001:00085fc0       ?DrawGLWirePass@CNCline@@UBEXXZ 00486fc0 f   NCdataGL.obj
 0001:00086080       ?DrawGLLatheDepth@CNCline@@UBEXXZ 00487080 f   NCdataGL.obj
 0001:00086990       ?AddGLBottomFaceVertex@CNCline@@UBEHAAVCVBtmDraw@@H@Z 00487990 f   NCdataGL.obj
 0001:00087210       ??1BOTTOMDRAW@@QAE@XZ      00488210 f i NCdataGL.obj
 0001:00087230       ?AddGLWireVertex@CNCline@@UBEHAAV?$vector@MV?$allocator@M@std@@@std@@0AAV?$vector@IV?$allocator@I@std@@@3@AAUWIRELINE@@H@Z 00488230 f   NCdataGL.obj
 0001:00087550       ?AddGLWireTexture@CNCline@@UBEHIAAMMPAM@Z 00488550 f   NCdataGL.obj
 0001:000875b0       ?DrawGLWirePass@CNCcycle@@UBEXXZ 004885b0 f   NCdataGL.obj
 0001:00087710       ?DrawGLLatheDepth@CNCcycle@@UBEXXZ 00488710 f   NCdataGL.obj
 0001:00087960       ?AddGLBottomFaceVertex@CNCcycle@@UBEHAAVCVBtmDraw@@H@Z 00488960 f   NCdataGL.obj
 0001:00087bb0       ?AddGLWireVertex@CNCcycle@@UBEHAAV?$vector@MV?$allocator@M@std@@@std@@0AAV?$vector@IV?$allocator@I@std@@@3@AAUWIRELINE@@H@Z 00488bb0 f   NCdataGL.obj
 0001:00087bc0       ?DrawGLWirePass@CNCcircle@@UBEXXZ 00488bc0 f   NCdataGL.obj
 0001:00087c50       ?DrawGLLatheDepth@CNCcircle@@UBEXXZ 00488c50 f   NCdataGL.obj
 0001:00087e10       ?DrawGLWirePassCircle@CNCcircle@@ABEXABV?$CPoint3T@M@@0@Z 00488e10 f   NCdataGL.obj
 0001:00087ea0       ?DrawGLWirePassCircle@CNCcircle@@ABEXPAUDRAWGLWIRECIRCLE@@@Z 00488ea0 f   NCdataGL.obj
 0001:000883c0       ?AddGLBottomFaceVertex@CNCcircle@@UBEHAAVCVBtmDraw@@H@Z 004893c0 f   NCdataGL.obj
 0001:00088730       ?SetEndmillXYPath@CNCcircle@@ABEXAAV?$vector@MV?$allocator@M@std@@@std@@@Z 00489730 f   NCdataGL.obj
 0001:00088a90       ?SetEndmillSquare@CNCcircle@@ABEXAAUBOTTOMDRAW@@AAVCVBtmDraw@@@Z 00489a90 f   NCdataGL.obj
 0001:00088ff0       ?SetEndmillBall@CNCcircle@@ABEXAAUBOTTOMDRAW@@AAVCVBtmDraw@@@Z 00489ff0 f   NCdataGL.obj
 0001:000899f0       ?SetEndmillChamferAndDrill@CNCcircle@@ABEXAAUBOTTOMDRAW@@AAVCVBtmDraw@@@Z 0048a9f0 f   NCdataGL.obj
 0001:00089da0       ?SetEndmillSpherePathCircle@CNCcircle@@ABEXMABV?$CPoint3T@M@@AAV?$vector@MV?$allocator@M@std@@@std@@@Z 0048ada0 f   NCdataGL.obj
 0001:00089eb0       ?SetEndmillPathXZ_Sphere@CNCcircle@@ABEXMABV?$CPoint3T@M@@AAV?$vector@MV?$allocator@M@std@@@std@@@Z 0048aeb0 f   NCdataGL.obj
 0001:00089f70       ?SetEndmillPathYZ_Sphere@CNCcircle@@ABEXMABV?$CPoint3T@M@@AAV?$vector@MV?$allocator@M@std@@@std@@@Z 0048af70 f   NCdataGL.obj
 0001:0008a030       ?AddEndmillPipe@CNCcircle@@ABEXIAAUBOTTOMDRAW@@AAVCVBtmDraw@@@Z 0048b030 f   NCdataGL.obj
 0001:0008a260       ?AddEndmillChamferAndDrill@CNCcircle@@ABEXAAUBOTTOMDRAW@@AAVCVBtmDraw@@@Z 0048b260 f   NCdataGL.obj
 0001:0008a3f0       ?AddGLWireVertex@CNCcircle@@UBEHAAV?$vector@MV?$allocator@M@std@@@std@@0AAV?$vector@IV?$allocator@I@std@@@3@AAUWIRELINE@@H@Z 0048b3f0 f   NCdataGL.obj
 0001:0008acb0       ?AddGLWireTexture@CNCcircle@@UBEHIAAMMPAM@Z 0048bcb0 f   NCdataGL.obj
 0001:0008ad90       ??1?$vector@ULATHEDRILLINFO@@V?$allocator@ULATHEDRILLINFO@@@std@@@std@@QAE@XZ 0048bd90 f i NCMakeLathe.obj
 0001:0008ad90       ?_Tidy@?$vector@U?$sub_match@PBD@boost@@V?$allocator@U?$sub_match@PBD@boost@@@std@@@std@@AAEXXZ 0048bd90 f i NCDoc.obj
 0001:0008ad90       ?_Tidy@?$vector@U?$sub_match@V?$_String_const_iterator@V?$_String_val@U?$_Simple_types@D@std@@@std@@@std@@@boost@@V?$allocator@U?$sub_match@V?$_String_const_iterator@V?$_String_val@U?$_Simple_types@D@std@@@std@@@std@@@boost@@@std@@@std@@AAEXXZ 0048bd90 f i NCDoc.obj
 0001:0008ad90       ??1?$vector@V?$CPoint3T@M@@V?$allocator@V?$CPoint3T@M@@@std@@@std@@QAE@XZ 0048bd90 f i NCdataGL.obj
 0001:0008ae00       ?insert@?$vector@MV?$allocator@M@std@@@std@@QAE?AV?$_Vector_iterator@V?$_Vector_val@U?$_Simple_types@M@std@@@std@@@2@V?$_Vector_const_iterator@V?$_Vector_val@U?$_Simple_types@M@std@@@std@@@2@IABM@Z 0048be00 f i NCdataGL.obj
 0001:0008af90       ?_Reallocate_exactly@?$vector@MV?$allocator@M@std@@@std@@AAEXI@Z 0048bf90 f i NCdataGL.obj
 0001:0008afd0       ??$_Emplace_reallocate@ABV?$CPoint3T@M@@@?$vector@V?$CPoint3T@M@@V?$allocator@V?$CPoint3T@M@@@std@@@std@@QAEPAV?$CPoint3T@M@@QAV2@ABV2@@Z 0048bfd0 f i NCdataGL.obj
 0001:0008afd0       ??$_Emplace_reallocate@ABULATHEDRILLINFO@@@?$vector@ULATHEDRILLINFO@@V?$allocator@ULATHEDRILLINFO@@@std@@@std@@QAEPAULATHEDRILLINFO@@QAU2@ABU2@@Z 0048bfd0 f i NCMakeLatheOpt.obj
 0001:0008b180       ??$construct@UBOTTOMDRAW@@ABU1@@?$_Default_allocator_traits@V?$allocator@UBOTTOMDRAW@@@std@@@std@@SAXAAV?$allocator@UBOTTOMDRAW@@@1@QAUBOTTOMDRAW@@ABU3@@Z 0048c180 f i NCdataGL.obj
 0001:0008b250       ??$_Emplace_reallocate@ABUBOTTOMDRAW@@@?$vector@UBOTTOMDRAW@@V?$allocator@UBOTTOMDRAW@@@std@@@std@@QAEPAUBOTTOMDRAW@@QAU2@ABU2@@Z 0048c250 f i NCdataGL.obj
 0001:0008b470       ??$_Uninitialized_fill_n@V?$allocator@M@std@@@std@@YAPAMPAMIABMAAV?$allocator@M@0@@Z 0048c470 f i NCdataGL.obj
 0001:0008b4f0       ??$fill@PAMM@std@@YAXQAM0ABM@Z 0048c4f0 f i NCdataGL.obj
 0001:0008b5b0       ?deallocate@?$allocator@UBOTTOMDRAW@@@std@@QAEXQAUBOTTOMDRAW@@I@Z 0048c5b0 f i NCdataGL.obj
 0001:0008b5f0       ??0?$vector@IV?$allocator@I@std@@@std@@QAE@ABV01@@Z 0048c5f0 f i NCdataGL.obj
 0001:0008b670       ??$_Insert_range@PAM@?$vector@MV?$allocator@M@std@@@std@@AAEXV?$_Vector_const_iterator@V?$_Vector_val@U?$_Simple_types@M@std@@@std@@@1@PAM1Uforward_iterator_tag@1@@Z 0048c670 f i NCdataGL.obj
 0001:0008b670       ??$_Insert_range@PBM@?$vector@MV?$allocator@M@std@@@std@@AAEXV?$_Vector_const_iterator@V?$_Vector_val@U?$_Simple_types@M@std@@@std@@@1@PBM1Uforward_iterator_tag@1@@Z 0048c670 f i NCdataGL.obj
 0001:0008b840       ??$_Assign_range@PBI@?$vector@IV?$allocator@I@std@@@std@@AAEXPBI0Uforward_iterator_tag@1@@Z 0048c840 f i NCdataGL.obj
 0001:0008b980       ??$_Uninitialized_move@PAUBOTTOMDRAW@@V?$allocator@UBOTTOMDRAW@@@std@@@std@@YAPAUBOTTOMDRAW@@QAU1@0PAU1@AAV?$allocator@UBOTTOMDRAW@@@0@@Z 0048c980 f i NCdataGL.obj
 0001:0008ba20       ??$_Destroy_range@V?$allocator@UBOTTOMDRAW@@@std@@@std@@YAXPAUBOTTOMDRAW@@QAU1@AAV?$allocator@UBOTTOMDRAW@@@0@@Z 0048ca20 f i NCdataGL.obj
 0001:0008ba50       ??0CNCblock@@QAE@ABV?$CStringT@DV?$StrTraitMFC_DLL@DV?$ChTraitsCRT@D@ATL@@@@@ATL@@K@Z 0048ca50 f i NCDoc.obj
 0001:0008bb20       ?SetMaxRect@CNCDoc@@AAEXPBVCNCdata@@@Z 0048cb20 f i NCDoc.obj
 0001:0008bc70       ?CreateObject@CNCDoc@@SGPAVCObject@@XZ 0048cc70 f   NCDoc.obj
 0001:0008bce0       ?GetRuntimeClass@CNCDoc@@UBEPAUCRuntimeClass@@XZ 0048cce0 f   NCDoc.obj
 0001:0008bcf0       ?GetMessageMap@CNCDoc@@MBEPBUAFX_MSGMAP@@XZ 0048ccf0 f   NCDoc.obj
 0001:0008bd00       ??0CNCDoc@@IAE@XZ          0048cd00 f   NCDoc.obj
 0001:0008c190       ??_GCNCDoc@@UAEPAXI@Z      0048d190 f i NCDoc.obj
 0001:0008c190       ??_ECNCDoc@@UAEPAXI@Z      0048d190 f i * CIL library *:* CIL module *
 0001:0008c1d0       ??1CNCDoc@@UAE@XZ          0048d1d0 f   NCDoc.obj
 0001:0008c3a0       ?CalcWorkFileRect@CNCDoc@@AAEXXZ 0048d3a0 f   NCDoc.obj
 0001:0008c550       ?ReadMCFile@CNCDoc@@QAEHPBD@Z 0048d550 f   NCDoc.obj
 0001:0008c7a0       ?DataOperation@CNCDoc@@QAEPAVCNCdata@@PBV2@PAUtagNCARGV@@HW4ENNCOPERATION@@@Z 0048d7a0 f   NCDoc.obj
 0001:0008d080       ?StrOperation@CNCDoc@@QAEXPBDHW4ENNCOPERATION@@@Z 0048e080 f   NCDoc.obj
 0001:0008d1e0       ?RemoveObj@CNCDoc@@QAEXHH@Z 0048e1e0 f   NCDoc.obj
 0001:0008d2c0       ?ClearBlockData@CNCDoc@@AAEXXZ 0048e2c0 f   NCDoc.obj
 0001:0008d330       ?SetCommentStr@CNCDoc@@QAEXABV?$CStringT@DV?$StrTraitMFC_DLL@DV?$ChTraitsCRT@D@ATL@@@@@ATL@@@Z 0048e330 f   NCDoc.obj
 0001:0008da10       ?CreateCutcalcThread@CNCDoc@@QAEXXZ 0048ea10 f   NCDoc.obj
 0001:0008db10       ?SearchBlockRegex@CNCDoc@@QAEHAAV?$basic_regex@DU?$regex_traits@DV?$w32_regex_traits@D@boost@@@boost@@@boost@@HHH@Z 0048eb10 f   NCDoc.obj
 0001:0008dee0       ?IncrementTrace@CNCDoc@@QAEHAAH@Z 0048eee0 f   NCDoc.obj
 0001:0008e070       ?SetLineToTrace@CNCDoc@@QAEHHH@Z 0048f070 f   NCDoc.obj
 0001:0008e160       ?InsertBlock@CNCDoc@@QAEXHABV?$CStringT@DV?$StrTraitMFC_DLL@DV?$ChTraitsCRT@D@ATL@@@@@ATL@@@Z 0048f160 f   NCDoc.obj
 0001:0008e2b0       ?MakeDXF@CNCDoc@@AAEXPBVCDXFMakeOption@@@Z 0048f2b0 f   NCDoc.obj
 0001:0008e840       ?AddMacroFile@CNCDoc@@QAEXABV?$CStringT@DV?$StrTraitMFC_DLL@DV?$ChTraitsCRT@D@ATL@@@@@ATL@@@Z 0048f840 f   NCDoc.obj
 0001:0008e8c0       ?ReadThumbnail@CNCDoc@@QAEXPBD@Z 0048f8c0 f   NCDoc.obj
 0001:0008eae0       ?OnOpenDocument@CNCDoc@@UAEHPBD@Z 0048fae0 f   NCDoc.obj
 0001:0008ebc0       ?OnSaveDocument@CNCDoc@@UAEHPBD@Z 0048fbc0 f   NCDoc.obj
 0001:0008ec50       ?OnCloseDocument@CNCDoc@@UAEXXZ 0048fc50 f   NCDoc.obj
 0001:0008ed00       ?SetPathName@CNCDoc@@UAEXPBDH@Z 0048fd00 f   NCDoc.obj
 0001:0008edc0       ?OnChangedViewList@CNCDoc@@UAEXXZ 0048fdc0 f   NCDoc.obj
 0001:0008ede0       ?Serialize@CNCDoc@@UAEXAAVCArchive@@@Z 0048fde0 f   NCDoc.obj
 0001:0008f000       ?SerializeBlock@CNCDoc@@AAEXAAVCArchive@@AAV?$CTypedPtrArrayEx@VCPtrArray@@PAVCNCblock@@@@K@Z 00490000 f   NCDoc.obj
 0001:0008f240       ?SerializeAfterCheck@CNCDoc@@AAEHXZ 00490240 f   NCDoc.obj
 0001:0008f6e0       ?SerializeInsertBlock@CNCDoc@@QAEHPBDHK@Z 004906e0 f   NCDoc.obj
 0001:0008f870       ?OnUpdateFileSave@CNCDoc@@IAEXPAVCCmdUI@@@Z 00490870 f   NCDoc.obj
 0001:0008f890       ?OnFileNCD2DXF@CNCDoc@@IAEXXZ 00490890 f   NCDoc.obj
 0001:0008fb50       ?OnUpdateWorkRect@CNCDoc@@IAEXPAVCCmdUI@@@Z 00490b50 f   NCDoc.obj
 0001:0008fb90       ?OnWorkRect@CNCDoc@@IAEXXZ 00490b90 f   NCDoc.obj
 0001:0008fce0       ?OnUpdateMaxRect@CNCDoc@@IAEXPAVCCmdUI@@@Z 00490ce0 f   NCDoc.obj
 0001:0008fd20       ?OnMaxRect@CNCDoc@@IAEXXZ  00490d20 f   NCDoc.obj
 0001:0008fd40       ??$regex_search@U?$char_traits@D@std@@V?$allocator@D@2@DU?$regex_traits@DV?$w32_regex_traits@D@boost@@@boost@@@boost@@YA_NABV?$basic_string@DU?$char_traits@D@std@@V?$allocator@D@2@@std@@ABV?$basic_regex@DU?$regex_traits@DV?$w32_regex_traits@D@boost@@@boost@@@0@W4_match_flags@regex_constants@0@@Z 00490d40 f i NCDoc.obj
 0001:0008fe60       ??$regex_search@PBDDU?$regex_traits@DV?$w32_regex_traits@D@boost@@@boost@@@boost@@YA_NPBD0ABV?$basic_regex@DU?$regex_traits@DV?$w32_regex_traits@D@boost@@@boost@@@0@W4_match_flags@regex_constants@0@@Z 00490e60 f i NCDoc.obj
 0001:00090020       ??$regex_replace@V?$string_out_iterator@V?$basic_string@DU?$char_traits@D@std@@V?$allocator@D@2@@std@@@re_detail_500@boost@@V?$_String_const_iterator@V?$_String_val@U?$_Simple_types@D@std@@@std@@@std@@U?$regex_traits@DV?$w32_regex_traits@D@boost@@@3@DPBD@boost@@YA?AV?$string_out_iterator@V?$basic_string@DU?$char_traits@D@std@@V?$allocator@D@2@@std@@@re_detail_500@0@V120@V?$_String_const_iterator@V?$_String_val@U?$_Simple_types@D@std@@@std@@@std@@1ABV?$basic_regex@DU?$regex_traits@DV?$w32_regex_traits@D@boost@@@boost@@@0@PBDW4_match_flags@regex_constants@0@@Z 00491020 f i NCDoc.obj
 0001:00090240       ??1?$perl_matcher@PBDV?$allocator@U?$sub_match@PBD@boost@@@std@@U?$regex_traits@DV?$w32_regex_traits@D@boost@@@boost@@@re_detail_500@boost@@QAE@XZ 00491240 f i NCDoc.obj
 0001:00090240       ??1?$perl_matcher@V?$_String_const_iterator@V?$_String_val@U?$_Simple_types@D@std@@@std@@@std@@V?$allocator@U?$sub_match@V?$_String_const_iterator@V?$_String_val@U?$_Simple_types@D@std@@@std@@@std@@@boost@@@2@U?$regex_traits@DV?$w32_regex_traits@D@boost@@@boost@@@re_detail_500@boost@@QAE@XZ 00491240 f i NCDoc.obj
 0001:000902a0       ??1?$vector@U?$recursion_info@V?$match_results@V?$_String_const_iterator@V?$_String_val@U?$_Simple_types@D@std@@@std@@@std@@V?$allocator@U?$sub_match@V?$_String_const_iterator@V?$_String_val@U?$_Simple_types@D@std@@@std@@@std@@@boost@@@2@@boost@@@re_detail_500@boost@@V?$allocator@U?$recursion_info@V?$match_results@V?$_String_const_iterator@V?$_String_val@U?$_Simple_types@D@std@@@std@@@std@@V?$allocator@U?$sub_match@V?$_String_const_iterator@V?$_String_val@U?$_Simple_types@D@std@@@std@@@std@@@boost@@@2@@boost@@@re_detail_500@boost@@@std@@@std@@QAE@XZ 004912a0 f i NCDoc.obj
 0001:000902a0       ??1?$vector@U?$recursion_info@V?$match_results@PBDV?$allocator@U?$sub_match@PBD@boost@@@std@@@boost@@@re_detail_500@boost@@V?$allocator@U?$recursion_info@V?$match_results@PBDV?$allocator@U?$sub_match@PBD@boost@@@std@@@boost@@@re_detail_500@boost@@@std@@@std@@QAE@XZ 004912a0 f i NCDoc.obj
 0001:00090320       ??1?$repeater_count@V?$_String_const_iterator@V?$_String_val@U?$_Simple_types@D@std@@@std@@@std@@@re_detail_500@boost@@QAE@XZ 00491320 f i NCDoc.obj
 0001:00090320       ??1?$repeater_count@PBD@re_detail_500@boost@@QAE@XZ 00491320 f i NCDoc.obj
 0001:00090330       ??1?$unique_ptr@V?$match_results@PBDV?$allocator@U?$sub_match@PBD@boost@@@std@@@boost@@U?$default_delete@V?$match_results@PBDV?$allocator@U?$sub_match@PBD@boost@@@std@@@boost@@@std@@@std@@QAE@XZ 00491330 f i NCDoc.obj
 0001:00090330       ??1?$unique_ptr@V?$match_results@V?$_String_const_iterator@V?$_String_val@U?$_Simple_types@D@std@@@std@@@std@@V?$allocator@U?$sub_match@V?$_String_const_iterator@V?$_String_val@U?$_Simple_types@D@std@@@std@@@std@@@boost@@@2@@boost@@U?$default_delete@V?$match_results@V?$_String_const_iterator@V?$_String_val@U?$_Simple_types@D@std@@@std@@@std@@V?$allocator@U?$sub_match@V?$_String_const_iterator@V?$_String_val@U?$_Simple_types@D@std@@@std@@@std@@@boost@@@2@@boost@@@std@@@std@@QAE@XZ 00491330 f i NCDoc.obj
 0001:00090380       ??0?$perl_matcher@V?$_String_const_iterator@V?$_String_val@U?$_Simple_types@D@std@@@std@@@std@@V?$allocator@U?$sub_match@V?$_String_const_iterator@V?$_String_val@U?$_Simple_types@D@std@@@std@@@std@@@boost@@@2@U?$regex_traits@DV?$w32_regex_traits@D@boost@@@boost@@@re_detail_500@boost@@QAE@V?$_String_const_iterator@V?$_String_val@U?$_Simple_types@D@std@@@std@@@std@@0AAV?$match_results@V?$_String_const_iterator@V?$_String_val@U?$_Simple_types@D@std@@@std@@@std@@V?$allocator@U?$sub_match@V?$_String_const_iterator@V?$_String_val@U?$_Simple_types@D@std@@@std@@@std@@@boost@@@2@@2@ABV?$basic_regex@DU?$regex_traits@DV?$w32_regex_traits@D@boost@@@boost@@@2@W4_match_flags@regex_constants@2@0@Z 00491380 f i NCDoc.obj
 0001:00090460       ??A?$match_results@V?$_String_const_iterator@V?$_String_val@U?$_Simple_types@D@std@@@std@@@std@@V?$allocator@U?$sub_match@V?$_String_const_iterator@V?$_String_val@U?$_Simple_types@D@std@@@std@@@std@@@boost@@@2@@boost@@QBEABU?$sub_match@V?$_String_const_iterator@V?$_String_val@U?$_Simple_types@D@std@@@std@@@std@@@1@H@Z 00491460 f i NCDoc.obj
 0001:00090460       ??A?$match_results@PBDV?$allocator@U?$sub_match@PBD@boost@@@std@@@boost@@QBEABU?$sub_match@PBD@1@H@Z 00491460 f i NCDoc.obj
 0001:000904c0       ??1?$match_results@PBDV?$allocator@U?$sub_match@PBD@boost@@@std@@@boost@@QAE@XZ 004914c0 f i NCDoc.obj
 0001:000904c0       ??1?$match_results@V?$_String_const_iterator@V?$_String_val@U?$_Simple_types@D@std@@@std@@@std@@V?$allocator@U?$sub_match@V?$_String_const_iterator@V?$_String_val@U?$_Simple_types@D@std@@@std@@@std@@@boost@@@2@@boost@@QAE@XZ 004914c0 f i NCDoc.obj
 0001:00090500       ??E?$regex_iterator@V?$_String_const_iterator@V?$_String_val@U?$_Simple_types@D@std@@@std@@@std@@DU?$regex_traits@DV?$w32_regex_traits@D@boost@@@boost@@@boost@@QAEAAV01@XZ 00491500 f i NCDoc.obj
 0001:00090730       ??8?$regex_iterator@V?$_String_const_iterator@V?$_String_val@U?$_Simple_types@D@std@@@std@@@std@@DU?$regex_traits@DV?$w32_regex_traits@D@boost@@@boost@@@boost@@QBE_NABV01@@Z 00491730 f i NCDoc.obj
 0001:00090870       ??0?$regex_iterator@V?$_String_const_iterator@V?$_String_val@U?$_Simple_types@D@std@@@std@@@std@@DU?$regex_traits@DV?$w32_regex_traits@D@boost@@@boost@@@boost@@QAE@V?$_String_const_iterator@V?$_String_val@U?$_Simple_types@D@std@@@std@@@std@@0ABV?$basic_regex@DU?$regex_traits@DV?$w32_regex_traits@D@boost@@@boost@@@1@W4_match_flags@regex_constants@1@@Z 00491870 f i NCDoc.obj
 0001:00090a10       ?raise_logic_error@?$match_results@PBDV?$allocator@U?$sub_match@PBD@boost@@@std@@@boost@@CAXXZ 00491a10 f i NCDoc.obj
 0001:00090a10       ?raise_logic_error@?$match_results@V?$_String_const_iterator@V?$_String_val@U?$_Simple_types@D@std@@@std@@@std@@V?$allocator@U?$sub_match@V?$_String_const_iterator@V?$_String_val@U?$_Simple_types@D@std@@@std@@@std@@@boost@@@2@@boost@@CAXXZ 00491a10 f i NCDoc.obj
 0001:00090a60       ?deallocate@?$allocator@U?$recursion_info@V?$match_results@PBDV?$allocator@U?$sub_match@PBD@boost@@@std@@@boost@@@re_detail_500@boost@@@std@@QAEXQAU?$recursion_info@V?$match_results@PBDV?$allocator@U?$sub_match@PBD@boost@@@std@@@boost@@@re_detail_500@boost@@I@Z 00491a60 f i NCDoc.obj
 0001:00090a60       ?deallocate@?$allocator@U?$recursion_info@V?$match_results@V?$_String_const_iterator@V?$_String_val@U?$_Simple_types@D@std@@@std@@@std@@V?$allocator@U?$sub_match@V?$_String_const_iterator@V?$_String_val@U?$_Simple_types@D@std@@@std@@@std@@@boost@@@2@@boost@@@re_detail_500@boost@@@std@@QAEXQAU?$recursion_info@V?$match_results@V?$_String_const_iterator@V?$_String_val@U?$_Simple_types@D@std@@@std@@@std@@V?$allocator@U?$sub_match@V?$_String_const_iterator@V?$_String_val@U?$_Simple_types@D@std@@@std@@@std@@@boost@@@2@@boost@@@re_detail_500@boost@@I@Z 00491a60 f i NCDoc.obj
 0001:00090aa0       ??0?$match_results@V?$_String_const_iterator@V?$_String_val@U?$_Simple_types@D@std@@@std@@@std@@V?$allocator@U?$sub_match@V?$_String_const_iterator@V?$_String_val@U?$_Simple_types@D@std@@@std@@@std@@@boost@@@2@@boost@@QAE@ABV01@@Z 00491aa0 f i NCDoc.obj
 0001:00090aa0       ??0?$match_results@PBDV?$allocator@U?$sub_match@PBD@boost@@@std@@@boost@@QAE@ABV01@@Z 00491aa0 f i NCDoc.obj
 0001:00090bb0       ?construct_init@?$perl_matcher@PBDV?$allocator@U?$sub_match@PBD@boost@@@std@@U?$regex_traits@DV?$w32_regex_traits@D@boost@@@boost@@@re_detail_500@boost@@AAEXABV?$basic_regex@DU?$regex_traits@DV?$w32_regex_traits@D@boost@@@boost@@@3@W4_match_flags@regex_constants@3@@Z 00491bb0 f i NCDoc.obj
 0001:00090bb0       ?construct_init@?$perl_matcher@V?$_String_const_iterator@V?$_String_val@U?$_Simple_types@D@std@@@std@@@std@@V?$allocator@U?$sub_match@V?$_String_const_iterator@V?$_String_val@U?$_Simple_types@D@std@@@std@@@std@@@boost@@@2@U?$regex_traits@DV?$w32_regex_traits@D@boost@@@boost@@@re_detail_500@boost@@AAEXABV?$basic_regex@DU?$regex_traits@DV?$w32_regex_traits@D@boost@@@boost@@@3@W4_match_flags@regex_constants@3@@Z 00491bb0 f i NCDoc.obj
 0001:00090e30       ??$regex_search@V?$_String_const_iterator@V?$_String_val@U?$_Simple_types@D@std@@@std@@@std@@V?$allocator@U?$sub_match@V?$_String_const_iterator@V?$_String_val@U?$_Simple_types@D@std@@@std@@@std@@@boost@@@2@DU?$regex_traits@DV?$w32_regex_traits@D@boost@@@boost@@@boost@@YA_NV?$_String_const_iterator@V?$_String_val@U?$_Simple_types@D@std@@@std@@@std@@0AAV?$match_results@V?$_String_const_iterator@V?$_String_val@U?$_Simple_types@D@std@@@std@@@std@@V?$allocator@U?$sub_match@V?$_String_const_iterator@V?$_String_val@U?$_Simple_types@D@std@@@std@@@std@@@boost@@@2@@0@ABV?$basic_regex@DU?$regex_traits@DV?$w32_regex_traits@D@boost@@@boost@@@0@W4_match_flags@regex_constants@0@0@Z 00491e30 f i NCDoc.obj
 0001:00090ed0       ??$_Destroy_range@V?$allocator@U?$recursion_info@V?$match_results@V?$_String_const_iterator@V?$_String_val@U?$_Simple_types@D@std@@@std@@@std@@V?$allocator@U?$sub_match@V?$_String_const_iterator@V?$_String_val@U?$_Simple_types@D@std@@@std@@@std@@@boost@@@2@@boost@@@re_detail_500@boost@@@std@@@std@@YAXPAU?$recursion_info@V?$match_results@V?$_String_const_iterator@V?$_String_val@U?$_Simple_types@D@std@@@std@@@std@@V?$allocator@U?$sub_match@V?$_String_const_iterator@V?$_String_val@U?$_Simple_types@D@std@@@std@@@std@@@boost@@@2@@boost@@@re_detail_500@boost@@QAU123@AAV?$allocator@U?$recursion_info@V?$match_results@V?$_String_const_iterator@V?$_String_val@U?$_Simple_types@D@std@@@std@@@std@@V?$allocator@U?$sub_match@V?$_String_const_iterator@V?$_String_val@U?$_Simple_types@D@std@@@std@@@std@@@boost@@@2@@boost@@@re_detail_500@boost@@@0@@Z 00491ed0 f i NCDoc.obj
 0001:00090ed0       ??$_Destroy_range@V?$allocator@U?$recursion_info@V?$match_results@PBDV?$allocator@U?$sub_match@PBD@boost@@@std@@@boost@@@re_detail_500@boost@@@std@@@std@@YAXPAU?$recursion_info@V?$match_results@PBDV?$allocator@U?$sub_match@PBD@boost@@@std@@@boost@@@re_detail_500@boost@@QAU123@AAV?$allocator@U?$recursion_info@V?$match_results@PBDV?$allocator@U?$sub_match@PBD@boost@@@std@@@boost@@@re_detail_500@boost@@@0@@Z 00491ed0 f i NCDoc.obj
 0001:00090f20       ?_Destroy@?$_Ref_count@V?$regex_iterator_implementation@V?$_String_const_iterator@V?$_String_val@U?$_Simple_types@D@std@@@std@@@std@@DU?$regex_traits@DV?$w32_regex_traits@D@boost@@@boost@@@boost@@@std@@EAEXXZ 00491f20 f i NCDoc.obj
 0001:00090f30       ??1?$_Temporary_owner@V?$regex_iterator_implementation@V?$_String_const_iterator@V?$_String_val@U?$_Simple_types@D@std@@@std@@@std@@DU?$regex_traits@DV?$w32_regex_traits@D@boost@@@boost@@@boost@@@std@@QAE@XZ 00491f30 f i NCDoc.obj
 0001:00090f40       ??_G?$regex_iterator_implementation@V?$_String_const_iterator@V?$_String_val@U?$_Simple_types@D@std@@@std@@@std@@DU?$regex_traits@DV?$w32_regex_traits@D@boost@@@boost@@@boost@@QAEPAXI@Z 00491f40 f i NCDoc.obj
 0001:00090fb0       ?find_imp@?$perl_matcher@PBDV?$allocator@U?$sub_match@PBD@boost@@@std@@U?$regex_traits@DV?$w32_regex_traits@D@boost@@@boost@@@re_detail_500@boost@@AAE_NXZ 00491fb0 f i NCDoc.obj
 0001:000912b0       ?find_imp@?$perl_matcher@V?$_String_const_iterator@V?$_String_val@U?$_Simple_types@D@std@@@std@@@std@@V?$allocator@U?$sub_match@V?$_String_const_iterator@V?$_String_val@U?$_Simple_types@D@std@@@std@@@std@@@boost@@@2@U?$regex_traits@DV?$w32_regex_traits@D@boost@@@boost@@@re_detail_500@boost@@AAE_NXZ 004922b0 f i NCDoc.obj
 0001:000915b0       ??$throw_exception@Vinvalid_argument@std@@@boost@@YAXABVinvalid_argument@std@@@Z 004925b0 f i NCDoc.obj
 0001:000915d0       ??0?$wrapexcept@Vinvalid_argument@std@@@boost@@QAE@ABU01@@Z 004925d0 f i NCDoc.obj
 0001:00091690       ??0invalid_argument@std@@QAE@ABV01@@Z 00492690 f i NCDoc.obj
 0001:000916d0       ??1?$recursion_info@V?$match_results@PBDV?$allocator@U?$sub_match@PBD@boost@@@std@@@boost@@@re_detail_500@boost@@QAE@XZ 004926d0 f i NCDoc.obj
 0001:000916d0       ??1?$recursion_info@V?$match_results@V?$_String_const_iterator@V?$_String_val@U?$_Simple_types@D@std@@@std@@@std@@V?$allocator@U?$sub_match@V?$_String_const_iterator@V?$_String_val@U?$_Simple_types@D@std@@@std@@@std@@@boost@@@2@@boost@@@re_detail_500@boost@@QAE@XZ 004926d0 f i NCDoc.obj
 0001:00091710       ?rethrow@?$wrapexcept@Vinvalid_argument@std@@@boost@@UBEXXZ 00492710 f i NCDoc.obj
 0001:00091730       ?clone@?$wrapexcept@Vinvalid_argument@std@@@boost@@UBEPBVclone_base@exception_detail@2@XZ 00492730 f i NCDoc.obj
 0001:000917c0       ??0?$wrapexcept@Vinvalid_argument@std@@@boost@@QAE@ABVinvalid_argument@std@@@Z 004927c0 f i NCDoc.obj
 0001:00091830       ?set_size@?$match_results@V?$_String_const_iterator@V?$_String_val@U?$_Simple_types@D@std@@@std@@@std@@V?$allocator@U?$sub_match@V?$_String_const_iterator@V?$_String_val@U?$_Simple_types@D@std@@@std@@@std@@@boost@@@2@@boost@@QAEXIV?$_String_const_iterator@V?$_String_val@U?$_Simple_types@D@std@@@std@@@std@@0@Z 00492830 f i NCDoc.obj
 0001:000918e0       ?set_size@?$match_results@PBDV?$allocator@U?$sub_match@PBD@boost@@@std@@@boost@@QAEXIPBD0@Z 004928e0 f i NCDoc.obj
 0001:000919a0       ?insert@?$vector@U?$sub_match@PBD@boost@@V?$allocator@U?$sub_match@PBD@boost@@@std@@@std@@QAE?AV?$_Vector_iterator@V?$_Vector_val@U?$_Simple_types@U?$sub_match@PBD@boost@@@std@@@std@@@2@V?$_Vector_const_iterator@V?$_Vector_val@U?$_Simple_types@U?$sub_match@PBD@boost@@@std@@@std@@@2@IABU?$sub_match@PBD@boost@@@Z 004929a0 f i NCDoc.obj
 0001:000919a0       ?insert@?$vector@U?$sub_match@V?$_String_const_iterator@V?$_String_val@U?$_Simple_types@D@std@@@std@@@std@@@boost@@V?$allocator@U?$sub_match@V?$_String_const_iterator@V?$_String_val@U?$_Simple_types@D@std@@@std@@@std@@@boost@@@std@@@std@@QAE?AV?$_Vector_iterator@V?$_Vector_val@U?$_Simple_types@U?$sub_match@V?$_String_const_iterator@V?$_String_val@U?$_Simple_types@D@std@@@std@@@std@@@boost@@@std@@@std@@@2@V?$_Vector_const_iterator@V?$_Vector_val@U?$_Simple_types@U?$sub_match@V?$_String_const_iterator@V?$_String_val@U?$_Simple_types@D@std@@@std@@@std@@@boost@@@std@@@std@@@2@IABU?$sub_match@V?$_String_const_iterator@V?$_String_val@U?$_Simple_types@D@std@@@std@@@std@@@boost@@@Z 004929a0 f i NCDoc.obj
 0001:00091d70       ?match_prefix@?$perl_matcher@PBDV?$allocator@U?$sub_match@PBD@boost@@@std@@U?$regex_traits@DV?$w32_regex_traits@D@boost@@@boost@@@re_detail_500@boost@@AAE_NXZ 00492d70 f i NCDoc.obj
 0001:00091e20       ?find_restart_any@?$perl_matcher@PBDV?$allocator@U?$sub_match@PBD@boost@@@std@@U?$regex_traits@DV?$w32_regex_traits@D@boost@@@boost@@@re_detail_500@boost@@AAE_NXZ 00492e20 f i NCDoc.obj
 0001:00091e90       ?find_restart_word@?$perl_matcher@PBDV?$allocator@U?$sub_match@PBD@boost@@@std@@U?$regex_traits@DV?$w32_regex_traits@D@boost@@@boost@@@re_detail_500@boost@@AAE_NXZ 00492e90 f i NCDoc.obj
 0001:00091fa0       ?find_restart_line@?$perl_matcher@PBDV?$allocator@U?$sub_match@PBD@boost@@@std@@U?$regex_traits@DV?$w32_regex_traits@D@boost@@@boost@@@re_detail_500@boost@@AAE_NXZ 00492fa0 f i NCDoc.obj
 0001:00092040       ?find_restart_buf@?$perl_matcher@PBDV?$allocator@U?$sub_match@PBD@boost@@@std@@U?$regex_traits@DV?$w32_regex_traits@D@boost@@@boost@@@re_detail_500@boost@@AAE_NXZ 00493040 f i NCDoc.obj
 0001:00092060       ?unwind@?$perl_matcher@PBDV?$allocator@U?$sub_match@PBD@boost@@@std@@U?$regex_traits@DV?$w32_regex_traits@D@boost@@@boost@@@re_detail_500@boost@@AAE_N_N@Z 00493060 f i NCDoc.obj
 0001:000920a0       ?match_prefix@?$perl_matcher@V?$_String_const_iterator@V?$_String_val@U?$_Simple_types@D@std@@@std@@@std@@V?$allocator@U?$sub_match@V?$_String_const_iterator@V?$_String_val@U?$_Simple_types@D@std@@@std@@@std@@@boost@@@2@U?$regex_traits@DV?$w32_regex_traits@D@boost@@@boost@@@re_detail_500@boost@@AAE_NXZ 004930a0 f i NCDoc.obj
 0001:00092150       ?find_restart_any@?$perl_matcher@V?$_String_const_iterator@V?$_String_val@U?$_Simple_types@D@std@@@std@@@std@@V?$allocator@U?$sub_match@V?$_String_const_iterator@V?$_String_val@U?$_Simple_types@D@std@@@std@@@std@@@boost@@@2@U?$regex_traits@DV?$w32_regex_traits@D@boost@@@boost@@@re_detail_500@boost@@AAE_NXZ 00493150 f i NCDoc.obj
 0001:000921c0       ?find_restart_word@?$perl_matcher@V?$_String_const_iterator@V?$_String_val@U?$_Simple_types@D@std@@@std@@@std@@V?$allocator@U?$sub_match@V?$_String_const_iterator@V?$_String_val@U?$_Simple_types@D@std@@@std@@@std@@@boost@@@2@U?$regex_traits@DV?$w32_regex_traits@D@boost@@@boost@@@re_detail_500@boost@@AAE_NXZ 004931c0 f i NCDoc.obj
 0001:000922b0       ?find_restart_line@?$perl_matcher@V?$_String_const_iterator@V?$_String_val@U?$_Simple_types@D@std@@@std@@@std@@V?$allocator@U?$sub_match@V?$_String_const_iterator@V?$_String_val@U?$_Simple_types@D@std@@@std@@@std@@@boost@@@2@U?$regex_traits@DV?$w32_regex_traits@D@boost@@@boost@@@re_detail_500@boost@@AAE_NXZ 004932b0 f i NCDoc.obj
 0001:00092350       ?find_restart_buf@?$perl_matcher@V?$_String_const_iterator@V?$_String_val@U?$_Simple_types@D@std@@@std@@@std@@V?$allocator@U?$sub_match@V?$_String_const_iterator@V?$_String_val@U?$_Simple_types@D@std@@@std@@@std@@@boost@@@2@U?$regex_traits@DV?$w32_regex_traits@D@boost@@@boost@@@re_detail_500@boost@@AAE_NXZ 00493350 f i NCDoc.obj
 0001:00092370       ?unwind@?$perl_matcher@V?$_String_const_iterator@V?$_String_val@U?$_Simple_types@D@std@@@std@@@std@@V?$allocator@U?$sub_match@V?$_String_const_iterator@V?$_String_val@U?$_Simple_types@D@std@@@std@@@std@@@boost@@@2@U?$regex_traits@DV?$w32_regex_traits@D@boost@@@boost@@@re_detail_500@boost@@AAE_N_N@Z 00493370 f i NCDoc.obj
 0001:000923b0       ?set_first@?$match_results@V?$_String_const_iterator@V?$_String_val@U?$_Simple_types@D@std@@@std@@@std@@V?$allocator@U?$sub_match@V?$_String_const_iterator@V?$_String_val@U?$_Simple_types@D@std@@@std@@@std@@@boost@@@2@@boost@@QAEXV?$_String_const_iterator@V?$_String_val@U?$_Simple_types@D@std@@@std@@@std@@@Z 004933b0 f i NCDoc.obj
 0001:00092440       ?set_first@?$match_results@PBDV?$allocator@U?$sub_match@PBD@boost@@@std@@@boost@@QAEXPBD@Z 00493440 f i NCDoc.obj
 0001:000924c0       ?maybe_assign@?$match_results@PBDV?$allocator@U?$sub_match@PBD@boost@@@std@@@boost@@QAEXABV12@@Z 004934c0 f i NCDoc.obj
 0001:00092690       ?maybe_assign@?$match_results@V?$_String_const_iterator@V?$_String_val@U?$_Simple_types@D@std@@@std@@@std@@V?$allocator@U?$sub_match@V?$_String_const_iterator@V?$_String_val@U?$_Simple_types@D@std@@@std@@@std@@@boost@@@2@@boost@@QAEXABV12@@Z 00493690 f i NCDoc.obj
 0001:00092860       ?match_all_states@?$perl_matcher@PBDV?$allocator@U?$sub_match@PBD@boost@@@std@@U?$regex_traits@DV?$w32_regex_traits@D@boost@@@boost@@@re_detail_500@boost@@AAE_NXZ 00493860 f i NCDoc.obj
 0001:000929f0       ?unwind_end@?$perl_matcher@V?$_String_const_iterator@V?$_String_val@U?$_Simple_types@D@std@@@std@@@std@@V?$allocator@U?$sub_match@V?$_String_const_iterator@V?$_String_val@U?$_Simple_types@D@std@@@std@@@std@@@boost@@@2@U?$regex_traits@DV?$w32_regex_traits@D@boost@@@boost@@@re_detail_500@boost@@AAE_N_N@Z 004939f0 f i NCDoc.obj
 0001:000929f0       ?unwind_end@?$perl_matcher@PBDV?$allocator@U?$sub_match@PBD@boost@@@std@@U?$regex_traits@DV?$w32_regex_traits@D@boost@@@boost@@@re_detail_500@boost@@AAE_N_N@Z 004939f0 f i NCDoc.obj
 0001:00092a00       ?unwind_paren@?$perl_matcher@PBDV?$allocator@U?$sub_match@PBD@boost@@@std@@U?$regex_traits@DV?$w32_regex_traits@D@boost@@@boost@@@re_detail_500@boost@@AAE_N_N@Z 00493a00 f i NCDoc.obj
 0001:00092ac0       ?unwind_recursion_stopper@?$perl_matcher@V?$_String_const_iterator@V?$_String_val@U?$_Simple_types@D@std@@@std@@@std@@V?$allocator@U?$sub_match@V?$_String_const_iterator@V?$_String_val@U?$_Simple_types@D@std@@@std@@@std@@@boost@@@2@U?$regex_traits@DV?$w32_regex_traits@D@boost@@@boost@@@re_detail_500@boost@@AAE_N_N@Z 00493ac0 f i NCDoc.obj
 0001:00092ac0       ?unwind_recursion_stopper@?$perl_matcher@PBDV?$allocator@U?$sub_match@PBD@boost@@@std@@U?$regex_traits@DV?$w32_regex_traits@D@boost@@@boost@@@re_detail_500@boost@@AAE_N_N@Z 00493ac0 f i NCDoc.obj
 0001:00092ad0       ?unwind_assertion@?$perl_matcher@PBDV?$allocator@U?$sub_match@PBD@boost@@@std@@U?$regex_traits@DV?$w32_regex_traits@D@boost@@@boost@@@re_detail_500@boost@@AAE_N_N@Z 00493ad0 f i NCDoc.obj
 0001:00092ad0       ?unwind_assertion@?$perl_matcher@V?$_String_const_iterator@V?$_String_val@U?$_Simple_types@D@std@@@std@@@std@@V?$allocator@U?$sub_match@V?$_String_const_iterator@V?$_String_val@U?$_Simple_types@D@std@@@std@@@std@@@boost@@@2@U?$regex_traits@DV?$w32_regex_traits@D@boost@@@boost@@@re_detail_500@boost@@AAE_N_N@Z 00493ad0 f i NCDoc.obj
 0001:00092b20       ?unwind_alt@?$perl_matcher@V?$_String_const_iterator@V?$_String_val@U?$_Simple_types@D@std@@@std@@@std@@V?$allocator@U?$sub_match@V?$_String_const_iterator@V?$_String_val@U?$_Simple_types@D@std@@@std@@@std@@@boost@@@2@U?$regex_traits@DV?$w32_regex_traits@D@boost@@@boost@@@re_detail_500@boost@@AAE_N_N@Z 00493b20 f i NCDoc.obj
 0001:00092b20       ?unwind_alt@?$perl_matcher@PBDV?$allocator@U?$sub_match@PBD@boost@@@std@@U?$regex_traits@DV?$w32_regex_traits@D@boost@@@boost@@@re_detail_500@boost@@AAE_N_N@Z 00493b20 f i NCDoc.obj
 0001:00092b50       ?unwind_repeater_counter@?$perl_matcher@V?$_String_const_iterator@V?$_String_val@U?$_Simple_types@D@std@@@std@@@std@@V?$allocator@U?$sub_match@V?$_String_const_iterator@V?$_String_val@U?$_Simple_types@D@std@@@std@@@std@@@boost@@@2@U?$regex_traits@DV?$w32_regex_traits@D@boost@@@boost@@@re_detail_500@boost@@AAE_N_N@Z 00493b50 f i NCDoc.obj
 0001:00092b50       ?unwind_repeater_counter@?$perl_matcher@PBDV?$allocator@U?$sub_match@PBD@boost@@@std@@U?$regex_traits@DV?$w32_regex_traits@D@boost@@@boost@@@re_detail_500@boost@@AAE_N_N@Z 00493b50 f i NCDoc.obj
 0001:00092b70       ?unwind_extra_block@?$perl_matcher@V?$_String_const_iterator@V?$_String_val@U?$_Simple_types@D@std@@@std@@@std@@V?$allocator@U?$sub_match@V?$_String_const_iterator@V?$_String_val@U?$_Simple_types@D@std@@@std@@@std@@@boost@@@2@U?$regex_traits@DV?$w32_regex_traits@D@boost@@@boost@@@re_detail_500@boost@@AAE_N_N@Z 00493b70 f i NCDoc.obj
 0001:00092b70       ?unwind_extra_block@?$perl_matcher@PBDV?$allocator@U?$sub_match@PBD@boost@@@std@@U?$regex_traits@DV?$w32_regex_traits@D@boost@@@boost@@@re_detail_500@boost@@AAE_N_N@Z 00493b70 f i NCDoc.obj
 0001:00092ba0       ?unwind_greedy_single_repeat@?$perl_matcher@PBDV?$allocator@U?$sub_match@PBD@boost@@@std@@U?$regex_traits@DV?$w32_regex_traits@D@boost@@@boost@@@re_detail_500@boost@@AAE_N_N@Z 00493ba0 f i NCDoc.obj
 0001:00092c30       ?unwind_slow_dot_repeat@?$perl_matcher@PBDV?$allocator@U?$sub_match@PBD@boost@@@std@@U?$regex_traits@DV?$w32_regex_traits@D@boost@@@boost@@@re_detail_500@boost@@AAE_N_N@Z 00493c30 f i NCDoc.obj
 0001:00092d70       ?unwind_fast_dot_repeat@?$perl_matcher@PBDV?$allocator@U?$sub_match@PBD@boost@@@std@@U?$regex_traits@DV?$w32_regex_traits@D@boost@@@boost@@@re_detail_500@boost@@AAE_N_N@Z 00493d70 f i NCDoc.obj
 0001:00092e60       ?unwind_char_repeat@?$perl_matcher@PBDV?$allocator@U?$sub_match@PBD@boost@@@std@@U?$regex_traits@DV?$w32_regex_traits@D@boost@@@boost@@@re_detail_500@boost@@AAE_N_N@Z 00493e60 f i NCDoc.obj
 0001:00092e60       ?unwind_char_repeat@?$perl_matcher@V?$_String_const_iterator@V?$_String_val@U?$_Simple_types@D@std@@@std@@@std@@V?$allocator@U?$sub_match@V?$_String_const_iterator@V?$_String_val@U?$_Simple_types@D@std@@@std@@@std@@@boost@@@2@U?$regex_traits@DV?$w32_regex_traits@D@boost@@@boost@@@re_detail_500@boost@@AAE_N_N@Z 00493e60 f i NCDoc.obj
 0001:00092f80       ?unwind_short_set_repeat@?$perl_matcher@PBDV?$allocator@U?$sub_match@PBD@boost@@@std@@U?$regex_traits@DV?$w32_regex_traits@D@boost@@@boost@@@re_detail_500@boost@@AAE_N_N@Z 00493f80 f i NCDoc.obj
 0001:000930b0       ?unwind_long_set_repeat@?$perl_matcher@PBDV?$allocator@U?$sub_match@PBD@boost@@@std@@U?$regex_traits@DV?$w32_regex_traits@D@boost@@@boost@@@re_detail_500@boost@@AAE_N_N@Z 004940b0 f i NCDoc.obj
 0001:000931f0       ?unwind_non_greedy_repeat@?$perl_matcher@V?$_String_const_iterator@V?$_String_val@U?$_Simple_types@D@std@@@std@@@std@@V?$allocator@U?$sub_match@V?$_String_const_iterator@V?$_String_val@U?$_Simple_types@D@std@@@std@@@std@@@boost@@@2@U?$regex_traits@DV?$w32_regex_traits@D@boost@@@boost@@@re_detail_500@boost@@AAE_N_N@Z 004941f0 f i NCDoc.obj
 0001:000931f0       ?unwind_non_greedy_repeat@?$perl_matcher@PBDV?$allocator@U?$sub_match@PBD@boost@@@std@@U?$regex_traits@DV?$w32_regex_traits@D@boost@@@boost@@@re_detail_500@boost@@AAE_N_N@Z 004941f0 f i NCDoc.obj
 0001:00093220       ?unwind_recursion@?$perl_matcher@PBDV?$allocator@U?$sub_match@PBD@boost@@@std@@U?$regex_traits@DV?$w32_regex_traits@D@boost@@@boost@@@re_detail_500@boost@@AAE_N_N@Z 00494220 f i NCDoc.obj
 0001:000933f0       ?unwind_recursion_pop@?$perl_matcher@V?$_String_const_iterator@V?$_String_val@U?$_Simple_types@D@std@@@std@@@std@@V?$allocator@U?$sub_match@V?$_String_const_iterator@V?$_String_val@U?$_Simple_types@D@std@@@std@@@std@@@boost@@@2@U?$regex_traits@DV?$w32_regex_traits@D@boost@@@boost@@@re_detail_500@boost@@AAE_N_N@Z 004943f0 f i NCDoc.obj
 0001:000933f0       ?unwind_recursion_pop@?$perl_matcher@PBDV?$allocator@U?$sub_match@PBD@boost@@@std@@U?$regex_traits@DV?$w32_regex_traits@D@boost@@@boost@@@re_detail_500@boost@@AAE_N_N@Z 004943f0 f i NCDoc.obj
 0001:00093470       ?unwind_commit@?$perl_matcher@PBDV?$allocator@U?$sub_match@PBD@boost@@@std@@U?$regex_traits@DV?$w32_regex_traits@D@boost@@@boost@@@re_detail_500@boost@@AAE_N_N@Z 00494470 f i NCDoc.obj
 0001:00093510       ?unwind_then@?$perl_matcher@PBDV?$allocator@U?$sub_match@PBD@boost@@@std@@U?$regex_traits@DV?$w32_regex_traits@D@boost@@@boost@@@re_detail_500@boost@@AAE_N_N@Z 00494510 f i NCDoc.obj
 0001:00093550       ?unwind_case@?$perl_matcher@V?$_String_const_iterator@V?$_String_val@U?$_Simple_types@D@std@@@std@@@std@@V?$allocator@U?$sub_match@V?$_String_const_iterator@V?$_String_val@U?$_Simple_types@D@std@@@std@@@std@@@boost@@@2@U?$regex_traits@DV?$w32_regex_traits@D@boost@@@boost@@@re_detail_500@boost@@AAE_N_N@Z 00494550 f i NCDoc.obj
 0001:00093550       ?unwind_case@?$perl_matcher@PBDV?$allocator@U?$sub_match@PBD@boost@@@std@@U?$regex_traits@DV?$w32_regex_traits@D@boost@@@boost@@@re_detail_500@boost@@AAE_N_N@Z 00494550 f i NCDoc.obj
 0001:00093570       ?match_all_states@?$perl_matcher@V?$_String_const_iterator@V?$_String_val@U?$_Simple_types@D@std@@@std@@@std@@V?$allocator@U?$sub_match@V?$_String_const_iterator@V?$_String_val@U?$_Simple_types@D@std@@@std@@@std@@@boost@@@2@U?$regex_traits@DV?$w32_regex_traits@D@boost@@@boost@@@re_detail_500@boost@@AAE_NXZ 00494570 f i NCDoc.obj
 0001:00093700       ?unwind_paren@?$perl_matcher@V?$_String_const_iterator@V?$_String_val@U?$_Simple_types@D@std@@@std@@@std@@V?$allocator@U?$sub_match@V?$_String_const_iterator@V?$_String_val@U?$_Simple_types@D@std@@@std@@@std@@@boost@@@2@U?$regex_traits@DV?$w32_regex_traits@D@boost@@@boost@@@re_detail_500@boost@@AAE_N_N@Z 00494700 f i NCDoc.obj
 0001:000937c0       ?unwind_greedy_single_repeat@?$perl_matcher@V?$_String_const_iterator@V?$_String_val@U?$_Simple_types@D@std@@@std@@@std@@V?$allocator@U?$sub_match@V?$_String_const_iterator@V?$_String_val@U?$_Simple_types@D@std@@@std@@@std@@@boost@@@2@U?$regex_traits@DV?$w32_regex_traits@D@boost@@@boost@@@re_detail_500@boost@@AAE_N_N@Z 004947c0 f i NCDoc.obj
 0001:00093850       ?unwind_slow_dot_repeat@?$perl_matcher@V?$_String_const_iterator@V?$_String_val@U?$_Simple_types@D@std@@@std@@@std@@V?$allocator@U?$sub_match@V?$_String_const_iterator@V?$_String_val@U?$_Simple_types@D@std@@@std@@@std@@@boost@@@2@U?$regex_traits@DV?$w32_regex_traits@D@boost@@@boost@@@re_detail_500@boost@@AAE_N_N@Z 00494850 f i NCDoc.obj
 0001:00093990       ?unwind_fast_dot_repeat@?$perl_matcher@V?$_String_const_iterator@V?$_String_val@U?$_Simple_types@D@std@@@std@@@std@@V?$allocator@U?$sub_match@V?$_String_const_iterator@V?$_String_val@U?$_Simple_types@D@std@@@std@@@std@@@boost@@@2@U?$regex_traits@DV?$w32_regex_traits@D@boost@@@boost@@@re_detail_500@boost@@AAE_N_N@Z 00494990 f i NCDoc.obj
 0001:00093a90       ?unwind_short_set_repeat@?$perl_matcher@V?$_String_const_iterator@V?$_String_val@U?$_Simple_types@D@std@@@std@@@std@@V?$allocator@U?$sub_match@V?$_String_const_iterator@V?$_String_val@U?$_Simple_types@D@std@@@std@@@std@@@boost@@@2@U?$regex_traits@DV?$w32_regex_traits@D@boost@@@boost@@@re_detail_500@boost@@AAE_N_N@Z 00494a90 f i NCDoc.obj
 0001:00093bc0       ?unwind_long_set_repeat@?$perl_matcher@V?$_String_const_iterator@V?$_String_val@U?$_Simple_types@D@std@@@std@@@std@@V?$allocator@U?$sub_match@V?$_String_const_iterator@V?$_String_val@U?$_Simple_types@D@std@@@std@@@std@@@boost@@@2@U?$regex_traits@DV?$w32_regex_traits@D@boost@@@boost@@@re_detail_500@boost@@AAE_N_N@Z 00494bc0 f i NCDoc.obj
 0001:00093ce0       ?unwind_recursion@?$perl_matcher@V?$_String_const_iterator@V?$_String_val@U?$_Simple_types@D@std@@@std@@@std@@V?$allocator@U?$sub_match@V?$_String_const_iterator@V?$_String_val@U?$_Simple_types@D@std@@@std@@@std@@@boost@@@2@U?$regex_traits@DV?$w32_regex_traits@D@boost@@@boost@@@re_detail_500@boost@@AAE_N_N@Z 00494ce0 f i NCDoc.obj
 0001:00093eb0       ?unwind_commit@?$perl_matcher@V?$_String_const_iterator@V?$_String_val@U?$_Simple_types@D@std@@@std@@@std@@V?$allocator@U?$sub_match@V?$_String_const_iterator@V?$_String_val@U?$_Simple_types@D@std@@@std@@@std@@@boost@@@2@U?$regex_traits@DV?$w32_regex_traits@D@boost@@@boost@@@re_detail_500@boost@@AAE_N_N@Z 00494eb0 f i NCDoc.obj
 0001:00093f50       ?unwind_then@?$perl_matcher@V?$_String_const_iterator@V?$_String_val@U?$_Simple_types@D@std@@@std@@@std@@V?$allocator@U?$sub_match@V?$_String_const_iterator@V?$_String_val@U?$_Simple_types@D@std@@@std@@@std@@@boost@@@2@U?$regex_traits@DV?$w32_regex_traits@D@boost@@@boost@@@re_detail_500@boost@@AAE_N_N@Z 00494f50 f i NCDoc.obj
 0001:00093f90       ?match_dot_repeat_dispatch@?$perl_matcher@V?$_String_const_iterator@V?$_String_val@U?$_Simple_types@D@std@@@std@@@std@@V?$allocator@U?$sub_match@V?$_String_const_iterator@V?$_String_val@U?$_Simple_types@D@std@@@std@@@std@@@boost@@@2@U?$regex_traits@DV?$w32_regex_traits@D@boost@@@boost@@@re_detail_500@boost@@AAE_NXZ 00494f90 f i NCDoc.obj
 0001:000940a0       ??4?$match_results@PBDV?$allocator@U?$sub_match@PBD@boost@@@std@@@boost@@QAEAAV01@ABV01@@Z 004950a0 f i NCDoc.obj
 0001:000940a0       ??4?$match_results@V?$_String_const_iterator@V?$_String_val@U?$_Simple_types@D@std@@@std@@@std@@V?$allocator@U?$sub_match@V?$_String_const_iterator@V?$_String_val@U?$_Simple_types@D@std@@@std@@@std@@@boost@@@2@@boost@@QAEAAV01@ABV01@@Z 004950a0 f i NCDoc.obj
 0001:00094130       ?match_dot_repeat_dispatch@?$perl_matcher@PBDV?$allocator@U?$sub_match@PBD@boost@@@std@@U?$regex_traits@DV?$w32_regex_traits@D@boost@@@boost@@@re_detail_500@boost@@AAE_NXZ 00495130 f i NCDoc.obj
 0001:00094240       ?match_startmark@?$perl_matcher@PBDV?$allocator@U?$sub_match@PBD@boost@@@std@@U?$regex_traits@DV?$w32_regex_traits@D@boost@@@boost@@@re_detail_500@boost@@AAE_NXZ 00495240 f i NCDoc.obj
 0001:00094560       ?match_endmark@?$perl_matcher@PBDV?$allocator@U?$sub_match@PBD@boost@@@std@@U?$regex_traits@DV?$w32_regex_traits@D@boost@@@boost@@@re_detail_500@boost@@AAE_NXZ 00495560 f i NCDoc.obj
 0001:00094680       ?match_literal@?$perl_matcher@PBDV?$allocator@U?$sub_match@PBD@boost@@@std@@U?$regex_traits@DV?$w32_regex_traits@D@boost@@@boost@@@re_detail_500@boost@@AAE_NXZ 00495680 f i NCDoc.obj
 0001:000946e0       ?match_start_line@?$perl_matcher@V?$_String_const_iterator@V?$_String_val@U?$_Simple_types@D@std@@@std@@@std@@V?$allocator@U?$sub_match@V?$_String_const_iterator@V?$_String_val@U?$_Simple_types@D@std@@@std@@@std@@@boost@@@2@U?$regex_traits@DV?$w32_regex_traits@D@boost@@@boost@@@re_detail_500@boost@@AAE_NXZ 004956e0 f i NCDoc.obj
 0001:000946e0       ?match_start_line@?$perl_matcher@PBDV?$allocator@U?$sub_match@PBD@boost@@@std@@U?$regex_traits@DV?$w32_regex_traits@D@boost@@@boost@@@re_detail_500@boost@@AAE_NXZ 004956e0 f i NCDoc.obj
 0001:00094740       ?match_end_line@?$perl_matcher@PBDV?$allocator@U?$sub_match@PBD@boost@@@std@@U?$regex_traits@DV?$w32_regex_traits@D@boost@@@boost@@@re_detail_500@boost@@AAE_NXZ 00495740 f i NCDoc.obj
 0001:00094740       ?match_end_line@?$perl_matcher@V?$_String_const_iterator@V?$_String_val@U?$_Simple_types@D@std@@@std@@@std@@V?$allocator@U?$sub_match@V?$_String_const_iterator@V?$_String_val@U?$_Simple_types@D@std@@@std@@@std@@@boost@@@2@U?$regex_traits@DV?$w32_regex_traits@D@boost@@@boost@@@re_detail_500@boost@@AAE_NXZ 00495740 f i NCDoc.obj
 0001:000947a0       ?match_wild@?$perl_matcher@V?$_String_const_iterator@V?$_String_val@U?$_Simple_types@D@std@@@std@@@std@@V?$allocator@U?$sub_match@V?$_String_const_iterator@V?$_String_val@U?$_Simple_types@D@std@@@std@@@std@@@boost@@@2@U?$regex_traits@DV?$w32_regex_traits@D@boost@@@boost@@@re_detail_500@boost@@AAE_NXZ 004957a0 f i NCDoc.obj
 0001:000947a0       ?match_wild@?$perl_matcher@PBDV?$allocator@U?$sub_match@PBD@boost@@@std@@U?$regex_traits@DV?$w32_regex_traits@D@boost@@@boost@@@re_detail_500@boost@@AAE_NXZ 004957a0 f i NCDoc.obj
 0001:000947f0       ?match_match@?$perl_matcher@PBDV?$allocator@U?$sub_match@PBD@boost@@@std@@U?$regex_traits@DV?$w32_regex_traits@D@boost@@@boost@@@re_detail_500@boost@@AAE_NXZ 004957f0 f i NCDoc.obj
 0001:00094940       ?match_word_boundary@?$perl_matcher@PBDV?$allocator@U?$sub_match@PBD@boost@@@std@@U?$regex_traits@DV?$w32_regex_traits@D@boost@@@boost@@@re_detail_500@boost@@AAE_NXZ 00495940 f i NCDoc.obj
 0001:000949c0       ?match_within_word@?$perl_matcher@PBDV?$allocator@U?$sub_match@PBD@boost@@@std@@U?$regex_traits@DV?$w32_regex_traits@D@boost@@@boost@@@re_detail_500@boost@@AAE_NXZ 004959c0 f i NCDoc.obj
 0001:000949e0       ?match_word_start@?$perl_matcher@V?$_String_const_iterator@V?$_String_val@U?$_Simple_types@D@std@@@std@@@std@@V?$allocator@U?$sub_match@V?$_String_const_iterator@V?$_String_val@U?$_Simple_types@D@std@@@std@@@std@@@boost@@@2@U?$regex_traits@DV?$w32_regex_traits@D@boost@@@boost@@@re_detail_500@boost@@AAE_NXZ 004959e0 f i NCDoc.obj
 0001:000949e0       ?match_word_start@?$perl_matcher@PBDV?$allocator@U?$sub_match@PBD@boost@@@std@@U?$regex_traits@DV?$w32_regex_traits@D@boost@@@boost@@@re_detail_500@boost@@AAE_NXZ 004959e0 f i NCDoc.obj
 0001:00094a40       ?match_word_end@?$perl_matcher@PBDV?$allocator@U?$sub_match@PBD@boost@@@std@@U?$regex_traits@DV?$w32_regex_traits@D@boost@@@boost@@@re_detail_500@boost@@AAE_NXZ 00495a40 f i NCDoc.obj
 0001:00094a40       ?match_word_end@?$perl_matcher@V?$_String_const_iterator@V?$_String_val@U?$_Simple_types@D@std@@@std@@@std@@V?$allocator@U?$sub_match@V?$_String_const_iterator@V?$_String_val@U?$_Simple_types@D@std@@@std@@@std@@@boost@@@2@U?$regex_traits@DV?$w32_regex_traits@D@boost@@@boost@@@re_detail_500@boost@@AAE_NXZ 00495a40 f i NCDoc.obj
 0001:00094aa0       ?match_buffer_start@?$perl_matcher@V?$_String_const_iterator@V?$_String_val@U?$_Simple_types@D@std@@@std@@@std@@V?$allocator@U?$sub_match@V?$_String_const_iterator@V?$_String_val@U?$_Simple_types@D@std@@@std@@@std@@@boost@@@2@U?$regex_traits@DV?$w32_regex_traits@D@boost@@@boost@@@re_detail_500@boost@@AAE_NXZ 00495aa0 f i NCDoc.obj
 0001:00094aa0       ?match_buffer_start@?$perl_matcher@PBDV?$allocator@U?$sub_match@PBD@boost@@@std@@U?$regex_traits@DV?$w32_regex_traits@D@boost@@@boost@@@re_detail_500@boost@@AAE_NXZ 00495aa0 f i NCDoc.obj
 0001:00094ac0       ?match_buffer_end@?$perl_matcher@V?$_String_const_iterator@V?$_String_val@U?$_Simple_types@D@std@@@std@@@std@@V?$allocator@U?$sub_match@V?$_String_const_iterator@V?$_String_val@U?$_Simple_types@D@std@@@std@@@std@@@boost@@@2@U?$regex_traits@DV?$w32_regex_traits@D@boost@@@boost@@@re_detail_500@boost@@AAE_NXZ 00495ac0 f i NCDoc.obj
 0001:00094ac0       ?match_buffer_end@?$perl_matcher@PBDV?$allocator@U?$sub_match@PBD@boost@@@std@@U?$regex_traits@DV?$w32_regex_traits@D@boost@@@boost@@@re_detail_500@boost@@AAE_NXZ 00495ac0 f i NCDoc.obj
 0001:00094ae0       ?match_backref@?$perl_matcher@PBDV?$allocator@U?$sub_match@PBD@boost@@@std@@U?$regex_traits@DV?$w32_regex_traits@D@boost@@@boost@@@re_detail_500@boost@@AAE_NXZ 00495ae0 f i NCDoc.obj
 0001:00094c30       ?match_long_set@?$perl_matcher@PBDV?$allocator@U?$sub_match@PBD@boost@@@std@@U?$regex_traits@DV?$w32_regex_traits@D@boost@@@boost@@@re_detail_500@boost@@AAE_NXZ 00495c30 f i NCDoc.obj
 0001:00094c70       ?match_set@?$perl_matcher@V?$_String_const_iterator@V?$_String_val@U?$_Simple_types@D@std@@@std@@@std@@V?$allocator@U?$sub_match@V?$_String_const_iterator@V?$_String_val@U?$_Simple_types@D@std@@@std@@@std@@@boost@@@2@U?$regex_traits@DV?$w32_regex_traits@D@boost@@@boost@@@re_detail_500@boost@@AAE_NXZ 00495c70 f i NCDoc.obj
 0001:00094c70       ?match_set@?$perl_matcher@PBDV?$allocator@U?$sub_match@PBD@boost@@@std@@U?$regex_traits@DV?$w32_regex_traits@D@boost@@@boost@@@re_detail_500@boost@@AAE_NXZ 00495c70 f i NCDoc.obj
 0001:00094cc0       ?match_jump@?$perl_matcher@V?$_String_const_iterator@V?$_String_val@U?$_Simple_types@D@std@@@std@@@std@@V?$allocator@U?$sub_match@V?$_String_const_iterator@V?$_String_val@U?$_Simple_types@D@std@@@std@@@std@@@boost@@@2@U?$regex_traits@DV?$w32_regex_traits@D@boost@@@boost@@@re_detail_500@boost@@AAE_NXZ 00495cc0 f i NCDoc.obj
 0001:00094cc0       ?match_jump@?$perl_matcher@PBDV?$allocator@U?$sub_match@PBD@boost@@@std@@U?$regex_traits@DV?$w32_regex_traits@D@boost@@@boost@@@re_detail_500@boost@@AAE_NXZ 00495cc0 f i NCDoc.obj
 0001:00094cd0       ?match_alt@?$perl_matcher@PBDV?$allocator@U?$sub_match@PBD@boost@@@std@@U?$regex_traits@DV?$w32_regex_traits@D@boost@@@boost@@@re_detail_500@boost@@AAE_NXZ 00495cd0 f i NCDoc.obj
 0001:00094d30       ?match_rep@?$perl_matcher@PBDV?$allocator@U?$sub_match@PBD@boost@@@std@@U?$regex_traits@DV?$w32_regex_traits@D@boost@@@boost@@@re_detail_500@boost@@AAE_NXZ 00495d30 f i NCDoc.obj
 0001:00094f00       ?match_combining@?$perl_matcher@PBDV?$allocator@U?$sub_match@PBD@boost@@@std@@U?$regex_traits@DV?$w32_regex_traits@D@boost@@@boost@@@re_detail_500@boost@@AAE_NXZ 00495f00 f i NCDoc.obj
 0001:00094f00       ?match_combining@?$perl_matcher@V?$_String_const_iterator@V?$_String_val@U?$_Simple_types@D@std@@@std@@@std@@V?$allocator@U?$sub_match@V?$_String_const_iterator@V?$_String_val@U?$_Simple_types@D@std@@@std@@@std@@@boost@@@2@U?$regex_traits@DV?$w32_regex_traits@D@boost@@@boost@@@re_detail_500@boost@@AAE_NXZ 00495f00 f i NCDoc.obj
 0001:00094f20       ?match_soft_buffer_end@?$perl_matcher@PBDV?$allocator@U?$sub_match@PBD@boost@@@std@@U?$regex_traits@DV?$w32_regex_traits@D@boost@@@boost@@@re_detail_500@boost@@AAE_NXZ 00495f20 f i NCDoc.obj
 0001:00094f80       ?match_restart_continue@?$perl_matcher@PBDV?$allocator@U?$sub_match@PBD@boost@@@std@@U?$regex_traits@DV?$w32_regex_traits@D@boost@@@boost@@@re_detail_500@boost@@AAE_NXZ 00495f80 f i NCDoc.obj
 0001:00094f80       ?match_restart_continue@?$perl_matcher@V?$_String_const_iterator@V?$_String_val@U?$_Simple_types@D@std@@@std@@@std@@V?$allocator@U?$sub_match@V?$_String_const_iterator@V?$_String_val@U?$_Simple_types@D@std@@@std@@@std@@@boost@@@2@U?$regex_traits@DV?$w32_regex_traits@D@boost@@@boost@@@re_detail_500@boost@@AAE_NXZ 00495f80 f i NCDoc.obj
 0001:00094fa0       ?match_long_set_repeat@?$perl_matcher@PBDV?$allocator@U?$sub_match@PBD@boost@@@std@@U?$regex_traits@DV?$w32_regex_traits@D@boost@@@boost@@@re_detail_500@boost@@AAE_NXZ 00495fa0 f i NCDoc.obj
 0001:000950f0       ?match_set_repeat@?$perl_matcher@PBDV?$allocator@U?$sub_match@PBD@boost@@@std@@U?$regex_traits@DV?$w32_regex_traits@D@boost@@@boost@@@re_detail_500@boost@@AAE_NXZ 004960f0 f i NCDoc.obj
 0001:00095250       ?match_char_repeat@?$perl_matcher@PBDV?$allocator@U?$sub_match@PBD@boost@@@std@@U?$regex_traits@DV?$w32_regex_traits@D@boost@@@boost@@@re_detail_500@boost@@AAE_NXZ 00496250 f i NCDoc.obj
 0001:000953b0       ?match_dot_repeat_slow@?$perl_matcher@PBDV?$allocator@U?$sub_match@PBD@boost@@@std@@U?$regex_traits@DV?$w32_regex_traits@D@boost@@@boost@@@re_detail_500@boost@@AAE_NXZ 004963b0 f i NCDoc.obj
 0001:00095570       ?match_backstep@?$perl_matcher@V?$_String_const_iterator@V?$_String_val@U?$_Simple_types@D@std@@@std@@@std@@V?$allocator@U?$sub_match@V?$_String_const_iterator@V?$_String_val@U?$_Simple_types@D@std@@@std@@@std@@@boost@@@2@U?$regex_traits@DV?$w32_regex_traits@D@boost@@@boost@@@re_detail_500@boost@@AAE_NXZ 00496570 f i NCDoc.obj
 0001:00095570       ?match_backstep@?$perl_matcher@PBDV?$allocator@U?$sub_match@PBD@boost@@@std@@U?$regex_traits@DV?$w32_regex_traits@D@boost@@@boost@@@re_detail_500@boost@@AAE_NXZ 00496570 f i NCDoc.obj
 0001:000955a0       ?match_assert_backref@?$perl_matcher@PBDV?$allocator@U?$sub_match@PBD@boost@@@std@@U?$regex_traits@DV?$w32_regex_traits@D@boost@@@boost@@@re_detail_500@boost@@AAE_NXZ 004965a0 f i NCDoc.obj
 0001:000955a0       ?match_assert_backref@?$perl_matcher@V?$_String_const_iterator@V?$_String_val@U?$_Simple_types@D@std@@@std@@@std@@V?$allocator@U?$sub_match@V?$_String_const_iterator@V?$_String_val@U?$_Simple_types@D@std@@@std@@@std@@@boost@@@2@U?$regex_traits@DV?$w32_regex_traits@D@boost@@@boost@@@re_detail_500@boost@@AAE_NXZ 004965a0 f i NCDoc.obj
 0001:00095760       ?match_toggle_case@?$perl_matcher@V?$_String_const_iterator@V?$_String_val@U?$_Simple_types@D@std@@@std@@@std@@V?$allocator@U?$sub_match@V?$_String_const_iterator@V?$_String_val@U?$_Simple_types@D@std@@@std@@@std@@@boost@@@2@U?$regex_traits@DV?$w32_regex_traits@D@boost@@@boost@@@re_detail_500@boost@@AAE_NXZ 00496760 f i NCDoc.obj
 0001:00095760       ?match_toggle_case@?$perl_matcher@PBDV?$allocator@U?$sub_match@PBD@boost@@@std@@U?$regex_traits@DV?$w32_regex_traits@D@boost@@@boost@@@re_detail_500@boost@@AAE_NXZ 00496760 f i NCDoc.obj
 0001:000957e0       ?match_recursion@?$perl_matcher@PBDV?$allocator@U?$sub_match@PBD@boost@@@std@@U?$regex_traits@DV?$w32_regex_traits@D@boost@@@boost@@@re_detail_500@boost@@AAE_NXZ 004967e0 f i NCDoc.obj
 0001:000959f0       ?match_accept@?$perl_matcher@PBDV?$allocator@U?$sub_match@PBD@boost@@@std@@U?$regex_traits@DV?$w32_regex_traits@D@boost@@@boost@@@re_detail_500@boost@@AAE_NXZ 004969f0 f i NCDoc.obj
 0001:00095a20       ?match_commit@?$perl_matcher@V?$_String_const_iterator@V?$_String_val@U?$_Simple_types@D@std@@@std@@@std@@V?$allocator@U?$sub_match@V?$_String_const_iterator@V?$_String_val@U?$_Simple_types@D@std@@@std@@@std@@@boost@@@2@U?$regex_traits@DV?$w32_regex_traits@D@boost@@@boost@@@re_detail_500@boost@@AAE_NXZ 00496a20 f i NCDoc.obj
 0001:00095a20       ?match_commit@?$perl_matcher@PBDV?$allocator@U?$sub_match@PBD@boost@@@std@@U?$regex_traits@DV?$w32_regex_traits@D@boost@@@boost@@@re_detail_500@boost@@AAE_NXZ 00496a20 f i NCDoc.obj
 0001:00095ab0       ?match_then@?$perl_matcher@PBDV?$allocator@U?$sub_match@PBD@boost@@@std@@U?$regex_traits@DV?$w32_regex_traits@D@boost@@@boost@@@re_detail_500@boost@@AAE_NXZ 00496ab0 f i NCDoc.obj
 0001:00095ab0       ?match_then@?$perl_matcher@V?$_String_const_iterator@V?$_String_val@U?$_Simple_types@D@std@@@std@@@std@@V?$allocator@U?$sub_match@V?$_String_const_iterator@V?$_String_val@U?$_Simple_types@D@std@@@std@@@std@@@boost@@@2@U?$regex_traits@DV?$w32_regex_traits@D@boost@@@boost@@@re_detail_500@boost@@AAE_NXZ 00496ab0 f i NCDoc.obj
 0001:00095b20       ?match_startmark@?$perl_matcher@V?$_String_const_iterator@V?$_String_val@U?$_Simple_types@D@std@@@std@@@std@@V?$allocator@U?$sub_match@V?$_String_const_iterator@V?$_String_val@U?$_Simple_types@D@std@@@std@@@std@@@boost@@@2@U?$regex_traits@DV?$w32_regex_traits@D@boost@@@boost@@@re_detail_500@boost@@AAE_NXZ 00496b20 f i NCDoc.obj
 0001:00095e30       ?match_endmark@?$perl_matcher@V?$_String_const_iterator@V?$_String_val@U?$_Simple_types@D@std@@@std@@@std@@V?$allocator@U?$sub_match@V?$_String_const_iterator@V?$_String_val@U?$_Simple_types@D@std@@@std@@@std@@@boost@@@2@U?$regex_traits@DV?$w32_regex_traits@D@boost@@@boost@@@re_detail_500@boost@@AAE_NXZ 00496e30 f i NCDoc.obj
 0001:00095f50       ?match_literal@?$perl_matcher@V?$_String_const_iterator@V?$_String_val@U?$_Simple_types@D@std@@@std@@@std@@V?$allocator@U?$sub_match@V?$_String_const_iterator@V?$_String_val@U?$_Simple_types@D@std@@@std@@@std@@@boost@@@2@U?$regex_traits@DV?$w32_regex_traits@D@boost@@@boost@@@re_detail_500@boost@@AAE_NXZ 00496f50 f i NCDoc.obj
 0001:00095fb0       ?match_match@?$perl_matcher@V?$_String_const_iterator@V?$_String_val@U?$_Simple_types@D@std@@@std@@@std@@V?$allocator@U?$sub_match@V?$_String_const_iterator@V?$_String_val@U?$_Simple_types@D@std@@@std@@@std@@@boost@@@2@U?$regex_traits@DV?$w32_regex_traits@D@boost@@@boost@@@re_detail_500@boost@@AAE_NXZ 00496fb0 f i NCDoc.obj
 0001:00096100       ?match_word_boundary@?$perl_matcher@V?$_String_const_iterator@V?$_String_val@U?$_Simple_types@D@std@@@std@@@std@@V?$allocator@U?$sub_match@V?$_String_const_iterator@V?$_String_val@U?$_Simple_types@D@std@@@std@@@std@@@boost@@@2@U?$regex_traits@DV?$w32_regex_traits@D@boost@@@boost@@@re_detail_500@boost@@AAE_NXZ 00497100 f i NCDoc.obj
 0001:00096180       ?match_within_word@?$perl_matcher@V?$_String_const_iterator@V?$_String_val@U?$_Simple_types@D@std@@@std@@@std@@V?$allocator@U?$sub_match@V?$_String_const_iterator@V?$_String_val@U?$_Simple_types@D@std@@@std@@@std@@@boost@@@2@U?$regex_traits@DV?$w32_regex_traits@D@boost@@@boost@@@re_detail_500@boost@@AAE_NXZ 00497180 f i NCDoc.obj
 0001:000961a0       ?match_backref@?$perl_matcher@V?$_String_const_iterator@V?$_String_val@U?$_Simple_types@D@std@@@std@@@std@@V?$allocator@U?$sub_match@V?$_String_const_iterator@V?$_String_val@U?$_Simple_types@D@std@@@std@@@std@@@boost@@@2@U?$regex_traits@DV?$w32_regex_traits@D@boost@@@boost@@@re_detail_500@boost@@AAE_NXZ 004971a0 f i NCDoc.obj
 0001:00096300       ?match_long_set@?$perl_matcher@V?$_String_const_iterator@V?$_String_val@U?$_Simple_types@D@std@@@std@@@std@@V?$allocator@U?$sub_match@V?$_String_const_iterator@V?$_String_val@U?$_Simple_types@D@std@@@std@@@std@@@boost@@@2@U?$regex_traits@DV?$w32_regex_traits@D@boost@@@boost@@@re_detail_500@boost@@AAE_NXZ 00497300 f i NCDoc.obj
 0001:00096350       ?match_alt@?$perl_matcher@V?$_String_const_iterator@V?$_String_val@U?$_Simple_types@D@std@@@std@@@std@@V?$allocator@U?$sub_match@V?$_String_const_iterator@V?$_String_val@U?$_Simple_types@D@std@@@std@@@std@@@boost@@@2@U?$regex_traits@DV?$w32_regex_traits@D@boost@@@boost@@@re_detail_500@boost@@AAE_NXZ 00497350 f i NCDoc.obj
 0001:000963b0       ?match_rep@?$perl_matcher@V?$_String_const_iterator@V?$_String_val@U?$_Simple_types@D@std@@@std@@@std@@V?$allocator@U?$sub_match@V?$_String_const_iterator@V?$_String_val@U?$_Simple_types@D@std@@@std@@@std@@@boost@@@2@U?$regex_traits@DV?$w32_regex_traits@D@boost@@@boost@@@re_detail_500@boost@@AAE_NXZ 004973b0 f i NCDoc.obj
 0001:00096580       ?match_soft_buffer_end@?$perl_matcher@V?$_String_const_iterator@V?$_String_val@U?$_Simple_types@D@std@@@std@@@std@@V?$allocator@U?$sub_match@V?$_String_const_iterator@V?$_String_val@U?$_Simple_types@D@std@@@std@@@std@@@boost@@@2@U?$regex_traits@DV?$w32_regex_traits@D@boost@@@boost@@@re_detail_500@boost@@AAE_NXZ 00497580 f i NCDoc.obj
 0001:000965f0       ?match_long_set_repeat@?$perl_matcher@V?$_String_const_iterator@V?$_String_val@U?$_Simple_types@D@std@@@std@@@std@@V?$allocator@U?$sub_match@V?$_String_const_iterator@V?$_String_val@U?$_Simple_types@D@std@@@std@@@std@@@boost@@@2@U?$regex_traits@DV?$w32_regex_traits@D@boost@@@boost@@@re_detail_500@boost@@AAE_NXZ 004975f0 f i NCDoc.obj
 0001:00096760       ?match_set_repeat@?$perl_matcher@V?$_String_const_iterator@V?$_String_val@U?$_Simple_types@D@std@@@std@@@std@@V?$allocator@U?$sub_match@V?$_String_const_iterator@V?$_String_val@U?$_Simple_types@D@std@@@std@@@std@@@boost@@@2@U?$regex_traits@DV?$w32_regex_traits@D@boost@@@boost@@@re_detail_500@boost@@AAE_NXZ 00497760 f i NCDoc.obj
 0001:000968e0       ?match_char_repeat@?$perl_matcher@V?$_String_const_iterator@V?$_String_val@U?$_Simple_types@D@std@@@std@@@std@@V?$allocator@U?$sub_match@V?$_String_const_iterator@V?$_String_val@U?$_Simple_types@D@std@@@std@@@std@@@boost@@@2@U?$regex_traits@DV?$w32_regex_traits@D@boost@@@boost@@@re_detail_500@boost@@AAE_NXZ 004978e0 f i NCDoc.obj
 0001:00096a50       ?match_dot_repeat_slow@?$perl_matcher@V?$_String_const_iterator@V?$_String_val@U?$_Simple_types@D@std@@@std@@@std@@V?$allocator@U?$sub_match@V?$_String_const_iterator@V?$_String_val@U?$_Simple_types@D@std@@@std@@@std@@@boost@@@2@U?$regex_traits@DV?$w32_regex_traits@D@boost@@@boost@@@re_detail_500@boost@@AAE_NXZ 00497a50 f i NCDoc.obj
 0001:00096bd0       ?match_recursion@?$perl_matcher@V?$_String_const_iterator@V?$_String_val@U?$_Simple_types@D@std@@@std@@@std@@V?$allocator@U?$sub_match@V?$_String_const_iterator@V?$_String_val@U?$_Simple_types@D@std@@@std@@@std@@@boost@@@2@U?$regex_traits@DV?$w32_regex_traits@D@boost@@@boost@@@re_detail_500@boost@@AAE_NXZ 00497bd0 f i NCDoc.obj
 0001:00096df0       ?match_accept@?$perl_matcher@V?$_String_const_iterator@V?$_String_val@U?$_Simple_types@D@std@@@std@@@std@@V?$allocator@U?$sub_match@V?$_String_const_iterator@V?$_String_val@U?$_Simple_types@D@std@@@std@@@std@@@boost@@@2@U?$regex_traits@DV?$w32_regex_traits@D@boost@@@boost@@@re_detail_500@boost@@AAE_NXZ 00497df0 f i NCDoc.obj
 0001:00096e20       ?format_all@?$basic_regex_formatter@V?$string_out_iterator@V?$basic_string@DU?$char_traits@D@std@@V?$allocator@D@2@@std@@@re_detail_500@boost@@V?$match_results@V?$_String_const_iterator@V?$_String_val@U?$_Simple_types@D@std@@@std@@@std@@V?$allocator@U?$sub_match@V?$_String_const_iterator@V?$_String_val@U?$_Simple_types@D@std@@@std@@@std@@@boost@@@2@@3@U?$regex_traits_wrapper@U?$regex_traits@DV?$w32_regex_traits@D@boost@@@boost@@@3@PBD@re_detail_500@boost@@AAEXXZ 00497e20 f i NCDoc.obj
 0001:00097000       ??$raise_error@U?$regex_traits_wrapper@U?$regex_traits@DV?$w32_regex_traits@D@boost@@@boost@@@boost@@@re_detail_500@boost@@YAXABU?$regex_traits_wrapper@U?$regex_traits@DV?$w32_regex_traits@D@boost@@@boost@@@1@W4error_type@regex_constants@1@@Z 00498000 f i NCDoc.obj
 0001:00097060       ??$re_is_set_member@V?$_String_const_iterator@V?$_String_val@U?$_Simple_types@D@std@@@std@@@std@@DU?$regex_traits@DV?$w32_regex_traits@D@boost@@@boost@@I@re_detail_500@boost@@YA?AV?$_String_const_iterator@V?$_String_val@U?$_Simple_types@D@std@@@std@@@std@@V23@0PBU?$re_set_long@I@01@ABU?$regex_data@DU?$regex_traits@DV?$w32_regex_traits@D@boost@@@boost@@@01@_N@Z 00498060 f i NCDoc.obj
 0001:00097570       ??$_Emplace_reallocate@U?$recursion_info@V?$match_results@V?$_String_const_iterator@V?$_String_val@U?$_Simple_types@D@std@@@std@@@std@@V?$allocator@U?$sub_match@V?$_String_const_iterator@V?$_String_val@U?$_Simple_types@D@std@@@std@@@std@@@boost@@@2@@boost@@@re_detail_500@boost@@@?$vector@U?$recursion_info@V?$match_results@V?$_String_const_iterator@V?$_String_val@U?$_Simple_types@D@std@@@std@@@std@@V?$allocator@U?$sub_match@V?$_String_const_iterator@V?$_String_val@U?$_Simple_types@D@std@@@std@@@std@@@boost@@@2@@boost@@@re_detail_500@boost@@V?$allocator@U?$recursion_info@V?$match_results@V?$_String_const_iterator@V?$_String_val@U?$_Simple_types@D@std@@@std@@@std@@V?$allocator@U?$sub_match@V?$_String_const_iterator@V?$_String_val@U?$_Simple_types@D@std@@@std@@@std@@@boost@@@2@@boost@@@re_detail_500@boost@@@std@@@std@@QAEPAU?$recursion_info@V?$match_results@V?$_String_const_iterator@V?$_String_val@U?$_Simple_types@D@std@@@std@@@std@@V?$allocator@U?$sub_match@V?$_String_const_iterator@V?$_String_val@U?$_Simple_types@D@std@@@std@@@std@@@boost@@@2@@boost@@@re_detail_500@boost@@QAU234@$$QAU234@@Z 00498570 f i NCDoc.obj
 0001:00097570       ??$_Emplace_reallocate@U?$recursion_info@V?$match_results@PBDV?$allocator@U?$sub_match@PBD@boost@@@std@@@boost@@@re_detail_500@boost@@@?$vector@U?$recursion_info@V?$match_results@PBDV?$allocator@U?$sub_match@PBD@boost@@@std@@@boost@@@re_detail_500@boost@@V?$allocator@U?$recursion_info@V?$match_results@PBDV?$allocator@U?$sub_match@PBD@boost@@@std@@@boost@@@re_detail_500@boost@@@std@@@std@@QAEPAU?$recursion_info@V?$match_results@PBDV?$allocator@U?$sub_match@PBD@boost@@@std@@@boost@@@re_detail_500@boost@@QAU234@$$QAU234@@Z 00498570 f i NCDoc.obj
 0001:00097700       ?_Change_array@?$vector@U?$recursion_info@V?$match_results@V?$_String_const_iterator@V?$_String_val@U?$_Simple_types@D@std@@@std@@@std@@V?$allocator@U?$sub_match@V?$_String_const_iterator@V?$_String_val@U?$_Simple_types@D@std@@@std@@@std@@@boost@@@2@@boost@@@re_detail_500@boost@@V?$allocator@U?$recursion_info@V?$match_results@V?$_String_const_iterator@V?$_String_val@U?$_Simple_types@D@std@@@std@@@std@@V?$allocator@U?$sub_match@V?$_String_const_iterator@V?$_String_val@U?$_Simple_types@D@std@@@std@@@std@@@boost@@@2@@boost@@@re_detail_500@boost@@@std@@@std@@AAEXQAU?$recursion_info@V?$match_results@V?$_String_const_iterator@V?$_String_val@U?$_Simple_types@D@std@@@std@@@std@@V?$allocator@U?$sub_match@V?$_String_const_iterator@V?$_String_val@U?$_Simple_types@D@std@@@std@@@std@@@boost@@@2@@boost@@@re_detail_500@boost@@II@Z 00498700 f i NCDoc.obj
 0001:00097700       ?_Change_array@?$vector@U?$recursion_info@V?$match_results@PBDV?$allocator@U?$sub_match@PBD@boost@@@std@@@boost@@@re_detail_500@boost@@V?$allocator@U?$recursion_info@V?$match_results@PBDV?$allocator@U?$sub_match@PBD@boost@@@std@@@boost@@@re_detail_500@boost@@@std@@@std@@AAEXQAU?$recursion_info@V?$match_results@PBDV?$allocator@U?$sub_match@PBD@boost@@@std@@@boost@@@re_detail_500@boost@@II@Z 00498700 f i NCDoc.obj
 0001:000977a0       ?allocate@?$allocator@U?$recursion_info@V?$match_results@V?$_String_const_iterator@V?$_String_val@U?$_Simple_types@D@std@@@std@@@std@@V?$allocator@U?$sub_match@V?$_String_const_iterator@V?$_String_val@U?$_Simple_types@D@std@@@std@@@std@@@boost@@@2@@boost@@@re_detail_500@boost@@@std@@QAEPAU?$recursion_info@V?$match_results@V?$_String_const_iterator@V?$_String_val@U?$_Simple_types@D@std@@@std@@@std@@V?$allocator@U?$sub_match@V?$_String_const_iterator@V?$_String_val@U?$_Simple_types@D@std@@@std@@@std@@@boost@@@2@@boost@@@re_detail_500@boost@@I@Z 004987a0 f i NCDoc.obj
 0001:000977a0       ?allocate@?$allocator@U?$recursion_info@V?$match_results@PBDV?$allocator@U?$sub_match@PBD@boost@@@std@@@boost@@@re_detail_500@boost@@@std@@QAEPAU?$recursion_info@V?$match_results@PBDV?$allocator@U?$sub_match@PBD@boost@@@std@@@boost@@@re_detail_500@boost@@I@Z 004987a0 f i NCDoc.obj
 0001:00097810       ?_Reallocate_exactly@?$vector@U?$recursion_info@V?$match_results@V?$_String_const_iterator@V?$_String_val@U?$_Simple_types@D@std@@@std@@@std@@V?$allocator@U?$sub_match@V?$_String_const_iterator@V?$_String_val@U?$_Simple_types@D@std@@@std@@@std@@@boost@@@2@@boost@@@re_detail_500@boost@@V?$allocator@U?$recursion_info@V?$match_results@V?$_String_const_iterator@V?$_String_val@U?$_Simple_types@D@std@@@std@@@std@@V?$allocator@U?$sub_match@V?$_String_const_iterator@V?$_String_val@U?$_Simple_types@D@std@@@std@@@std@@@boost@@@2@@boost@@@re_detail_500@boost@@@std@@@std@@AAEXI@Z 00498810 f i NCDoc.obj
 0001:00097810       ?_Reallocate_exactly@?$vector@U?$recursion_info@V?$match_results@PBDV?$allocator@U?$sub_match@PBD@boost@@@std@@@boost@@@re_detail_500@boost@@V?$allocator@U?$recursion_info@V?$match_results@PBDV?$allocator@U?$sub_match@PBD@boost@@@std@@@boost@@@re_detail_500@boost@@@std@@@std@@AAEXI@Z 00498810 f i NCDoc.obj
 0001:000978b0       ?skip_until_paren@?$perl_matcher@PBDV?$allocator@U?$sub_match@PBD@boost@@@std@@U?$regex_traits@DV?$w32_regex_traits@D@boost@@@boost@@@re_detail_500@boost@@AAE_NH_N@Z 004988b0 f i NCDoc.obj
 0001:00097970       ?push_matched_paren@?$perl_matcher@V?$_String_const_iterator@V?$_String_val@U?$_Simple_types@D@std@@@std@@@std@@V?$allocator@U?$sub_match@V?$_String_const_iterator@V?$_String_val@U?$_Simple_types@D@std@@@std@@@std@@@boost@@@2@U?$regex_traits@DV?$w32_regex_traits@D@boost@@@boost@@@re_detail_500@boost@@AAEXHABU?$sub_match@V?$_String_const_iterator@V?$_String_val@U?$_Simple_types@D@std@@@std@@@std@@@3@@Z 00498970 f i NCDoc.obj
 0001:00097970       ?push_matched_paren@?$perl_matcher@PBDV?$allocator@U?$sub_match@PBD@boost@@@std@@U?$regex_traits@DV?$w32_regex_traits@D@boost@@@boost@@@re_detail_500@boost@@AAEXHABU?$sub_match@PBD@3@@Z 00498970 f i NCDoc.obj
 0001:000979f0       ?push_alt@?$perl_matcher@PBDV?$allocator@U?$sub_match@PBD@boost@@@std@@U?$regex_traits@DV?$w32_regex_traits@D@boost@@@boost@@@re_detail_500@boost@@AAEXPBUre_syntax_base@23@@Z 004989f0 f i NCDoc.obj
 0001:00097a60       ?push_repeater_count@?$perl_matcher@PBDV?$allocator@U?$sub_match@PBD@boost@@@std@@U?$regex_traits@DV?$w32_regex_traits@D@boost@@@boost@@@re_detail_500@boost@@AAEXHPAPAV?$repeater_count@PBD@23@@Z 00498a60 f i NCDoc.obj
 0001:00097a60       ?push_repeater_count@?$perl_matcher@V?$_String_const_iterator@V?$_String_val@U?$_Simple_types@D@std@@@std@@@std@@V?$allocator@U?$sub_match@V?$_String_const_iterator@V?$_String_val@U?$_Simple_types@D@std@@@std@@@std@@@boost@@@2@U?$regex_traits@DV?$w32_regex_traits@D@boost@@@boost@@@re_detail_500@boost@@AAEXHPAPAV?$repeater_count@V?$_String_const_iterator@V?$_String_val@U?$_Simple_types@D@std@@@std@@@std@@@23@@Z 00498a60 f i NCDoc.obj
 0001:00097b40       ?push_single_repeat@?$perl_matcher@V?$_String_const_iterator@V?$_String_val@U?$_Simple_types@D@std@@@std@@@std@@V?$allocator@U?$sub_match@V?$_String_const_iterator@V?$_String_val@U?$_Simple_types@D@std@@@std@@@std@@@boost@@@2@U?$regex_traits@DV?$w32_regex_traits@D@boost@@@boost@@@re_detail_500@boost@@AAEXIPBUre_repeat@23@V?$_String_const_iterator@V?$_String_val@U?$_Simple_types@D@std@@@std@@@std@@H@Z 00498b40 f i NCDoc.obj
 0001:00097b40       ?push_single_repeat@?$perl_matcher@PBDV?$allocator@U?$sub_match@PBD@boost@@@std@@U?$regex_traits@DV?$w32_regex_traits@D@boost@@@boost@@@re_detail_500@boost@@AAEXIPBUre_repeat@23@PBDH@Z 00498b40 f i NCDoc.obj
 0001:00097bc0       ?push_recursion@?$perl_matcher@V?$_String_const_iterator@V?$_String_val@U?$_Simple_types@D@std@@@std@@@std@@V?$allocator@U?$sub_match@V?$_String_const_iterator@V?$_String_val@U?$_Simple_types@D@std@@@std@@@std@@@boost@@@2@U?$regex_traits@DV?$w32_regex_traits@D@boost@@@boost@@@re_detail_500@boost@@AAEXHPBUre_syntax_base@23@PAV?$match_results@V?$_String_const_iterator@V?$_String_val@U?$_Simple_types@D@std@@@std@@@std@@V?$allocator@U?$sub_match@V?$_String_const_iterator@V?$_String_val@U?$_Simple_types@D@std@@@std@@@std@@@boost@@@2@@3@1@Z 00498bc0 f i NCDoc.obj
 0001:00097bc0       ?push_recursion@?$perl_matcher@PBDV?$allocator@U?$sub_match@PBD@boost@@@std@@U?$regex_traits@DV?$w32_regex_traits@D@boost@@@boost@@@re_detail_500@boost@@AAEXHPBUre_syntax_base@23@PAV?$match_results@PBDV?$allocator@U?$sub_match@PBD@boost@@@std@@@3@1@Z 00498bc0 f i NCDoc.obj
 0001:00097c80       ?skip_until_paren@?$perl_matcher@V?$_String_const_iterator@V?$_String_val@U?$_Simple_types@D@std@@@std@@@std@@V?$allocator@U?$sub_match@V?$_String_const_iterator@V?$_String_val@U?$_Simple_types@D@std@@@std@@@std@@@boost@@@2@U?$regex_traits@DV?$w32_regex_traits@D@boost@@@boost@@@re_detail_500@boost@@AAE_NH_N@Z 00498c80 f i NCDoc.obj
 0001:00097d40       ?push_alt@?$perl_matcher@V?$_String_const_iterator@V?$_String_val@U?$_Simple_types@D@std@@@std@@@std@@V?$allocator@U?$sub_match@V?$_String_const_iterator@V?$_String_val@U?$_Simple_types@D@std@@@std@@@std@@@boost@@@2@U?$regex_traits@DV?$w32_regex_traits@D@boost@@@boost@@@re_detail_500@boost@@AAEXPBUre_syntax_base@23@@Z 00498d40 f i NCDoc.obj
 0001:00097db0       ?put@?$basic_regex_formatter@V?$string_out_iterator@V?$basic_string@DU?$char_traits@D@std@@V?$allocator@D@2@@std@@@re_detail_500@boost@@V?$match_results@V?$_String_const_iterator@V?$_String_val@U?$_Simple_types@D@std@@@std@@@std@@V?$allocator@U?$sub_match@V?$_String_const_iterator@V?$_String_val@U?$_Simple_types@D@std@@@std@@@std@@@boost@@@2@@3@U?$regex_traits_wrapper@U?$regex_traits@DV?$w32_regex_traits@D@boost@@@boost@@@3@PBD@re_detail_500@boost@@AAEXD@Z 00498db0 f i NCDoc.obj
 0001:00097ec0       ?format_perl@?$basic_regex_formatter@V?$string_out_iterator@V?$basic_string@DU?$char_traits@D@std@@V?$allocator@D@2@@std@@@re_detail_500@boost@@V?$match_results@V?$_String_const_iterator@V?$_String_val@U?$_Simple_types@D@std@@@std@@@std@@V?$allocator@U?$sub_match@V?$_String_const_iterator@V?$_String_val@U?$_Simple_types@D@std@@@std@@@std@@@boost@@@2@@3@U?$regex_traits_wrapper@U?$regex_traits@DV?$w32_regex_traits@D@boost@@@boost@@@3@PBD@re_detail_500@boost@@AAEXXZ 00498ec0 f i NCDoc.obj
 0001:000982b0       ?format_escape@?$basic_regex_formatter@V?$string_out_iterator@V?$basic_string@DU?$char_traits@D@std@@V?$allocator@D@2@@std@@@re_detail_500@boost@@V?$match_results@V?$_String_const_iterator@V?$_String_val@U?$_Simple_types@D@std@@@std@@@std@@V?$allocator@U?$sub_match@V?$_String_const_iterator@V?$_String_val@U?$_Simple_types@D@std@@@std@@@std@@@boost@@@2@@3@U?$regex_traits_wrapper@U?$regex_traits@DV?$w32_regex_traits@D@boost@@@boost@@@3@PBD@re_detail_500@boost@@AAEXXZ 004992b0 f i NCDoc.obj
 0001:000985e0       ?format_conditional@?$basic_regex_formatter@V?$string_out_iterator@V?$basic_string@DU?$char_traits@D@std@@V?$allocator@D@2@@std@@@re_detail_500@boost@@V?$match_results@V?$_String_const_iterator@V?$_String_val@U?$_Simple_types@D@std@@@std@@@std@@V?$allocator@U?$sub_match@V?$_String_const_iterator@V?$_String_val@U?$_Simple_types@D@std@@@std@@@std@@@boost@@@2@@3@U?$regex_traits_wrapper@U?$regex_traits@DV?$w32_regex_traits@D@boost@@@boost@@@3@PBD@re_detail_500@boost@@AAEXXZ 004995e0 f i NCDoc.obj
 0001:00098810       ??$_Uninitialized_move@PAU?$recursion_info@V?$match_results@PBDV?$allocator@U?$sub_match@PBD@boost@@@std@@@boost@@@re_detail_500@boost@@V?$allocator@U?$recursion_info@V?$match_results@PBDV?$allocator@U?$sub_match@PBD@boost@@@std@@@boost@@@re_detail_500@boost@@@std@@@std@@YAPAU?$recursion_info@V?$match_results@PBDV?$allocator@U?$sub_match@PBD@boost@@@std@@@boost@@@re_detail_500@boost@@QAU123@0PAU123@AAV?$allocator@U?$recursion_info@V?$match_results@PBDV?$allocator@U?$sub_match@PBD@boost@@@std@@@boost@@@re_detail_500@boost@@@0@@Z 00499810 f i NCDoc.obj
 0001:00098810       ??$_Uninitialized_move@PAU?$recursion_info@V?$match_results@V?$_String_const_iterator@V?$_String_val@U?$_Simple_types@D@std@@@std@@@std@@V?$allocator@U?$sub_match@V?$_String_const_iterator@V?$_String_val@U?$_Simple_types@D@std@@@std@@@std@@@boost@@@2@@boost@@@re_detail_500@boost@@V?$allocator@U?$recursion_info@V?$match_results@V?$_String_const_iterator@V?$_String_val@U?$_Simple_types@D@std@@@std@@@std@@V?$allocator@U?$sub_match@V?$_String_const_iterator@V?$_String_val@U?$_Simple_types@D@std@@@std@@@std@@@boost@@@2@@boost@@@re_detail_500@boost@@@std@@@std@@YAPAU?$recursion_info@V?$match_results@V?$_String_const_iterator@V?$_String_val@U?$_Simple_types@D@std@@@std@@@std@@V?$allocator@U?$sub_match@V?$_String_const_iterator@V?$_String_val@U?$_Simple_types@D@std@@@std@@@std@@@boost@@@2@@boost@@@re_detail_500@boost@@QAU123@0PAU123@AAV?$allocator@U?$recursion_info@V?$match_results@V?$_String_const_iterator@V?$_String_val@U?$_Simple_types@D@std@@@std@@@std@@V?$allocator@U?$sub_match@V?$_String_const_iterator@V?$_String_val@U?$_Simple_types@D@std@@@std@@@std@@@boost@@@2@@boost@@@re_detail_500@boost@@@0@@Z 00499810 f i NCDoc.obj
 0001:00098810       ??$_Uninitialized_copy@PAU?$recursion_info@V?$match_results@V?$_String_const_iterator@V?$_String_val@U?$_Simple_types@D@std@@@std@@@std@@V?$allocator@U?$sub_match@V?$_String_const_iterator@V?$_String_val@U?$_Simple_types@D@std@@@std@@@std@@@boost@@@2@@boost@@@re_detail_500@boost@@V?$allocator@U?$recursion_info@V?$match_results@V?$_String_const_iterator@V?$_String_val@U?$_Simple_types@D@std@@@std@@@std@@V?$allocator@U?$sub_match@V?$_String_const_iterator@V?$_String_val@U?$_Simple_types@D@std@@@std@@@std@@@boost@@@2@@boost@@@re_detail_500@boost@@@std@@@std@@YAPAU?$recursion_info@V?$match_results@V?$_String_const_iterator@V?$_String_val@U?$_Simple_types@D@std@@@std@@@std@@V?$allocator@U?$sub_match@V?$_String_const_iterator@V?$_String_val@U?$_Simple_types@D@std@@@std@@@std@@@boost@@@2@@boost@@@re_detail_500@boost@@QAU123@0PAU123@AAV?$allocator@U?$recursion_info@V?$match_results@V?$_String_const_iterator@V?$_String_val@U?$_Simple_types@D@std@@@std@@@std@@V?$allocator@U?$sub_match@V?$_String_const_iterator@V?$_String_val@U?$_Simple_types@D@std@@@std@@@std@@@boost@@@2@@boost@@@re_detail_500@boost@@@0@@Z 00499810 f i NCDoc.obj
 0001:00098810       ??$_Uninitialized_copy@PAU?$recursion_info@V?$match_results@PBDV?$allocator@U?$sub_match@PBD@boost@@@std@@@boost@@@re_detail_500@boost@@V?$allocator@U?$recursion_info@V?$match_results@PBDV?$allocator@U?$sub_match@PBD@boost@@@std@@@boost@@@re_detail_500@boost@@@std@@@std@@YAPAU?$recursion_info@V?$match_results@PBDV?$allocator@U?$sub_match@PBD@boost@@@std@@@boost@@@re_detail_500@boost@@QAU123@0PAU123@AAV?$allocator@U?$recursion_info@V?$match_results@PBDV?$allocator@U?$sub_match@PBD@boost@@@std@@@boost@@@re_detail_500@boost@@@0@@Z 00499810 f i NCDoc.obj
 0001:000988b0       ??$_Assign_range@PAU?$sub_match@PBD@boost@@@?$vector@U?$sub_match@PBD@boost@@V?$allocator@U?$sub_match@PBD@boost@@@std@@@std@@AAEXPAU?$sub_match@PBD@boost@@0Uforward_iterator_tag@1@@Z 004998b0 f i NCDoc.obj
 0001:000988b0       ??$_Assign_range@PAU?$sub_match@V?$_String_const_iterator@V?$_String_val@U?$_Simple_types@D@std@@@std@@@std@@@boost@@@?$vector@U?$sub_match@V?$_String_const_iterator@V?$_String_val@U?$_Simple_types@D@std@@@std@@@std@@@boost@@V?$allocator@U?$sub_match@V?$_String_const_iterator@V?$_String_val@U?$_Simple_types@D@std@@@std@@@std@@@boost@@@std@@@std@@AAEXPAU?$sub_match@V?$_String_const_iterator@V?$_String_val@U?$_Simple_types@D@std@@@std@@@std@@@boost@@0Uforward_iterator_tag@1@@Z 004998b0 f i NCDoc.obj
 0001:00098a60       ??1?$_Uninitialized_backout_al@V?$allocator@U?$recursion_info@V?$match_results@V?$_String_const_iterator@V?$_String_val@U?$_Simple_types@D@std@@@std@@@std@@V?$allocator@U?$sub_match@V?$_String_const_iterator@V?$_String_val@U?$_Simple_types@D@std@@@std@@@std@@@boost@@@2@@boost@@@re_detail_500@boost@@@std@@@std@@QAE@XZ 00499a60 f i NCDoc.obj
 0001:00098a60       ??1?$_Uninitialized_backout_al@V?$allocator@U?$recursion_info@V?$match_results@PBDV?$allocator@U?$sub_match@PBD@boost@@@std@@@boost@@@re_detail_500@boost@@@std@@@std@@QAE@XZ 00499a60 f i NCDoc.obj
 0001:00098a70       ?toi@?$basic_regex_formatter@V?$string_out_iterator@V?$basic_string@DU?$char_traits@D@std@@V?$allocator@D@2@@std@@@re_detail_500@boost@@V?$match_results@V?$_String_const_iterator@V?$_String_val@U?$_Simple_types@D@std@@@std@@@std@@V?$allocator@U?$sub_match@V?$_String_const_iterator@V?$_String_val@U?$_Simple_types@D@std@@@std@@@std@@@boost@@@2@@3@U?$regex_traits_wrapper@U?$regex_traits@DV?$w32_regex_traits@D@boost@@@boost@@@3@PBD@re_detail_500@boost@@AAEHAAPBDPBDH@Z 00499a70 f i NCDoc.obj
 0001:00098b30       ?unwind_until@?$repeater_count@V?$_String_const_iterator@V?$_String_val@U?$_Simple_types@D@std@@@std@@@std@@@re_detail_500@boost@@AAEPAV123@HPAV123@H@Z 00499b30 f i NCDoc.obj
 0001:00098b30       ?unwind_until@?$repeater_count@PBD@re_detail_500@boost@@AAEPAV123@HPAV123@H@Z 00499b30 f i NCDoc.obj
 0001:00098b90       ?handle_perl_verb@?$basic_regex_formatter@V?$string_out_iterator@V?$basic_string@DU?$char_traits@D@std@@V?$allocator@D@2@@std@@@re_detail_500@boost@@V?$match_results@V?$_String_const_iterator@V?$_String_val@U?$_Simple_types@D@std@@@std@@@std@@V?$allocator@U?$sub_match@V?$_String_const_iterator@V?$_String_val@U?$_Simple_types@D@std@@@std@@@std@@@boost@@@2@@3@U?$regex_traits_wrapper@U?$regex_traits@DV?$w32_regex_traits@D@boost@@@boost@@@3@PBD@re_detail_500@boost@@AAE_N_N@Z 00499b90 f i NCDoc.obj
 0001:00098f60       ??$_Copy_unchecked@PAU?$sub_match@V?$_String_const_iterator@V?$_String_val@U?$_Simple_types@D@std@@@std@@@std@@@boost@@PAU12@@std@@YAPAU?$sub_match@V?$_String_const_iterator@V?$_String_val@U?$_Simple_types@D@std@@@std@@@std@@@boost@@PAU12@00@Z 00499f60 f i NCDoc.obj
 0001:00098f60       ??$_Copy_unchecked@PAU?$sub_match@PBD@boost@@PAU12@@std@@YAPAU?$sub_match@PBD@boost@@PAU12@00@Z 00499f60 f i NCDoc.obj
 0001:00098f95       ??_9CNCdata@@$BBA@AE       00499f95 f i NCDoc.obj
 0001:00098f9a       ??_9CNCdata@@$B3AE         00499f9a f i NCDoc.obj
 0001:00098f9f       ??_9CNCdata@@$B7AE         00499f9f f i NCDoc.obj
 0001:00098fa4       ??_9CNCdata@@$BM@AE        00499fa4 f i NCDoc.obj
 0001:00098fb0       ??$equal_range@V?$_Vector_const_iterator@V?$_Vector_val@U?$_Simple_types@Uname@named_subexpressions@re_detail_500@boost@@@std@@@std@@@std@@Uname@named_subexpressions@re_detail_500@boost@@@std@@YA?AU?$pair@V?$_Vector_const_iterator@V?$_Vector_val@U?$_Simple_types@Uname@named_subexpressions@re_detail_500@boost@@@std@@@std@@@std@@V12@@0@V?$_Vector_const_iterator@V?$_Vector_val@U?$_Simple_types@Uname@named_subexpressions@re_detail_500@boost@@@std@@@std@@@0@0ABUname@named_subexpressions@re_detail_500@boost@@@Z 00499fb0 f i NCDoc.obj
 0001:00099080       ??1incrementer@re_detail_500@boost@@QAE@XZ 0049a080 f i NCDoc.obj
 0001:00099090       ?put_mem_block@re_detail_500@boost@@YAXPAX@Z 0049a090 f i NCDoc.obj
 0001:000990d0       ??1save_state_init@re_detail_500@boost@@QAE@XZ 0049a0d0 f i NCDoc.obj
 0001:000990f0       ?instance@mem_block_cache@re_detail_500@boost@@SAAAU123@XZ 0049a0f0 f i NCDoc.obj
 0001:00099150       ?get_mem_block@re_detail_500@boost@@YAPAXXZ 0049a150 f i NCDoc.obj
 0001:000991a0       ??0invalid_argument@std@@QAE@PBD@Z 0049a1a0 f i NCDoc.obj
 0001:000991f0       ??0?$wrapexcept@Vlogic_error@std@@@boost@@QAE@ABVlogic_error@std@@@Z 0049a1f0 f i NCDoc.obj
 0001:00099260       ?clone@?$wrapexcept@Vlogic_error@std@@@boost@@UBEPBVclone_base@exception_detail@2@XZ 0049a260 f i NCDoc.obj
 0001:000992f0       ?rethrow@?$wrapexcept@Vlogic_error@std@@@boost@@UBEXXZ 0049a2f0 f i NCDoc.obj
 0001:00099310       ??0?$wrapexcept@Vlogic_error@std@@@boost@@QAE@ABU01@@Z 0049a310 f i NCDoc.obj
 0001:000993d0       ??0logic_error@std@@QAE@ABV01@@Z 0049a3d0 f i NCDoc.obj
 0001:00099410       ??$throw_exception@Vlogic_error@std@@@boost@@YAXABVlogic_error@std@@@Z 0049a410 f i NCDoc.obj
 0001:00099430       ??0logic_error@std@@QAE@PBD@Z 0049a430 f i NCDoc.obj
 0001:00099480       ??1CFileException@@UAE@XZ  0049a480 f i NCDoc.obj
 0001:00099490       ??_ECFileException@@UAEPAXI@Z 0049a490 f i * CIL library *:* CIL module *
 0001:00099490       ??_GCFileException@@UAEPAXI@Z 0049a490 f i NCDoc.obj
 0001:000994d0       ?GetMessageMap@CNCFindDlg@@MBEPBUAFX_MSGMAP@@XZ 0049a4d0 f   NCFindDlg.obj
 0001:000994e0       ??_ECNCFindDlg@@UAEPAXI@Z  0049a4e0 f i * CIL library *:* CIL module *
 0001:000994e0       ??_GCNCFindDlg@@UAEPAXI@Z  0049a4e0 f i NCFindDlg.obj
 0001:00099560       ?DoDataExchange@CNCFindDlg@@MAEXPAVCDataExchange@@@Z 0049a560 f   NCFindDlg.obj
 0001:000995e0       ?PreTranslateMessage@CNCFindDlg@@MAEHPAUtagMSG@@@Z 0049a5e0 f   NCFindDlg.obj
 0001:000995e0       ?PreTranslateMessage@COBSdlg@@MAEHPAUtagMSG@@@Z 0049a5e0 f   OBSdlg.obj
 0001:00099630       ?OnInitDialog@CNCFindDlg@@MAEHXZ 0049a630 f   NCFindDlg.obj
 0001:000996a0       ?OnOK@CNCFindDlg@@MAEXXZ   0049a6a0 f   NCFindDlg.obj
 0001:000997e0       ?OnCancel@CNCFindDlg@@MAEXXZ 0049a7e0 f   NCFindDlg.obj
 0001:00099800       ?PostNcDestroy@CNCFindDlg@@MAEXXZ 0049a800 f   NCFindDlg.obj
 0001:00099840       ?OnUserSwitchDocument@CNCFindDlg@@IAEJIJ@Z 0049a840 f   NCFindDlg.obj
 0001:000998c0       ??_ECNCInfoTab@@UAEPAXI@Z  0049a8c0 f i * CIL library *:* CIL module *
 0001:000998c0       ??_GCTabViewBase@@UAEPAXI@Z 0049a8c0 f i NCInfoTab.obj
 0001:000998c0       ??_GCNCInfoTab@@UAEPAXI@Z  0049a8c0 f i NCInfoTab.obj
 0001:000998c0       ??_ECTabViewBase@@UAEPAXI@Z 0049a8c0 f i * CIL library *:* CIL module *
 0001:00099910       ??1CTabViewBase@@UAE@XZ    0049a910 f i NCInfoTab.obj
 0001:00099930       ?CreateObject@CNCInfoTab@@SGPAVCObject@@XZ 0049a930 f   NCInfoTab.obj
 0001:000999e0       ?_GetBaseClass@CNCInfoTab@@KGPAUCRuntimeClass@@XZ 0049a9e0 f   NCInfoTab.obj
 0001:000999e0       ?GetRuntimeClass@CTabViewBase@@UBEPAUCRuntimeClass@@XZ 0049a9e0 f   TabView.obj
 0001:000999e0       ?_GetBaseClass@CNCViewTab@@KGPAUCRuntimeClass@@XZ 0049a9e0 f   NCViewTab.obj
 0001:000999f0       ?GetRuntimeClass@CNCInfoTab@@UBEPAUCRuntimeClass@@XZ 0049a9f0 f   NCInfoTab.obj
 0001:00099a00       ?GetMessageMap@CNCInfoTab@@MBEPBUAFX_MSGMAP@@XZ 0049aa00 f   NCInfoTab.obj
 0001:00099a10       ?OnInitialUpdate@CNCInfoTab@@UAEXXZ 0049aa10 f   NCInfoTab.obj
 0001:00099ae0       ?OnUpdate@CNCViewTab@@MAEXPAVCView@@JPAVCObject@@@Z 0049aae0 f   NCViewTab.obj
 0001:00099ae0       ?OnUpdate@CNCInfoTab@@MAEXPAVCView@@JPAVCObject@@@Z 0049aae0 f   NCInfoTab.obj
 0001:00099bb0       ?OnCmdMsg@CNCInfoTab@@UAEHIHPAXPAUAFX_CMDHANDLERINFO@@@Z 0049abb0 f   NCInfoTab.obj
 0001:00099cf0       ?OnActivatePage@CNCInfoTab@@MAEXH@Z 0049acf0 f   NCInfoTab.obj
 0001:00099d50       ?OnCreate@CNCInfoTab@@IAEHPAUtagCREATESTRUCTA@@@Z 0049ad50 f   NCInfoTab.obj
 0001:00099e90       ?OnDestroy@CNCInfoTab@@IAEXXZ 0049ae90 f   NCInfoTab.obj
 0001:00099f60       ?OnMoveTab@CNCViewTab@@IAEXI@Z 0049af60 f   NCViewTab.obj
 0001:00099f60       ?OnMoveTab@CNCInfoTab@@IAEXI@Z 0049af60 f   NCInfoTab.obj
 0001:00099ff0       ?destroy@sp_counted_base@detail@boost@@UAEXXZ 0049aff0 f i NCInfoView.obj
 0001:0009a000       ??_Gsp_counted_base@detail@boost@@UAEPAXI@Z 0049b000 f i NCInfoView.obj
 0001:0009a000       ??_Esp_counted_base@detail@boost@@UAEPAXI@Z 0049b000 f i * CIL library *:* CIL module *
 0001:0009a030       ?what@format_error@io@boost@@UBEPBDXZ 0049b030 f i NCInfoView.obj
 0001:0009a040       ??0bad_format_string@io@boost@@QAE@II@Z 0049b040 f i NCInfoView.obj
 0001:0009a070       ?what@bad_format_string@io@boost@@UBEPBDXZ 0049b070 f i NCInfoView.obj
 0001:0009a080       ??0too_few_args@io@boost@@QAE@II@Z 0049b080 f i NCInfoView.obj
 0001:0009a0b0       ?what@too_few_args@io@boost@@UBEPBDXZ 0049b0b0 f i NCInfoView.obj
 0001:0009a0c0       ??0too_many_args@io@boost@@QAE@II@Z 0049b0c0 f i NCInfoView.obj
 0001:0009a0f0       ?what@too_many_args@io@boost@@UBEPBDXZ 0049b0f0 f i NCInfoView.obj
 0001:0009a100       ?_GetBaseClass@CNCInfoBase@@KGPAUCRuntimeClass@@XZ 0049b100 f   NCInfoView.obj
 0001:0009a100       ?_GetBaseClass@CViewBaseGL@@KGPAUCRuntimeClass@@XZ 0049b100 f   ViewBaseGL.obj
 0001:0009a100       ?_GetBaseClass@CViewBase@@KGPAUCRuntimeClass@@XZ 0049b100 f   ViewBase.obj
 0001:0009a110       ?GetThisMessageMap@CNCInfoBase@@KGPBUAFX_MSGMAP@@XZ 0049b110 f   NCInfoView.obj
 0001:0009a120       ?PreCreateWindow@CNCInfoBase@@UAEHAAUtagCREATESTRUCTA@@@Z 0049b120 f   NCInfoView.obj
 0001:0009a160       ?OnCmdMsg@CNCViewBase@@UAEHIHPAXPAUAFX_CMDHANDLERINFO@@@Z 0049b160 f   NCViewBase.obj
 0001:0009a160       ?OnCmdMsg@CNCInfoBase@@UAEHIHPAXPAUAFX_CMDHANDLERINFO@@@Z 0049b160 f   NCInfoView.obj
 0001:0009a160       ?OnCmdMsg@CNCListView@@UAEHIHPAXPAUAFX_CMDHANDLERINFO@@@Z 0049b160 f   NCListView.obj
 0001:0009a160       ?OnCmdMsg@CNCViewGL@@UAEHIHPAXPAUAFX_CMDHANDLERINFO@@@Z 0049b160 f   NCViewGL.obj
 0001:0009a170       ?OnUpdate@CNCInfoBase@@UAEXPAVCView@@JPAVCObject@@@Z 0049b170 f   NCInfoView.obj
 0001:0009a290       ?OnUpdateEditCopy@CNCInfoBase@@QAEXPAVCCmdUI@@@Z 0049b290 f   NCInfoView.obj
 0001:0009a2c0       ?OnEditCopy@CNCInfoBase@@QAEXXZ 0049b2c0 f   NCInfoView.obj
 0001:0009a2d0       ?OnContextMenu@CNCInfoBase@@QAEXPAVCWnd@@VCPoint@@@Z 0049b2d0 f   NCInfoView.obj
 0001:0009a2f0       ?OnKeyDown@CNCInfoBase@@QAEXIII@Z 0049b2f0 f   NCInfoView.obj
 0001:0009a350       ?OnEraseBkgnd@CNCInfoBase@@QAEHPAVCDC@@@Z 0049b350 f   NCInfoView.obj
 0001:0009a380       ?CreateObject@CNCInfoView1@@SGPAVCObject@@XZ 0049b380 f   NCInfoView.obj
 0001:0009a400       ?_GetBaseClass@CNCInfoView1@@KGPAUCRuntimeClass@@XZ 0049b400 f   NCInfoView.obj
 0001:0009a400       ?_GetBaseClass@CNCInfoView2@@KGPAUCRuntimeClass@@XZ 0049b400 f   NCInfoView.obj
 0001:0009a410       ?GetRuntimeClass@CNCInfoView1@@UBEPAUCRuntimeClass@@XZ 0049b410 f   NCInfoView.obj
 0001:0009a420       ??_ECNCInfoView1@@UAEPAXI@Z 0049b420 f i * CIL library *:* CIL module *
 0001:0009a420       ??_ECViewBase@@UAEPAXI@Z   0049b420 f i * CIL library *:* CIL module *
 0001:0009a420       ??_GCViewBase@@UAEPAXI@Z   0049b420 f i ViewBase.obj
 0001:0009a420       ??_GCNCInfoView2@@UAEPAXI@Z 0049b420 f i NCInfoView.obj
 0001:0009a420       ??_GCNCInfoView1@@UAEPAXI@Z 0049b420 f i NCInfoView.obj
 0001:0009a420       ??_ECNCInfoView2@@UAEPAXI@Z 0049b420 f i * CIL library *:* CIL module *
 0001:0009a460       ?GetMessageMap@CNCInfoView1@@MBEPBUAFX_MSGMAP@@XZ 0049b460 f   NCInfoView.obj
 0001:0009a470       ?OnUserCalcMsg@CNCInfoView1@@IAEJIJ@Z 0049b470 f   NCInfoView.obj
 0001:0009a4d0       ?CreateObject@CNCInfoView2@@SGPAVCObject@@XZ 0049b4d0 f   NCInfoView.obj
 0001:0009a550       ?GetRuntimeClass@CNCInfoView2@@UBEPAUCRuntimeClass@@XZ 0049b550 f   NCInfoView.obj
 0001:0009a560       ?GetMessageMap@CNCInfoView2@@MBEPBUAFX_MSGMAP@@XZ 0049b560 f   NCInfoView.obj
 0001:0009a570       ?OnDraw@CNCInfoView1@@MAEXPAVCDC@@@Z 0049b570 f   NCInfoView.obj
 0001:0009b0a0       ??1?$basic_format@DU?$char_traits@D@std@@V?$allocator@D@2@@boost@@QAE@XZ 0049c0a0 f i NCInfoView.obj
 0001:0009b130       ??1?$optional@Vlocale@std@@@boost@@QAE@XZ 0049c130 f i NCInfoView.obj
 0001:0009b160       ?OnDraw@CNCInfoView2@@MAEXPAVCDC@@@Z 0049c160 f   NCInfoView.obj
 0001:0009dfe0       ??1?$basic_altstringbuf@DU?$char_traits@D@std@@V?$allocator@D@2@@io@boost@@UAE@XZ 0049efe0 f i NCInfoView.obj
 0001:0009e090       ??1?$vector@U?$format_item@DU?$char_traits@D@std@@V?$allocator@D@2@@detail@io@boost@@V?$allocator@U?$format_item@DU?$char_traits@D@std@@V?$allocator@D@2@@detail@io@boost@@@std@@@std@@QAE@XZ 0049f090 f i NCInfoView.obj
 0001:0009e120       ??_E?$basic_altstringbuf@DU?$char_traits@D@std@@V?$allocator@D@2@@io@boost@@UAEPAXI@Z 0049f120 f i * CIL library *:* CIL module *
 0001:0009e120       ??_G?$basic_altstringbuf@DU?$char_traits@D@std@@V?$allocator@D@2@@io@boost@@UAEPAXI@Z 0049f120 f i NCInfoView.obj
 0001:0009e140       ?deallocate@?$allocator@U?$format_item@DU?$char_traits@D@std@@V?$allocator@D@2@@detail@io@boost@@@std@@QAEXQAU?$format_item@DU?$char_traits@D@std@@V?$allocator@D@2@@detail@io@boost@@I@Z 0049f140 f i NCInfoView.obj
 0001:0009e180       ??0?$basic_format@DU?$char_traits@D@std@@V?$allocator@D@2@@boost@@QAE@PBD@Z 0049f180 f i NCInfoView.obj
 0001:0009e300       ??$throw_exception@Vbad_format_string@io@boost@@@boost@@YAXABVbad_format_string@io@0@@Z 0049f300 f i NCInfoView.obj
 0001:0009e320       ?seekoff@?$basic_altstringbuf@DU?$char_traits@D@std@@V?$allocator@D@2@@io@boost@@MAE?AV?$fpos@U_Mbstatet@@@std@@_JHH@Z 0049f320 f i NCInfoView.obj
 0001:0009e480       ?seekpos@?$basic_altstringbuf@DU?$char_traits@D@std@@V?$allocator@D@2@@io@boost@@MAE?AV?$fpos@U_Mbstatet@@@std@@V45@H@Z 0049f480 f i NCInfoView.obj
 0001:0009e5c0       ?underflow@?$basic_altstringbuf@DU?$char_traits@D@std@@V?$allocator@D@2@@io@boost@@MAEHXZ 0049f5c0 f i NCInfoView.obj
 0001:0009e630       ?pbackfail@?$basic_altstringbuf@DU?$char_traits@D@std@@V?$allocator@D@2@@io@boost@@MAEHH@Z 0049f630 f i NCInfoView.obj
 0001:0009e680       ?overflow@?$basic_altstringbuf@DU?$char_traits@D@std@@V?$allocator@D@2@@io@boost@@MAEHH@Z 0049f680 f i NCInfoView.obj
 0001:0009e880       ??$lexical_cast@V?$basic_string@DU?$char_traits@D@std@@V?$allocator@D@2@@std@@_K@boost@@YA?AV?$basic_string@DU?$char_traits@D@std@@V?$allocator@D@2@@std@@AB_K@Z 0049f880 f i NCInfoView.obj
 0001:0009e910       ??$_Destroy_range@V?$allocator@U?$format_item@DU?$char_traits@D@std@@V?$allocator@D@2@@detail@io@boost@@@std@@@std@@YAXPAU?$format_item@DU?$char_traits@D@std@@V?$allocator@D@2@@detail@io@boost@@QAU1234@AAV?$allocator@U?$format_item@DU?$char_traits@D@std@@V?$allocator@D@2@@detail@io@boost@@@0@@Z 0049f910 f i NCInfoView.obj
 0001:0009e940       ??0?$wrapexcept@Vbad_format_string@io@boost@@@boost@@QAE@ABU01@@Z 0049f940 f i NCInfoView.obj
 0001:0009ea10       ??0bad_format_string@io@boost@@QAE@ABV012@@Z 0049fa10 f i NCInfoView.obj
 0001:0009ea50       ??0format_error@io@boost@@QAE@ABV012@@Z 0049fa50 f i NCInfoView.obj
 0001:0009ea90       ?rethrow@?$wrapexcept@Vbad_format_string@io@boost@@@boost@@UBEXXZ 0049fa90 f i NCInfoView.obj
 0001:0009eab0       ?clone@?$wrapexcept@Vbad_format_string@io@boost@@@boost@@UBEPBVclone_base@exception_detail@2@XZ 0049fab0 f i NCInfoView.obj
 0001:0009eb40       ??0?$wrapexcept@Vbad_format_string@io@boost@@@boost@@QAE@ABVbad_format_string@io@1@@Z 0049fb40 f i NCInfoView.obj
 0001:0009ebc0       ?parse@?$basic_format@DU?$char_traits@D@std@@V?$allocator@D@2@@boost@@QAEAAV12@ABV?$basic_string@DU?$char_traits@D@std@@V?$allocator@D@2@@std@@@Z 0049fbc0 f i NCInfoView.obj
 0001:0009efc0       ?str@?$basic_format@DU?$char_traits@D@std@@V?$allocator@D@2@@boost@@QBE?AV?$basic_string@DU?$char_traits@D@std@@V?$allocator@D@2@@std@@XZ 0049ffc0 f i NCInfoView.obj
 0001:0009f1d0       ??$throw_bad_cast@_KV?$basic_string@DU?$char_traits@D@std@@V?$allocator@D@2@@std@@@detail@conversion@boost@@YAXXZ 004a01d0 f i NCInfoView.obj
 0001:0009f220       ??1?$format_item@DU?$char_traits@D@std@@V?$allocator@D@2@@detail@io@boost@@QAE@XZ 004a0220 f i NCInfoView.obj
 0001:0009f2e0       ?try_convert@?$lexical_converter_impl@V?$basic_string@DU?$char_traits@D@std@@V?$allocator@D@2@@std@@_K@detail@boost@@SA_NAB_KAAV?$basic_string@DU?$char_traits@D@std@@V?$allocator@D@2@@std@@@Z 004a02e0 f i NCInfoView.obj
 0001:0009f360       ??0?$format_item@DU?$char_traits@D@std@@V?$allocator@D@2@@detail@io@boost@@QAE@D@Z 004a0360 f i NCInfoView.obj
 0001:0009f3f0       ?resize@?$vector@U?$format_item@DU?$char_traits@D@std@@V?$allocator@D@2@@detail@io@boost@@V?$allocator@U?$format_item@DU?$char_traits@D@std@@V?$allocator@D@2@@detail@io@boost@@@std@@@std@@QAEXIABU?$format_item@DU?$char_traits@D@std@@V?$allocator@D@2@@detail@io@boost@@@Z 004a03f0 f i NCInfoView.obj
 0001:0009f4a0       ?reserve@?$basic_string@DU?$char_traits@D@std@@V?$allocator@D@2@@std@@QAEXI@Z 004a04a0 f i NCInfoView.obj
 0001:0009f5f0       ?make_or_reuse_data@?$basic_format@DU?$char_traits@D@std@@V?$allocator@D@2@@boost@@AAEXI@Z 004a05f0 f i NCInfoView.obj
 0001:0009f810       ??$upper_bound_from_fstring@V?$basic_string@DU?$char_traits@D@std@@V?$allocator@D@2@@std@@V?$ctype@D@2@@detail@io@boost@@YAHABV?$basic_string@DU?$char_traits@D@std@@V?$allocator@D@2@@std@@DABV?$ctype@D@4@E@Z 004a0810 f i NCInfoView.obj
 0001:0009f970       ??$parse_printf_directive@DU?$char_traits@D@std@@V?$allocator@D@2@V?$_String_const_iterator@V?$_String_val@U?$_Simple_types@D@std@@@std@@@2@V?$ctype@D@2@@detail@io@boost@@YA_NAAV?$_String_const_iterator@V?$_String_val@U?$_Simple_types@D@std@@@std@@@std@@ABV34@PAU?$format_item@DU?$char_traits@D@std@@V?$allocator@D@2@@012@ABV?$ctype@D@4@IE@Z 004a0970 f i NCInfoView.obj
 0001:000a0240       ??$throw_exception@Vtoo_few_args@io@boost@@@boost@@YAXABVtoo_few_args@io@0@@Z 004a1240 f i NCInfoView.obj
 0001:000a0260       ??$feed_impl@DU?$char_traits@D@std@@V?$allocator@D@2@ABU?$put_holder@DU?$char_traits@D@std@@@detail@io@boost@@@detail@io@boost@@YAAAV?$basic_format@DU?$char_traits@D@std@@V?$allocator@D@2@@2@AAV32@ABU?$put_holder@DU?$char_traits@D@std@@@012@@Z 004a1260 f i NCInfoView.obj
 0001:000a03a0       ??0?$wrapexcept@Vtoo_few_args@io@boost@@@boost@@QAE@ABU01@@Z 004a13a0 f i NCInfoView.obj
 0001:000a0470       ??0too_few_args@io@boost@@QAE@ABV012@@Z 004a1470 f i NCInfoView.obj
 0001:000a04b0       ?convert@?$lcast_put_unsigned@U?$char_traits@D@std@@_KD@detail@boost@@QAEPADXZ 004a14b0 f i NCInfoView.obj
 0001:000a0650       ?rethrow@?$wrapexcept@Vtoo_few_args@io@boost@@@boost@@UBEXXZ 004a1650 f i NCInfoView.obj
 0001:000a0670       ?clone@?$wrapexcept@Vtoo_few_args@io@boost@@@boost@@UBEPBVclone_base@exception_detail@2@XZ 004a1670 f i NCInfoView.obj
 0001:000a0700       ??0?$wrapexcept@Vtoo_few_args@io@boost@@@boost@@QAE@ABVtoo_few_args@io@1@@Z 004a1700 f i NCInfoView.obj
 0001:000a0780       ?assign@?$vector@U?$format_item@DU?$char_traits@D@std@@V?$allocator@D@2@@detail@io@boost@@V?$allocator@U?$format_item@DU?$char_traits@D@std@@V?$allocator@D@2@@detail@io@boost@@@std@@@std@@QAEXIABU?$format_item@DU?$char_traits@D@std@@V?$allocator@D@2@@detail@io@boost@@@Z 004a1780 f i NCInfoView.obj
 0001:000a0920       ?resize@?$vector@_NV?$allocator@_N@std@@@std@@QAEXI_N@Z 004a1920 f i NCInfoView.obj
 0001:000a0990       ?main_convert_iteration@?$lcast_put_unsigned@U?$char_traits@D@std@@_KD@detail@boost@@AAE_NXZ 004a1990 f i NCInfoView.obj
 0001:000a0a30       ?erase@?$vector@_NV?$allocator@_N@std@@@std@@QAE?AV?$_Vb_iterator@U?$_Wrap_alloc@V?$allocator@I@std@@@std@@@2@V?$_Vb_const_iterator@U?$_Wrap_alloc@V?$allocator@I@std@@@std@@@2@0@Z 004a1a30 f i NCInfoView.obj
 0001:000a0bd0       ??Y?$_Vb_iterator@U?$_Wrap_alloc@V?$allocator@I@std@@@std@@@std@@QAEAAV01@H@Z 004a1bd0 f i NCInfoView.obj
 0001:000a0c30       ?allocate@?$allocator@U?$format_item@DU?$char_traits@D@std@@V?$allocator@D@2@@detail@io@boost@@@std@@QAEPAU?$format_item@DU?$char_traits@D@std@@V?$allocator@D@2@@detail@io@boost@@I@Z 004a1c30 f i NCInfoView.obj
 0001:000a0ca0       ?_Xlen@?$vector@_NV?$allocator@_N@std@@@std@@QBEXXZ 004a1ca0 f i NCInfoView.obj
 0001:000a0cb0       ?clear@?$basic_format@DU?$char_traits@D@std@@V?$allocator@D@2@@boost@@QAEAAV12@XZ 004a1cb0 f i NCInfoView.obj
 0001:000a0d90       ??$str2int@_JV?$_String_const_iterator@V?$_String_val@U?$_Simple_types@D@std@@@std@@@std@@V?$ctype@D@2@@detail@io@boost@@YA?AV?$_String_const_iterator@V?$_String_val@U?$_Simple_types@D@std@@@std@@@std@@ABV34@0AA_JABV?$ctype@D@4@@Z 004a1d90 f i NCInfoView.obj
 0001:000a0e30       ??$call_put_last@DU?$char_traits@D@std@@$$CBH@detail@io@boost@@YAXAAV?$basic_ostream@DU?$char_traits@D@std@@@std@@PBX@Z 004a1e30 f i NCInfoView.obj
 0001:000a0e50       ??$_Resize_reallocate@U?$format_item@DU?$char_traits@D@std@@V?$allocator@D@2@@detail@io@boost@@@?$vector@U?$format_item@DU?$char_traits@D@std@@V?$allocator@D@2@@detail@io@boost@@V?$allocator@U?$format_item@DU?$char_traits@D@std@@V?$allocator@D@2@@detail@io@boost@@@std@@@std@@AAEXIABU?$format_item@DU?$char_traits@D@std@@V?$allocator@D@2@@detail@io@boost@@@Z 004a1e50 f i NCInfoView.obj
 0001:000a1110       ??$_Uninitialized_fill_n@V?$allocator@U?$format_item@DU?$char_traits@D@std@@V?$allocator@D@2@@detail@io@boost@@@std@@@std@@YAPAU?$format_item@DU?$char_traits@D@std@@V?$allocator@D@2@@detail@io@boost@@PAU1234@IABU1234@AAV?$allocator@U?$format_item@DU?$char_traits@D@std@@V?$allocator@D@2@@detail@io@boost@@@0@@Z 004a2110 f i NCInfoView.obj
 0001:000a1210       ??$fill@PAU?$format_item@DU?$char_traits@D@std@@V?$allocator@D@2@@detail@io@boost@@U1234@@std@@YAXQAU?$format_item@DU?$char_traits@D@std@@V?$allocator@D@2@@detail@io@boost@@0ABU1234@@Z 004a2210 f i NCInfoView.obj
 0001:000a1330       ??1?$_Uninitialized_backout_al@V?$allocator@U?$format_item@DU?$char_traits@D@std@@V?$allocator@D@2@@detail@io@boost@@@std@@@std@@QAE@XZ 004a2330 f i NCInfoView.obj
 0001:000a1360       ??$throw_exception@Vtoo_many_args@io@boost@@@boost@@YAXABVtoo_many_args@io@0@@Z 004a2360 f i NCInfoView.obj
 0001:000a1380       ??$put@DU?$char_traits@D@std@@V?$allocator@D@2@ABU?$put_holder@DU?$char_traits@D@std@@@detail@io@boost@@@detail@io@boost@@YAXABU?$put_holder@DU?$char_traits@D@std@@@012@ABU?$format_item@DU?$char_traits@D@std@@V?$allocator@D@2@@012@AAV?$basic_string@DU?$char_traits@D@std@@V?$allocator@D@2@@std@@AAV?$basic_altstringbuf@DU?$char_traits@D@std@@V?$allocator@D@2@@12@PAVlocale@6@@Z 004a2380 f i NCInfoView.obj
 0001:000a1990       ??0?$wrapexcept@Vtoo_many_args@io@boost@@@boost@@QAE@ABU01@@Z 004a2990 f i NCInfoView.obj
 0001:000a1a60       ??0too_many_args@io@boost@@QAE@ABV012@@Z 004a2a60 f i NCInfoView.obj
 0001:000a1aa0       ??_D?$basic_oaltstringstream@DU?$char_traits@D@std@@V?$allocator@D@2@@io@boost@@QAEXXZ 004a2aa0 f i NCInfoView.obj
 0001:000a1af0       ??1?$base_from_member@V?$shared_ptr@V?$basic_altstringbuf@DU?$char_traits@D@std@@V?$allocator@D@2@@io@boost@@@boost@@$0A@@boost@@QAE@XZ 004a2af0 f i NCInfoView.obj
 0001:000a1b30       ??0?$basic_oaltstringstream@DU?$char_traits@D@std@@V?$allocator@D@2@@io@boost@@QAE@PAV?$basic_altstringbuf@DU?$char_traits@D@std@@V?$allocator@D@2@@12@@Z 004a2b30 f i NCInfoView.obj
 0001:000a1bf0       ?rethrow@?$wrapexcept@Vtoo_many_args@io@boost@@@boost@@UBEXXZ 004a2bf0 f i NCInfoView.obj
 0001:000a1c10       ?clone@?$wrapexcept@Vtoo_many_args@io@boost@@@boost@@UBEPBVclone_base@exception_detail@2@XZ 004a2c10 f i NCInfoView.obj
 0001:000a1ca0       ??0?$wrapexcept@Vtoo_many_args@io@boost@@@boost@@QAE@ABVtoo_many_args@io@1@@Z 004a2ca0 f i NCInfoView.obj
 0001:000a1d20       ??_G?$basic_oaltstringstream@DU?$char_traits@D@std@@V?$allocator@D@2@@io@boost@@UAEPAXI@Z 004a2d20 f i NCInfoView.obj
 0001:000a1d20       ??_E?$basic_oaltstringstream@DU?$char_traits@D@std@@V?$allocator@D@2@@io@boost@@UAEPAXI@Z 004a2d20 f i * CIL library *:* CIL module *
 0001:000a1d90       ??1sentry@?$basic_ostream@DU?$char_traits@D@std@@@std@@QAE@XZ 004a2d90 f i NCInfoView.obj
 0001:000a1e00       ??1_Sentry_base@?$basic_ostream@DU?$char_traits@D@std@@@std@@QAE@XZ 004a2e00 f i NCInfoView.obj
 0001:000a1e50       ?clear_buffer@?$basic_altstringbuf@DU?$char_traits@D@std@@V?$allocator@D@2@@io@boost@@QAEXXZ 004a2e50 f i NCInfoView.obj
 0001:000a1ef0       ?apply_on@?$stream_format_state@DU?$char_traits@D@std@@@detail@io@boost@@QBEXAAV?$basic_ios@DU?$char_traits@D@std@@@std@@PAVlocale@6@@Z 004a2ef0 f i NCInfoView.obj
 0001:000a1f90       ??$?6U?$char_traits@D@std@@@std@@YAAAV?$basic_ostream@DU?$char_traits@D@std@@@0@AAV10@D@Z 004a2f90 f i NCInfoView.obj
 0001:000a21a0       ??$?0PAV?$basic_altstringbuf@DU?$char_traits@D@std@@V?$allocator@D@2@@io@boost@@VNo_Op@?$basic_oaltstringstream@DU?$char_traits@D@std@@V?$allocator@D@2@@12@@shared_count@detail@boost@@QAE@PAV?$basic_altstringbuf@DU?$char_traits@D@std@@V?$allocator@D@2@@io@2@VNo_Op@?$basic_oaltstringstream@DU?$char_traits@D@std@@V?$allocator@D@2@@42@@Z 004a31a0 f i NCInfoView.obj
 0001:000a2230       ?get_untyped_deleter@?$sp_counted_impl_pd@PAV?$basic_altstringbuf@DU?$char_traits@D@std@@V?$allocator@D@2@@io@boost@@VNo_Op@?$basic_oaltstringstream@DU?$char_traits@D@std@@V?$allocator@D@2@@23@@detail@boost@@UAEPAXXZ 004a3230 f i NCInfoView.obj
 0001:000a2240       ?get_local_deleter@?$sp_counted_impl_pd@PAV?$basic_altstringbuf@DU?$char_traits@D@std@@V?$allocator@D@2@@io@boost@@VNo_Op@?$basic_oaltstringstream@DU?$char_traits@D@std@@V?$allocator@D@2@@23@@detail@boost@@UAEPAXABVtype_info@@@Z 004a3240 f i NCInfoView.obj
 0001:000a2260       ?get_deleter@?$sp_counted_impl_pd@PAV?$basic_altstringbuf@DU?$char_traits@D@std@@V?$allocator@D@2@@io@boost@@VNo_Op@?$basic_oaltstringstream@DU?$char_traits@D@std@@V?$allocator@D@2@@23@@detail@boost@@UAEPAXABVtype_info@@@Z 004a3260 f i NCInfoView.obj
 0001:000a2290       ??_E?$sp_counted_impl_pd@PAV?$basic_altstringbuf@DU?$char_traits@D@std@@V?$allocator@D@2@@io@boost@@VNo_Op@?$basic_oaltstringstream@DU?$char_traits@D@std@@V?$allocator@D@2@@23@@detail@boost@@UAEPAXI@Z 004a3290 f i * CIL library *:* CIL module *
 0001:000a2290       ??_G?$sp_counted_impl_pd@PAV?$basic_altstringbuf@DU?$char_traits@D@std@@V?$allocator@D@2@@io@boost@@VNo_Op@?$basic_oaltstringstream@DU?$char_traits@D@std@@V?$allocator@D@2@@23@@detail@boost@@UAEPAXI@Z 004a3290 f i NCInfoView.obj
 0001:000a22b1       ??_E?$basic_oaltstringstream@DU?$char_traits@D@std@@V?$allocator@D@2@@io@boost@@$4PPPPPPPM@A@AEPAXI@Z 004a32b1 f i NCInfoView.obj
 0001:000a22c0       ?GetMessageMap@CNCJumpDlg@@MBEPBUAFX_MSGMAP@@XZ 004a32c0 f   NCJumpDlg.obj
 0001:000a22d0       ??_GCNCJumpDlg@@UAEPAXI@Z  004a32d0 f i NCJumpDlg.obj
 0001:000a22d0       ??_ECNCJumpDlg@@UAEPAXI@Z  004a32d0 f i * CIL library *:* CIL module *
 0001:000a2330       ?DoDataExchange@CNCJumpDlg@@MAEXPAVCDataExchange@@@Z 004a3330 f   NCJumpDlg.obj
 0001:000a2360       ?OnInitDialog@CNCJumpDlg@@MAEHXZ 004a3360 f   NCJumpDlg.obj
 0001:000a24a0       ?OnOK@CNCJumpDlg@@MAEXXZ   004a34a0 f   NCJumpDlg.obj
 0001:000a25c0       ?OnCancel@CNCJumpDlg@@MAEXXZ 004a35c0 f   NCJumpDlg.obj
 0001:000a25e0       ?PostNcDestroy@CNCJumpDlg@@MAEXXZ 004a35e0 f   NCJumpDlg.obj
 0001:000a2620       ?OnUserSwitchDocument@CNCJumpDlg@@IAEJIJ@Z 004a3620 f   NCJumpDlg.obj
 0001:000a2690       ??_ECNCListView@@UAEPAXI@Z 004a3690 f i * CIL library *:* CIL module *
 0001:000a2690       ??_GCNCListView@@UAEPAXI@Z 004a3690 f i NCListView.obj
 0001:000a2700       ?CreateObject@CNCListView@@SGPAVCObject@@XZ 004a3700 f   NCListView.obj
 0001:000a27a0       ?_GetBaseClass@CNCListView@@KGPAUCRuntimeClass@@XZ 004a37a0 f   NCListView.obj
 0001:000a27b0       ?GetRuntimeClass@CNCListView@@UBEPAUCRuntimeClass@@XZ 004a37b0 f   NCListView.obj
 0001:000a27c0       ?GetMessageMap@CNCListView@@MBEPBUAFX_MSGMAP@@XZ 004a37c0 f   NCListView.obj
 0001:000a27d0       ?PreCreateWindow@CNCListView@@MAEHAAUtagCREATESTRUCTA@@@Z 004a37d0 f   NCListView.obj
 0001:000a27f0       ?OnInitialUpdate@CNCListView@@UAEXXZ 004a37f0 f   NCListView.obj
 0001:000a28c0       ?OnUpdate@CNCListView@@MAEXPAVCView@@JPAVCObject@@@Z 004a38c0 f   NCListView.obj
 0001:000a2a30       ?PreTranslateMessage@CNCListView@@UAEHPAUtagMSG@@@Z 004a3a30 f   NCListView.obj
 0001:000a2b10       ?SetFindList@CNCListView@@QAEXHABV?$CStringT@DV?$StrTraitMFC_DLL@DV?$ChTraitsCRT@D@ATL@@@@@ATL@@@Z 004a3b10 f   NCListView.obj
 0001:000a2cc0       ?OnUpdateViewJump@CNCListView@@IAEXPAVCCmdUI@@@Z 004a3cc0 f   NCListView.obj
 0001:000a2d00       ?OnViewJump@CNCListView@@IAEXXZ 004a3d00 f   NCListView.obj
 0001:000a2e30       ?OnUpdateViewFind@CNCListView@@IAEXPAVCCmdUI@@@Z 004a3e30 f   NCListView.obj
 0001:000a2e70       ?OnViewFind@CNCListView@@IAEXXZ 004a3e70 f   NCListView.obj
 0001:000a3080       ?OnUpdateFileInsert@CNCListView@@IAEXPAVCCmdUI@@@Z 004a4080 f   NCListView.obj
 0001:000a3080       ?OnUpdateTraceBreak@CNCListView@@IAEXPAVCCmdUI@@@Z 004a4080 f   NCListView.obj
 0001:000a30b0       ?OnTraceBreak@CNCListView@@IAEXXZ 004a40b0 f   NCListView.obj
 0001:000a3120       ?OnTraceBreakOFF@CNCListView@@IAEXXZ 004a4120 f   NCListView.obj
 0001:000a3170       ?OnFileInsert@CNCListView@@IAEXXZ 004a4170 f   NCListView.obj
 0001:000a3270       ?OnCreate@CNCListView@@IAEHPAUtagCREATESTRUCTA@@@Z 004a4270 f   NCListView.obj
 0001:000a3360       ?OnContextMenu@CNCListView@@IAEXPAVCWnd@@VCPoint@@@Z 004a4360 f   NCListView.obj
 0001:000a3430       ?OnGetDispInfo@CNCListView@@IAEXPAUtagNMHDR@@PAJ@Z 004a4430 f   NCListView.obj
 0001:000a3520       ?OnItemChanged@CNCListView@@IAEXPAUtagNMHDR@@PAJ@Z 004a4520 f   NCListView.obj
 0001:000a3620       ?OnSelectTrace@CNCListView@@IAEJIJ@Z 004a4620 f   NCListView.obj
 0001:000a36f0       ?OnKeyDown@CNCListView@@IAEXPAUtagNMHDR@@PAJ@Z 004a46f0 f   NCListView.obj
 0001:000a3750       ?str@?$basic_regex@DU?$regex_traits@DV?$w32_regex_traits@D@boost@@@boost@@@boost@@QBE?AV?$basic_string@DU?$char_traits@D@std@@V?$allocator@D@2@@std@@XZ 004a4750 f i NCListView.obj
 0001:000a3870       ?str@?$basic_regex_implementation@DU?$regex_traits@DV?$w32_regex_traits@D@boost@@@boost@@@re_detail_500@boost@@QBE?AV?$basic_string@DU?$char_traits@D@std@@V?$allocator@D@2@@std@@XZ 004a4870 f i NCListView.obj
 0001:000a3970       ?MakeStrBlock@CNCMakeBase@@KA?AV?$CStringT@DV?$StrTraitMFC_DLL@DV?$ChTraitsCRT@D@ATL@@@@@ATL@@ABV23@@Z 004a4970 f i NCMakeBase.obj
 0001:000a3a20       ?MakeEllipse@CNCMakeBase@@IAEXPBVCDXFellipse@@M@Z 004a4a20 f   NCMakeBase.obj
 0001:000a3d80       ?MakeEllipse_Tolerance@CNCMakeBase@@IAE?AV?$CStringT@DV?$StrTraitMFC_DLL@DV?$ChTraitsCRT@D@ATL@@@@@ATL@@PBVCDXFellipse@@M@Z 004a4d80 f   NCMakeBase.obj
 0001:000a3f40       ?MakePolylineCut@CNCMakeBase@@IAEXPBVCDXFpolyline@@M@Z 004a4f40 f   NCMakeBase.obj
 0001:000a42a0       ?MakeCustomString@CNCMakeBase@@SA?AV?$CStringT@DV?$StrTraitMFC_DLL@DV?$ChTraitsCRT@D@ATL@@@@@ATL@@HKPAMH@Z 004a52a0 f   NCMakeBase.obj
 0001:000a44f0       ?GetChangeEnter@CNCMakeBase@@KA?AV?$CStringT@DV?$StrTraitMFC_DLL@DV?$ChTraitsCRT@D@ATL@@@@@ATL@@ABV23@@Z 004a54f0 f   NCMakeBase.obj
 0001:000a4620       ?GetSpindleString@CNCMakeBase@@KA?AV?$CStringT@DV?$StrTraitMFC_DLL@DV?$ChTraitsCRT@D@ATL@@@@@ATL@@H@Z 004a5620 f   NCMakeBase.obj
 0001:000a47b0       ?GetLineNoString_Clip@CNCMakeBase@@KA?AV?$CStringT@DV?$StrTraitMFC_DLL@DV?$ChTraitsCRT@D@ATL@@@@@ATL@@XZ 004a57b0 f   NCMakeBase.obj
 0001:000a47b0       ?GetSpindleString_Clip@CNCMakeBase@@KA?AV?$CStringT@DV?$StrTraitMFC_DLL@DV?$ChTraitsCRT@D@ATL@@@@@ATL@@H@Z 004a57b0 f   NCMakeBase.obj
 0001:000a47c0       ?GetFeedString@CNCMakeBase@@KA?AV?$CStringT@DV?$StrTraitMFC_DLL@DV?$ChTraitsCRT@D@ATL@@@@@ATL@@M@Z 004a57c0 f   NCMakeBase.obj
 0001:000a48d0       ?GetFeedString_Integer@CNCMakeBase@@KA?AV?$CStringT@DV?$StrTraitMFC_DLL@DV?$ChTraitsCRT@D@ATL@@@@@ATL@@M@Z 004a58d0 f   NCMakeBase.obj
 0001:000a49a0       ?GetLineNoString@CNCMakeBase@@KA?AV?$CStringT@DV?$StrTraitMFC_DLL@DV?$ChTraitsCRT@D@ATL@@@@@ATL@@XZ 004a59a0 f   NCMakeBase.obj
 0001:000a4a40       ?GetGString@CNCMakeBase@@KA?AV?$CStringT@DV?$StrTraitMFC_DLL@DV?$ChTraitsCRT@D@ATL@@@@@ATL@@H@Z 004a5a40 f   NCMakeBase.obj
 0001:000a4ab0       ?GetGString_Clip@CNCMakeBase@@KA?AV?$CStringT@DV?$StrTraitMFC_DLL@DV?$ChTraitsCRT@D@ATL@@@@@ATL@@H@Z 004a5ab0 f   NCMakeBase.obj
 0001:000a4bc0       ?GetValString_Normal@CNCMakeBase@@KA?AV?$CStringT@DV?$StrTraitMFC_DLL@DV?$ChTraitsCRT@D@ATL@@@@@ATL@@M@Z 004a5bc0 f   NCMakeBase.obj
 0001:000a4c40       ?GetValString_UZeroCut@CNCMakeBase@@KA?AV?$CStringT@DV?$StrTraitMFC_DLL@DV?$ChTraitsCRT@D@ATL@@@@@ATL@@M@Z 004a5c40 f   NCMakeBase.obj
 0001:000a4d80       ?GetValString_Multi1000@CNCMakeBase@@KA?AV?$CStringT@DV?$StrTraitMFC_DLL@DV?$ChTraitsCRT@D@ATL@@@@@ATL@@M@Z 004a5d80 f   NCMakeBase.obj
 0001:000a4e80       ?MakeCircleSub_R@CNCMakeBase@@KA?AV?$CStringT@DV?$StrTraitMFC_DLL@DV?$ChTraitsCRT@D@ATL@@@@@ATL@@HABV?$CPointT@M@@0M@Z 004a5e80 f   NCMakeBase.obj
 0001:000a4fd0       ?MakeCircleSub_IJ@CNCMakeBase@@KA?AV?$CStringT@DV?$StrTraitMFC_DLL@DV?$ChTraitsCRT@D@ATL@@@@@ATL@@HABV?$CPointT@M@@0M@Z 004a5fd0 f   NCMakeBase.obj
 0001:000a5180       ?MakeCircleSub_Helical@CNCMakeBase@@KA?AV?$CStringT@DV?$StrTraitMFC_DLL@DV?$ChTraitsCRT@D@ATL@@@@@ATL@@HABV?$CPoint3T@M@@@Z 004a6180 f   NCMakeBase.obj
 0001:000a52e0       ?MakeCircle_R@CNCMakeBase@@KA?AV?$CStringT@DV?$StrTraitMFC_DLL@DV?$ChTraitsCRT@D@ATL@@@@@ATL@@PBVCDXFcircle@@M@Z 004a62e0 f   NCMakeBase.obj
 0001:000a54f0       ?MakeCircle_IJ@CNCMakeBase@@KA?AV?$CStringT@DV?$StrTraitMFC_DLL@DV?$ChTraitsCRT@D@ATL@@@@@ATL@@PBVCDXFcircle@@M@Z 004a64f0 f   NCMakeBase.obj
 0001:000a56e0       ?MakeCircle_IJHALF@CNCMakeBase@@KA?AV?$CStringT@DV?$StrTraitMFC_DLL@DV?$ChTraitsCRT@D@ATL@@@@@ATL@@PBVCDXFcircle@@M@Z 004a66e0 f   NCMakeBase.obj
 0001:000a59f0       ?MakeCircle_R_Helical@CNCMakeBase@@KA?AV?$CStringT@DV?$StrTraitMFC_DLL@DV?$ChTraitsCRT@D@ATL@@@@@ATL@@PBVCDXFcircle@@MM@Z 004a69f0 f   NCMakeBase.obj
 0001:000a5cc0       ?MakeCircle_IJ_Helical@CNCMakeBase@@KA?AV?$CStringT@DV?$StrTraitMFC_DLL@DV?$ChTraitsCRT@D@ATL@@@@@ATL@@PBVCDXFcircle@@MM@Z 004a6cc0 f   NCMakeBase.obj
 0001:000a5ef0       ?MakeCircle_IJHALF_Helical@CNCMakeBase@@KA?AV?$CStringT@DV?$StrTraitMFC_DLL@DV?$ChTraitsCRT@D@ATL@@@@@ATL@@PBVCDXFcircle@@MM@Z 004a6ef0 f   NCMakeBase.obj
 0001:000a6350       ?MakeArc_R@CNCMakeBase@@KA?AV?$CStringT@DV?$StrTraitMFC_DLL@DV?$ChTraitsCRT@D@ATL@@@@@ATL@@PBVCDXFarc@@M@Z 004a7350 f   NCMakeBase.obj
 0001:000a6480       ?MakeArc_IJ@CNCMakeBase@@KA?AV?$CStringT@DV?$StrTraitMFC_DLL@DV?$ChTraitsCRT@D@ATL@@@@@ATL@@PBVCDXFarc@@M@Z 004a7480 f   NCMakeBase.obj
 0001:000a6670       ??1CNCMakeBase@@QAE@XZ     004a7670 f i NCMakeLathe.obj
 0001:000a6670       ??1CNCMakeMill@@QAE@XZ     004a7670 f i NCMakeWire.obj
 0001:000a6690       ??0CNCMakeLathe@@QAE@PBVCDXFdata@@M@Z 004a7690 f   NCMakeLathe.obj
 0001:000a6940       ??0CNCMakeLathe@@QAE@HABV?$CPointT@M@@M@Z 004a7940 f   NCMakeLathe.obj
 0001:000a6ae0       ??0CNCMakeLathe@@QAE@W4TWOMOVEMODE@@ABV?$CPointT@M@@M@Z 004a7ae0 f   NCMakeLathe.obj
 0001:000a6f30       ??0CNCMakeLathe@@QAE@HHMM@Z 004a7f30 f   NCMakeLathe.obj
 0001:000a70b0       ?CreateEndFace@CNCMakeLathe@@QAEXABV?$CPointT@M@@@Z 004a80b0 f   NCMakeLathe.obj
 0001:000a7ac0       ?CreatePilotHole@CNCMakeLathe@@QAEXXZ 004a8ac0 f   NCMakeLathe.obj
 0001:000a8910       ?CreateGroove@CNCMakeLathe@@QAEXABV?$CPointT@M@@M@Z 004a9910 f   NCMakeLathe.obj
 0001:000a8e00       ?CreateGroove@CNCMakeLathe@@QAEXABV?$CPointT@M@@0M@Z 004a9e00 f   NCMakeLathe.obj
 0001:000a9550       ?GetValString@CNCMakeLathe@@CA?AV?$CStringT@DV?$StrTraitMFC_DLL@DV?$ChTraitsCRT@D@ATL@@@@@ATL@@HMH@Z 004aa550 f   NCMakeLathe.obj
 0001:000a98a0       ?SetStaticOption@CNCMakeLathe@@SAXPBVCNCMakeLatheOpt@@@Z 004aa8a0 f   NCMakeLathe.obj
 0001:000a9b50       ??_GCNCMakeWireOpt@@UAEPAXI@Z 004aab50 f i NCMakeWireOpt.obj
 0001:000a9b50       ??_ECNCMakeMillOpt@@UAEPAXI@Z 004aab50 f i * CIL library *:* CIL module *
 0001:000a9b50       ??_GCNCMakeMillOpt@@UAEPAXI@Z 004aab50 f i NCMakeMillOpt.obj
 0001:000a9b50       ??_ECNCMakeLatheOpt@@UAEPAXI@Z 004aab50 f i * CIL library *:* CIL module *
 0001:000a9b50       ??_GCNCMakeLatheOpt@@UAEPAXI@Z 004aab50 f i NCMakeLatheOpt.obj
 0001:000a9b50       ??_ECNCMakeOption@@UAEPAXI@Z 004aab50 f i * CIL library *:* CIL module *
 0001:000a9b50       ??_ECNCMakeWireOpt@@UAEPAXI@Z 004aab50 f i * CIL library *:* CIL module *
 0001:000a9b50       ??_GCNCMakeOption@@UAEPAXI@Z 004aab50 f i NCMakeOption.obj
 0001:000a9ba0       ?InitialDefault@CNCMakeLatheOpt@@MAEXXZ 004aaba0 f   NCMakeLatheOpt.obj
 0001:000a9d30       ?IsPathID@CNCMakeLatheOpt@@MAEHH@Z 004aad30 f   NCMakeLatheOpt.obj
 0001:000a9d30       ?IsPathID@CNCMakeWireOpt@@MAEHH@Z 004aad30 f   NCMakeWireOpt.obj
 0001:000a9d50       ?GetLineNoForm@CNCMakeMillOpt@@UBE?AV?$CStringT@DV?$StrTraitMFC_DLL@DV?$ChTraitsCRT@D@ATL@@@@@ATL@@XZ 004aad50 f   NCMakeMillOpt.obj
 0001:000a9d50       ?GetLineNoForm@CNCMakeLatheOpt@@UBE?AV?$CStringT@DV?$StrTraitMFC_DLL@DV?$ChTraitsCRT@D@ATL@@@@@ATL@@XZ 004aad50 f   NCMakeLatheOpt.obj
 0001:000a9d50       ?GetLineNoForm@CNCMakeWireOpt@@UBE?AV?$CStringT@DV?$StrTraitMFC_DLL@DV?$ChTraitsCRT@D@ATL@@@@@ATL@@XZ 004aad50 f   NCMakeWireOpt.obj
 0001:000a9d80       ?GetDrillInfo@CNCMakeLatheOpt@@QBEHAAV?$vector@ULATHEDRILLINFO@@V?$allocator@ULATHEDRILLINFO@@@std@@@std@@@Z 004aad80 f   NCMakeLatheOpt.obj
 0001:000aa8a0       ??$?EV?$token_iterator@V?$char_separator@DU?$char_traits@D@std@@@boost@@V?$_String_const_iterator@V?$_String_val@U?$_Simple_types@D@std@@@std@@@std@@V?$basic_string@DU?$char_traits@D@std@@V?$allocator@D@2@@4@@boost@@V?$basic_string@DU?$char_traits@D@std@@V?$allocator@D@2@@std@@Uforward_traversal_tag@iterators@1@ABV23@H@iterators@boost@@YA?AV?$token_iterator@V?$char_separator@DU?$char_traits@D@std@@@boost@@V?$_String_const_iterator@V?$_String_val@U?$_Simple_types@D@std@@@std@@@std@@V?$basic_string@DU?$char_traits@D@std@@V?$allocator@D@2@@4@@1@AAV?$iterator_facade@V?$token_iterator@V?$char_separator@DU?$char_traits@D@std@@@boost@@V?$_String_const_iterator@V?$_String_val@U?$_Simple_types@D@std@@@std@@@std@@V?$basic_string@DU?$char_traits@D@std@@V?$allocator@D@2@@4@@boost@@V?$basic_string@DU?$char_traits@D@std@@V?$allocator@D@2@@std@@Uforward_traversal_tag@iterators@2@ABV34@H@01@H@Z 004ab8a0 f i NCMakeLatheOpt.obj
 0001:000aa970       ??0CNCMakeMill@@QAE@PBVCDXFdata@@MPBM@Z 004ab970 f   NCMakeMill.obj
 0001:000ab130       ??0CNCMakeMill@@QAE@PBVCDXFdata@@H@Z 004ac130 f   NCMakeMill.obj
 0001:000ab600       ??0CNCMakeMill@@QAE@HMM@Z  004ac600 f   NCMakeMill.obj
 0001:000ab790       ??0CNCMakeMill@@QAE@HABV?$CPointT@M@@M@Z 004ac790 f   NCMakeMill.obj
 0001:000ab950       ??0CNCMakeMill@@QAE@ABV?$CPoint3T@M@@M@Z 004ac950 f   NCMakeMill.obj
 0001:000abbb0       ?MakePolylineMov@CNCMakeMill@@IAEXPBVCDXFpolyline@@H@Z 004acbb0 f   NCMakeMill.obj
 0001:000abf60       ?MakeSpindle@CNCMakeMill@@SA?AV?$CStringT@DV?$StrTraitMFC_DLL@DV?$ChTraitsCRT@D@ATL@@@@@ATL@@W4ENDXFTYPE@@H@Z 004acf60 f   NCMakeMill.obj
 0001:000ac0c0       ?GetValString@CNCMakeMill@@KA?AV?$CStringT@DV?$StrTraitMFC_DLL@DV?$ChTraitsCRT@D@ATL@@@@@ATL@@HMH@Z 004ad0c0 f   NCMakeMill.obj
 0001:000ac5c0       ?SetStaticOption@CNCMakeMill@@SAXPBVCNCMakeMillOpt@@@Z 004ad5c0 f   NCMakeMill.obj
 0001:000ac8d0       ?GetCycleString@CNCMakeMill@@CA?AV?$CStringT@DV?$StrTraitMFC_DLL@DV?$ChTraitsCRT@D@ATL@@@@@ATL@@XZ 004ad8d0 f   NCMakeMill.obj
 0001:000ac990       ?GetCycleString_Clip@CNCMakeMill@@CA?AV?$CStringT@DV?$StrTraitMFC_DLL@DV?$ChTraitsCRT@D@ATL@@@@@ATL@@XZ 004ad990 f   NCMakeMill.obj
 0001:000aca20       ?InitialDefault@CNCMakeMillOpt@@MAEXXZ 004ada20 f   NCMakeMillOpt.obj
 0001:000acba0       ?IsPathID@CNCMakeMillOpt@@MAEHH@Z 004adba0 f   NCMakeMillOpt.obj
 0001:000acbc0       ?Convert@CNCMakeMillOpt@@AAEHXZ 004adbc0 f   NCMakeMillOpt.obj
 0001:000aceb0       ??0CNCMakeOption@@IAE@QAUNCMAKEOPTION@@HPAPBDHPAUSAVEORDER@@@Z 004adeb0 f   NCMakeOption.obj
 0001:000ad010       ??1CNCMakeOption@@UAE@XZ   004ae010 f   NCMakeOption.obj
 0001:000ad050       ?ReadMakeOption@CNCMakeOption@@QAEHPBD@Z 004ae050 f   NCMakeOption.obj
 0001:000adf40       ??1?$escaped_list_separator@DU?$char_traits@D@std@@@boost@@QAE@XZ 004aef40 f i NCMakeOption.obj
 0001:000ae020       ??1?$tokenizer@V?$escaped_list_separator@DU?$char_traits@D@std@@@boost@@V?$_String_const_iterator@V?$_String_val@U?$_Simple_types@D@std@@@std@@@std@@V?$basic_string@DU?$char_traits@D@std@@V?$allocator@D@2@@4@@boost@@QAE@XZ 004af020 f i NCMakeOption.obj
 0001:000ae030       ??1?$token_iterator@V?$escaped_list_separator@DU?$char_traits@D@std@@@boost@@V?$_String_const_iterator@V?$_String_val@U?$_Simple_types@D@std@@@std@@@std@@V?$basic_string@DU?$char_traits@D@std@@V?$allocator@D@2@@4@@boost@@QAE@XZ 004af030 f i NCMakeOption.obj
 0001:000ae090       ?SaveMakeOption@CNCMakeOption@@QAEHPBD@Z 004af090 f   NCMakeOption.obj
 0001:000ae500       ??$?RV?$_String_const_iterator@V?$_String_val@U?$_Simple_types@D@std@@@std@@@std@@V?$basic_string@DU?$char_traits@D@std@@V?$allocator@D@2@@1@@?$escaped_list_separator@DU?$char_traits@D@std@@@boost@@QAE_NAAV?$_String_const_iterator@V?$_String_val@U?$_Simple_types@D@std@@@std@@@std@@V23@AAV?$basic_string@DU?$char_traits@D@std@@V?$allocator@D@2@@3@@Z 004af500 f i NCMakeOption.obj
 0001:000ae710       ??$do_escape@V?$_String_const_iterator@V?$_String_val@U?$_Simple_types@D@std@@@std@@@std@@V?$basic_string@DU?$char_traits@D@std@@V?$allocator@D@2@@2@@?$escaped_list_separator@DU?$char_traits@D@std@@@boost@@AAEXAAV?$_String_const_iterator@V?$_String_val@U?$_Simple_types@D@std@@@std@@@std@@V23@AAV?$basic_string@DU?$char_traits@D@std@@V?$allocator@D@2@@3@@Z 004af710 f i NCMakeOption.obj
 0001:000ae8c0       ??$throw_exception@Uescaped_list_error@boost@@@boost@@YAXABUescaped_list_error@0@ABUsource_location@0@@Z 004af8c0 f i NCMakeOption.obj
 0001:000ae8e0       ??0?$wrapexcept@Uescaped_list_error@boost@@@boost@@QAE@ABU01@@Z 004af8e0 f i NCMakeOption.obj
 0001:000ae9a0       ??0escaped_list_error@boost@@QAE@ABU01@@Z 004af9a0 f i NCMakeOption.obj
 0001:000ae9e0       ?rethrow@?$wrapexcept@Uescaped_list_error@boost@@@boost@@UBEXXZ 004af9e0 f i NCMakeOption.obj
 0001:000aea00       ?clone@?$wrapexcept@Uescaped_list_error@boost@@@boost@@UBEPBVclone_base@exception_detail@2@XZ 004afa00 f i NCMakeOption.obj
 0001:000aea90       ??0?$wrapexcept@Uescaped_list_error@boost@@@boost@@QAE@ABUescaped_list_error@1@ABUsource_location@1@@Z 004afa90 f i NCMakeOption.obj
 0001:000aeb10       ??0escaped_list_error@boost@@QAE@ABV?$basic_string@DU?$char_traits@D@std@@V?$allocator@D@2@@std@@@Z 004afb10 f i NCMakeOption.obj
 0001:000aeb60       ??0source_location@boost@@QAE@PBDI0I@Z 004afb60 f i NCMakeOption.obj
 0001:000aeb80       ??Y?$basic_string@DU?$char_traits@D@std@@V?$allocator@D@2@@std@@QAEAAV01@D@Z 004afb80 f i NCMakeOption.obj
 0001:000aec90       ??0CNCMakeWire@@QAE@PBVCDXFdata@@0M@Z 004afc90 f   NCMakeWire.obj
 0001:000af810       ??0CNCMakeWire@@QAE@ABV?$vector@V?$CPointT@M@@V?$allocator@V?$CPointT@M@@@std@@@std@@0M@Z 004b0810 f   NCMakeWire.obj
 0001:000aff10       ??0CNCMakeWire@@QAE@HABV?$CPointT@M@@MM@Z 004b0f10 f   NCMakeWire.obj
 0001:000b0290       ??0CNCMakeWire@@QAE@ABV?$CPointT@M@@0M@Z 004b1290 f   NCMakeWire.obj
 0001:000b0600       ?SetStaticOption@CNCMakeWire@@SAXPBVCNCMakeWireOpt@@@Z 004b1600 f   NCMakeWire.obj
 0001:000b0860       ?InitialDefault@CNCMakeWireOpt@@MAEXXZ 004b1860 f   NCMakeWireOpt.obj
 0001:000b0a60       ?GetMessageMap@CNCVCApp@@MBEPBUAFX_MSGMAP@@XZ 004b1a60 f   NCVC.obj
 0001:000b0a70       ??0CNCVCApp@@QAE@XZ        004b1a70 f   NCVC.obj
 0001:000b0cd0       ??_GCNCVCApp@@UAEPAXI@Z    004b1cd0 f i NCVC.obj
 0001:000b0cd0       ??_ECNCVCApp@@UAEPAXI@Z    004b1cd0 f i * CIL library *:* CIL module *
 0001:000b0d10       ??1?$CTypedPtrMap@VCMapWordToPtr@@GPAVCNCVCaddinMap@@@@UAE@XZ 004b1d10 f i NCVC.obj
 0001:000b0d10       ??1?$CTypedPtrMap@VCMapWordToPtr@@GPAVCExecOption@@@@UAE@XZ 004b1d10 f i NCVC.obj
 0001:000b0d20       ??1CNCVCApp@@UAE@XZ        004b1d20 f   NCVC.obj
 0001:000b0da0       ?InitInstance@CNCVCApp@@UAEHXZ 004b1da0 f   NCVC.obj
 0001:000b1350       ?ExitInstance@CNCVCApp@@UAEHXZ 004b2350 f   NCVC.obj
 0001:000b1730       ?AddToRecentFileList@CNCVCApp@@UAEXPBD@Z 004b2730 f   NCVC.obj
 0001:000b1870       ?NCVCRegInit@CNCVCApp@@AAEHXZ 004b2870 f   NCVC.obj
 0001:000b1b40       ?NCVCRegInit_OldExec@CNCVCApp@@AAEHAAV?$CStringT@DV?$StrTraitMFC_DLL@DV?$ChTraitsCRT@D@ATL@@@@@ATL@@@Z 004b2b40 f   NCVC.obj
 0001:000b1e40       ?NCVCRegInit_NewExec@CNCVCApp@@AAEHAAV?$CStringT@DV?$StrTraitMFC_DLL@DV?$ChTraitsCRT@D@ATL@@@@@ATL@@H@Z 004b2e40 f   NCVC.obj
 0001:000b2000       ?NCVCRegOld@CNCVCApp@@AAEXXZ 004b3000 f   NCVC.obj
 0001:000b22b0       ?SaveExecData@CNCVCApp@@AAEXXZ 004b32b0 f   NCVC.obj
 0001:000b23d0       ?CreateExecMap@CNCVCApp@@AAEHXZ 004b33d0 f   NCVC.obj
 0001:000b24b0       ?NCVCAddinInit@CNCVCApp@@AAEHH@Z 004b34b0 f   NCVC.obj
 0001:000b2860       ?NCVCAddinMenu@CNCVCApp@@AAEHXZ 004b3860 f   NCVC.obj
 0001:000b2cc0       ?SaveWindowState@CNCVCApp@@QAEXABV?$CStringT@DV?$StrTraitMFC_DLL@DV?$ChTraitsCRT@D@ATL@@@@@ATL@@ABUtagWINDOWPLACEMENT@@@Z 004b3cc0 f   NCVC.obj
 0001:000b2de0       ?GetWindowState@CNCVCApp@@QAEHABV?$CStringT@DV?$StrTraitMFC_DLL@DV?$ChTraitsCRT@D@ATL@@@@@ATL@@PAUtagWINDOWPLACEMENT@@@Z 004b3de0 f   NCVC.obj
 0001:000b2f70       ?SaveDlgWindow@CNCVCApp@@QAEXHPBVCWnd@@@Z 004b3f70 f   NCVC.obj
 0001:000b3050       ?GetDlgWindow@CNCVCApp@@QAEHHPAVCPoint@@@Z 004b4050 f   NCVC.obj
 0001:000b3160       ?GetAlreadyDocument@CNCVCApp@@QAEPAVCDocument@@W4DOCTYPE@@PBD@Z 004b4160 f   NCVC.obj
 0001:000b31c0       ?GetDXFOpenDocumentCount@CNCVCApp@@QAEHXZ 004b41c0 f   NCVC.obj
 0001:000b3200       ?ReloadDXFDocument@CNCVCApp@@QAEXXZ 004b4200 f   NCVC.obj
 0001:000b3330       ?ChangeViewOption@CNCVCApp@@QAEXXZ 004b4330 f   NCVC.obj
 0001:000b33a0       ?ChangeMachine@CNCVCApp@@QAEHPBD@Z 004b43a0 f   NCVC.obj
 0001:000b3420       ?DoPromptFileNameEx@CNCVCApp@@QAEHAAVCStringArray@@H@Z 004b4420 f   NCVC.obj
 0001:000b3800       ?OnFileOpen@CNCVCApp@@QAEXXZ 004b4800 f   NCVC.obj
 0001:000b38e0       ?OnFileThumbnail@CNCVCApp@@QAEXXZ 004b48e0 f   NCVC.obj
 0001:000b3b10       ?OnFileCADbind@CNCVCApp@@QAEXXZ 004b4b10 f   NCVC.obj
 0001:000b4030       ?OnFileCloseAndOpen@CNCVCApp@@QAEXXZ 004b5030 f   NCVC.obj
 0001:000b4150       ?OnViewSetup@CNCVCApp@@QAEXXZ 004b5150 f   NCVC.obj
 0001:000b4240       ??1CViewSetup@@UAE@XZ      004b5240 f i NCVC.obj
 0001:000b4290       ??1CViewSetup6@@UAE@XZ     004b5290 f i NCVC.obj
 0001:000b42a0       ?OnViewSetupInport@CNCVCApp@@QAEXXZ 004b52a0 f   NCVC.obj
 0001:000b4380       ?OnViewSetupExport@CNCVCApp@@QAEXXZ 004b5380 f   NCVC.obj
 0001:000b4480       ?OnWindowAllClose@CNCVCApp@@QAEXXZ 004b5480 f   NCVC.obj
 0001:000b44f0       ?OnOptionMC@CNCVCApp@@QAEXXZ 004b54f0 f   NCVC.obj
 0001:000b4820       ?OnOptionEditMC@CNCVCApp@@QAEXXZ 004b5820 f   NCVC.obj
 0001:000b49d0       ?OnUpdateViewOBS@CNCVCApp@@QAEXPAVCCmdUI@@@Z 004b59d0 f   NCVC.obj
 0001:000b4a10       ?OnViewOBS@CNCVCApp@@QAEXXZ 004b5a10 f   NCVC.obj
 0001:000b4b40       ?OnOptionDXF@CNCVCApp@@QAEXXZ 004b5b40 f   NCVC.obj
 0001:000b4bd0       ?OnOptionMakeNC@CNCVCApp@@QAEXXZ 004b5bd0 f   NCVC.obj
 0001:000b5000       ?OnUpdateOptionEdit@CNCVCApp@@QAEXPAVCCmdUI@@@Z 004b6000 f   NCVC.obj
 0001:000b5020       ?OnOptionEditNC@CNCVCApp@@QAEXXZ 004b6020 f   NCVC.obj
 0001:000b51d0       ?OnOptionExec@CNCVCApp@@QAEXXZ 004b61d0 f   NCVC.obj
 0001:000b5670       ?OnOptionExt@CNCVCApp@@QAEXXZ 004b6670 f   NCVC.obj
 0001:000b57f0       ?OnHelp@CNCVCApp@@QAEXXZ   004b67f0 f   NCVC.obj
 0001:000b5870       ?OnHelpUsing@CNCVCApp@@QAEXI@Z 004b6870 f   NCVC.obj
 0001:000b5920       ?OnHelpAddin@CNCVCApp@@QAEXXZ 004b6920 f   NCVC.obj
 0001:000b5a30       ?OnAppAbout@CNCVCApp@@QAEXXZ 004b6a30 f   NCVC.obj
 0001:000b5b00       ?NCVC_CriticalErrorMsg@@YAXPBDH@Z 004b6b00 f   NCVC.obj
 0001:000b5ba0       ?NCVC_ControlErrorMsg@@YAXPBDH@Z 004b6ba0 f   NCVC.obj
 0001:000b5c50       ?NCVC_FileDlgCommon@@YAHHABV?$CStringT@DV?$StrTraitMFC_DLL@DV?$ChTraitsCRT@D@ATL@@@@@ATL@@HAAV12@PBDHK@Z 004b6c50 f   NCVC.obj
 0001:000b5ed0       ??0CRecentViewInfo@@QAE@PBD@Z 004b6ed0 f   NCVC.obj
 0001:000b5fb0       ?SetViewInfo@CRecentViewInfo@@QAEXQAY03$$CBNABV?$CRect3T@M@@ABV?$CPointT@M@@@Z 004b6fb0 f   NCVC.obj
 0001:000b6050       ?GetViewInfo@CRecentViewInfo@@QBEHQAY03NAAV?$CRect3T@M@@AAV?$CPointT@M@@@Z 004b7050 f   NCVC.obj
 0001:000b60f0       ??0CNCVCDocTemplate@@QAE@IPAUCRuntimeClass@@00@Z 004b70f0 f   NCVC.obj
 0001:000b67d0       ??_ECNCVCDocTemplate@@UAEPAXI@Z 004b77d0 f i * CIL library *:* CIL module *
 0001:000b67d0       ??_GCNCVCDocTemplate@@UAEPAXI@Z 004b77d0 f i NCVC.obj
 0001:000b6880       ??_FCMapStringToPtr@@QAEXXZ 004b7880 f i NCVC.obj
 0001:000b6890       ?AddExtensionFunc@CNCVCDocTemplate@@QAEHPBDPAX@Z 004b7890 f   NCVC.obj
 0001:000b6980       ?MatchDocType@CNCVCDocTemplate@@UAE?AW4Confidence@CDocTemplate@@PBDAAPAVCDocument@@@Z 004b7980 f   NCVC.obj
 0001:000b6a90       ?IsExtension@CNCVCDocTemplate@@QAEHPBDPAPAX@Z 004b7a90 f   NCVC.obj
 0001:000b6bd0       ?SaveExt@CNCVCDocTemplate@@QAEHXZ 004b7bd0 f   NCVC.obj
 0001:000b6dc0       ?GetFilterString@CNCVCDocTemplate@@QAE?AV?$CStringT@DV?$StrTraitMFC_DLL@DV?$ChTraitsCRT@D@ATL@@@@@ATL@@XZ 004b7dc0 f   NCVC.obj
 0001:000b6f70       ?_GetBaseClass@CNCVCDocTemplate@@KGPAUCRuntimeClass@@XZ 004b7f70 f   NCVC.obj
 0001:000b6f80       ?GetRuntimeClass@CNCVCDocTemplate@@UBEPAUCRuntimeClass@@XZ 004b7f80 f   NCVC.obj
 0001:000b6f90       ?GetApplicationRecoveryPingInterval@CWinApp@@UAEKXZ 004b7f90 f i NCVC.obj
 0001:000b6fa0       ?RestoreAutosavedFilesAtRestart@CWinApp@@UBEHXZ 004b7fa0 f i NCVC.obj
 0001:000b6fb0       ?ReopenPreviousFilesAtRestart@CWinApp@@UBEHXZ 004b7fb0 f i NCVC.obj
 0001:000b6fc0       ?SupportsAutosaveAtInterval@CWinApp@@UBEHXZ 004b7fc0 f i NCVC.obj
 0001:000b6fd0       ?SupportsAutosaveAtRestart@CWinApp@@UBEHXZ 004b7fd0 f i NCVC.obj
 0001:000b6fe0       ?SupportsApplicationRecovery@CWinApp@@UBEHXZ 004b7fe0 f i NCVC.obj
 0001:000b6ff0       ?SupportsRestartManager@CWinApp@@UBEHXZ 004b7ff0 f i NCVC.obj
 0001:000b7000       _NCVC_GetDXFLayerSize@4    004b8000 f   NCVCaddinDXF.obj
 0001:000b7030       _NCVC_GetDXFLayerData@16   004b8030 f   NCVCaddinDXF.obj
 0001:000b70c0       _NCVC_GetDXFDataSize@8     004b80c0 f   NCVCaddinDXF.obj
 0001:000b7120       _NCVC_GetDXFTextDataSize@8 004b8120 f   NCVCaddinDXF.obj
 0001:000b7180       _NCVC_GetDXFData@12        004b8180 f   NCVCaddinDXF.obj
 0001:000b7450       _NCVC_GetDXFTextData@12    004b8450 f   NCVCaddinDXF.obj
 0001:000b7bc0       _NCVC_AddDXFData@8         004b8bc0 f   NCVCaddinDXF.obj
 0001:000b7be0       _NCVC_InsDXFData@12        004b8be0 f   NCVCaddinDXF.obj
 0001:000b7c10       _NCVC_ModDXFData@12        004b8c10 f   NCVCaddinDXF.obj
 0001:000b7c40       _NCVC_DelDXFData@16        004b8c40 f   NCVCaddinDXF.obj
 0001:000b7cb0       _NCVC_DelDXFTextData@16    004b8cb0 f   NCVCaddinDXF.obj
 0001:000b7d20       _NCVC_GetDXFCutterOrigin@8 004b8d20 f   NCVCaddinDXF.obj
 0001:000b7da0       _NCVC_SetDXFCutterOrigin@20 004b8da0 f   NCVCaddinDXF.obj
 0001:000b7e10       _NCVC_SetDXFLatheLine@12   004b8e10 f   NCVCaddinDXF.obj
 0001:000b7e90       _NCVC_SetDXFReady@8        004b8e90 f   NCVCaddinDXF.obj
 0001:000b7ee0       _NCVC_GetDXFoption@4       004b8ee0 f   NCVCaddinDXF.obj
 0001:000b7fc0       _NCVC_IsOriginLayer@4      004b8fc0 f   NCVCaddinDXF.obj
 0001:000b7fe0       _NCVC_IsCutterLayer@4      004b8fe0 f   NCVCaddinDXF.obj
 0001:000b8020       _NCVC_IsStartLayer@4       004b9020 f   NCVCaddinDXF.obj
 0001:000b8050       _NCVC_IsMoveLayer@4        004b9050 f   NCVCaddinDXF.obj
 0001:000b8080       _NCVC_IsCommentLayer@4     004b9080 f   NCVCaddinDXF.obj
 0001:000b80b0       ??0CNCVCaddinIF@@QAE@PAUHINSTANCE__@@PAUtagNCVCINITIALIZE@@PBD@Z 004b90b0 f   NCVCaddinIF.obj
 0001:000b82e0       ??_ECNCVCaddinIF@@UAEPAXI@Z 004b92e0 f i * CIL library *:* CIL module *
 0001:000b82e0       ??_GCNCVCaddinIF@@UAEPAXI@Z 004b92e0 f i NCVCaddinIF.obj
 0001:000b83b0       _NCVC_GetMainWnd@0         004b93b0 f   NCVCaddinIF.obj
 0001:000b83d0       _NCVC_GetMainInstance@0    004b93d0 f   NCVCaddinIF.obj
 0001:000b83e0       _NCVC_CreateRegKey@8       004b93e0 f   NCVCaddinIF.obj
 0001:000b84b0       _NCVC_GetDocument@4        004b94b0 f   NCVCaddinIF.obj
 0001:000b8520       _NCVC_GetDocumentFileName@12 004b9520 f   NCVCaddinIF.obj
 0001:000b85a0       _NCVC_LockDocument@8       004b95a0 f   NCVCaddinIF.obj
 0001:000b85f0       _NCVC_UnlockDocument@4     004b95f0 f   NCVCaddinIF.obj
 0001:000b8640       _NCVC_MainfrmProgressRange@8 004b9640 f   NCVCaddinIF.obj
 0001:000b86a0       _NCVC_MainfrmProgressPos@4 004b96a0 f   NCVCaddinIF.obj
 0001:000b86d0       _NCVC_GetSelectMachineFileName@8 004b96d0 f   NCVCaddinIF.obj
 0001:000b8750       _NCVC_SetMachineFile@4     004b9750 f   NCVCaddinIF.obj
 0001:000b8760       _NCVC_CreateNCDocument@8   004b9760 f   NCVCaddinIF.obj
 0001:000b87b0       _NCVC_CreateDXFDocument@8  004b97b0 f   NCVCaddinIF.obj
 0001:000b8800       _NCVC_AddNCDExtensionFunc@12 004b9800 f   NCVCaddinIF.obj
 0001:000b8840       _NCVC_AddDXFExtensionFunc@12 004b9840 f   NCVCaddinIF.obj
 0001:000b8880       _NCVC_CloseDocument@4      004b9880 f   NCVCaddinIF.obj
 0001:000b88c0       _NCVC_ReDraw@4             004b98c0 f   NCVCaddinIF.obj
 0001:000b8900       _NCVC_GetObjectSize@8      004b9900 f   NCVCaddinIF.obj
 0001:000b89d0       _NCVC_GetNCBlockDataSize@4 004b99d0 f   NCVCaddinNC.obj
 0001:000b8a00       _NCVC_GetNCBlockData@16    004b9a00 f   NCVCaddinNC.obj
 0001:000b8ac0       _NCVC_GetNCBlockFlag@8     004b9ac0 f   NCVCaddinNC.obj
 0001:000b8b10       _NCVC_GetNCDataSize@4      004b9b10 f   NCVCaddinNC.obj
 0001:000b8b40       _NCVC_GetNCData@12         004b9b40 f   NCVCaddinNC.obj
 0001:000b8c50       _NCVC_AddNCStrData@8       004b9c50 f   NCVCaddinNC.obj
 0001:000b8c90       _NCVC_InsNCStrData@12      004b9c90 f   NCVCaddinNC.obj
 0001:000b8cd0       _NCVC_ModNCStrData@12      004b9cd0 f   NCVCaddinNC.obj
 0001:000b8d10       _NCVC_DelNCStrData@12      004b9d10 f   NCVCaddinNC.obj
 0001:000b8fe0       _NCVC_AddNCData@8          004b9fe0 f   NCVCaddinNC.obj
 0001:000b9000       _NCVC_InsNCData@12         004ba000 f   NCVCaddinNC.obj
 0001:000b9030       _NCVC_ModNCData@12         004ba030 f   NCVCaddinNC.obj
 0001:000b9060       _NCVC_DelNCData@12         004ba060 f   NCVCaddinNC.obj
 0001:000b9090       _NCVC_TraceStart@4         004ba090 f   NCVCaddinNC.obj
 0001:000b9110       _NCVC_TracePause@4         004ba110 f   NCVCaddinNC.obj
 0001:000b9190       _NCVC_TraceStop@4          004ba190 f   NCVCaddinNC.obj
 0001:000b9210       _NCVC_TraceNextDraw@4      004ba210 f   NCVCaddinNC.obj
 0001:000b9260       ?ConvertRect@CNCViewBase@@EAE?AV?$CRectT@M@@ABV?$CRect3T@M@@@Z 004ba260 f i NCView.obj
 0001:000b9280       ?GetPlaneAxis@CNCViewBase@@EAE?AV?$tuple@IIUnull_type@tuples@boost@@U123@U123@U123@U123@U123@U123@U123@@tuples@boost@@XZ 004ba280 f i NCView.obj
 0001:000b92a0       ??0CNCViewBase@@IAE@W4ENNCDRAWVIEW@@@Z 004ba2a0 f i NCView.obj
 0001:000b9400       ?ConvertMaxRect@CNCViewBase@@UAEXXZ 004ba400 f i NCView.obj
 0001:000b9490       ?ConvertWorkRect@CNCViewBase@@UAEXXZ 004ba490 f i NCView.obj
 0001:000b9560       ?ConvertWorkCylinder@CNCViewBase@@UAEXXZ 004ba560 f i NCView.obj
 0001:000b9630       ?DrawMaxRect@CNCViewBase@@UAEXPAVCDC@@@Z 004ba630 f i NCView.obj
 0001:000b96a0       ?DrawWorkRect@CNCViewBase@@UAEXPAVCDC@@@Z 004ba6a0 f i NCView.obj
 0001:000b9710       ?DrawWorkCylinder@CNCViewBase@@UAEXPAVCDC@@@Z 004ba710 f i NCView.obj
 0001:000b9780       ??_GCNCViewBase@@UAEPAXI@Z 004ba780 f i NCView.obj
 0001:000b9780       ??_ECNCViewYZ@@UAEPAXI@Z   004ba780 f i * CIL library *:* CIL module *
 0001:000b9780       ??_GCNCViewYZ@@UAEPAXI@Z   004ba780 f i NCViewYZ.obj
 0001:000b9780       ??_ECNCViewXZ@@UAEPAXI@Z   004ba780 f i * CIL library *:* CIL module *
 0001:000b9780       ??_GCNCViewXZ@@UAEPAXI@Z   004ba780 f i NCViewXZ.obj
 0001:000b9780       ??_ECNCViewBase@@UAEPAXI@Z 004ba780 f i * CIL library *:* CIL module *
 0001:000b97d0       ?CreateObject@CNCView@@SGPAVCObject@@XZ 004ba7d0 f   NCView.obj
 0001:000b9b20       ?_GetBaseClass@CNCViewYZ@@KGPAUCRuntimeClass@@XZ 004bab20 f   NCViewYZ.obj
 0001:000b9b20       ?_GetBaseClass@CNCViewXZ@@KGPAUCRuntimeClass@@XZ 004bab20 f   NCViewXZ.obj
 0001:000b9b20       ?_GetBaseClass@CNCViewXY@@KGPAUCRuntimeClass@@XZ 004bab20 f   NCViewXY.obj
 0001:000b9b20       ?GetRuntimeClass@CNCViewBase@@UBEPAUCRuntimeClass@@XZ 004bab20 f   NCViewBase.obj
 0001:000b9b20       ?_GetBaseClass@CNCView@@KGPAUCRuntimeClass@@XZ 004bab20 f   NCView.obj
 0001:000b9b30       ?GetRuntimeClass@CNCView@@UBEPAUCRuntimeClass@@XZ 004bab30 f   NCView.obj
 0001:000b9b40       ?GetMessageMap@CNCViewYZ@@MBEPBUAFX_MSGMAP@@XZ 004bab40 f   NCViewYZ.obj
 0001:000b9b40       ?GetMessageMap@CNCView@@MBEPBUAFX_MSGMAP@@XZ 004bab40 f   NCView.obj
 0001:000b9b40       ?GetMessageMap@CNCViewXZ@@MBEPBUAFX_MSGMAP@@XZ 004bab40 f   NCViewXZ.obj
 0001:000b9b40       ?GetMessageMap@CNCViewXY@@MBEPBUAFX_MSGMAP@@XZ 004bab40 f   NCViewXY.obj
 0001:000b9b50       ??_GCNCView@@UAEPAXI@Z     004bab50 f i NCView.obj
 0001:000b9b50       ??_ECNCView@@UAEPAXI@Z     004bab50 f i * CIL library *:* CIL module *
 0001:000b9ba0       ?OnInitialUpdate@CNCView@@UAEXXZ 004baba0 f   NCView.obj
 0001:000b9c50       ?SetGuideData@CNCView@@UAEXXZ 004bac50 f   NCView.obj
 0001:000b9f70       ?SetDataMaxRect@CNCView@@UAEXXZ 004baf70 f   NCView.obj
 0001:000ba4d0       ?SetWorkRect@CNCView@@UAEXXZ 004bb4d0 f   NCView.obj
 0001:000ba850       ?SetWorkCylinder@CNCView@@UAEXXZ 004bb850 f   NCView.obj
 0001:000baa40       ?ConvertMaxRect@CNCView@@UAEXXZ 004bba40 f   NCView.obj
 0001:000baac0       ?ConvertWorkRect@CNCView@@UAEXXZ 004bbac0 f   NCView.obj
 0001:000bab40       ?ConvertWorkCylinder@CNCView@@UAEXXZ 004bbb40 f   NCView.obj
 0001:000babb0       ?OnDraw@CNCView@@UAEXPAVCDC@@@Z 004bbbb0 f   NCView.obj
 0001:000bad50       ?DrawMaxRect@CNCView@@UAEXPAVCDC@@@Z 004bbd50 f   NCView.obj
 0001:000bae00       ?DrawWorkRect@CNCView@@UAEXPAVCDC@@@Z 004bbe00 f   NCView.obj
 0001:000baeb0       ?DrawWorkCylinder@CNCView@@UAEXPAVCDC@@@Z 004bbeb0 f   NCView.obj
 0001:000bafb8       ??_9CNCdata@@$BBE@AE       004bbfb8 f i NCView.obj
 0001:000bafbd       ??_9CNCdata@@$BCE@AE       004bbfbd f i NCView.obj
 0001:000bafd0       ?GetThisMessageMap@CNCViewBase@@KGPBUAFX_MSGMAP@@XZ 004bbfd0 f   NCViewBase.obj
 0001:000bafd0       ?GetMessageMap@CNCViewBase@@MBEPBUAFX_MSGMAP@@XZ 004bbfd0 f   NCViewBase.obj
 0001:000bafe0       ?OnInitialUpdate@CNCViewBase@@UAEXXZ 004bbfe0 f   NCViewBase.obj
 0001:000bb120       ?OnUpdate@CNCViewBase@@UAEXPAVCView@@JPAVCObject@@@Z 004bc120 f   NCViewBase.obj
 0001:000bb3a0       ?OnDraw@CNCViewBase@@UAEXPAVCDC@@@Z 004bc3a0 f   NCViewBase.obj
 0001:000bb5c0       ?DrawGuideDivi@CNCViewBase@@QAEXPAVCDC@@II@Z 004bc5c0 f   NCViewBase.obj
 0001:000bb8a0       ?DrawInfo@CNCViewBase@@QAEXPAVCDC@@@Z 004bc8a0 f   NCViewBase.obj
 0001:000bb980       ?DrawNCdata@CNCViewBase@@QAEXPAVCDC@@@Z 004bc980 f   NCViewBase.obj
 0001:000bba50       ?DrawSupportRect@CNCViewBase@@QAEXPAVCDC@@@Z 004bca50 f   NCViewBase.obj
 0001:000bbad0       ?OnActivateView@CNCViewBase@@UAEXHPAVCView@@0@Z 004bcad0 f   NCViewBase.obj
 0001:000bbc00       ?SetDataMaxRect@CNCViewBase@@UAEXXZ 004bcc00 f   NCViewBase.obj
 0001:000bbd60       ?OnViewLensComm@CNCViewBase@@UAEXXZ 004bcd60 f   NCViewBase.obj
 0001:000bbf60       ?OnContextMenu@CNCViewBase@@QAEXPAVCWnd@@VCPoint@@@Z 004bcf60 f   NCViewBase.obj
 0001:000bbf80       ?OnKeyDown@CNCViewBase@@QAEXIII@Z 004bcf80 f   NCViewBase.obj
 0001:000bbfe0       ?OnLButtonUp@CNCViewBase@@QAEXIVCPoint@@@Z 004bcfe0 f   NCViewBase.obj
 0001:000bc020       ?OnRButtonUp@CNCViewBase@@QAEXIVCPoint@@@Z 004bd020 f   NCViewBase.obj
 0001:000bc0c0       ?OnLButtonDblClk@CNCViewBase@@QAEXIVCPoint@@@Z 004bd0c0 f   NCViewBase.obj
 0001:000bc1b0       ?OnMouseMove@CNCViewBase@@QAEXIVCPoint@@@Z 004bd1b0 f   NCViewBase.obj
 0001:000bc1d0       ?OnMouseActivate@CNCViewBase@@QAEHPAVCWnd@@II@Z 004bd1d0 f   NCViewBase.obj
 0001:000bc200       ?OnUpdateEditCopy@CNCViewBase@@QAEXPAVCCmdUI@@@Z 004bd200 f   NCViewBase.obj
 0001:000bc200       ?OnUpdateMoveRoundKey@CNCViewGL@@IAEXPAVCCmdUI@@@Z 004bd200 f   NCViewGL.obj
 0001:000bc200       ?OnUpdateMoveKey@CNCViewTab@@IAEXPAVCCmdUI@@@Z 004bd200 f   NCViewTab.obj
 0001:000bc200       ?OnUpdateMoveKey@CNCViewBase@@QAEXPAVCCmdUI@@@Z 004bd200 f   NCViewBase.obj
 0001:000bc210       ?OnMoveKey@CNCViewBase@@QAEXI@Z 004bd210 f   NCViewBase.obj
 0001:000bc220       ?OnLensKey@CNCViewBase@@QAEXI@Z 004bd220 f   NCViewBase.obj
 0001:000bc290       ?OnUserViewFitMsg@CNCViewBase@@QAEJIJ@Z 004bd290 f   NCViewBase.obj
 0001:000bc2c0       ?OnUserActivatePage@CNCViewBase@@QAEJIJ@Z 004bd2c0 f   NCViewBase.obj
 0001:000bc320       ?OnEraseBkgnd@CNCViewBase@@QAEHPAVCDC@@@Z 004bd320 f   NCViewBase.obj
 0001:000bc350       ??1CVBtmDraw@@QAE@XZ       004bd350 f i NCViewGL.obj
 0001:000bc360       ?CreateObject@CNCViewGL@@SGPAVCObject@@XZ 004bd360 f   NCViewGL.obj
 0001:000bc610       ?GetRuntimeClass@CNCViewGL@@UBEPAUCRuntimeClass@@XZ 004bd610 f   NCViewGL.obj
 0001:000bc620       ?GetMessageMap@CNCViewGL@@MBEPBUAFX_MSGMAP@@XZ 004bd620 f   NCViewGL.obj
 0001:000bc630       ??_GCNCViewGL@@UAEPAXI@Z   004bd630 f i NCViewGL.obj
 0001:000bc630       ??_ECNCViewGL@@UAEPAXI@Z   004bd630 f i * CIL library *:* CIL module *
 0001:000bc750       ??1WIREDRAW@@QAE@XZ        004bd750 f i NCViewGL.obj
 0001:000bc780       ?DeleteDepthMemory@CNCViewGL@@AAEXXZ 004bd780 f   NCViewGL.obj
 0001:000bc850       ?OnInitialUpdate@CNCViewGL@@UAEXXZ 004bd850 f   NCViewGL.obj
 0001:000bc8d0       ?OnUpdate@CNCViewGL@@MAEXPAVCView@@JPAVCObject@@@Z 004bd8d0 f   NCViewGL.obj
 0001:000bcb60       ?UpdateViewOption@CNCViewGL@@AAEXXZ 004bdb60 f   NCViewGL.obj
 0001:000bd2b0       ?InitialObjectForm@CNCViewGL@@AAEXXZ 004be2b0 f   NCViewGL.obj
 0001:000bd370       ?CreateTexture@CNCViewGL@@AAEXHPBM@Z 004be370 f   NCViewGL.obj
 0001:000bd490       ?ClearVBO@CNCViewGL@@AAEXXZ 004be490 f   NCViewGL.obj
 0001:000bd570       ?ClearTexture@CNCViewGL@@AAEXXZ 004be570 f   NCViewGL.obj
 0001:000bd5b0       ?InitialBoxel@CNCViewGL@@AAEXXZ 004be5b0 f   NCViewGL.obj
 0001:000bd6d0       ?FinalBoxel@CNCViewGL@@AAEXXZ 004be6d0 f   NCViewGL.obj
 0001:000bd7f0       ?RenderCode@CNCViewGL@@AAEXXZ 004be7f0 f   NCViewGL.obj
 0001:000bd870       ?RenderMill@CNCViewGL@@AAEXPBVCNCdata@@@Z 004be870 f   NCViewGL.obj
 0001:000bdc00       ?DoScale@CNCViewGL@@MAEXH@Z 004bec00 f   NCViewGL.obj
 0001:000bde40       ?OnDraw@CNCViewGL@@UAEXPAVCDC@@@Z 004bee40 f   NCViewGL.obj
 0001:000be620       ?OnCreate@CNCViewGL@@IAEHPAUtagCREATESTRUCTA@@@Z 004bf620 f   NCViewGL.obj
 0001:000be750       ?OnDestroy@CNCViewGL@@IAEXXZ 004bf750 f   NCViewGL.obj
 0001:000be8c0       ?OnSize@CNCViewGL@@IAEXIHH@Z 004bf8c0 f   NCViewGL.obj
 0001:000be8f0       ?OnActivateView@CNCViewGL@@MAEXHPAVCView@@0@Z 004bf8f0 f   NCViewGL.obj
 0001:000be970       ?OnUserActivatePage@CNCViewGL@@IAEJIJ@Z 004bf970 f   NCViewGL.obj
 0001:000beb60       ?OnUserViewFitMsg@CNCViewGL@@IAEJIJ@Z 004bfb60 f   NCViewGL.obj
 0001:000becf0       ?OnSelectTrace@CNCViewGL@@IAEJIJ@Z 004bfcf0 f   NCViewGL.obj
 0001:000bf280       ??_GCFrameBuffer@@QAEPAXI@Z 004c0280 f i NCViewGL.obj
 0001:000bf360       ?OnLensKey@CNCViewGL@@IAEXI@Z 004c0360 f   NCViewGL.obj
 0001:000bf590       ?OnDefViewInfo@CNCViewGL@@IAEXXZ 004c0590 f   NCViewGL.obj
 0001:000bf670       ?OnContextMenu@CNCViewGL@@IAEXPAVCWnd@@VCPoint@@@Z 004c0670 f   NCViewGL.obj
 0001:000bf740       ?OnLButtonDblClk@CNCViewGL@@IAEXIVCPoint@@@Z 004c0740 f   NCViewGL.obj
 0001:000bf820       ?OnKeyDown@CNCViewGL@@IAEXIII@Z 004c0820 f   NCViewGL.obj
 0001:000bf880       ?InitialMillNormal@@YAXXZ  004c0880 f   NCViewGL.obj
 0001:000bfab0       ??1?$vector@UWIRELINE@@V?$allocator@UWIRELINE@@@std@@@std@@QAE@XZ 004c0ab0 f i NCViewGL.obj
 0001:000bfb40       ??1?$vector@V?$vector@IV?$allocator@I@std@@@std@@V?$allocator@V?$vector@IV?$allocator@I@std@@@std@@@2@@std@@QAE@XZ 004c0b40 f i NCViewGL.obj
 0001:000bfbc0       ??1?$vector@UBOTTOMDRAW@@V?$allocator@UBOTTOMDRAW@@@std@@@std@@QAE@XZ 004c0bc0 f i NCViewGL.obj
 0001:000bfc50       ?deallocate@?$allocator@UWIRELINE@@@std@@QAEXQAUWIRELINE@@I@Z 004c0c50 f i NCViewGL.obj
 0001:000bfc90       ??$_Destroy_range@V?$allocator@UWIRELINE@@@std@@@std@@YAXPAUWIRELINE@@QAU1@AAV?$allocator@UWIRELINE@@@0@@Z 004c0c90 f i NCViewGL.obj
 0001:000bfcc0       ??$_Destroy_range@V?$allocator@V?$vector@IV?$allocator@I@std@@@std@@@std@@@std@@YAXPAV?$vector@IV?$allocator@I@std@@@0@QAV10@AAV?$allocator@V?$vector@IV?$allocator@I@std@@@std@@@0@@Z 004c0cc0 f i NCViewGL.obj
 0001:000bfcf0       ??1WIRELINE@@QAE@XZ        004c0cf0 f i NCViewGL.obj
 0001:000bfd00       ?variant_assign@?$variant@PAVCNCdata@@URANGEPARAM@@@boost@@AAEX$$QAV12@@Z 004c0d00 f i NCViewGL.obj
 0001:000c0020       ??$apply_visitor@V?$direct_mover@URANGEPARAM@@@variant@detail@boost@@@?$variant@PAVCNCdata@@URANGEPARAM@@@boost@@QGAE_NAAV?$direct_mover@URANGEPARAM@@@variant@detail@1@@Z 004c1020 f i NCViewGL.obj
 0001:000c01b0       ??1Bitmap@Gdiplus@@UAE@XZ  004c11b0 f i NCViewGL.obj
 0001:000c01c0       ??_EBitmap@Gdiplus@@UAEPAXI@Z 004c11c0 f i * CIL library *:* CIL module *
 0001:000c01c0       ??_EImage@Gdiplus@@UAEPAXI@Z 004c11c0 f i * CIL library *:* CIL module *
 0001:000c01c0       ??_GBitmap@Gdiplus@@UAEPAXI@Z 004c11c0 f i NCViewGL.obj
 0001:000c01c0       ??_GImage@Gdiplus@@UAEPAXI@Z 004c11c0 f i NCViewGL.obj
 0001:000c0200       ?Clone@Image@Gdiplus@@UAEPAV12@XZ 004c1200 f i NCViewGL.obj
 0001:000c0250       ?CreateLathe@CNCViewGL@@AAEHH@Z 004c1250 f   NCViewGL_Lathe.obj
 0001:000c04c0       ?GetClipDepthLathe@CNCViewGL@@AAEHXZ 004c14c0 f   NCViewGL_Lathe.obj
 0001:000c11d0       ?CreateVBOLathe@CNCViewGL@@AAEHXZ 004c21d0 f   NCViewGL_Lathe.obj
 0001:000c2000       ?CreateTextureLathe@CNCViewGL@@AAEXXZ 004c3000 f   NCViewGL_Lathe.obj
 0001:000c2120       ?_Reallocate_exactly@?$vector@V?$vector@IV?$allocator@I@std@@@std@@V?$allocator@V?$vector@IV?$allocator@I@std@@@std@@@2@@std@@AAEXI@Z 004c3120 f i NCViewGL_Lathe.obj
 0001:000c21c0       ?_Reallocate_exactly@?$vector@IV?$allocator@I@std@@@std@@AAEXI@Z 004c31c0 f i NCViewGL_Lathe.obj
 0001:000c2200       ?_Change_array@?$vector@V?$vector@IV?$allocator@I@std@@@std@@V?$allocator@V?$vector@IV?$allocator@I@std@@@std@@@2@@std@@AAEXQAV?$vector@IV?$allocator@I@std@@@2@II@Z 004c3200 f i NCViewGL_Lathe.obj
 0001:000c2290       ??$_Emplace_reallocate@ABV?$vector@IV?$allocator@I@std@@@std@@@?$vector@V?$vector@IV?$allocator@I@std@@@std@@V?$allocator@V?$vector@IV?$allocator@I@std@@@std@@@2@@std@@QAEPAV?$vector@IV?$allocator@I@std@@@1@QAV21@ABV21@@Z 004c3290 f i NCViewGL_Lathe.obj
 0001:000c2440       ??0CREATEELEMENTPARAM@@QAE@XZ 004c3440 f i NCViewGL_Mill.obj
 0001:000c24e0       ?CreateBoxel@CNCViewGL@@AAEHH@Z 004c34e0 f   NCViewGL_Mill.obj
 0001:000c26d0       ?CreateBoxel_fromIGES@CNCViewGL@@AAEHPAV?$variant@PAVCNCdata@@URANGEPARAM@@@boost@@@Z 004c36d0 f   NCViewGL_Mill.obj
 0001:000c29f0       ?CreateBottomFaceThread@CNCViewGL@@AAEHHH@Z 004c39f0 f   NCViewGL_Mill.obj
 0001:000c2f60       ?GetClipDepthMill@CNCViewGL@@AAEHW4ENCLIPDEPTH@@@Z 004c3f60 f   NCViewGL_Mill.obj
 0001:000c3460       ?GetClipDepthMill_All@CNCViewGL@@AAEXABUARGVCLIPDEPTH@@@Z 004c4460 f   NCViewGL_Mill.obj
 0001:000c3550       ?GetClipDepthMill_Zonly@CNCViewGL@@AAEXABUARGVCLIPDEPTH@@@Z 004c4550 f   NCViewGL_Mill.obj
 0001:000c3580       ?GetClipDepthMill_BottomStencil@CNCViewGL@@AAEXABUARGVCLIPDEPTH@@@Z 004c4580 f   NCViewGL_Mill.obj
 0001:000c3610       ?GetClipDepthMill_TopStencil@CNCViewGL@@AAEXABUARGVCLIPDEPTH@@@Z 004c4610 f   NCViewGL_Mill.obj
 0001:000c36a0       ?GetClipDepthCylinder@CNCViewGL@@AAEHXZ 004c46a0 f   NCViewGL_Mill.obj
 0001:000c4000       ?CreateVBOMill@CNCViewGL@@AAEHXZ 004c5000 f   NCViewGL_Mill.obj
 0001:000c4950       ??1CREATEELEMENTPARAM@@QAE@XZ 004c5950 f i NCViewGL_Mill.obj
 0001:000c4980       ?EndOfCreateElementThread@CNCViewGL@@AAEXXZ 004c5980 f   NCViewGL_Mill.obj
 0001:000c4a90       ?CreateTextureMill@CNCViewGL@@AAEXXZ 004c5a90 f   NCViewGL_Mill.obj
 0001:000c6380       ??$get@URANGEPARAM@@PAVCNCdata@@U1@@boost@@YAPAURANGEPARAM@@PAV?$variant@PAVCNCdata@@URANGEPARAM@@@0@@Z 004c7380 f i NCViewGL_Mill.obj
 0001:000c6390       ?CreateWire@CNCViewGL@@AAEHXZ 004c7390 f   NCViewGL_Wire.obj
 0001:000c6db0       ?CreateTextureWire@CNCViewGL@@AAEXXZ 004c7db0 f   NCViewGL_Wire.obj
 0001:000c6fd0       ??$_Emplace_reallocate@ABUWIRELINE@@@?$vector@UWIRELINE@@V?$allocator@UWIRELINE@@@std@@@std@@QAEPAUWIRELINE@@QAU2@ABU2@@Z 004c7fd0 f i NCViewGL_Wire.obj
 0001:000c7200       ??$_Uninitialized_move@PAUWIRELINE@@V?$allocator@UWIRELINE@@@std@@@std@@YAPAUWIRELINE@@QAU1@0PAU1@AAV?$allocator@UWIRELINE@@@0@@Z 004c8200 f i NCViewGL_Wire.obj
 0001:000c7260       ?GetMessageMap@CNCViewSplit@@MBEPBUAFX_MSGMAP@@XZ 004c8260 f   NCViewSplit.obj
 0001:000c7270       ??_ECNCViewSplit@@UAEPAXI@Z 004c8270 f i * CIL library *:* CIL module *
 0001:000c7270       ??_GCNCViewSplit@@UAEPAXI@Z 004c8270 f i NCViewSplit.obj
 0001:000c72b0       ?DrawData@CNCViewSplit@@QAEXPAVCNCdata@@HQAP82@BEXPAVCDC@@H@Z@Z 004c82b0 f   NCViewSplit.obj
 0001:000c7350       ?AllPane_PostMessage@CNCViewSplit@@AAEXIIIJ@Z 004c8350 f   NCViewSplit.obj
 0001:000c7420       ?CalcPane@CNCViewSplit@@AAEXIH@Z 004c8420 f   NCViewSplit.obj
 0001:000c76a0       ?OnUserInitialUpdate@CNCViewSplit@@IAEJIJ@Z 004c86a0 f   NCViewSplit.obj
 0001:000c78e0       ?OnUserActivatePage@CNCViewSplit@@IAEJIJ@Z 004c88e0 f   NCViewSplit.obj
 0001:000c7900       ?OnDestroy@CNCViewSplit@@IAEXXZ 004c8900 f   NCViewSplit.obj
 0001:000c7af0       ?OnLButtonDblClk@CNCViewSplit@@IAEXIVCPoint@@@Z 004c8af0 f   NCViewSplit.obj
 0001:000c7b60       ?OnAllFitCmd@CNCViewSplit@@IAEXXZ 004c8b60 f   NCViewSplit.obj
 0001:000c7bd0       ?OnUserViewFitMsg@CNCViewSplit@@IAEJIJ@Z 004c8bd0 f   NCViewSplit.obj
 0001:000c7c00       ??_GCTraceThread@@UAEPAXI@Z 004c8c00 f i NCViewTab.obj
 0001:000c7c00       ??_ECTraceThread@@UAEPAXI@Z 004c8c00 f i * CIL library *:* CIL module *
 0001:000c7c40       ?CreateObject@CNCViewTab@@SGPAVCObject@@XZ 004c8c40 f   NCViewTab.obj
 0001:000c7db0       ?GetRuntimeClass@CNCViewTab@@UBEPAUCRuntimeClass@@XZ 004c8db0 f   NCViewTab.obj
 0001:000c7dc0       ?GetMessageMap@CNCViewTab@@MBEPBUAFX_MSGMAP@@XZ 004c8dc0 f   NCViewTab.obj
 0001:000c7dd0       ??_ECNCViewTab@@UAEPAXI@Z  004c8dd0 f i * CIL library *:* CIL module *
 0001:000c7dd0       ??_GCNCViewTab@@UAEPAXI@Z  004c8dd0 f i NCViewTab.obj
 0001:000c7e50       ?OnInitialUpdate@CNCViewTab@@UAEXXZ 004c8e50 f   NCViewTab.obj
 0001:000c8050       ?OnCmdMsg@CNCViewTab@@UAEHIHPAXPAUAFX_CMDHANDLERINFO@@@Z 004c9050 f   NCViewTab.obj
 0001:000c81b0       ?OnActivatePage@CNCViewTab@@MAEXH@Z 004c91b0 f   NCViewTab.obj
 0001:000c8280       ?OnCreate@CNCViewTab@@IAEHPAUtagCREATESTRUCTA@@@Z 004c9280 f   NCViewTab.obj
 0001:000c88a0       ?OnDestroy@CNCViewTab@@IAEXXZ 004c98a0 f   NCViewTab.obj
 0001:000c8950       ?OnUpdateTraceSpeed@CNCViewTab@@IAEXPAVCCmdUI@@@Z 004c9950 f   NCViewTab.obj
 0001:000c8980       ?OnTraceSpeed@CNCViewTab@@IAEXI@Z 004c9980 f   NCViewTab.obj
 0001:000c89b0       ?OnUpdateTraceRun@CNCViewTab@@IAEXPAVCCmdUI@@@Z 004c99b0 f   NCViewTab.obj
 0001:000c8a00       ?OnTraceRun@CNCViewTab@@IAEXXZ 004c9a00 f   NCViewTab.obj
 0001:000c8a90       ?OnUpdateTracePause@CNCViewTab@@IAEXPAVCCmdUI@@@Z 004c9a90 f   NCViewTab.obj
 0001:000c8ae0       ?OnTracePause@CNCViewTab@@IAEXXZ 004c9ae0 f   NCViewTab.obj
 0001:000c8ba0       ?OnTraceStop@CNCViewTab@@IAEXXZ 004c9ba0 f   NCViewTab.obj
 0001:000c8c20       ?OnUpdateTraceCursor@CNCViewTab@@IAEXPAVCCmdUI@@@Z 004c9c20 f   NCViewTab.obj
 0001:000c8c60       ?OnTraceCursor@CNCViewTab@@IAEXI@Z 004c9c60 f   NCViewTab.obj
 0001:000c8df0       ?OnUpdateAllFitCmd@CNCViewTab@@IAEXPAVCCmdUI@@@Z 004c9df0 f   NCViewTab.obj
 0001:000c8e20       ?OnUpdateDefViewInfo@CNCViewTab@@IAEXPAVCCmdUI@@@Z 004c9e20 f   NCViewTab.obj
 0001:000c8e20       ?OnUpdateRoundKey@CNCViewTab@@IAEXPAVCCmdUI@@@Z 004c9e20 f   NCViewTab.obj
 0001:000c8e50       ?OnUpdateEditCopy@CNCViewTab@@IAEXPAVCCmdUI@@@Z 004c9e50 f   NCViewTab.obj
 0001:000c8e80       ?InitInstance@CTraceThread@@UAEHXZ 004c9e80 f   NCViewTab.obj
 0001:000c93f0       ?ExitInstance@CTraceThread@@UAEHXZ 004ca3f0 f   NCViewTab.obj
 0001:000c93f9       ??_9CNCdata@@$BCA@AE       004ca3f9 f i NCViewTab.obj
 0001:000c93fe       ??_9CNCdata@@$BDA@AE       004ca3fe f i NCViewTab.obj
 0001:000c9403       ??_9CNCdata@@$BBI@AE       004ca403 f i NCViewTab.obj
 0001:000c9408       ??_9CNCdata@@$BCI@AE       004ca408 f i NCViewTab.obj
 0001:000c940d       ??_9CNCdata@@$BBM@AE       004ca40d f i NCViewTab.obj
 0001:000c9412       ??_9CNCdata@@$BCM@AE       004ca412 f i NCViewTab.obj
 0001:000c9420       ?CreateObject@CNCViewXY@@SGPAVCObject@@XZ 004ca420 f   NCViewXY.obj
 0001:000c94f0       ?GetRuntimeClass@CNCViewXY@@UBEPAUCRuntimeClass@@XZ 004ca4f0 f   NCViewXY.obj
 0001:000c9500       ??_ECNCViewXY@@UAEPAXI@Z   004ca500 f i * CIL library *:* CIL module *
 0001:000c9500       ??_GCNCViewXY@@UAEPAXI@Z   004ca500 f i NCViewXY.obj
 0001:000c9550       ?OnInitialUpdate@CNCViewXY@@UAEXXZ 004ca550 f   NCViewXY.obj
 0001:000c95f0       ?SetGuideData@CNCViewXY@@UAEXXZ 004ca5f0 f   NCViewXY.obj
 0001:000c96b0       ?SetWorkCylinder@CNCViewXY@@UAEXXZ 004ca6b0 f   NCViewXY.obj
 0001:000c9790       ?ConvertWorkCylinder@CNCViewXY@@UAEXXZ 004ca790 f   NCViewXY.obj
 0001:000c97f0       ?DrawWorkCylinder@CNCViewXY@@UAEXPAVCDC@@@Z 004ca7f0 f   NCViewXY.obj
 0001:000c98a0       ?ConvertRect@CNCViewXZ@@UAE?AV?$CRectT@M@@ABV?$CRect3T@M@@@Z 004ca8a0 f i NCViewXZ.obj
 0001:000c98d0       ?GetPlaneAxis@CNCViewXZ@@UAE?AV?$tuple@IIUnull_type@tuples@boost@@U123@U123@U123@U123@U123@U123@U123@@tuples@boost@@XZ 004ca8d0 f i NCViewXZ.obj
 0001:000c98f0       ?CreateObject@CNCViewXZ@@SGPAVCObject@@XZ 004ca8f0 f   NCViewXZ.obj
 0001:000c9970       ?GetRuntimeClass@CNCViewXZ@@UBEPAUCRuntimeClass@@XZ 004ca970 f   NCViewXZ.obj
 0001:000c9980       ?OnInitialUpdate@CNCViewXZ@@UAEXXZ 004ca980 f   NCViewXZ.obj
 0001:000c9a10       ?SetGuideData@CNCViewXZ@@UAEXXZ 004caa10 f   NCViewXZ.obj
 0001:000c9ad0       ?ConvertRect@CNCViewYZ@@UAE?AV?$CRectT@M@@ABV?$CRect3T@M@@@Z 004caad0 f i NCViewYZ.obj
 0001:000c9b00       ?GetPlaneAxis@CNCViewYZ@@UAE?AV?$tuple@IIUnull_type@tuples@boost@@U123@U123@U123@U123@U123@U123@U123@@tuples@boost@@XZ 004cab00 f i NCViewYZ.obj
 0001:000c9b20       ?CreateObject@CNCViewYZ@@SGPAVCObject@@XZ 004cab20 f   NCViewYZ.obj
 0001:000c9ba0       ?GetRuntimeClass@CNCViewYZ@@UBEPAUCRuntimeClass@@XZ 004caba0 f   NCViewYZ.obj
 0001:000c9bb0       ?OnInitialUpdate@CNCViewYZ@@UAEXXZ 004cabb0 f   NCViewYZ.obj
 0001:000c9c30       ?SetGuideData@CNCViewYZ@@UAEXXZ 004cac30 f   NCViewYZ.obj
 0001:000c9cf0       ?GetMessageMap@CNCWorkDlg@@MBEPBUAFX_MSGMAP@@XZ 004cacf0 f   NCWorkDlg.obj
 0001:000c9d00       ?GetRuntimeClass@CNCWorkDlg@@UBEPAUCRuntimeClass@@XZ 004cad00 f   NCWorkDlg.obj
 0001:000c9d10       ??0CNCWorkDlg@@QAE@II@Z    004cad10 f   NCWorkDlg.obj
 0001:000c9f70       ??_GCNCWorkDlg@@UAEPAXI@Z  004caf70 f i NCWorkDlg.obj
 0001:000c9f70       ??_ECNCWorkDlg@@UAEPAXI@Z  004caf70 f i * CIL library *:* CIL module *
 0001:000c9fd0       ??1CNCWorkDlg1@@UAE@XZ     004cafd0 f i NCWorkDlg.obj
 0001:000ca070       ??1CNCWorkDlg2@@UAE@XZ     004cb070 f i NCWorkDlg.obj
 0001:000ca140       ?GetNCDocument@CNCWorkDlg@@QAEPAVCNCDoc@@XZ 004cb140 f   NCWorkDlg.obj
 0001:000ca1b0       ?OnInitDialog@CNCWorkDlg@@UAEHXZ 004cb1b0 f   NCWorkDlg.obj
 0001:000ca210       ?PostNcDestroy@CNCWorkDlg@@MAEXXZ 004cb210 f   NCWorkDlg.obj
 0001:000ca250       ?OnDestroy@CNCWorkDlg@@IAEXXZ 004cb250 f   NCWorkDlg.obj
 0001:000ca270       ?OnUserSwitchDocument@CNCWorkDlg@@IAEJIJ@Z 004cb270 f   NCWorkDlg.obj
 0001:000ca2f0       ?GetMessageMap@CNCWorkDlg1@@MBEPBUAFX_MSGMAP@@XZ 004cb2f0 f   NCWorkDlg1.obj
 0001:000ca300       ??_ECNCWorkDlg1@@UAEPAXI@Z 004cb300 f i * CIL library *:* CIL module *
 0001:000ca300       ??_GCNCWorkDlg1@@UAEPAXI@Z 004cb300 f i NCWorkDlg1.obj
 0001:000ca340       ?DoDataExchange@CNCWorkDlg1@@MAEXPAVCDataExchange@@@Z 004cb340 f   NCWorkDlg1.obj
 0001:000ca3e0       ?EnableButton@CNCWorkDlg1@@AAEXHH@Z 004cb3e0 f   NCWorkDlg1.obj
 0001:000ca4a0       ?SetValue@CNCWorkDlg1@@AAEXPBVCNCDoc@@ABV?$CRect3T@M@@@Z 004cb4a0 f   NCWorkDlg1.obj
 0001:000ca590       ?OnInitDialog@CNCWorkDlg1@@MAEHXZ 004cb590 f   NCWorkDlg1.obj
 0001:000ca6d0       ?PreTranslateMessage@CNCWorkDlg1@@MAEHPAUtagMSG@@@Z 004cb6d0 f   NCWorkDlg1.obj
 0001:000ca720       ?OnShow@CNCWorkDlg1@@IAEXXZ 004cb720 f   NCWorkDlg1.obj
 0001:000caab0       ?OnHide@CNCWorkDlg1@@IAEXXZ 004cbab0 f   NCWorkDlg1.obj
 0001:000caae0       ?OnComment@CNCWorkDlg1@@IAEXXZ 004cbae0 f   NCWorkDlg1.obj
 0001:000cae40       ?OnRecover@CNCWorkDlg1@@IAEXXZ 004cbe40 f   NCWorkDlg1.obj
 0001:000cae90       ?OnUserSwitchDocument@CNCWorkDlg1@@IAEJIJ@Z 004cbe90 f   NCWorkDlg1.obj
 0001:000caf20       ?GetMessageMap@CNCWorkDlg2@@MBEPBUAFX_MSGMAP@@XZ 004cbf20 f   NCWorkDlg2.obj
 0001:000caf30       ??_GCNCWorkDlg2@@UAEPAXI@Z 004cbf30 f i NCWorkDlg2.obj
 0001:000caf30       ??_ECNCWorkDlg2@@UAEPAXI@Z 004cbf30 f i * CIL library *:* CIL module *
 0001:000caf70       ?DoDataExchange@CNCWorkDlg2@@MAEXPAVCDataExchange@@@Z 004cbf70 f   NCWorkDlg2.obj
 0001:000cb040       ?EnableButton@CNCWorkDlg2@@AAEXH@Z 004cc040 f   NCWorkDlg2.obj
 0001:000cb0f0       ?SetValue@CNCWorkDlg2@@AAEXABV?$CRect3T@M@@@Z 004cc0f0 f   NCWorkDlg2.obj
 0001:000cb1a0       ?OnInitDialog@CNCWorkDlg2@@MAEHXZ 004cc1a0 f   NCWorkDlg2.obj
 0001:000cb1c0       ?PreTranslateMessage@CNCWorkDlg2@@MAEHPAUtagMSG@@@Z 004cc1c0 f   NCWorkDlg2.obj
 0001:000cb210       ?OnShow@CNCWorkDlg2@@IAEXXZ 004cc210 f   NCWorkDlg2.obj
 0001:000cb470       ?OnHide@CNCWorkDlg2@@IAEXXZ 004cc470 f   NCWorkDlg2.obj
 0001:000cb4a0       ?OnComment@CNCWorkDlg2@@IAEXXZ 004cc4a0 f   NCWorkDlg2.obj
 0001:000cb6b0       ?OnRecover@CNCWorkDlg2@@IAEXXZ 004cc6b0 f   NCWorkDlg2.obj
 0001:000cb700       ?OnUserSwitchDocument@CNCWorkDlg2@@IAEJIJ@Z 004cc700 f   NCWorkDlg2.obj
 0001:000cb780       ?GetMessageMap@COBSdlg@@MBEPBUAFX_MSGMAP@@XZ 004cc780 f   OBSdlg.obj
 0001:000cb790       ??_GCOBSdlg@@UAEPAXI@Z     004cc790 f i OBSdlg.obj
 0001:000cb790       ??_ECOBSdlg@@UAEPAXI@Z     004cc790 f i * CIL library *:* CIL module *
 0001:000cb7f0       ?DoDataExchange@COBSdlg@@MAEXPAVCDataExchange@@@Z 004cc7f0 f   OBSdlg.obj
 0001:000cb850       ?GetOBSdata@COBSdlg@@AAEXXZ 004cc850 f   OBSdlg.obj
 0001:000cb980       ?SetOBSdata@COBSdlg@@AAEXXZ 004cc980 f   OBSdlg.obj
 0001:000cba10       ?OnInitDialog@COBSdlg@@MAEHXZ 004cca10 f   OBSdlg.obj
 0001:000cba80       ?OnObsWrite@COBSdlg@@IAEXXZ 004cca80 f   OBSdlg.obj
 0001:000cbb50       ?OnOK@COBSdlg@@MAEXXZ      004ccb50 f   OBSdlg.obj
 0001:000cbba0       ?OnCancel@COBSdlg@@MAEXXZ  004ccba0 f   OBSdlg.obj
 0001:000cbbc0       ?PostNcDestroy@COBSdlg@@MAEXXZ 004ccbc0 f   OBSdlg.obj
 0001:000cbc00       ?OnAllON@COBSdlg@@IAEXXZ   004ccc00 f   OBSdlg.obj
 0001:000cbc70       ?OnAllOFF@COBSdlg@@IAEXXZ  004ccc70 f   OBSdlg.obj
 0001:000cbce0       ?OnUserSwitchDocument@COBSdlg@@IAEJIJ@Z 004ccce0 f   OBSdlg.obj
 0001:000cbd50       ?OnUserSwitchMachine@COBSdlg@@IAEJIJ@Z 004ccd50 f   OBSdlg.obj
 0001:000cbd70       ??_ECDXFBlockData@@UAEPAXI@Z 004ccd70 f i * CIL library *:* CIL module *
 0001:000cbd70       ??_GCDXFBlockData@@UAEPAXI@Z 004ccd70 f i ReadDXF.obj
 0001:000ce020       ?SetBlockData@@YAHXZ       004cf020 f   ReadDXF.obj
 0001:000ced30       ?RecursiveSpline@@YAMHHM@Z 004cfd30 f   ReadDXF.obj
 0001:000cf270       ?ReadDXF@@YAHPAVCDXFDoc@@PBD@Z 004d0270 f   ReadDXF.obj
 0001:000cf990       ??_G?$CTypedPtrMap@VCMapStringToPtr@@V?$CStringT@DV?$StrTraitMFC_DLL@DV?$ChTraitsCRT@D@ATL@@@@@ATL@@PAVCDXFBlockData@@@@UAEPAXI@Z 004d0990 f i ReadDXF.obj
 0001:000cf990       ??_E?$CTypedPtrMap@VCMapStringToPtr@@V?$CStringT@DV?$StrTraitMFC_DLL@DV?$ChTraitsCRT@D@ATL@@@@@ATL@@PAVCDXFBlockData@@@@UAEPAXI@Z 004d0990 f i * CIL library *:* CIL module *
 0001:000cf9d0       ??$_Emplace_reallocate@ABUPOLYVERTEX@@@?$vector@UPOLYVERTEX@@V?$allocator@UPOLYVERTEX@@@std@@@std@@QAEPAUPOLYVERTEX@@QAU2@ABU2@@Z 004d09d0 f i ReadDXF.obj
 0001:000cfba0       ??_GCShapePropDlg@@UAEPAXI@Z 004d0ba0 f i ShapePropDlg.obj
 0001:000cfba0       ??_ECShapePropDlg@@UAEPAXI@Z 004d0ba0 f i * CIL library *:* CIL module *
 0001:000cfc20       ?DoDataExchange@CShapePropDlg@@MAEXPAVCDataExchange@@@Z 004d0c20 f   ShapePropDlg.obj
 0001:000cfcb0       ?OnInitDialog@CShapePropDlg@@MAEHXZ 004d0cb0 f   ShapePropDlg.obj
 0001:000cfe50       ?OnOK@CShapePropDlg@@MAEXXZ 004d0e50 f   ShapePropDlg.obj
 0001:000cfff0       ?GetMessageMap@CSplashWnd@@MBEPBUAFX_MSGMAP@@XZ 004d0ff0 f   SplashWnd.obj
 0001:000d0000       ??_ECSplashWnd@@UAEPAXI@Z  004d1000 f i * CIL library *:* CIL module *
 0001:000d0000       ??_GCSplashWnd@@UAEPAXI@Z  004d1000 f i SplashWnd.obj
 0001:000d0050       ?PreTranslateMessage@CSplashWnd@@UAEHPAUtagMSG@@@Z 004d1050 f   SplashWnd.obj
 0001:000d00e0       ?PreCreateWindow@CSplashWnd@@MAEHAAUtagCREATESTRUCTA@@@Z 004d10e0 f   SplashWnd.obj
 0001:000d0100       ?OnCreate@CSplashWnd@@IAEHPAUtagCREATESTRUCTA@@@Z 004d1100 f   SplashWnd.obj
 0001:000d0140       ?OnPaint@CSplashWnd@@IAEXXZ 004d1140 f   SplashWnd.obj
 0001:000d0230       ?OnTimer@CSplashWnd@@IAEXI@Z 004d1230 f   SplashWnd.obj
 0001:000d0270       ?PostNcDestroy@CSplashWnd@@MAEXXZ 004d1270 f   SplashWnd.obj
 0001:000d0280       ?Init@CComCriticalSection@ATL@@QAEJXZ 004d1280 f i stdafx.obj
 0001:000d02b0       ?MySplitPath@@YAXPBDPADI1I1I1I@Z 004d12b0 f   stdafx.obj
 0001:000d03f0       ?Path_Name_From_FullPath@@YAXPBDAAV?$CStringT@DV?$StrTraitMFC_DLL@DV?$ChTraitsCRT@D@ATL@@@@@ATL@@1H@Z 004d13f0 f   stdafx.obj
 0001:000d04e0       ?RelativePath@@YA?AV?$CStringT@DV?$StrTraitMFC_DLL@DV?$ChTraitsCRT@D@ATL@@@@@ATL@@PBD0@Z 004d14e0 f   stdafx.obj
 0001:000d0650       ?GetScriptExec@@YA?AV?$CStringT@DV?$StrTraitMFC_DLL@DV?$ChTraitsCRT@D@ATL@@@@@ATL@@ABV12@@Z 004d1650 f   stdafx.obj
 0001:000d06f0       ?CreateObject@CTabViewBase@@SGPAVCObject@@XZ 004d16f0 f   TabView.obj
 0001:000d0790       ?_GetBaseClass@CTabViewBase@@KGPAUCRuntimeClass@@XZ 004d1790 f   TabView.obj
 0001:000d07a0       ?GetThisMessageMap@CTabViewBase@@KGPBUAFX_MSGMAP@@XZ 004d17a0 f   TabView.obj
 0001:000d07a0       ?GetMessageMap@CTabViewBase@@MBEPBUAFX_MSGMAP@@XZ 004d17a0 f   TabView.obj
 0001:000d07b0       ?AddPage@CTabViewBase@@QAEHPBDPAUCRuntimeClass@@PAVCDocument@@PAVCFrameWnd@@@Z 004d17b0 f   TabView.obj
 0001:000d0860       ?AddPage@CTabViewBase@@QAEHPBDPAVCWnd@@@Z 004d1860 f   TabView.obj
 0001:000d08e0       ?ActivatePage@CTabViewBase@@QAEXH@Z 004d18e0 f   TabView.obj
 0001:000d0990       ?ResizePage@CTabViewBase@@IAEXPAVCWnd@@@Z 004d1990 f   TabView.obj
 0001:000d0a10       ?OnSize@CTabViewBase@@IAEXIHH@Z 004d1a10 f   TabView.obj
 0001:000d0af0       ?OnDestroy@CTabViewBase@@IAEXXZ 004d1af0 f   TabView.obj
 0001:000d0b10       ?OnEraseBkgnd@CTabViewBase@@IAEHPAVCDC@@@Z 004d1b10 f   TabView.obj
 0001:000d0b70       ?OnSelChanging@CTabViewBase@@IAEXPAUtagNMHDR@@PAJ@Z 004d1b70 f   TabView.obj
 0001:000d0bd0       ?OnSelChange@CTabViewBase@@IAEXPAUtagNMHDR@@PAJ@Z 004d1bd0 f   TabView.obj
 0001:000d0cb0       ?AutoWorkingSet_Thread@@YAIPAX@Z 004d1cb0 f   TH_AutoWorkingSet.obj
 0001:000d1b40       ??1CHECKMAPTHREADPARAM@@QAE@XZ 004d2b40 f i TH_ShapeSearch.obj
 0001:000d1b40       ??1SEPARATEOUTLINETHREADPARAM@@QAE@XZ 004d2b40 f i TH_AutoWorkingSet.obj
 0001:000d3c10       ??$?4P6AXPBVCLayerData@@PAX@Z@?$function@$$A6AXPBVCLayerData@@PAX@Z@boost@@QAEAAV01@P6AXPBVCLayerData@@PAX@Z@Z 004d4c10 f i TH_AutoWorkingSet.obj
 0001:000d3d10       ??$?4P6APAVCDXFworkingOutline@@PAVCDXFshape@@H@Z@?$function@$$A6APAVCDXFworkingOutline@@PAVCDXFshape@@H@Z@boost@@QAEAAV01@P6APAVCDXFworkingOutline@@PAVCDXFshape@@H@Z@Z 004d4d10 f i TH_AutoWorkingSet.obj
 0001:000d4670       ?invoke@?$function_invoker2@P6APAVCDXFworkingOutline@@PAVCDXFshape@@H@ZPAV1@PAV2@H@function@detail@boost@@SAPAVCDXFworkingOutline@@AATfunction_buffer@234@PAVCDXFshape@@H@Z 004d5670 f i TH_AutoWorkingSet.obj
 0001:000d4670       ?invoke@?$function_invoker2@P6APAVCDXFdata@@HH@ZPAV1@HH@function@detail@boost@@SAPAVCDXFdata@@AATfunction_buffer@234@HH@Z 004d5670 f i TH_MakeNCD.obj
 0001:000d4670       ?invoke@?$function_invoker2@P6AHABV?$basic_string@DU?$char_traits@D@std@@V?$allocator@D@2@@std@@PAVCNCblock@@@ZHABV12@PAV3@@function@detail@boost@@SAHAATfunction_buffer@234@ABV?$basic_string@DU?$char_traits@D@std@@V?$allocator@D@2@@std@@PAVCNCblock@@@Z 004d5670 f i TH_NCRead.obj
 0001:000d4670       ?invoke@?$void_function_invoker2@P6AXPBVCLayerData@@PAX@ZXPBV1@PAX@function@detail@boost@@SAXAATfunction_buffer@234@PBVCLayerData@@PAX@Z 004d5670 f i TH_AutoWorkingSet.obj
 0001:000d4690       ?manage@?$functor_manager@P6APAVCDXFworkingOutline@@PAVCDXFshape@@H@Z@function@detail@boost@@SAXABTfunction_buffer@234@AAT5234@W4functor_manager_operation_type@234@@Z 004d5690 f i TH_AutoWorkingSet.obj
 0001:000d4710       ?manage@?$functor_manager@P6AXPBVCLayerData@@PAX@Z@function@detail@boost@@SAXABTfunction_buffer@234@AAT5234@W4functor_manager_operation_type@234@@Z 004d5710 f i TH_AutoWorkingSet.obj
 0001:000d4790       ??$apply_visitor@U?$get_visitor@PAVCLayerData@@@variant@detail@boost@@@?$variant@KPAVCLayerData@@PAVCDXFshape@@PAVCDXFworking@@@boost@@QGAEPAPAVCLayerData@@AAU?$get_visitor@PAVCLayerData@@@variant@detail@1@@Z 004d5790 f i TH_AutoWorkingSet.obj
 0001:000d4ed0       ?CorrectCalc_Thread@@YAIPAX@Z 004d5ed0 f   TH_Correct.obj
 0001:000d6a30       ?CuttimeCalc_Thread@CNCDoc@@CAIPAX@Z 004d7a30 f   TH_Cuttime.obj
 0001:000d6f50       ?invoke@?$function_invoker1@P6AMPBVCNCdata@@@ZMPBV1@@function@detail@boost@@SAMAATfunction_buffer@234@PBVCNCdata@@@Z 004d7f50 f i TH_Cuttime.obj
 0001:000d6f50       ?invoke@?$function_invoker1@P6AMABV?$basic_string@DU?$char_traits@D@std@@V?$allocator@D@2@@std@@@ZMABV12@@function@detail@boost@@SAMAATfunction_buffer@234@ABV?$basic_string@DU?$char_traits@D@std@@V?$allocator@D@2@@std@@@Z 004d7f50 f i TH_NCRead.obj
 0001:000d6f70       ?manage@?$functor_manager@P6AMPBVCNCdata@@@Z@function@detail@boost@@SAXABTfunction_buffer@234@AAT5234@W4functor_manager_operation_type@234@@Z 004d7f70 f i TH_Cuttime.obj
 0001:000d70a0       ?MakeLathe_Thread@@YAIPAX@Z 004d80a0 f   TH_MakeLathe.obj
 0001:000da5e0       ?ReplaceCustomCode@CMakeCustomLatheCode@@QAE?AV?$CStringT@DV?$StrTraitMFC_DLL@DV?$ChTraitsCRT@D@ATL@@@@@ATL@@ABV?$basic_string@DU?$char_traits@D@std@@V?$allocator@D@2@@std@@@Z 004db5e0 f i TH_MakeLathe.obj
 0001:000daa70       ??1CMakeCustomMillCode@@QAE@XZ 004dba70 f i TH_MakeNCD.obj
 0001:000daa70       ??1CMakeCustomCode@@QAE@XZ 004dba70 f i TH_MakeLathe.obj
 0001:000daa70       ??1CMakeCustomWireCode@@QAE@XZ 004dba70 f i TH_MakeWire.obj
 0001:000daa70       ??1CMakeCustomNurbsCode@@QAE@XZ 004dba70 f i TH_MakeNurbs.obj
 0001:000daa70       ??1CMakeCustomLatheCode@@QAE@XZ 004dba70 f i TH_MakeLathe.obj
 0001:000dae40       ??1?$token_iterator@Ucustom_separator@@V?$_String_const_iterator@V?$_String_val@U?$_Simple_types@D@std@@@std@@@std@@V?$basic_string@DU?$char_traits@D@std@@V?$allocator@D@2@@3@@boost@@QAE@XZ 004dbe40 f i TH_MakeLathe.obj
 0001:000dae40       ??1?$auto_any@V?$token_iterator@Ucustom_separator@@V?$_String_const_iterator@V?$_String_val@U?$_Simple_types@D@std@@@std@@@std@@V?$basic_string@DU?$char_traits@D@std@@V?$allocator@D@2@@3@@boost@@@foreach_detail_@boost@@QAE@XZ 004dbe40 f i TH_MakeLathe.obj
 0001:000db0c0       ??$begin@V?$tokenizer@Ucustom_separator@@V?$_String_const_iterator@V?$_String_val@U?$_Simple_types@D@std@@@std@@@std@@V?$basic_string@DU?$char_traits@D@std@@V?$allocator@D@2@@3@@boost@@U?$bool_@$0A@@mpl@2@@foreach_detail_@boost@@YA?AU?$auto_any@V?$token_iterator@Ucustom_separator@@V?$_String_const_iterator@V?$_String_val@U?$_Simple_types@D@std@@@std@@@std@@V?$basic_string@DU?$char_traits@D@std@@V?$allocator@D@2@@3@@boost@@@01@ABUauto_any_base@01@PAU?$type2type@V?$tokenizer@Ucustom_separator@@V?$_String_const_iterator@V?$_String_val@U?$_Simple_types@D@std@@@std@@@std@@V?$basic_string@DU?$char_traits@D@std@@V?$allocator@D@2@@3@@boost@@U?$bool_@$0A@@mpl@2@@01@PAU?$bool_@$0A@@mpl@1@@Z 004dc0c0 f i TH_MakeLathe.obj
 0001:000db1c0       ??$end@V?$tokenizer@Ucustom_separator@@V?$_String_const_iterator@V?$_String_val@U?$_Simple_types@D@std@@@std@@@std@@V?$basic_string@DU?$char_traits@D@std@@V?$allocator@D@2@@3@@boost@@U?$bool_@$0A@@mpl@2@@foreach_detail_@boost@@YA?AU?$auto_any@V?$token_iterator@Ucustom_separator@@V?$_String_const_iterator@V?$_String_val@U?$_Simple_types@D@std@@@std@@@std@@V?$basic_string@DU?$char_traits@D@std@@V?$allocator@D@2@@3@@boost@@@01@ABUauto_any_base@01@PAU?$type2type@V?$tokenizer@Ucustom_separator@@V?$_String_const_iterator@V?$_String_val@U?$_Simple_types@D@std@@@std@@@std@@V?$basic_string@DU?$char_traits@D@std@@V?$allocator@D@2@@3@@boost@@U?$bool_@$0A@@mpl@2@@01@PAU?$bool_@$0A@@mpl@1@@Z 004dc1c0 f i TH_MakeLathe.obj
 0001:000db290       ??$?RV?$_String_const_iterator@V?$_String_val@U?$_Simple_types@D@std@@@std@@@std@@V?$basic_string@DU?$char_traits@D@std@@V?$allocator@D@2@@1@@custom_separator@@QAE_NAAV?$_String_const_iterator@V?$_String_val@U?$_Simple_types@D@std@@@std@@@std@@V12@AAV?$basic_string@DU?$char_traits@D@std@@V?$allocator@D@2@@2@@Z 004dc290 f i TH_MakeLathe.obj
 0001:000db930       ?MakeNCD_Thread@@YAIPAX@Z  004dc930 f   TH_MakeNCD.obj
 0001:000e56d0       ?ReplaceCustomCode@CMakeCustomMillCode@@QAE?AV?$CStringT@DV?$StrTraitMFC_DLL@DV?$ChTraitsCRT@D@ATL@@@@@ATL@@ABV?$basic_string@DU?$char_traits@D@std@@V?$allocator@D@2@@std@@@Z 004e66d0 f i TH_MakeNCD.obj
 0001:000e6b40       ?QSort@?$CSortArray@VCObArray@@PAVCDXFcircle@@@@AAEXP6AHPAVCDXFcircle@@0@ZHH@Z 004e7b40 f i TH_MakeNCD.obj
 0001:000e6c00       ?QSort@?$CSortArray@VCObArray@@PAVCDXFchain@@@@AAEXP6AHPAVCDXFchain@@0@ZHH@Z 004e7c00 f i TH_MakeNCD.obj
 0001:000e6cc0       ??$?4P6AXXZ@?$function@$$A6AXXZ@boost@@QAEAAV01@P6AXXZ@Z 004e7cc0 f i TH_MakeNCD.obj
 0001:000e6dc0       ??$?4P6AXPBVCDXFdata@@@Z@?$function@$$A6AXPBVCDXFdata@@@Z@boost@@QAEAAV01@P6AXPBVCDXFdata@@@Z@Z 004e7dc0 f i TH_MakeNCD.obj
 0001:000e6ec0       ?invoke@?$void_function_invoker1@P6AXPBVCDXFdata@@@ZXPBV1@@function@detail@boost@@SAXAATfunction_buffer@234@PBVCDXFdata@@@Z 004e7ec0 f i TH_MakeNCD.obj
 0001:000e6ed0       ?manage@?$functor_manager@P6AXPBVCDXFdata@@@Z@function@detail@boost@@SAXABTfunction_buffer@234@AAT5234@W4functor_manager_operation_type@234@@Z 004e7ed0 f i TH_MakeNCD.obj
 0001:000e6f50       ?manage@?$functor_manager@P6APAVCDXFdata@@HH@Z@function@detail@boost@@SAXABTfunction_buffer@234@AAT5234@W4functor_manager_operation_type@234@@Z 004e7f50 f i TH_MakeNCD.obj
 0001:000e6fd0       ?invoke@?$function_invoker0@P6AHXZH@function@detail@boost@@SAHAATfunction_buffer@234@@Z 004e7fd0 f i TH_NCRead.obj
 0001:000e6fd0       ?invoke@?$void_function_invoker0@P6AXXZX@function@detail@boost@@SAXAATfunction_buffer@234@@Z 004e7fd0 f i TH_MakeNCD.obj
 0001:000e6fe0       ?manage@?$functor_manager@P6AXXZ@function@detail@boost@@SAXABTfunction_buffer@234@AAT5234@W4functor_manager_operation_type@234@@Z 004e7fe0 f i TH_MakeNCD.obj
 0001:000e7180       ?MakeNurbs_Thread@@YAIPAX@Z 004e8180 f   TH_MakeNurbs.obj
 0001:000e8880       ?ReplaceCustomCode@CMakeCustomNurbsCode@@QAE?AV?$CStringT@DV?$StrTraitMFC_DLL@DV?$ChTraitsCRT@D@ATL@@@@@ATL@@ABV?$basic_string@DU?$char_traits@D@std@@V?$allocator@D@2@@std@@@Z 004e9880 f i TH_MakeNurbs.obj
 0001:000e9320       ?MakeWire_Thread@@YAIPAX@Z 004ea320 f   TH_MakeWire.obj
 0001:000ebdc0       ?ReplaceCustomCode@CMakeCustomWireCode@@QAE?AV?$CStringT@DV?$StrTraitMFC_DLL@DV?$ChTraitsCRT@D@ATL@@@@@ATL@@ABV?$basic_string@DU?$char_traits@D@std@@V?$allocator@D@2@@std@@@Z 004ecdc0 f i TH_MakeWire.obj
 0001:000eca40       ?SetWorkCylinderComment@CNCDoc@@QAEXMMABV?$CPoint3T@M@@@Z 004eda40 f i TH_NCRead.obj
 0001:000ecb80       ?ChangeAbs@CYCLE_INTERPOLATE@@QAEXXZ 004edb80 f i TH_NCRead.obj
 0001:000ecc00       ?ChangeInc@CYCLE_INTERPOLATE@@QAEXXZ 004edc00 f i TH_NCRead.obj
 0001:000ecd80       ?NCDtoXYZ_Thread@@YAIPAX@Z 004edd80 f   TH_NCRead.obj
 0001:000eefe0       ??1?$rule@V?$_String_iterator@V?$_String_val@U?$_Simple_types@D@std@@@std@@@std@@Uunused_type@spirit@boost@@U345@U345@U345@@qi@spirit@boost@@QAE@XZ 004effe0 f i TH_NCRead.obj
 0001:000eefe0       ??1?$rule@V?$_String_iterator@V?$_String_val@U?$_Simple_types@D@std@@@std@@@std@@U?$rule@V?$_String_iterator@V?$_String_val@U?$_Simple_types@D@std@@@std@@@std@@Uunused_type@spirit@boost@@U345@U345@U345@@qi@spirit@boost@@Uunused_type@56@U756@U756@@qi@spirit@boost@@QAE@XZ 004effe0 f i TH_NCRead.obj
 0001:000eefe0       ??1?$rule@V?$_String_iterator@V?$_String_val@U?$_Simple_types@D@std@@@std@@@std@@U?$rule@V?$_String_iterator@V?$_String_val@U?$_Simple_types@D@std@@@std@@@std@@Uunused_type@spirit@boost@@U345@U345@U345@@qi@spirit@boost@@$$A6A?AV?$basic_string@DU?$char_traits@D@std@@V?$allocator@D@2@@2@XZUunused_type@56@U856@@qi@spirit@boost@@QAE@XZ 004effe0 f i TH_NCRead.obj
 0001:000ef0a0       ??1?$CCommentParser@V?$_String_iterator@V?$_String_val@U?$_Simple_types@D@std@@@std@@@std@@U?$rule@V?$_String_iterator@V?$_String_val@U?$_Simple_types@D@std@@@std@@@std@@Uunused_type@spirit@boost@@U345@U345@U345@@qi@spirit@boost@@@@QAE@XZ 004f00a0 f i TH_NCRead.obj
 0001:000ef300       ??1?$grammar@V?$_String_iterator@V?$_String_val@U?$_Simple_types@D@std@@@std@@@std@@U?$rule@V?$_String_iterator@V?$_String_val@U?$_Simple_types@D@std@@@std@@@std@@Uunused_type@spirit@boost@@U345@U345@U345@@qi@spirit@boost@@Uunused_type@56@U756@U756@@qi@spirit@boost@@QAE@XZ 004f0300 f i TH_NCRead.obj
 0001:000ef300       ??1?$grammar@V?$_String_iterator@V?$_String_val@U?$_Simple_types@D@std@@@std@@@std@@U?$rule@V?$_String_iterator@V?$_String_val@U?$_Simple_types@D@std@@@std@@@std@@Uunused_type@spirit@boost@@U345@U345@U345@@qi@spirit@boost@@$$A6A?AV?$basic_string@DU?$char_traits@D@std@@V?$allocator@D@2@@2@XZUunused_type@56@U856@@qi@spirit@boost@@QAE@XZ 004f0300 f i TH_NCRead.obj
 0001:000f2470       ??0?$CCommentParser@V?$_String_iterator@V?$_String_val@U?$_Simple_types@D@std@@@std@@@std@@U?$rule@V?$_String_iterator@V?$_String_val@U?$_Simple_types@D@std@@@std@@@std@@Uunused_type@spirit@boost@@U345@U345@U345@@qi@spirit@boost@@@@QAE@XZ 004f3470 f i TH_NCRead.obj
 0001:000f5a80       ??0?$CGcodeParser@V?$_String_iterator@V?$_String_val@U?$_Simple_types@D@std@@@std@@@std@@U?$rule@V?$_String_iterator@V?$_String_val@U?$_Simple_types@D@std@@@std@@@std@@Uunused_type@spirit@boost@@U345@U345@U345@@qi@spirit@boost@@@@QAE@XZ 004f6a80 f i TH_NCRead.obj
 0001:000f5d50       ??R?$function1@MABV?$basic_string@DU?$char_traits@D@std@@V?$allocator@D@2@@std@@@boost@@QBEMABV?$basic_string@DU?$char_traits@D@std@@V?$allocator@D@2@@std@@@Z 004f6d50 f i TH_NCRead.obj
 0001:000f5dc0       ??0?$rule@V?$_String_iterator@V?$_String_val@U?$_Simple_types@D@std@@@std@@@std@@U?$rule@V?$_String_iterator@V?$_String_val@U?$_Simple_types@D@std@@@std@@@std@@Uunused_type@spirit@boost@@U345@U345@U345@@qi@spirit@boost@@Uunused_type@56@U756@U756@@qi@spirit@boost@@QAE@ABV?$basic_string@DU?$char_traits@D@std@@V?$allocator@D@2@@std@@@Z 004f6dc0 f i TH_NCRead.obj
 0001:000f5df0       ??$?4P6AHXZ@?$function@$$A6AHXZ@boost@@QAEAAV01@P6AHXZ@Z 004f6df0 f i TH_NCRead.obj
 0001:000f5ef0       ??$?4P6AMABV?$basic_string@DU?$char_traits@D@std@@V?$allocator@D@2@@std@@@Z@?$function@$$A6AMABV?$basic_string@DU?$char_traits@D@std@@V?$allocator@D@2@@std@@@Z@boost@@QAEAAV01@P6AMABV?$basic_string@DU?$char_traits@D@std@@V?$allocator@D@2@@std@@@Z@Z 004f6ef0 f i TH_NCRead.obj
 0001:000f5ff0       ??$?4P6A?AW4ENGCODEOBJ@@H@Z@?$function@$$A6A?AW4ENGCODEOBJ@@H@Z@boost@@QAEAAV01@P6A?AW4ENGCODEOBJ@@H@Z@Z 004f6ff0 f i TH_NCRead.obj
 0001:000f60f0       ??$?4P6AHH@Z@?$function@$$A6AHH@Z@boost@@QAEAAV01@P6AHH@Z@Z 004f70f0 f i TH_NCRead.obj
 0001:000f61f0       ??$?4P6AHABV?$basic_string@DU?$char_traits@D@std@@V?$allocator@D@2@@std@@PAVCNCblock@@@Z@?$function@$$A6AHABV?$basic_string@DU?$char_traits@D@std@@V?$allocator@D@2@@std@@PAVCNCblock@@@Z@boost@@QAEAAV01@P6AHABV?$basic_string@DU?$char_traits@D@std@@V?$allocator@D@2@@std@@PAVCNCblock@@@Z@Z 004f71f0 f i TH_NCRead.obj
 0001:000f62f0       ??@787eedc618213fde4d879bc70b58e12d@ 004f72f0 f i TH_NCRead.obj
 0001:000f6470       ??@50bad1c6d93225c5d3babcce0945a289@ 004f7470 f i TH_NCRead.obj
 0001:000f6500       ??@f773b432d2bf672e2df79adb17f0d7f2@ 004f7500 f i TH_NCRead.obj
 0001:000f6520       ??@886d6a34108fa2bd35653aadc9d7a345@ 004f7520 f i TH_NCRead.obj
 0001:000f65c0       ??$?RPBD@?$terminal@U?$char_code@Ustring@tag@spirit@boost@@Ustandard_wide@char_encoding@34@@tag@spirit@boost@@@spirit@boost@@QBE?AU?$expr@Uterminal@tag@tagns_@proto@boost@@U?$term@U?$terminal_ex@U?$char_code@Ustring@tag@spirit@boost@@Ustandard_wide@char_encoding@34@@tag@spirit@boost@@U?$vector@PBD@fusion@4@@spirit@boost@@@argsns_@45@$0A@@exprns_@proto@2@ABQBDPAU?$bool_@$0A@@detail@12@@Z 004f75c0 f i TH_NCRead.obj
 0001:000f65e0       ??$?4U?$expr@Ushift_right@tag@tagns_@proto@boost@@U?$list2@ABU?$expr@Usubscript@tag@tagns_@proto@boost@@U?$list2@ABU?$expr@Uterminal@tag@tagns_@proto@boost@@U?$term@U?$char_code@Uno_case@tag@spirit@boost@@Ustandard_wide@char_encoding@34@@tag@spirit@boost@@@argsns_@45@$0A@@exprns_@proto@boost@@ABU?$expr@Ubitwise_or@tag@tagns_@proto@boost@@U?$list2@ABU?$expr@Ubitwise_or@tag@tagns_@proto@boost@@U?$list2@ABU?$expr@Uterminal@tag@tagns_@proto@boost@@U?$term@U?$terminal_ex@U?$char_code@Ustring@tag@spirit@boost@@Ustandard_wide@char_encoding@34@@tag@spirit@boost@@U?$vector@PBD@fusion@4@@spirit@boost@@@argsns_@45@$0A@@exprns_@proto@boost@@U?$expr@Uterminal@tag@tagns_@proto@boost@@U?$term@AAPBD@argsns_@45@$0A@@234@@argsns_@45@$01@exprns_@proto@boost@@U?$expr@Uterminal@tag@tagns_@proto@boost@@U?$term@AAPBD@argsns_@45@$0A@@234@@argsns_@45@$01@234@@argsns_@45@$01@exprns_@proto@boost@@ABU?$expr@Uterminal@tag@tagns_@proto@boost@@U?$term@U?$terminal_ex@Ulit@tag@spirit@boost@@U?$vector@D@fusion@4@@spirit@boost@@@argsns_@45@$0A@@234@@argsns_@45@$01@exprns_@proto@boost@@@?$rule@V?$_String_iterator@V?$_String_val@U?$_Simple_types@D@std@@@std@@@std@@U?$rule@V?$_String_iterator@V?$_String_val@U?$_Simple_types@D@std@@@std@@@std@@Uunused_type@spirit@boost@@U345@U345@U345@@qi@spirit@boost@@Uunused_type@56@U756@U756@@qi@spirit@boost@@QAEAAU0123@ABU?$expr@Ushift_right@tag@tagns_@proto@boost@@U?$list2@ABU?$expr@Usubscript@tag@tagns_@proto@boost@@U?$list2@ABU?$expr@Uterminal@tag@tagns_@proto@boost@@U?$term@U?$char_code@Uno_case@tag@spirit@boost@@Ustandard_wide@char_encoding@34@@tag@spirit@boost@@@argsns_@45@$0A@@exprns_@proto@boost@@ABU?$expr@Ubitwise_or@tag@tagns_@proto@boost@@U?$list2@ABU?$expr@Ubitwise_or@tag@tagns_@proto@boost@@U?$list2@ABU?$expr@Uterminal@tag@tagns_@proto@boost@@U?$term@U?$terminal_ex@U?$char_code@Ustring@tag@spirit@boost@@Ustandard_wide@char_encoding@34@@tag@spirit@boost@@U?$vector@PBD@fusion@4@@spirit@boost@@@argsns_@45@$0A@@exprns_@proto@boost@@U?$expr@Uterminal@tag@tagns_@proto@boost@@U?$term@AAPBD@argsns_@45@$0A@@234@@argsns_@45@$01@exprns_@proto@boost@@U?$expr@Uterminal@tag@tagns_@proto@boost@@U?$term@AAPBD@argsns_@45@$0A@@234@@argsns_@45@$01@234@@argsns_@45@$01@exprns_@proto@boost@@ABU?$expr@Uterminal@tag@tagns_@proto@boost@@U?$term@U?$terminal_ex@Ulit@tag@spirit@boost@@U?$vector@D@fusion@4@@spirit@boost@@@argsns_@45@$0A@@234@@argsns_@45@$01@exprns_@proto@3@@Z 004f75e0 f i TH_NCRead.obj
 0001:000f6760       ??$?4U?$expr@Ushift_right@tag@tagns_@proto@boost@@U?$list2@ABU?$expr@Ubitwise_or@tag@tagns_@proto@boost@@U?$list2@ABU?$expr@Ubitwise_or@tag@tagns_@proto@boost@@U?$list2@AAU?$rule@V?$_String_iterator@V?$_String_val@U?$_Simple_types@D@std@@@std@@@std@@U?$rule@V?$_String_iterator@V?$_String_val@U?$_Simple_types@D@std@@@std@@@std@@Uunused_type@spirit@boost@@U345@U345@U345@@qi@spirit@boost@@Uunused_type@56@U756@U756@@qi@spirit@boost@@AAU1234@@argsns_@45@$01@exprns_@proto@boost@@AAU?$rule@V?$_String_iterator@V?$_String_val@U?$_Simple_types@D@std@@@std@@@std@@U?$rule@V?$_String_iterator@V?$_String_val@U?$_Simple_types@D@std@@@std@@@std@@Uunused_type@spirit@boost@@U345@U345@U345@@qi@spirit@boost@@Uunused_type@56@U756@U756@@qi@spirit@4@@argsns_@45@$01@exprns_@proto@boost@@AAU?$rule@V?$_String_iterator@V?$_String_val@U?$_Simple_types@D@std@@@std@@@std@@U?$rule@V?$_String_iterator@V?$_String_val@U?$_Simple_types@D@std@@@std@@@std@@Uunused_type@spirit@boost@@U345@U345@U345@@qi@spirit@boost@@Uunused_type@56@U756@U756@@qi@spirit@4@@argsns_@45@$01@exprns_@proto@boost@@@?$rule@V?$_String_iterator@V?$_String_val@U?$_Simple_types@D@std@@@std@@@std@@U?$rule@V?$_String_iterator@V?$_String_val@U?$_Simple_types@D@std@@@std@@@std@@Uunused_type@spirit@boost@@U345@U345@U345@@qi@spirit@boost@@Uunused_type@56@U756@U756@@qi@spirit@boost@@QAEAAU0123@ABU?$expr@Ushift_right@tag@tagns_@proto@boost@@U?$list2@ABU?$expr@Ubitwise_or@tag@tagns_@proto@boost@@U?$list2@ABU?$expr@Ubitwise_or@tag@tagns_@proto@boost@@U?$list2@AAU?$rule@V?$_String_iterator@V?$_String_val@U?$_Simple_types@D@std@@@std@@@std@@U?$rule@V?$_String_iterator@V?$_String_val@U?$_Simple_types@D@std@@@std@@@std@@Uunused_type@spirit@boost@@U345@U345@U345@@qi@spirit@boost@@Uunused_type@56@U756@U756@@qi@spirit@boost@@AAU1234@@argsns_@45@$01@exprns_@proto@boost@@AAU?$rule@V?$_String_iterator@V?$_String_val@U?$_Simple_types@D@std@@@std@@@std@@U?$rule@V?$_String_iterator@V?$_String_val@U?$_Simple_types@D@std@@@std@@@std@@Uunused_type@spirit@boost@@U345@U345@U345@@qi@spirit@boost@@Uunused_type@56@U756@U756@@qi@spirit@4@@argsns_@45@$01@exprns_@proto@boost@@AAU?$rule@V?$_String_iterator@V?$_String_val@U?$_Simple_types@D@std@@@std@@@std@@U?$rule@V?$_String_iterator@V?$_String_val@U?$_Simple_types@D@std@@@std@@@std@@Uunused_type@spirit@boost@@U345@U345@U345@@qi@spirit@boost@@Uunused_type@56@U756@U756@@qi@spirit@4@@argsns_@45@$01@exprns_@proto@3@@Z 004f7760 f i TH_NCRead.obj
 0001:000f6780       ??$?4U?$expr@Usubscript@tag@tagns_@proto@boost@@U?$list2@ABU?$terminal@Ufloat_@tag@spirit@boost@@@spirit@boost@@U?$expr@Uterminal@tag@tagns_@proto@boost@@U?$term@ABU_SetEndmill@?$CCommentParser@V?$_String_iterator@V?$_String_val@U?$_Simple_types@D@std@@@std@@@std@@U?$rule@V?$_String_iterator@V?$_String_val@U?$_Simple_types@D@std@@@std@@@std@@Uunused_type@spirit@boost@@U345@U345@U345@@qi@spirit@boost@@@@@argsns_@45@$0A@@exprns_@proto@3@@argsns_@45@$01@exprns_@proto@boost@@@?$rule@V?$_String_iterator@V?$_String_val@U?$_Simple_types@D@std@@@std@@@std@@U?$rule@V?$_String_iterator@V?$_String_val@U?$_Simple_types@D@std@@@std@@@std@@Uunused_type@spirit@boost@@U345@U345@U345@@qi@spirit@boost@@Uunused_type@56@U756@U756@@qi@spirit@boost@@QAEAAU0123@ABU?$expr@Usubscript@tag@tagns_@proto@boost@@U?$list2@ABU?$terminal@Ufloat_@tag@spirit@boost@@@spirit@boost@@U?$expr@Uterminal@tag@tagns_@proto@boost@@U?$term@ABU_SetEndmill@?$CCommentParser@V?$_String_iterator@V?$_String_val@U?$_Simple_types@D@std@@@std@@@std@@U?$rule@V?$_String_iterator@V?$_String_val@U?$_Simple_types@D@std@@@std@@@std@@Uunused_type@spirit@boost@@U345@U345@U345@@qi@spirit@boost@@@@@argsns_@45@$0A@@exprns_@proto@3@@argsns_@45@$01@exprns_@proto@3@@Z 004f7780 f i TH_NCRead.obj
 0001:000f6840       ??$?RD@?$terminal@U?$char_code@Uchar_@tag@spirit@boost@@Ustandard_wide@char_encoding@34@@tag@spirit@boost@@@spirit@boost@@QBE?AU?$expr@Uterminal@tag@tagns_@proto@boost@@U?$term@U?$terminal_ex@U?$char_code@Uchar_@tag@spirit@boost@@Ustandard_wide@char_encoding@34@@tag@spirit@boost@@U?$vector@D@fusion@4@@spirit@boost@@@argsns_@45@$0A@@exprns_@proto@2@ABDPAU?$bool_@$0A@@detail@12@@Z 004f7840 f i TH_NCRead.obj
 0001:000f6860       ??$?4U?$expr@Ushift_right@tag@tagns_@proto@boost@@U?$list2@ABU?$expr@Ubitwise_or@tag@tagns_@proto@boost@@U?$list2@ABU?$expr@Uterminal@tag@tagns_@proto@boost@@U?$term@U?$terminal_ex@U?$char_code@Uchar_@tag@spirit@boost@@Ustandard_wide@char_encoding@34@@tag@spirit@boost@@U?$vector@D@fusion@4@@spirit@boost@@@argsns_@45@$0A@@exprns_@proto@boost@@U?$expr@Uterminal@tag@tagns_@proto@boost@@U?$term@ABD@argsns_@45@$0A@@234@@argsns_@45@$01@exprns_@proto@boost@@ABU?$expr@Usubscript@tag@tagns_@proto@boost@@U?$list2@ABU?$terminal@Ufloat_@tag@spirit@boost@@@spirit@boost@@U?$expr@Uterminal@tag@tagns_@proto@boost@@U?$term@ABU_SetBallMill@?$CCommentParser@V?$_String_iterator@V?$_String_val@U?$_Simple_types@D@std@@@std@@@std@@U?$rule@V?$_String_iterator@V?$_String_val@U?$_Simple_types@D@std@@@std@@@std@@Uunused_type@spirit@boost@@U345@U345@U345@@qi@spirit@boost@@@@@argsns_@45@$0A@@exprns_@proto@3@@argsns_@45@$01@234@@argsns_@45@$01@exprns_@proto@boost@@@?$rule@V?$_String_iterator@V?$_String_val@U?$_Simple_types@D@std@@@std@@@std@@U?$rule@V?$_String_iterator@V?$_String_val@U?$_Simple_types@D@std@@@std@@@std@@Uunused_type@spirit@boost@@U345@U345@U345@@qi@spirit@boost@@Uunused_type@56@U756@U756@@qi@spirit@boost@@QAEAAU0123@ABU?$expr@Ushift_right@tag@tagns_@proto@boost@@U?$list2@ABU?$expr@Ubitwise_or@tag@tagns_@proto@boost@@U?$list2@ABU?$expr@Uterminal@tag@tagns_@proto@boost@@U?$term@U?$terminal_ex@U?$char_code@Uchar_@tag@spirit@boost@@Ustandard_wide@char_encoding@34@@tag@spirit@boost@@U?$vector@D@fusion@4@@spirit@boost@@@argsns_@45@$0A@@exprns_@proto@boost@@U?$expr@Uterminal@tag@tagns_@proto@boost@@U?$term@ABD@argsns_@45@$0A@@234@@argsns_@45@$01@exprns_@proto@boost@@ABU?$expr@Usubscript@tag@tagns_@proto@boost@@U?$list2@ABU?$terminal@Ufloat_@tag@spirit@boost@@@spirit@boost@@U?$expr@Uterminal@tag@tagns_@proto@boost@@U?$term@ABU_SetBallMill@?$CCommentParser@V?$_String_iterator@V?$_String_val@U?$_Simple_types@D@std@@@std@@@std@@U?$rule@V?$_String_iterator@V?$_String_val@U?$_Simple_types@D@std@@@std@@@std@@Uunused_type@spirit@boost@@U345@U345@U345@@qi@spirit@boost@@@@@argsns_@45@$0A@@exprns_@proto@3@@argsns_@45@$01@234@@argsns_@45@$01@exprns_@proto@3@@Z 004f7860 f i TH_NCRead.obj
