 NCVC

 Timestamp is 63070200 (Thu Aug 25 14:00:48 2022)

 Preferred load address is 00400000

 Start         Length     Name                   Class
 0001:00000000 00000a30H .text$di                CODE
 0001:00000a30 00135fd0H .text$mn                CODE
 0001:00136a00 00018420H .text$x                 CODE
 0001:0014ee20 00001152H .text$yd                CODE
 0002:00000000 00001584H .idata$5                DATA
 0002:00001584 00000008H .00cfg                  DATA
 0002:0000158c 00000004H .CRT$XCA                DATA
 0002:00001590 00000004H .CRT$XCAA               DATA
 0002:00001594 0000000cH .CRT$XCL                DATA
 0002:000015a0 000001b4H .CRT$XCU                DATA
 0002:00001754 00000004H .CRT$XCZ                DATA
 0002:00001758 00000004H .CRT$XIA                DATA
 0002:0000175c 00000004H .CRT$XIAA               DATA
 0002:00001760 00000004H .CRT$XIAC               DATA
 0002:00001764 00000004H .CRT$XIC                DATA
 0002:00001768 00000004H .CRT$XIZ                DATA
 0002:0000176c 00000004H .CRT$XLA                DATA
 0002:00001770 00000004H .CRT$XLZ                DATA
 0002:00001774 00000004H .CRT$XPA                DATA
 0002:00001778 00000004H .CRT$XPZ                DATA
 0002:0000177c 00000004H .CRT$XTA                DATA
 0002:00001780 00000010H .CRT$XTZ                DATA
 0002:00001784 00000000H .gfids$y                DATA
 0002:00001790 00030470H .rdata                  DATA
 0002:00031c00 00000000H .rdata$CastGuardVftablesA DATA
 0002:00031c00 00000000H .rdata$CastGuardVftablesC DATA
 0002:00031c00 00000018H .rdata$T                DATA
 0002:00031c18 00006988H .rdata$r                DATA
 0002:000385a0 00000dc8H .rdata$sxdata           DATA
 0002:00039368 0000009cH .rdata$voltmd           DATA
 0002:00039404 00000398H .rdata$zzzdbg           DATA
 0002:0003979c 00000004H .rtc$IAA                DATA
 0002:000397a0 00000004H .rtc$IZZ                DATA
 0002:000397a4 00000004H .rtc$TAA                DATA
 0002:000397a8 00000004H .rtc$TZZ                DATA
 0002:000397ac 00000004H .tls                    DATA
 0002:000397b0 00000004H .tls$                   DATA
 0002:000397b4 00000004H .tls$ZZZ                DATA
 0002:000397b8 000134a8H .xdata$x                DATA
 0002:0004cc58 00000000H ATL$__a                 DATA
 0002:0004cc58 00000000H ATL$__z                 DATA
 0002:0004cc60 00000754H .edata                  DATA
 0002:0004d3b4 000001f4H .idata$2                DATA
 0002:0004d5a8 00000014H .idata$3                DATA
 0002:0004d5bc 00001584H .idata$4                DATA
 0002:0004eb40 000025a2H .idata$6                DATA
 0003:00000000 00002dc8H .data                   DATA
 0003:00002dc8 00007d50H .data$r                 DATA
 0003:0000ab18 00002f70H .data$rs                DATA
 0003:0000da88 0201a3f8H .bss                    DATA
 0004:00000000 00002e60H .rsrc$01                DATA
 0004:00002e60 00031fb0H .rsrc$02                DATA

  Address         Publics by Value              Rva+Base       Lib:Object

 0000:00000000       ___AbsoluteZero            00000000     <absolute>
 0000:00000000       ___arm64x_extra_rfe_table  00000000     <absolute>
 0000:00000000       ___arm64x_extra_rfe_table_size 00000000     <absolute>
 0000:00000000       ___arm64x_native_entrypoint 00000000     <absolute>
 0000:00000000       ___arm64x_redirection_metadata 00000000     <absolute>
 0000:00000000       ___arm64x_redirection_metadata_count 00000000     <absolute>
 0000:00000000       ___dynamic_value_reloc_table 00000000     <absolute>
 0000:00000000       ___enclave_config          00000000     <absolute>
 0000:00000000       ___guard_check_icall_a64n_fptr 00000000     <absolute>
 0000:00000000       ___guard_eh_cont_count     00000000     <absolute>
 0000:00000000       ___guard_eh_cont_table     00000000     <absolute>
 0000:00000000       ___guard_fids_count        00000000     <absolute>
 0000:00000000       ___guard_fids_table        00000000     <absolute>
 0000:00000000       ___guard_iat_count         00000000     <absolute>
 0000:00000000       ___guard_iat_table         00000000     <absolute>
 0000:00000000       ___guard_longjmp_count     00000000     <absolute>
 0000:00000000       ___guard_longjmp_table     00000000     <absolute>
 0000:00000000       ___hybrid_auxiliary_iat    00000000     <absolute>
 0000:00000000       ___hybrid_auxiliary_iat_copy 00000000     <absolute>
 0000:00000000       ___hybrid_code_map         00000000     <absolute>
 0000:00000000       ___hybrid_code_map_count   00000000     <absolute>
 0000:00000000       ___x64_code_ranges_to_entry_points 00000000     <absolute>
 0000:00000000       ___x64_code_ranges_to_entry_points_count 00000000     <absolute>
 0000:0000002c       __tls_array                0000002c     <absolute>
 0000:00000100       ___guard_flags             00000100     <absolute>
 0000:00000372       ___safe_se_handler_count   00000372     <absolute>
 0000:00000000       ___ImageBase               00400000     <linker-defined>
 0001:00000a30       ?GetMessageMap@C3dContourScanSetupDlg@@MBEPBUAFX_MSGMAP@@XZ 00401a30 f   3dContourScanSetupDlg.obj
 0001:00000a30       ?GetMessageMap@C3dRoughScanSetupDlg@@MBEPBUAFX_MSGMAP@@XZ 00401a30 f   3dRoughScanSetupDlg.obj
 0001:00000a30       ?GetMessageMap@CDxfSetupReload@@MBEPBUAFX_MSGMAP@@XZ 00401a30 f   DxfSetupReload.obj
 0001:00000a30       ?GetMessageMap@CMakeBindOptDlg@@MBEPBUAFX_MSGMAP@@XZ 00401a30 f   MakeBindOptDlg.obj
 0001:00000a30       ?GetMessageMap@CShapePropDlg@@MBEPBUAFX_MSGMAP@@XZ 00401a30 f   ShapePropDlg.obj
 0001:00000a40       ??_EC3dContourScanSetupDlg@@UAEPAXI@Z 00401a40 f i * CIL library *:* CIL module *
 0001:00000a40       ??_GC3dContourScanSetupDlg@@UAEPAXI@Z 00401a40 f i 3dContourScanSetupDlg.obj
 0001:00000a80       ??1C3dContourScanSetupDlg@@UAE@XZ 00401a80 f i 3dContourScanSetupDlg.obj
 0001:00000ae0       ?DoDataExchange@C3dContourScanSetupDlg@@MAEXPAVCDataExchange@@@Z 00401ae0 f   3dContourScanSetupDlg.obj
 0001:00000b60       ?OnInitDialog@C3dContourScanSetupDlg@@MAEHXZ 00401b60 f   3dContourScanSetupDlg.obj
 0001:00000c00       ?OnOK@C3dContourScanSetupDlg@@MAEXXZ 00401c00 f   3dContourScanSetupDlg.obj
 0001:00001010       ??$call_put_head@DU?$char_traits@D@std@@$$CBH@detail@io@boost@@YAXAAV?$basic_ostream@DU?$char_traits@D@std@@@std@@PBX@Z 00402010 f i NCInfoView.obj
 0001:00001010       ??1?$variant@KPAVCLayerData@@PAVCDXFshape@@PAVCDXFworking@@@boost@@QAE@XZ 00402010 f i DXFShapeView.obj
 0001:00001010       ?AssertValid@CObject@@UBEXXZ 00402010 f i 3dContourScanSetupDlg.obj
 0001:00001010       ?DrawGLLatheDepth@CNCdata@@UBEXXZ 00402010 f i NCdataGL.obj
 0001:00001010       ?InitializeSearchContent@CDocument@@UAEXXZ 00402010 f i 3dModelDoc.obj
 0001:00001010       ?LoadCustomState@CWinAppEx@@MAEXXZ 00402010 f i NCVC.obj
 0001:00001010       ?OnBeforeRichPreviewFontChanged@CDocument@@UAEXXZ 00402010 f i 3dModelDoc.obj
 0001:00001010       ?OnRichPreviewBackColorChanged@CDocument@@UAEXXZ 00402010 f i 3dModelDoc.obj
 0001:00001010       ?OnRichPreviewFontChanged@CDocument@@UAEXXZ 00402010 f i 3dModelDoc.obj
 0001:00001010       ?OnRichPreviewSiteChanged@CDocument@@UAEXXZ 00402010 f i 3dModelDoc.obj
 0001:00001010       ?OnRichPreviewTextColorChanged@CDocument@@UAEXXZ 00402010 f i 3dModelDoc.obj
 0001:00001010       ?OnViewLensComm@CViewBase@@UAEXXZ 00402010 f i NCInfoView.obj
 0001:00001010       ?PreLoadState@CWinAppEx@@MAEXXZ 00402010 f i NCVC.obj
 0001:00001010       ?PreSaveState@CWinAppEx@@MAEXXZ 00402010 f i NCVC.obj
 0001:00001010       ?SaveCustomState@CWinAppEx@@MAEXXZ 00402010 f i NCVC.obj
 0001:00001010       ?SetCirclePoint@CDXFcircleEx@@MAEXXZ 00402010 f i DXFdata.obj
 0001:00001010       ?SetWorkCylinder@CNCViewBase@@UAEXXZ 00402010 f i NCView.obj
 0001:00001010       ?SetWorkRect@CNCViewBase@@UAEXXZ 00402010 f i NCView.obj
 0001:00001010       ?SwapNativePt@CDXFcircle@@UAEXXZ 00402010 f i DXFdata.obj
 0001:00001010       ?__empty_global_delete@@YAXPAXI@Z 00402010 f i 3dContourScanSetupDlg.obj
 0001:00001010       ?__global_delete@@YAXPAXI@Z 00402010 f i * CIL library *:* CIL module *
 0001:00001010       ?dispose@?$sp_counted_impl_pd@PAV?$basic_altstringbuf@DU?$char_traits@D@std@@V?$allocator@D@2@@io@boost@@VNo_Op@?$basic_oaltstringstream@DU?$char_traits@D@std@@V?$allocator@D@2@@23@@detail@boost@@UAEXXZ 00402010 f i NCInfoView.obj
 0001:00001010       ?sp_enable_shared_from_this@detail@boost@@YAXZZ 00402010 f i NCInfoView.obj
 0001:00001010       @_guard_check_icall_nop@4  00402010 f i msvcrt:guard_support.obj
 0001:00001010       __initialize_denormal_control 00402010 f i msvcrt:denormal_control.obj
 0001:00001010       __initialize_invalid_parameter_handler 00402010 f i msvcrt:invalid_parameter_handler.obj
 0001:00001020       ?Create@CDialog@@UAEHIPAVCWnd@@@Z 00402020 f i 3dContourScanSetupDlg.obj
 0001:00001030       ?EndModalState@CWnd@@UAEXXZ 00402030 f i 3dContourScanSetupDlg.obj
 0001:00001040       ?BeginModalState@CWnd@@UAEXXZ 00402040 f i 3dContourScanSetupDlg.obj
 0001:00001050       ?DoDataExchange@CDxfSetupReload@@MAEXPAVCDataExchange@@@Z 00402050 f i DxfSetupReload.obj
 0001:00001050       ?DoDataExchange@CWnd@@MAEXPAVCDataExchange@@@Z 00402050 f i 3dContourScanSetupDlg.obj
 0001:00001050       ?Dump@CObject@@UBEXAAVCDumpContext@@@Z 00402050 f i 3dContourScanSetupDlg.obj
 0001:00001050       ?OnDeactivatePage@CTabViewBase@@MAEXH@Z 00402050 f i NCInfoTab.obj
 0001:00001050       ?OnDestroyPage@CTabViewBase@@MAEXH@Z 00402050 f i NCInfoTab.obj
 0001:00001050       ?Serialize@CObject@@UAEXAAVCArchive@@@Z 00402050 f i 3dContourScanSetupDlg.obj
 0001:00001060       ??3CObject@@SGXPAX@Z       00402060 f i 3dContourScanSetupDlg.obj
 0001:00001070       ??1CChildBase@@UAE@XZ      00402070 f i 3dModelChild.obj
 0001:00001070       ??1CMDIFrameWnd@@UAE@XZ    00402070 f i MainFrm.obj
 0001:00001080       ?CreateObject@C3dModelChild@@SGPAVCObject@@XZ 00402080 f   3dModelChild.obj
 0001:00001100       ?_GetBaseClass@C3dModelChild@@KGPAUCRuntimeClass@@XZ 00402100 f   3dModelChild.obj
 0001:00001100       ?_GetBaseClass@CDXFChild@@KGPAUCRuntimeClass@@XZ 00402100 f   DXFChild.obj
 0001:00001100       ?_GetBaseClass@CNCChild@@KGPAUCRuntimeClass@@XZ 00402100 f   NCChild.obj
 0001:00001110       ?GetRuntimeClass@C3dModelChild@@UBEPAUCRuntimeClass@@XZ 00402110 f   3dModelChild.obj
 0001:00001120       ?GetMessageMap@C3dModelChild@@MBEPBUAFX_MSGMAP@@XZ 00402120 f   3dModelChild.obj
 0001:00001130       ??_EC3dModelChild@@MAEPAXI@Z 00402130 f i * CIL library *:* CIL module *
 0001:00001130       ??_GC3dModelChild@@MAEPAXI@Z 00402130 f i 3dModelChild.obj
 0001:00001170       ?OnMDIActivate@C3dModelChild@@QAEXHPAVCWnd@@0@Z 00402170 f   3dModelChild.obj
 0001:000011f0       ?CalcOffsetSign@CNCcycle@@UBEHXZ 004021f0 f i NCdata.obj
 0001:000011f0       ?CalcOffsetSign@CNCdata@@UBEHXZ 004021f0 f i NCdata.obj
 0001:000011f0       ?GetApplicationRecoveryParameter@CWinApp@@UAEPAXXZ 004021f0 f i NCVC.obj
 0001:000011f0       ?GetApplicationRestartFlags@CWinApp@@UAEKXZ 004021f0 f i NCVC.obj
 0001:000011f0       ?IsMakeTarget@CDXFcircleEx@@UBEHXZ 004021f0 f i DXFdata.obj
 0001:000011f0       ?IsStartEqEnd@CDXFarc@@UBEHXZ 004021f0 f i DXFdata.obj
 0001:000011f0       ?IsStartEqEnd@CDXFline@@UBEHXZ 004021f0 f i DXFdata.obj
 0001:000011f0       ?IsTabbedMDIChild@CMDIChildWnd@@UAEHXZ 004021f0 f i 3dModelChild.obj
 0001:000011f0       ___scrt_exe_initialize_mta 004021f0 f i msvcrt:utility_desktop.obj
 0001:000011f0       ___scrt_initialize_winrt   004021f0 f i msvcrt:utility_desktop.obj
 0001:000011f0       ___scrt_stub_for_initialize_mta 004021f0 f i msvcrt:utility_desktop.obj
 0001:000011f0       __get_startup_commit_mode  004021f0 f i msvcrt:commit_mode.obj
 0001:000011f0       __get_startup_new_mode     004021f0 f i msvcrt:new_mode.obj
 0001:000011f0       __get_startup_thread_locale_mode 004021f0 f i msvcrt:thread_locale.obj
 0001:000011f0       __matherr                  004021f0 f i msvcrt:matherr.obj
 0001:00001200       ?AddInitHistory@CDXFOption@@QAEHW4NCMAKETYPE@@PBD@Z 00402200 f i 3dModelDoc.obj
 0001:000013b0       ?CreateObject@C3dModelDoc@@SGPAVCObject@@XZ 004023b0 f   3dModelDoc.obj
 0001:00001550       ?_GetBaseClass@C3dModelDoc@@KGPAUCRuntimeClass@@XZ 00402550 f   3dModelDoc.obj
 0001:00001550       ?_GetBaseClass@CDXFDoc@@KGPAUCRuntimeClass@@XZ 00402550 f   DXFDoc.obj
 0001:00001550       ?_GetBaseClass@CNCDoc@@KGPAUCRuntimeClass@@XZ 00402550 f   NCDoc.obj
 0001:00001560       ?GetRuntimeClass@C3dModelDoc@@UBEPAUCRuntimeClass@@XZ 00402560 f   3dModelDoc.obj
 0001:00001570       ?GetMessageMap@C3dModelDoc@@MBEPBUAFX_MSGMAP@@XZ 00402570 f   3dModelDoc.obj
 0001:00001580       ??_EC3dModelDoc@@UAEPAXI@Z 00402580 f i * CIL library *:* CIL module *
 0001:00001580       ??_GC3dModelDoc@@UAEPAXI@Z 00402580 f i 3dModelDoc.obj
 0001:000015c0       ??1CDocBase@@UAE@XZ        004025c0 f i 3dModelDoc.obj
 0001:000015e0       ??1C3dModelDoc@@UAE@XZ     004025e0 f   3dModelDoc.obj
 0001:00001750       ?Serialize@C3dModelDoc@@UAEXAAVCArchive@@@Z 00402750 f   3dModelDoc.obj
 0001:00001830       ?OnOpenDocument@C3dModelDoc@@UAEHPBD@Z 00402830 f   3dModelDoc.obj
 0001:000019f0       ?OnCloseDocument@C3dModelDoc@@UAEXXZ 004029f0 f   3dModelDoc.obj
 0001:00001a40       ?OnUpdateFile3dMake@C3dModelDoc@@IAEXPAVCCmdUI@@@Z 00402a40 f   3dModelDoc.obj
 0001:00001a80       ?OnFile3dMake@C3dModelDoc@@IAEXXZ 00402a80 f   3dModelDoc.obj
 0001:00001cc0       ??1CMakeNCDlg@@UAE@XZ      00402cc0 f i 3dModelDoc.obj
 0001:00001d30       ?ClearRoughCoord@C3dModelDoc@@QAEXXZ 00402d30 f   3dModelDoc.obj
 0001:00001d70       ?ClearContourCoord@C3dModelDoc@@QAEXXZ 00402d70 f   3dModelDoc.obj
 0001:00001db0       ?MakeRoughCoord@C3dModelDoc@@QAEHPAUNURBSS@@PAUNURBSC@@@Z 00402db0 f   3dModelDoc.obj
 0001:00002390       ?MakeContourCoord@C3dModelDoc@@QAEHPAUNURBSS@@@Z 00403390 f   3dModelDoc.obj
 0001:00002710       ?SetGroupCoord@C3dModelDoc@@QAE?AV?$vector@V?$vector@VCoord@@V?$allocator@VCoord@@@std@@@std@@V?$allocator@V?$vector@VCoord@@V?$allocator@VCoord@@@std@@@std@@@2@@std@@AAV?$vector@VCoord@@V?$allocator@VCoord@@@std@@@3@N@Z 00403710 f   3dModelDoc.obj
 0001:00002a80       ??1?$vector@VCoord@@V?$allocator@VCoord@@@std@@@std@@QAE@XZ 00403a80 f i 3dModelDoc.obj
 0001:00002a90       ??1?$vector@V?$vector@VCoord@@V?$allocator@VCoord@@@std@@@std@@V?$allocator@V?$vector@VCoord@@V?$allocator@VCoord@@@std@@@std@@@2@@std@@QAE@XZ 00403a90 f i 3dModelDoc.obj
 0001:00002aa0       ??0?$vector@V?$vector@VCoord@@V?$allocator@VCoord@@@std@@@std@@V?$allocator@V?$vector@VCoord@@V?$allocator@VCoord@@@std@@@std@@@2@@std@@QAE@ABV01@@Z 00403aa0 f i 3dModelDoc.obj
 0001:00002b80       ??1?$vector@V?$vector@V?$vector@VCoord@@V?$allocator@VCoord@@@std@@@std@@V?$allocator@V?$vector@VCoord@@V?$allocator@VCoord@@@std@@@std@@@2@@std@@V?$allocator@V?$vector@V?$vector@VCoord@@V?$allocator@VCoord@@@std@@@std@@V?$allocator@V?$vector@VCoord@@V?$allocator@VCoord@@@std@@@std@@@2@@std@@@2@@std@@QAE@XZ 00403b80 f i 3dModelDoc.obj
 0001:00002c00       ??4?$CPointT@N@@QAEAAV0@ABVCoord@@@Z 00403c00 f i 3dModelDoc.obj
 0001:00002c20       ?_Tidy@?$vector@VCoord@@V?$allocator@VCoord@@@std@@@std@@AAEXXZ 00403c20 f i 3dModelDoc.obj
 0001:00002c80       ?_Tidy@?$vector@V?$vector@VCoord@@V?$allocator@VCoord@@@std@@@std@@V?$allocator@V?$vector@VCoord@@V?$allocator@VCoord@@@std@@@std@@@2@@std@@AAEXXZ 00403c80 f i 3dModelDoc.obj
 0001:00002d00       ?deallocate@?$allocator@UTABLELAYERINFO@@@std@@QAEXQAUTABLELAYERINFO@@I@Z 00403d00 f i DXFMakeClass.obj
 0001:00002d00       ?deallocate@?$allocator@V?$vector@IV?$allocator@I@std@@@std@@@std@@QAEXQAV?$vector@IV?$allocator@I@std@@@2@I@Z 00403d00 f i NCViewGL.obj
 0001:00002d00       ?deallocate@?$allocator@V?$vector@V?$CPointT@M@@V?$allocator@V?$CPointT@M@@@std@@@std@@@std@@QAEXQAV?$vector@V?$CPointT@M@@V?$allocator@V?$CPointT@M@@@std@@@2@I@Z 00403d00 f i DXFView.obj
 0001:00002d00       ?deallocate@?$allocator@V?$vector@V?$vector@VCoord@@V?$allocator@VCoord@@@std@@@std@@V?$allocator@V?$vector@VCoord@@V?$allocator@VCoord@@@std@@@std@@@2@@std@@@std@@QAEXQAV?$vector@V?$vector@VCoord@@V?$allocator@VCoord@@@std@@@std@@V?$allocator@V?$vector@VCoord@@V?$allocator@VCoord@@@std@@@std@@@2@@2@I@Z 00403d00 f i 3dModelDoc.obj
 0001:00002d00       ?deallocate@?$allocator@V?$vector@VCoord@@V?$allocator@VCoord@@@std@@@std@@@std@@QAEXQAV?$vector@VCoord@@V?$allocator@VCoord@@@std@@@2@I@Z 00403d00 f i 3dModelDoc.obj
 0001:00002d40       ?GetXY@?$CPoint3T@M@@QBE?AV?$CPointT@M@@XZ 00403d40 f i 3dModelDoc.obj
 0001:00002d60       ??$_Move_unchecked@PAV?$vector@VCoord@@V?$allocator@VCoord@@@std@@@std@@PAV12@@std@@YAPAV?$vector@VCoord@@V?$allocator@VCoord@@@std@@@0@PAV10@00@Z 00403d60 f i 3dModelDoc.obj
 0001:00002dc0       ??$_Destroy_range@V?$allocator@V?$vector@V?$vector@VCoord@@V?$allocator@VCoord@@@std@@@std@@V?$allocator@V?$vector@VCoord@@V?$allocator@VCoord@@@std@@@std@@@2@@std@@@std@@@std@@YAXPAV?$vector@V?$vector@VCoord@@V?$allocator@VCoord@@@std@@@std@@V?$allocator@V?$vector@VCoord@@V?$allocator@VCoord@@@std@@@std@@@2@@0@QAV10@AAV?$allocator@V?$vector@V?$vector@VCoord@@V?$allocator@VCoord@@@std@@@std@@V?$allocator@V?$vector@VCoord@@V?$allocator@VCoord@@@std@@@std@@@2@@std@@@0@@Z 00403dc0 f i 3dModelDoc.obj
 0001:00002df0       ??$_Destroy_range@V?$allocator@V?$vector@VCoord@@V?$allocator@VCoord@@@std@@@std@@@std@@@std@@YAXPAV?$vector@VCoord@@V?$allocator@VCoord@@@std@@@0@QAV10@AAV?$allocator@V?$vector@VCoord@@V?$allocator@VCoord@@@std@@@std@@@0@@Z 00403df0 f i 3dModelDoc.obj
 0001:00002e20       ??1?$_Tidy_guard@V?$vector@V?$vector@VCoord@@V?$allocator@VCoord@@@std@@@std@@V?$allocator@V?$vector@VCoord@@V?$allocator@VCoord@@@std@@@std@@@2@@std@@@std@@QAE@XZ 00403e20 f i 3dModelDoc.obj
 0001:00002e30       ?_Xlength@?$vector@DV?$allocator@D@std@@@std@@CAXXZ 00403e30 f i NCDoc.obj
 0001:00002e30       ?_Xlength@?$vector@EV?$allocator@E@std@@@std@@CAXXZ 00403e30 f i DXFOption.obj
 0001:00002e30       ?_Xlength@?$vector@HV?$allocator@H@std@@@std@@CAXXZ 00403e30 f i TH_MakeNurbs.obj
 0001:00002e30       ?_Xlength@?$vector@IV?$allocator@I@std@@@std@@CAXXZ 00403e30 f i DXFshape.obj
 0001:00002e30       ?_Xlength@?$vector@JV?$allocator@J@std@@@std@@CAXXZ 00403e30 f i DXFOption.obj
 0001:00002e30       ?_Xlength@?$vector@MV?$allocator@M@std@@@std@@CAXXZ 00403e30 f i NCdataGL.obj
 0001:00002e30       ?_Xlength@?$vector@PAUCREATEBOTTOMVERTEXPARAM@@V?$allocator@PAUCREATEBOTTOMVERTEXPARAM@@@std@@@std@@CAXXZ 00403e30 f i NCViewGL_Mill.obj
 0001:00002e30       ?_Xlength@?$vector@PAU__POSITION@@V?$allocator@PAU__POSITION@@@std@@@std@@CAXXZ 00403e30 f i DXFshape.obj
 0001:00002e30       ?_Xlength@?$vector@PAXV?$allocator@PAX@std@@@std@@CAXXZ 00403e30 f i NCViewGL_Mill.obj
 0001:00002e30       ?_Xlength@?$vector@U?$digraph@D@re_detail_500@boost@@V?$allocator@U?$digraph@D@re_detail_500@boost@@@std@@@std@@CAXXZ 00403e30 f i DXFOption.obj
 0001:00002e30       ?_Xlength@?$vector@U?$format_item@DU?$char_traits@D@std@@V?$allocator@D@2@@detail@io@boost@@V?$allocator@U?$format_item@DU?$char_traits@D@std@@V?$allocator@D@2@@detail@io@boost@@@std@@@std@@CAXXZ 00403e30 f i NCInfoView.obj
 0001:00002e30       ?_Xlength@?$vector@U?$pair@II@std@@V?$allocator@U?$pair@II@std@@@2@@std@@CAXXZ 00403e30 f i DXFOption.obj
 0001:00002e30       ?_Xlength@?$vector@U?$pair@_NPAUre_syntax_base@re_detail_500@boost@@@std@@V?$allocator@U?$pair@_NPAUre_syntax_base@re_detail_500@boost@@@std@@@2@@std@@CAXXZ 00403e30 f i DXFOption.obj
 0001:00002e30       ?_Xlength@?$vector@U?$recursion_info@V?$match_results@PBDV?$allocator@U?$sub_match@PBD@boost@@@std@@@boost@@@re_detail_500@boost@@V?$allocator@U?$recursion_info@V?$match_results@PBDV?$allocator@U?$sub_match@PBD@boost@@@std@@@boost@@@re_detail_500@boost@@@std@@@std@@CAXXZ 00403e30 f i NCDoc.obj
 0001:00002e30       ?_Xlength@?$vector@U?$recursion_info@V?$match_results@V?$_String_const_iterator@V?$_String_val@U?$_Simple_types@D@std@@@std@@@std@@V?$allocator@U?$sub_match@V?$_String_const_iterator@V?$_String_val@U?$_Simple_types@D@std@@@std@@@std@@@boost@@@2@@boost@@@re_detail_500@boost@@V?$allocator@U?$recursion_info@V?$match_results@V?$_String_const_iterator@V?$_String_val@U?$_Simple_types@D@std@@@std@@@std@@V?$allocator@U?$sub_match@V?$_String_const_iterator@V?$_String_val@U?$_Simple_types@D@std@@@std@@@std@@@boost@@@2@@boost@@@re_detail_500@boost@@@std@@@std@@CAXXZ 00403e30 f i NCDoc.obj
 0001:00002e30       ?_Xlength@?$vector@U?$sub_match@PBD@boost@@V?$allocator@U?$sub_match@PBD@boost@@@std@@@std@@CAXXZ 00403e30 f i NCDoc.obj
 0001:00002e30       ?_Xlength@?$vector@U?$sub_match@V?$_String_const_iterator@V?$_String_val@U?$_Simple_types@D@std@@@std@@@std@@@boost@@V?$allocator@U?$sub_match@V?$_String_const_iterator@V?$_String_val@U?$_Simple_types@D@std@@@std@@@std@@@boost@@@std@@@std@@CAXXZ 00403e30 f i NCDoc.obj
 0001:00002e30       ?_Xlength@?$vector@UBINDFILE@@V?$allocator@UBINDFILE@@@std@@@std@@CAXXZ 00403e30 f i CADbindDlg.obj
 0001:00002e30       ?_Xlength@?$vector@UBOTTOMDRAW@@V?$allocator@UBOTTOMDRAW@@@std@@@std@@CAXXZ 00403e30 f i NCdataGL.obj
 0001:00002e30       ?_Xlength@?$vector@ULATHEDRILLINFO@@V?$allocator@ULATHEDRILLINFO@@@std@@@std@@CAXXZ 00403e30 f i NCMakeLatheOpt.obj
 0001:00002e30       ?_Xlength@?$vector@UPOLYVERTEX@@V?$allocator@UPOLYVERTEX@@@std@@@std@@CAXXZ 00403e30 f i ReadDXF.obj
 0001:00002e30       ?_Xlength@?$vector@USELECTBIND@@V?$allocator@USELECTBIND@@@std@@@std@@CAXXZ 00403e30 f i DXFView.obj
 0001:00002e30       ?_Xlength@?$vector@UTABLELAYERINFO@@V?$allocator@UTABLELAYERINFO@@@std@@@std@@CAXXZ 00403e30 f i DXFMakeClass.obj
 0001:00002e30       ?_Xlength@?$vector@UWIRELINE@@V?$allocator@UWIRELINE@@@std@@@std@@CAXXZ 00403e30 f i NCViewGL_Wire.obj
 0001:00002e30       ?_Xlength@?$vector@Uname@named_subexpressions@re_detail_500@boost@@V?$allocator@Uname@named_subexpressions@re_detail_500@boost@@@std@@@std@@CAXXZ 00403e30 f i DXFOption.obj
 0001:00002e30       ?_Xlength@?$vector@V?$CPoint3T@M@@V?$allocator@V?$CPoint3T@M@@@std@@@std@@CAXXZ 00403e30 f i NCdataGL.obj
 0001:00002e30       ?_Xlength@?$vector@V?$CPointT@M@@V?$allocator@V?$CPointT@M@@@std@@@std@@CAXXZ 00403e30 f i DXFdata.obj
 0001:00002e30       ?_Xlength@?$vector@V?$vector@IV?$allocator@I@std@@@std@@V?$allocator@V?$vector@IV?$allocator@I@std@@@std@@@2@@std@@CAXXZ 00403e30 f i NCViewGL_Lathe.obj
 0001:00002e30       ?_Xlength@?$vector@V?$vector@V?$CPointT@M@@V?$allocator@V?$CPointT@M@@@std@@@std@@V?$allocator@V?$vector@V?$CPointT@M@@V?$allocator@V?$CPointT@M@@@std@@@std@@@2@@std@@CAXXZ 00403e30 f i DXFView.obj
 0001:00002e30       ?_Xlength@?$vector@V?$vector@V?$vector@VCoord@@V?$allocator@VCoord@@@std@@@std@@V?$allocator@V?$vector@VCoord@@V?$allocator@VCoord@@@std@@@std@@@2@@std@@V?$allocator@V?$vector@V?$vector@VCoord@@V?$allocator@VCoord@@@std@@@std@@V?$allocator@V?$vector@VCoord@@V?$allocator@VCoord@@@std@@@std@@@2@@std@@@2@@std@@CAXXZ 00403e30 f i 3dModelDoc.obj
 0001:00002e30       ?_Xlength@?$vector@V?$vector@VCoord@@V?$allocator@VCoord@@@std@@@std@@V?$allocator@V?$vector@VCoord@@V?$allocator@VCoord@@@std@@@std@@@2@@std@@CAXXZ 00403e30 f i 3dModelDoc.obj
 0001:00002e30       ?_Xlength@?$vector@VCoord@@V?$allocator@VCoord@@@std@@@std@@CAXXZ 00403e30 f i 3dModelDoc.obj
 0001:00002e40       ?allocate@?$allocator@U?$sub_match@PBD@boost@@@std@@QAEPAU?$sub_match@PBD@boost@@I@Z 00403e40 f i NCDoc.obj
 0001:00002e40       ?allocate@?$allocator@U?$sub_match@V?$_String_const_iterator@V?$_String_val@U?$_Simple_types@D@std@@@std@@@std@@@boost@@@std@@QAEPAU?$sub_match@V?$_String_const_iterator@V?$_String_val@U?$_Simple_types@D@std@@@std@@@std@@@boost@@I@Z 00403e40 f i NCDoc.obj
 0001:00002e40       ?allocate@?$allocator@V?$vector@VCoord@@V?$allocator@VCoord@@@std@@@std@@@std@@QAEPAV?$vector@VCoord@@V?$allocator@VCoord@@@std@@@2@I@Z 00403e40 f i 3dModelDoc.obj
 0001:00002ea0       ??$_Insert_range@PAV?$vector@VCoord@@V?$allocator@VCoord@@@std@@@std@@@?$vector@V?$vector@VCoord@@V?$allocator@VCoord@@@std@@@std@@V?$allocator@V?$vector@VCoord@@V?$allocator@VCoord@@@std@@@std@@@2@@std@@AAEXV?$_Vector_const_iterator@V?$_Vector_val@U?$_Simple_types@V?$vector@VCoord@@V?$allocator@VCoord@@@std@@@std@@@std@@@std@@@1@PAV?$vector@VCoord@@V?$allocator@VCoord@@@std@@@1@1Uforward_iterator_tag@1@@Z 00403ea0 f i 3dModelDoc.obj
 0001:00003280       ??$_Emplace_reallocate@ABVCoord@@@?$vector@VCoord@@V?$allocator@VCoord@@@std@@@std@@AAEPAVCoord@@QAV2@ABV2@@Z 00404280 f i 3dModelDoc.obj
 0001:00003280       ??$_Emplace_reallocate@VCoord@@@?$vector@VCoord@@V?$allocator@VCoord@@@std@@@std@@AAEPAVCoord@@QAV2@$$QAV2@@Z 00404280 f i 3dModelDoc.obj
 0001:00003370       ??$_Emplace_reallocate@ABV?$vector@VCoord@@V?$allocator@VCoord@@@std@@@std@@@?$vector@V?$vector@VCoord@@V?$allocator@VCoord@@@std@@@std@@V?$allocator@V?$vector@VCoord@@V?$allocator@VCoord@@@std@@@std@@@2@@std@@AAEPAV?$vector@VCoord@@V?$allocator@VCoord@@@std@@@1@QAV21@ABV21@@Z 00404370 f i 3dModelDoc.obj
 0001:000034c0       ??$_Emplace_reallocate@ABV?$vector@V?$vector@VCoord@@V?$allocator@VCoord@@@std@@@std@@V?$allocator@V?$vector@VCoord@@V?$allocator@VCoord@@@std@@@std@@@2@@std@@@?$vector@V?$vector@V?$vector@VCoord@@V?$allocator@VCoord@@@std@@@std@@V?$allocator@V?$vector@VCoord@@V?$allocator@VCoord@@@std@@@std@@@2@@std@@V?$allocator@V?$vector@V?$vector@VCoord@@V?$allocator@VCoord@@@std@@@std@@V?$allocator@V?$vector@VCoord@@V?$allocator@VCoord@@@std@@@std@@@2@@std@@@2@@std@@AAEPAV?$vector@V?$vector@VCoord@@V?$allocator@VCoord@@@std@@@std@@V?$allocator@V?$vector@VCoord@@V?$allocator@VCoord@@@std@@@std@@@2@@1@QAV21@ABV21@@Z 004044c0 f i 3dModelDoc.obj
 0001:000036e0       ??1?$_Uninitialized_backout_al@V?$allocator@V?$vector@VCoord@@V?$allocator@VCoord@@@std@@@std@@@std@@@std@@QAE@XZ 004046e0 f i 3dModelDoc.obj
 0001:00003710       ?_Change_array@?$vector@VCoord@@V?$allocator@VCoord@@@std@@@std@@AAEXQAVCoord@@II@Z 00404710 f i 3dModelDoc.obj
 0001:00003770       ?allocate@?$allocator@VCoord@@@std@@QAEPAVCoord@@I@Z 00404770 f i 3dModelDoc.obj
 0001:000037d0       ?_Change_array@?$vector@V?$vector@VCoord@@V?$allocator@VCoord@@@std@@@std@@V?$allocator@V?$vector@VCoord@@V?$allocator@VCoord@@@std@@@std@@@2@@std@@AAEXQAV?$vector@VCoord@@V?$allocator@VCoord@@@std@@@2@II@Z 004047d0 f i 3dModelDoc.obj
 0001:00003860       ??$_Uninitialized_move@PAV?$vector@IV?$allocator@I@std@@@std@@V?$allocator@V?$vector@IV?$allocator@I@std@@@std@@@2@@std@@YAPAV?$vector@IV?$allocator@I@std@@@0@QAV10@0PAV10@AAV?$allocator@V?$vector@IV?$allocator@I@std@@@std@@@0@@Z 00404860 f i NCViewGL_Lathe.obj
 0001:00003860       ??$_Uninitialized_move@PAV?$vector@V?$CPointT@M@@V?$allocator@V?$CPointT@M@@@std@@@std@@V?$allocator@V?$vector@V?$CPointT@M@@V?$allocator@V?$CPointT@M@@@std@@@std@@@2@@std@@YAPAV?$vector@V?$CPointT@M@@V?$allocator@V?$CPointT@M@@@std@@@0@QAV10@0PAV10@AAV?$allocator@V?$vector@V?$CPointT@M@@V?$allocator@V?$CPointT@M@@@std@@@std@@@0@@Z 00404860 f i DXFView.obj
 0001:00003860       ??$_Uninitialized_move@PAV?$vector@V?$vector@VCoord@@V?$allocator@VCoord@@@std@@@std@@V?$allocator@V?$vector@VCoord@@V?$allocator@VCoord@@@std@@@std@@@2@@std@@V?$allocator@V?$vector@V?$vector@VCoord@@V?$allocator@VCoord@@@std@@@std@@V?$allocator@V?$vector@VCoord@@V?$allocator@VCoord@@@std@@@std@@@2@@std@@@2@@std@@YAPAV?$vector@V?$vector@VCoord@@V?$allocator@VCoord@@@std@@@std@@V?$allocator@V?$vector@VCoord@@V?$allocator@VCoord@@@std@@@std@@@2@@0@QAV10@0PAV10@AAV?$allocator@V?$vector@V?$vector@VCoord@@V?$allocator@VCoord@@@std@@@std@@V?$allocator@V?$vector@VCoord@@V?$allocator@VCoord@@@std@@@std@@@2@@std@@@0@@Z 00404860 f i 3dModelDoc.obj
 0001:00003860       ??$_Uninitialized_move@PAV?$vector@VCoord@@V?$allocator@VCoord@@@std@@@std@@V?$allocator@V?$vector@VCoord@@V?$allocator@VCoord@@@std@@@std@@@2@@std@@YAPAV?$vector@VCoord@@V?$allocator@VCoord@@@std@@@0@QAV10@0PAV10@AAV?$allocator@V?$vector@VCoord@@V?$allocator@VCoord@@@std@@@std@@@0@@Z 00404860 f i 3dModelDoc.obj
 0001:000038b0       ??0?$vector@VCoord@@V?$allocator@VCoord@@@std@@@std@@QAE@ABV01@@Z 004048b0 f i 3dModelDoc.obj
 0001:00003930       ?IsModified@CDocument@@UAEHXZ 00404930 f i 3dModelDoc.obj
 0001:00003940       ??_ECDocumentAdapter@CDocument@@UAEPAXI@Z 00404940 f i * CIL library *:* CIL module *
 0001:00003940       ??_GCDocumentAdapter@CDocument@@UAEPAXI@Z 00404940 f i 3dModelDoc.obj
 0001:00003980       ??_EIDocument@ATL@@UAEPAXI@Z 00404980 f i * CIL library *:* CIL module *
 0001:00003980       ??_GIDocument@ATL@@UAEPAXI@Z 00404980 f i 3dModelDoc.obj
 0001:000039b0       ?Release@IDocument@ATL@@UAEJXZ 004049b0 f i 3dModelDoc.obj
 0001:000039d0       ?LoadFromStream@CDocumentAdapter@CDocument@@UAEJPAUIStream@@K@Z 004049d0 f i 3dModelDoc.obj
 0001:00003a20       ?InitializeSearchContent@CDocumentAdapter@CDocument@@UAEXXZ 00404a20 f i 3dModelDoc.obj
 0001:00003a30       ?BeginReadChunks@CDocumentAdapter@CDocument@@UAEXXZ 00404a30 f i 3dModelDoc.obj
 0001:00003a40       ?GetThumbnail@CDocumentAdapter@CDocument@@UAEHIPAPAUHBITMAP__@@PAW4WTS_ALPHATYPE@@@Z 00404a40 f i 3dModelDoc.obj
 0001:00003a60       ?ClearChunkList@CDocumentAdapter@CDocument@@UAEXXZ 00404a60 f i 3dModelDoc.obj
 0001:00003a70       ?SetChunkValue@CDocumentAdapter@CDocument@@UAEHPAUIFilterChunkValue@ATL@@@Z 00404a70 f i 3dModelDoc.obj
 0001:00003a90       ?ReadNextChunkValue@CDocumentAdapter@CDocument@@UAEHPAPAUIFilterChunkValue@ATL@@@Z 00404a90 f i 3dModelDoc.obj
 0001:00003ab0       ?RemoveChunk@CDocumentAdapter@CDocument@@UAEXABU_GUID@@K@Z 00404ab0 f i 3dModelDoc.obj
 0001:00003ad0       ?FindChunk@CDocumentAdapter@CDocument@@UAEPAU__POSITION@@ABU_GUID@@K@Z 00404ad0 f i 3dModelDoc.obj
 0001:00003af0       ?GetContainer@CDocumentAdapter@CDocument@@UBEPAXXZ 00404af0 f i 3dModelDoc.obj
 0001:00003af0       ?GetTailPosition@CObList@@QBEPAU__POSITION@@XZ 00404af0 f i DXFdata.obj
 0001:00003b00       ?AddRef@IDocument@ATL@@UAEJXZ 00404b00 f i 3dModelDoc.obj
 0001:00003b10       ?GetAdapter@CDocument@@UAEPAUIDocument@ATL@@XZ 00404b10 f i 3dModelDoc.obj
 0001:00003be0       ??0bad_array_new_length@std@@QAE@XZ 00404be0 f i 3dModelDoc.obj
 0001:00003c00       ??1bad_array_new_length@std@@UAE@XZ 00404c00 f i 3dModelDoc.obj
 0001:00003c00       ??1bad_cast@std@@UAE@XZ    00404c00 f i 3dOption.obj
 0001:00003c00       ??1bad_format_string@io@boost@@UAE@XZ 00404c00 f i NCInfoView.obj
 0001:00003c00       ??1bad_function_call@boost@@UAE@XZ 00404c00 f i MyTemplate.obj
 0001:00003c00       ??1bad_get@boost@@UAE@XZ   00404c00 f i DXFshape.obj
 0001:00003c00       ??1bad_lexical_cast@boost@@UAE@XZ 00404c00 f i 3dOption.obj
 0001:00003c00       ??1escaped_list_error@boost@@UAE@XZ 00404c00 f i NCMakeOption.obj
 0001:00003c00       ??1invalid_argument@std@@UAE@XZ 00404c00 f i NCDoc.obj
 0001:00003c00       ??1logic_error@std@@UAE@XZ 00404c00 f i NCDoc.obj
 0001:00003c00       ??1regex_error@boost@@UAE@XZ 00404c00 f i DXFOption.obj
 0001:00003c00       ??1runtime_error@std@@UAE@XZ 00404c00 f i MyTemplate.obj
 0001:00003c00       ??1too_few_args@io@boost@@UAE@XZ 00404c00 f i NCInfoView.obj
 0001:00003c00       ??1too_many_args@io@boost@@UAE@XZ 00404c00 f i NCInfoView.obj
 0001:00003c20       ??_Ebad_alloc@std@@UAEPAXI@Z 00404c20 f i * CIL library *:* CIL module *
 0001:00003c20       ??_Ebad_array_new_length@std@@UAEPAXI@Z 00404c20 f i * CIL library *:* CIL module *
 0001:00003c20       ??_Ebad_cast@std@@UAEPAXI@Z 00404c20 f i * CIL library *:* CIL module *
 0001:00003c20       ??_Ebad_function_call@boost@@UAEPAXI@Z 00404c20 f i * CIL library *:* CIL module *
 0001:00003c20       ??_Ebad_get@boost@@UAEPAXI@Z 00404c20 f i * CIL library *:* CIL module *
 0001:00003c20       ??_Eescaped_list_error@boost@@UAEPAXI@Z 00404c20 f i * CIL library *:* CIL module *
 0001:00003c20       ??_Eexception@std@@UAEPAXI@Z 00404c20 f i * CIL library *:* CIL module *
 0001:00003c20       ??_Eformat_error@io@boost@@UAEPAXI@Z 00404c20 f i * CIL library *:* CIL module *
 0001:00003c20       ??_Einvalid_argument@std@@UAEPAXI@Z 00404c20 f i * CIL library *:* CIL module *
 0001:00003c20       ??_Elogic_error@std@@UAEPAXI@Z 00404c20 f i * CIL library *:* CIL module *
 0001:00003c20       ??_Eruntime_error@std@@UAEPAXI@Z 00404c20 f i * CIL library *:* CIL module *
 0001:00003c20       ??_Gbad_alloc@std@@UAEPAXI@Z 00404c20 f i 3dModelDoc.obj
 0001:00003c20       ??_Gbad_array_new_length@std@@UAEPAXI@Z 00404c20 f i 3dModelDoc.obj
 0001:00003c20       ??_Gbad_cast@std@@UAEPAXI@Z 00404c20 f i 3dOption.obj
 0001:00003c20       ??_Gbad_function_call@boost@@UAEPAXI@Z 00404c20 f i MyTemplate.obj
 0001:00003c20       ??_Gbad_get@boost@@UAEPAXI@Z 00404c20 f i DXFshape.obj
 0001:00003c20       ??_Gescaped_list_error@boost@@UAEPAXI@Z 00404c20 f i NCMakeOption.obj
 0001:00003c20       ??_Gexception@std@@UAEPAXI@Z 00404c20 f i 3dModelDoc.obj
 0001:00003c20       ??_Gformat_error@io@boost@@UAEPAXI@Z 00404c20 f i NCInfoView.obj
 0001:00003c20       ??_Ginvalid_argument@std@@UAEPAXI@Z 00404c20 f i NCDoc.obj
 0001:00003c20       ??_Glogic_error@std@@UAEPAXI@Z 00404c20 f i NCDoc.obj
 0001:00003c20       ??_Gruntime_error@std@@UAEPAXI@Z 00404c20 f i MyTemplate.obj
 0001:00003c50       ??0bad_array_new_length@std@@QAE@ABV01@@Z 00404c50 f i 3dModelDoc.obj
 0001:00003c90       ??0bad_alloc@std@@QAE@ABV01@@Z 00404c90 f i 3dModelDoc.obj
 0001:00003cd0       ?what@exception@std@@UBEPBDXZ 00404cd0 f i 3dModelDoc.obj
 0001:00003ce0       ??0exception@std@@QAE@ABV01@@Z 00404ce0 f i 3dModelDoc.obj
 0001:00003d10       ?_Throw_bad_array_new_length@std@@YAXXZ 00404d10 f i 3dModelDoc.obj
 0001:00003d30       ??$_Deallocate@$07$0A@@std@@YAXPAXI@Z 00404d30 f i 3dModelDoc.obj
 0001:00003d60       ?CreateObject@C3dModelView@@SGPAVCObject@@XZ 00404d60 f   3dModelView.obj
 0001:00003df0       ?GetRuntimeClass@CViewBaseGL@@UBEPAUCRuntimeClass@@XZ 00404df0 f   ViewBaseGL.obj
 0001:00003df0       ?_GetBaseClass@C3dModelView@@KGPAUCRuntimeClass@@XZ 00404df0 f   3dModelView.obj
 0001:00003df0       ?_GetBaseClass@CNCViewGL@@KGPAUCRuntimeClass@@XZ 00404df0 f   NCViewGL.obj
 0001:00003e00       ?GetRuntimeClass@C3dModelView@@UBEPAUCRuntimeClass@@XZ 00404e00 f   3dModelView.obj
 0001:00003e10       ?GetMessageMap@C3dModelView@@MBEPBUAFX_MSGMAP@@XZ 00404e10 f   3dModelView.obj
 0001:00003e20       ??_EC3dModelView@@UAEPAXI@Z 00404e20 f i * CIL library *:* CIL module *
 0001:00003e20       ??_GC3dModelView@@UAEPAXI@Z 00404e20 f i 3dModelView.obj
 0001:00003e80       ?OnInitialUpdate@C3dModelView@@UAEXXZ 00404e80 f   3dModelView.obj
 0001:000040e0       ?OnDraw@C3dModelView@@UAEXPAVCDC@@@Z 004050e0 f   3dModelView.obj
 0001:00004510       ?DrawBody@C3dModelView@@AAEXW4RENDERMODE@@@Z 00405510 f   3dModelView.obj
 0001:00004810       ?OnCreate@C3dModelView@@IAEHPAUtagCREATESTRUCTA@@@Z 00405810 f   3dModelView.obj
 0001:00004830       ?OnDestroy@C3dModelView@@IAEXXZ 00405830 f   3dModelView.obj
 0001:000048c0       ?OnLButtonDown@C3dModelView@@IAEXIVCPoint@@@Z 004058c0 f   3dModelView.obj
 0001:000048c0       ?OnLButtonDown@CNCViewGL@@IAEXIVCPoint@@@Z 004058c0 f   NCViewGL.obj
 0001:000048f0       ?OnLButtonUp@C3dModelView@@IAEXIVCPoint@@@Z 004058f0 f   3dModelView.obj
 0001:00004970       ?DoSelect@C3dModelView@@AAEXABVCPoint@@@Z 00405970 f   3dModelView.obj
 0001:00004e60       ?OnLensKey@C3dModelView@@IAEXI@Z 00405e60 f   3dModelView.obj
 0001:00005070       ?OnUpdateFile3dRough@C3dModelView@@IAEXPAVCCmdUI@@@Z 00406070 f   3dModelView.obj
 0001:000050a0       ?OnFile3dRough@C3dModelView@@IAEXXZ 004060a0 f   3dModelView.obj
 0001:00005280       ??1C3dRoughScanSetupDlg@@UAE@XZ 00406280 f i 3dModelView.obj
 0001:000052e0       ?OnUpdateFile3dSmooth@C3dModelView@@IAEXPAVCCmdUI@@@Z 004062e0 f   3dModelView.obj
 0001:00005300       ?OnFile3dSmooth@C3dModelView@@IAEXXZ 00406300 f   3dModelView.obj
 0001:000054e0       ??1CWaitCursor@@QAE@XZ     004064e0 f i 3dModelView.obj
 0001:000055f0       _fabsf                     004065f0 f i 3dModelView.obj
 0001:00005610       ?Read3dOption@C3dOption@@QAEHPBD@Z 00406610 f   3dOption.obj
 0001:00005a90       ?Save3dOption@C3dOption@@QAEHXZ 00406a90 f   3dOption.obj
 0001:00005d00       ??HATL@@YA?AV?$CStringT@DV?$StrTraitMFC_DLL@DV?$ChTraitsCRT@D@ATL@@@@@0@DABV10@@Z 00406d00 f i 3dOption.obj
 0001:00005d90       ??$trim_copy@V?$basic_string@DU?$char_traits@D@std@@V?$allocator@D@2@@std@@@algorithm@boost@@YA?AV?$basic_string@DU?$char_traits@D@std@@V?$allocator@D@2@@std@@ABV23@ABVlocale@3@@Z 00406d90 f i 3dOption.obj
 0001:00005dd0       ??$lexical_cast@V?$basic_string@DU?$char_traits@D@std@@V?$allocator@D@2@@std@@H@boost@@YA?AV?$basic_string@DU?$char_traits@D@std@@V?$allocator@D@2@@std@@ABH@Z 00406dd0 f i 3dOption.obj
 0001:00005e60       ??$trim_copy_if@V?$basic_string@DU?$char_traits@D@std@@V?$allocator@D@2@@std@@Uis_classifiedF@detail@algorithm@boost@@@algorithm@boost@@YA?AV?$basic_string@DU?$char_traits@D@std@@V?$allocator@D@2@@std@@ABV23@Uis_classifiedF@detail@01@@Z 00406e60 f i 3dOption.obj
 0001:00006020       ??$throw_bad_cast@HV?$basic_string@DU?$char_traits@D@std@@V?$allocator@D@2@@std@@@detail@conversion@boost@@YAXXZ 00407020 f i 3dOption.obj
 0001:00006070       ?try_convert@?$lexical_converter_impl@V?$basic_string@DU?$char_traits@D@std@@V?$allocator@D@2@@std@@H@detail@boost@@SA_NABHAAV?$basic_string@DU?$char_traits@D@std@@V?$allocator@D@2@@std@@@Z 00407070 f i 3dOption.obj
 0001:00006110       ??$throw_exception@Vbad_lexical_cast@boost@@@boost@@YAXABVbad_lexical_cast@0@@Z 00407110 f i 3dOption.obj
 0001:00006140       ??1?$wrapexcept@Vbad_format_string@io@boost@@@boost@@UAE@XZ 00407140 f i NCInfoView.obj
 0001:00006140       ??1?$wrapexcept@Vbad_lexical_cast@boost@@@boost@@UAE@XZ 00407140 f i 3dOption.obj
 0001:00006140       ??1?$wrapexcept@Vregex_error@boost@@@boost@@UAE@XZ 00407140 f i DXFOption.obj
 0001:00006140       ??1?$wrapexcept@Vtoo_few_args@io@boost@@@boost@@UAE@XZ 00407140 f i NCInfoView.obj
 0001:00006140       ??1?$wrapexcept@Vtoo_many_args@io@boost@@@boost@@UAE@XZ 00407140 f i NCInfoView.obj
 0001:000061c0       ??0bad_lexical_cast@boost@@QAE@ABV01@@Z 004071c0 f i 3dOption.obj
 0001:00006200       ??0?$wrapexcept@Vbad_lexical_cast@boost@@@boost@@QAE@ABU01@@Z 00407200 f i 3dOption.obj
 0001:000062d0       ??_E?$wrapexcept@Vbad_format_string@io@boost@@@boost@@UAEPAXI@Z 004072d0 f i * CIL library *:* CIL module *
 0001:000062d0       ??_E?$wrapexcept@Vbad_lexical_cast@boost@@@boost@@UAEPAXI@Z 004072d0 f i * CIL library *:* CIL module *
 0001:000062d0       ??_E?$wrapexcept@Vregex_error@boost@@@boost@@UAEPAXI@Z 004072d0 f i * CIL library *:* CIL module *
 0001:000062d0       ??_E?$wrapexcept@Vtoo_few_args@io@boost@@@boost@@UAEPAXI@Z 004072d0 f i * CIL library *:* CIL module *
 0001:000062d0       ??_E?$wrapexcept@Vtoo_many_args@io@boost@@@boost@@UAEPAXI@Z 004072d0 f i * CIL library *:* CIL module *
 0001:000062d0       ??_G?$wrapexcept@Vbad_format_string@io@boost@@@boost@@UAEPAXI@Z 004072d0 f i NCInfoView.obj
 0001:000062d0       ??_G?$wrapexcept@Vbad_lexical_cast@boost@@@boost@@UAEPAXI@Z 004072d0 f i 3dOption.obj
 0001:000062d0       ??_G?$wrapexcept@Vregex_error@boost@@@boost@@UAEPAXI@Z 004072d0 f i DXFOption.obj
 0001:000062d0       ??_G?$wrapexcept@Vtoo_few_args@io@boost@@@boost@@UAEPAXI@Z 004072d0 f i NCInfoView.obj
 0001:000062d0       ??_G?$wrapexcept@Vtoo_many_args@io@boost@@@boost@@UAEPAXI@Z 004072d0 f i NCInfoView.obj
 0001:00006360       ?convert@?$lcast_put_unsigned@U?$char_traits@D@std@@ID@detail@boost@@QAEPADXZ 00407360 f i 3dOption.obj
 0001:00006560       ?rethrow@?$wrapexcept@Vbad_lexical_cast@boost@@@boost@@UBEXXZ 00407560 f i 3dOption.obj
 0001:00006590       ?clone@?$wrapexcept@Vbad_lexical_cast@boost@@@boost@@UBEPBVclone_base@exception_detail@2@XZ 00407590 f i 3dOption.obj
 0001:00006620       ??0?$wrapexcept@Vbad_lexical_cast@boost@@@boost@@QAE@ABVbad_lexical_cast@1@@Z 00407620 f i 3dOption.obj
 0001:000066a0       ??1deleter@?$wrapexcept@Uescaped_list_error@boost@@@boost@@QAE@XZ 004076a0 f i NCMakeOption.obj
 0001:000066a0       ??1deleter@?$wrapexcept@Vbad_format_string@io@boost@@@boost@@QAE@XZ 004076a0 f i NCInfoView.obj
 0001:000066a0       ??1deleter@?$wrapexcept@Vbad_function_call@boost@@@boost@@QAE@XZ 004076a0 f i MyTemplate.obj
 0001:000066a0       ??1deleter@?$wrapexcept@Vbad_get@boost@@@boost@@QAE@XZ 004076a0 f i DXFshape.obj
 0001:000066a0       ??1deleter@?$wrapexcept@Vbad_lexical_cast@boost@@@boost@@QAE@XZ 004076a0 f i 3dOption.obj
 0001:000066a0       ??1deleter@?$wrapexcept@Vinvalid_argument@std@@@boost@@QAE@XZ 004076a0 f i NCDoc.obj
 0001:000066a0       ??1deleter@?$wrapexcept@Vlogic_error@std@@@boost@@QAE@XZ 004076a0 f i NCDoc.obj
 0001:000066a0       ??1deleter@?$wrapexcept@Vregex_error@boost@@@boost@@QAE@XZ 004076a0 f i DXFOption.obj
 0001:000066a0       ??1deleter@?$wrapexcept@Vruntime_error@std@@@boost@@QAE@XZ 004076a0 f i DXFOption.obj
 0001:000066a0       ??1deleter@?$wrapexcept@Vtoo_few_args@io@boost@@@boost@@QAE@XZ 004076a0 f i NCInfoView.obj
 0001:000066a0       ??1deleter@?$wrapexcept@Vtoo_many_args@io@boost@@@boost@@QAE@XZ 004076a0 f i NCInfoView.obj
 0001:000066ae       ??_E?$wrapexcept@Vbad_format_string@io@boost@@@boost@@WBI@AEPAXI@Z 004076ae f i NCInfoView.obj
 0001:000066ae       ??_E?$wrapexcept@Vbad_lexical_cast@boost@@@boost@@WBI@AEPAXI@Z 004076ae f i 3dOption.obj
 0001:000066ae       ??_E?$wrapexcept@Vregex_error@boost@@@boost@@WBI@AEPAXI@Z 004076ae f i DXFOption.obj
 0001:000066ae       ??_E?$wrapexcept@Vtoo_few_args@io@boost@@@boost@@WBI@AEPAXI@Z 004076ae f i NCInfoView.obj
 0001:000066ae       ??_E?$wrapexcept@Vtoo_many_args@io@boost@@@boost@@WBI@AEPAXI@Z 004076ae f i NCInfoView.obj
 0001:000066b6       ??_E?$wrapexcept@Vbad_format_string@io@boost@@@boost@@W3AEPAXI@Z 004076b6 f i NCInfoView.obj
 0001:000066b6       ??_E?$wrapexcept@Vbad_lexical_cast@boost@@@boost@@W3AEPAXI@Z 004076b6 f i 3dOption.obj
 0001:000066b6       ??_E?$wrapexcept@Vregex_error@boost@@@boost@@W3AEPAXI@Z 004076b6 f i DXFOption.obj
 0001:000066b6       ??_E?$wrapexcept@Vtoo_few_args@io@boost@@@boost@@W3AEPAXI@Z 004076b6 f i NCInfoView.obj
 0001:000066b6       ??_E?$wrapexcept@Vtoo_many_args@io@boost@@@boost@@W3AEPAXI@Z 004076b6 f i NCInfoView.obj
 0001:000066c0       ??$use_facet@V?$ctype@D@std@@@std@@YAABV?$ctype@D@0@ABVlocale@0@@Z 004076c0 f i 3dOption.obj
 0001:000067b0       ?copy_boost_exception@exception_detail@boost@@YAXPAVexception@2@PBV32@@Z 004077b0 f i 3dOption.obj
 0001:00006880       ?size@?$basic_string@DU?$char_traits@D@std@@V?$allocator@D@2@@std@@QBEIXZ 00407880 f i 3dOption.obj
 0001:00006890       ??_E?$numpunct@D@std@@MAEPAXI@Z 00407890 f i * CIL library *:* CIL module *
 0001:00006890       ??_G?$numpunct@D@std@@MAEPAXI@Z 00407890 f i 3dOption.obj
 0001:000068e0       ?do_decimal_point@?$numpunct@D@std@@MBEDXZ 004078e0 f i 3dOption.obj
 0001:000068f0       ?do_thousands_sep@?$numpunct@D@std@@MBEDXZ 004078f0 f i 3dOption.obj
 0001:00006900       ?do_grouping@?$numpunct@D@std@@MBE?AV?$basic_string@DU?$char_traits@D@std@@V?$allocator@D@2@@2@XZ 00407900 f i 3dOption.obj
 0001:00006940       ?do_falsename@?$numpunct@D@std@@MBE?AV?$basic_string@DU?$char_traits@D@std@@V?$allocator@D@2@@2@XZ 00407940 f i 3dOption.obj
 0001:00006980       ?do_truename@?$numpunct@D@std@@MBE?AV?$basic_string@DU?$char_traits@D@std@@V?$allocator@D@2@@2@XZ 00407980 f i 3dOption.obj
 0001:000069c0       ??1?$_Tidy_guard@V?$numpunct@D@std@@@std@@QAE@XZ 004079c0 f i 3dOption.obj
 0001:000069f0       ?_Getcat@?$numpunct@D@std@@SAIPAPBVfacet@locale@2@PBV42@@Z 004079f0 f i 3dOption.obj
 0001:00006bf0       ?_Throw_bad_cast@std@@YAXXZ 00407bf0 f i 3dOption.obj
 0001:00006c10       ??1?$unique_ptr@V_Facet_base@std@@U?$default_delete@V_Facet_base@std@@@2@@std@@QAE@XZ 00407c10 f i 3dOption.obj
 0001:00006c20       ??$use_facet@V?$numpunct@D@std@@@std@@YAABV?$numpunct@D@0@ABVlocale@0@@Z 00407c20 f i 3dOption.obj
 0001:00006d10       ??$_Traits_compare@U?$char_traits@D@std@@@std@@YAHQBDI0I@Z 00407d10 f i 3dOption.obj
 0001:00006d90       ?name@locale@std@@QBE?AV?$basic_string@DU?$char_traits@D@std@@V?$allocator@D@2@@2@XZ 00407d90 f i 3dOption.obj
 0001:00006ee0       ??8locale@std@@QBE_NABV01@@Z 00407ee0 f i 3dOption.obj
 0001:000070b0       ??1clone_base@exception_detail@boost@@UAE@XZ 004080b0 f i 3dOption.obj
 0001:000070c0       ?assign@?$basic_string@DU?$char_traits@D@std@@V?$allocator@D@2@@std@@QAEAAV12@QBDI@Z 004080c0 f i 3dOption.obj
 0001:000071b0       ??1?$refcount_ptr@Uerror_info_container@exception_detail@boost@@@exception_detail@boost@@QAE@XZ 004081b0 f i 3dOption.obj
 0001:00007210       ??0exception@boost@@QAE@ABV01@@Z 00408210 f i 3dOption.obj
 0001:00007260       ??_Eclone_base@exception_detail@boost@@UAEPAXI@Z 00408260 f i * CIL library *:* CIL module *
 0001:00007260       ??_Gclone_base@exception_detail@boost@@UAEPAXI@Z 00408260 f i 3dOption.obj
 0001:00007290       ??0clone_base@exception_detail@boost@@QAE@ABV012@@Z 00408290 f i 3dOption.obj
 0001:000072a0       ??0bad_cast@std@@QAE@ABV01@@Z 004082a0 f i 3dOption.obj
 0001:000072e0       ??0bad_cast@std@@QAE@XZ    004082e0 f i 3dOption.obj
 0001:00007300       ??_Ebad_format_string@io@boost@@UAEPAXI@Z 00408300 f i * CIL library *:* CIL module *
 0001:00007300       ??_Ebad_lexical_cast@boost@@UAEPAXI@Z 00408300 f i * CIL library *:* CIL module *
 0001:00007300       ??_Eregex_error@boost@@UAEPAXI@Z 00408300 f i * CIL library *:* CIL module *
 0001:00007300       ??_Etoo_few_args@io@boost@@UAEPAXI@Z 00408300 f i * CIL library *:* CIL module *
 0001:00007300       ??_Etoo_many_args@io@boost@@UAEPAXI@Z 00408300 f i * CIL library *:* CIL module *
 0001:00007300       ??_Gbad_format_string@io@boost@@UAEPAXI@Z 00408300 f i NCInfoView.obj
 0001:00007300       ??_Gbad_lexical_cast@boost@@UAEPAXI@Z 00408300 f i 3dOption.obj
 0001:00007300       ??_Gregex_error@boost@@UAEPAXI@Z 00408300 f i DXFOption.obj
 0001:00007300       ??_Gtoo_few_args@io@boost@@UAEPAXI@Z 00408300 f i NCInfoView.obj
 0001:00007300       ??_Gtoo_many_args@io@boost@@UAEPAXI@Z 00408300 f i NCInfoView.obj
 0001:00007330       ?what@bad_lexical_cast@boost@@UBEPBDXZ 00408330 f i 3dOption.obj
 0001:00007340       ??0bad_lexical_cast@boost@@QAE@ABVtype_info@@0@Z 00408340 f i 3dOption.obj
 0001:00007370       ??1is_classifiedF@detail@algorithm@boost@@QAE@XZ 00408370 f i 3dOption.obj
 0001:00007390       ??1?$basic_string@DU?$char_traits@D@std@@V?$allocator@D@2@@std@@QAE@XZ 00408390 f i 3dOption.obj
 0001:000073e0       ?_Xlen_string@std@@YAXXZ   004083e0 f i 3dOption.obj
 0001:000073f0       ?_Calculate_growth@?$basic_string@DU?$char_traits@D@std@@V?$allocator@D@2@@std@@ABEII@Z 004083f0 f i 3dOption.obj
 0001:00007430       ?allocate@?$allocator@D@std@@QAEPADI@Z 00408430 f i 3dOption.obj
 0001:00007480       ??$_Construct@$00PBD@?$basic_string@DU?$char_traits@D@std@@V?$allocator@D@2@@std@@AAEXQBDI@Z 00408480 f i 3dOption.obj
 0001:00007510       ??0?$basic_string@DU?$char_traits@D@std@@V?$allocator@D@2@@std@@QAE@QBD@Z 00408510 f i 3dOption.obj
 0001:00007550       ??1locale@std@@QAE@XZ      00408550 f i 3dOption.obj
 0001:00007570       ?c_str@?$basic_string@DU?$char_traits@D@std@@V?$allocator@D@2@@std@@QBEPBDXZ 00408570 f i 3dOption.obj
 0001:00007580       ??_EC3dRoughScanSetupDlg@@UAEPAXI@Z 00408580 f i * CIL library *:* CIL module *
 0001:00007580       ??_GC3dRoughScanSetupDlg@@UAEPAXI@Z 00408580 f i 3dRoughScanSetupDlg.obj
 0001:000075c0       ?DoDataExchange@C3dRoughScanSetupDlg@@MAEXPAVCDataExchange@@@Z 004085c0 f   3dRoughScanSetupDlg.obj
 0001:00007640       ?OnInitDialog@C3dRoughScanSetupDlg@@MAEHXZ 00408640 f   3dRoughScanSetupDlg.obj
 0001:000076e0       ?OnOK@C3dRoughScanSetupDlg@@MAEXXZ 004086e0 f   3dRoughScanSetupDlg.obj
 0001:00007ae0       ?GetMessageMap@CDxfAutoOutlineDlg@@MBEPBUAFX_MSGMAP@@XZ 00408ae0 f   DxfAutoOutlineDlg.obj
 0001:00007ae0       ?GetMessageMap@CDxfAutoPocketgDlg@@MBEPBUAFX_MSGMAP@@XZ 00408ae0 f   DxfAutoPocketDlg.obj
 0001:00007af0       ??_ECDxfAutoOutlineDlg@@UAEPAXI@Z 00408af0 f i * CIL library *:* CIL module *
 0001:00007af0       ??_GCDxfAutoOutlineDlg@@UAEPAXI@Z 00408af0 f i DxfAutoOutlineDlg.obj
 0001:00007b30       ??1CDxfAutoOutlineDlg@@UAE@XZ 00408b30 f i DxfAutoOutlineDlg.obj
 0001:00007ba0       ??1CDialogEx@@UAE@XZ       00408ba0 f i DxfAutoOutlineDlg.obj
 0001:00007bd0       ?DoDataExchange@CDxfAutoOutlineDlg@@MAEXPAVCDataExchange@@@Z 00408bd0 f   DxfAutoOutlineDlg.obj
 0001:00007c30       ?OnInitDialog@CDxfAutoOutlineDlg@@MAEHXZ 00408c30 f   DxfAutoOutlineDlg.obj
 0001:00007ca0       ?OnOK@CDxfAutoOutlineDlg@@MAEXXZ 00408ca0 f   DxfAutoOutlineDlg.obj
 0001:00007f60       ??_ECBrush@@UAEPAXI@Z      00408f60 f i * CIL library *:* CIL module *
 0001:00007f60       ??_GCBrush@@UAEPAXI@Z      00408f60 f i DxfAutoOutlineDlg.obj
 0001:00007fa0       ??_ECGdiObject@@UAEPAXI@Z  00408fa0 f i * CIL library *:* CIL module *
 0001:00007fa0       ??_GCGdiObject@@UAEPAXI@Z  00408fa0 f i DxfAutoOutlineDlg.obj
 0001:00007fe0       ??1CGdiObject@@UAE@XZ      00408fe0 f i DxfAutoOutlineDlg.obj
 0001:000080e0       ??1CBrush@@UAE@XZ          004090e0 f i DxfAutoOutlineDlg.obj
 0001:000080f0       ?GetMessageMap@CDxfSetup3@@MBEPBUAFX_MSGMAP@@XZ 004090f0 f   DxfSetup3.obj
 0001:00008100       ??_ECDxfSetup3@@UAEPAXI@Z  00409100 f i * CIL library *:* CIL module *
 0001:00008100       ??_GCDxfSetup3@@UAEPAXI@Z  00409100 f i DxfSetup3.obj
 0001:00008170       ??1CDxfSetup3@@UAE@XZ      00409170 f i DxfSetup3.obj
 0001:000081b0       ?DoDataExchange@CDxfSetup3@@MAEXPAVCDataExchange@@@Z 004091b0 f   DxfSetup3.obj
 0001:00008200       ?OnInitDialog@CDxfSetup3@@MAEHXZ 00409200 f   DxfSetup3.obj
 0001:000082c0       ?OnSetActive@CDxfSetup3@@UAEHXZ 004092c0 f   DxfSetup3.obj
 0001:000082f0       ?OnApply@CDxfSetup3@@UAEHXZ 004092f0 f   DxfSetup3.obj
 0001:000083a0       ?OnKillActive@CDxfSetup3@@UAEHXZ 004093a0 f   DxfSetup3.obj
 0001:00008490       ?OnReload@CDxfSetup3@@IAEXXZ 00409490 f   DxfSetup3.obj
 0001:00008520       ??_ECButton@@UAEPAXI@Z     00409520 f i * CIL library *:* CIL module *
 0001:00008520       ??_GCButton@@UAEPAXI@Z     00409520 f i DxfSetup3.obj
 0001:00008560       ??0CButton@@QAE@XZ         00409560 f i DxfSetup3.obj
 0001:00008580       ?_GetBaseClass@CMakeLatheSetup@@KGPAUCRuntimeClass@@XZ 00409580 f   MakeLatheSetup.obj
 0001:00008580       ?_GetBaseClass@CMakeNCSetup@@KGPAUCRuntimeClass@@XZ 00409580 f   MakeNCSetup.obj
 0001:00008580       ?_GetBaseClass@CMakeNurbsSetup@@KGPAUCRuntimeClass@@XZ 00409580 f   MakeNurbsSetup.obj
 0001:00008580       ?_GetBaseClass@CMakeWireSetup@@KGPAUCRuntimeClass@@XZ 00409580 f   MakeWireSetup.obj
 0001:00008580       ?_GetBaseClass@CNCWorkDlg@@KGPAUCRuntimeClass@@XZ 00409580 f   NCWorkDlg.obj
 0001:00008590       ?GetRuntimeClass@CMakeNurbsSetup@@UBEPAUCRuntimeClass@@XZ 00409590 f   MakeNurbsSetup.obj
 0001:000085a0       ?GetMessageMap@CMakeNurbsSetup@@MBEPBUAFX_MSGMAP@@XZ 004095a0 f   MakeNurbsSetup.obj
 0001:000085b0       ??0CMakeNurbsSetup@@QAE@PBD0@Z 004095b0 f   MakeNurbsSetup.obj
 0001:00008730       ??_ECMakeNurbsSetup@@UAEPAXI@Z 00409730 f i * CIL library *:* CIL module *
 0001:00008730       ??_GCMakeNurbsSetup@@UAEPAXI@Z 00409730 f i MakeNurbsSetup.obj
 0001:000087b0       ??1CMakeNCSetup1@@UAE@XZ   004097b0 f i MakeNurbsSetup.obj
 0001:000088c0       ??1CMakeNCSetup2@@UAE@XZ   004098c0 f i MakeNurbsSetup.obj
 0001:00008940       ??1CMakeNCSetup6@@UAE@XZ   00409940 f i MakeNurbsSetup.obj
 0001:000089a0       ??1CMakeNurbsSetup@@UAE@XZ 004099a0 f   MakeNurbsSetup.obj
 0001:000089f0       ?OnInitDialog@CMakeLatheSetup@@MAEHXZ 004099f0 f   MakeLatheSetup.obj
 0001:000089f0       ?OnInitDialog@CMakeNCSetup@@UAEHXZ 004099f0 f   MakeNCSetup.obj
 0001:000089f0       ?OnInitDialog@CMakeNurbsSetup@@UAEHXZ 004099f0 f   MakeNurbsSetup.obj
 0001:000089f0       ?OnInitDialog@CMakeWireSetup@@MAEHXZ 004099f0 f   MakeWireSetup.obj
 0001:00008ab0       ?OnDestroy@CMakeNurbsSetup@@IAEXXZ 00409ab0 f   MakeNurbsSetup.obj
 0001:00008ad0       ?OnApplyNow@CMakeNCSetup@@IAEXXZ 00409ad0 f   MakeNCSetup.obj
 0001:00008ad0       ?OnApplyNow@CMakeNurbsSetup@@IAEXXZ 00409ad0 f   MakeNurbsSetup.obj
 0001:00008ce0       ?CanAddPageToDynamicLayout@CPropertySheet@@MBEHXZ 00409ce0 f i MakeNurbsSetup.obj
 0001:00008ce0       ?IsMakeTarget@CDXFpoint@@UBEHXZ 00409ce0 f i DXFdata.obj
 0001:00008ce0       ?IsMakeTarget@CDXFpolyline@@UBEHXZ 00409ce0 f i DXFdata.obj
 0001:00008ce0       ?IsStartEqEnd@CDXFcircle@@UBEHXZ 00409ce0 f i DXFdata.obj
 0001:00008ce0       ?IsStartEqEnd@CDXFpoint@@UBEHXZ 00409ce0 f i DXFdata.obj
 0001:00008cf0       ?IsLeftNavigationPane@CPropertySheet@@MBEHPAUHWND__@@@Z 00409cf0 f i MakeNurbsSetup.obj
 0001:00008cf0       ?OnWorkspaceIdle@CWinAppEx@@UAEHPAVCWnd@@@Z 00409cf0 f i NCVC.obj
 0001:00008cf0       ?_Get_deleter@_Ref_count_base@std@@UBEPAXABVtype_info@@@Z 00409cf0 f i DXFOption.obj
 0001:00008d00       ??HATL@@YA?AV?$CStringT@DV?$StrTraitMFC_DLL@DV?$ChTraitsCRT@D@ATL@@@@@0@ABV10@0@Z 00409d00 f i MakeNurbsSetup.obj
 0001:00008d80       ??HATL@@YA?AV?$CStringT@DV?$StrTraitMFC_DLL@DV?$ChTraitsCRT@D@ATL@@@@@0@ABV10@PBD@Z 00409d80 f i MakeNurbsSetup.obj
 0001:00008e20       ?AddDialogTitle2File@@YA?AV?$CStringT@DV?$StrTraitMFC_DLL@DV?$ChTraitsCRT@D@ATL@@@@@ATL@@ABV12@0@Z 00409e20 f i MakeNurbsSetup.obj
 0001:00008f30       ??1?$function@$$A6A?AW4ENGCODEOBJ@@H@Z@boost@@QAE@XZ 00409f30 f i TH_NCRead.obj
 0001:00008f30       ??1?$function@$$A6AHABV?$basic_string@DU?$char_traits@D@std@@V?$allocator@D@2@@std@@PAVCNCblock@@@Z@boost@@QAE@XZ 00409f30 f i TH_NCRead.obj
 0001:00008f30       ??1?$function@$$A6AHH@Z@boost@@QAE@XZ 00409f30 f i TH_NCRead.obj
 0001:00008f30       ??1?$function@$$A6AHXZ@boost@@QAE@XZ 00409f30 f i TH_NCRead.obj
 0001:00008f30       ??1?$function@$$A6AMABV?$basic_string@DU?$char_traits@D@std@@V?$allocator@D@2@@std@@@Z@boost@@QAE@XZ 00409f30 f i TH_NCRead.obj
 0001:00008f30       ??1?$function@$$A6AMM@Z@boost@@QAE@XZ 00409f30 f i MyTemplate.obj
 0001:00008f30       ??1?$function@$$A6AMPBVCNCdata@@@Z@boost@@QAE@XZ 00409f30 f i TH_Cuttime.obj
 0001:00008f30       ??1?$function@$$A6APAVCDXFdata@@HH@Z@boost@@QAE@XZ 00409f30 f i TH_MakeNCD.obj
 0001:00008f30       ??1?$function@$$A6APAVCDXFworkingOutline@@PAVCDXFshape@@H@Z@boost@@QAE@XZ 00409f30 f i TH_AutoWorkingSet.obj
 0001:00008f30       ??1?$function@$$A6AXPBVCDXFdata@@@Z@boost@@QAE@XZ 00409f30 f i TH_MakeNCD.obj
 0001:00008f30       ??1?$function@$$A6AXPBVCLayerData@@PAX@Z@boost@@QAE@XZ 00409f30 f i TH_AutoWorkingSet.obj
 0001:00008f30       ??1?$function@$$A6AXXZ@boost@@QAE@XZ 00409f30 f i TH_MakeNCD.obj
 0001:00008f30       ??1?$function@$$A6A_NAAV?$_String_iterator@V?$_String_val@U?$_Simple_types@D@std@@@std@@@std@@ABV12@AAU?$context@U?$cons@AAUunused_type@spirit@boost@@Unil_@fusion@3@@fusion@boost@@U?$vector@$$V@23@@spirit@boost@@ABU?$reference@$$CBU?$rule@V?$_String_iterator@V?$_String_val@U?$_Simple_types@D@std@@@std@@@std@@Uunused_type@spirit@boost@@U345@U345@U345@@qi@spirit@boost@@@qi@45@@Z@boost@@QAE@XZ 00409f30 f i TH_NCRead.obj
 0001:00008f30       ??1?$function@$$A6A_NAAV?$_String_iterator@V?$_String_val@U?$_Simple_types@D@std@@@std@@@std@@ABV12@AAU?$context@U?$cons@AAUunused_type@spirit@boost@@Unil_@fusion@3@@fusion@boost@@U?$vector@$$V@23@@spirit@boost@@ABUunused_type@45@@Z@boost@@QAE@XZ 00409f30 f i TH_NCRead.obj
 0001:00008f30       ??1?$function@$$A6A_NAAV?$_String_iterator@V?$_String_val@U?$_Simple_types@D@std@@@std@@@std@@ABV12@AAU?$context@U?$cons@AAV?$basic_string@DU?$char_traits@D@std@@V?$allocator@D@2@@std@@Unil_@fusion@boost@@@fusion@boost@@U?$vector@$$V@23@@spirit@boost@@ABU?$reference@$$CBU?$rule@V?$_String_iterator@V?$_String_val@U?$_Simple_types@D@std@@@std@@@std@@Uunused_type@spirit@boost@@U345@U345@U345@@qi@spirit@boost@@@qi@45@@Z@boost@@QAE@XZ 00409f30 f i TH_NCRead.obj
 0001:00008fa0       ?SetDecimal3@DECIMALPOINT@@QAEXXZ 00409fa0 f   MyTemplate.obj
 0001:00009010       ?SetDecimal4@DECIMALPOINT@@QAEXXZ 0040a010 f   MyTemplate.obj
 0001:00009080       ?CalcIntersectionPoint_LL@@YA?AV?$optional@V?$CPointT@M@@@boost@@ABV?$CPointT@M@@000H@Z 0040a080 f   MyTemplate.obj
 0001:00009ed0       ??1?$optional@V?$CPointT@M@@@boost@@QAE@XZ 0040aed0 f i MyTemplate.obj
 0001:00009ee0       ?CalcIntersectionPoint_LC@@YA?AV?$tuple@HV?$CPointT@M@@V1@Unull_type@tuples@boost@@U234@U234@U234@U234@U234@U234@@tuples@boost@@ABV?$CPointT@M@@00MH@Z 0040aee0 f   MyTemplate.obj
 0001:0000a2b0       ?CalcIntersectionPoint_CC@@YA?AV?$tuple@HV?$CPointT@M@@V1@Unull_type@tuples@boost@@U234@U234@U234@U234@U234@U234@@tuples@boost@@ABV?$CPointT@M@@0MM@Z 0040b2b0 f   MyTemplate.obj
 0001:0000a760       ?CalcIntersectionPoint_LE@@YA?AV?$tuple@HV?$CPointT@M@@V1@Unull_type@tuples@boost@@U234@U234@U234@U234@U234@U234@@tuples@boost@@ABV?$CPointT@M@@00MMMH@Z 0040b760 f   MyTemplate.obj
 0001:0000af40       ?CalcIntersectionPoint_TC@@YA?AV?$CPointT@M@@ABV1@M0@Z 0040bf40 f   MyTemplate.obj
 0001:0000b0b0       ?CalcOffsetLine@@YA?AV?$tuple@V?$CPointT@M@@V1@Unull_type@tuples@boost@@U234@U234@U234@U234@U234@U234@U234@@tuples@boost@@ABV?$CPointT@M@@0MH@Z 0040c0b0 f   MyTemplate.obj
 0001:0000b1b0       ?CalcOffsetIntersectionPoint_LL@@YA?AV?$optional@V?$CPointT@M@@@boost@@ABV?$CPointT@M@@0MMH@Z 0040c1b0 f   MyTemplate.obj
 0001:0000b260       ?CalcOffsetIntersectionPoint_LC@@YA?AV?$optional@V?$CPointT@M@@@boost@@ABV?$CPointT@M@@0MMMHH@Z 0040c260 f   MyTemplate.obj
 0001:0000b3d0       ?CalcOffsetIntersectionPoint_LE@@YA?AV?$optional@V?$CPointT@M@@@boost@@ABV?$CPointT@M@@0MMMMHH@Z 0040c3d0 f   MyTemplate.obj
 0001:0000b550       ??1?$function0@H@boost@@QAE@XZ 0040c550 f i TH_NCRead.obj
 0001:0000b550       ??1?$function0@X@boost@@QAE@XZ 0040c550 f i TH_MakeNCD.obj
 0001:0000b550       ??1?$function1@HH@boost@@QAE@XZ 0040c550 f i TH_NCRead.obj
 0001:0000b550       ??1?$function1@MABV?$basic_string@DU?$char_traits@D@std@@V?$allocator@D@2@@std@@@boost@@QAE@XZ 0040c550 f i TH_NCRead.obj
 0001:0000b550       ??1?$function1@MM@boost@@QAE@XZ 0040c550 f i MyTemplate.obj
 0001:0000b550       ??1?$function1@W4ENGCODEOBJ@@H@boost@@QAE@XZ 0040c550 f i TH_NCRead.obj
 0001:0000b550       ??1?$function1@XPBVCDXFdata@@@boost@@QAE@XZ 0040c550 f i TH_MakeNCD.obj
 0001:0000b550       ??1?$function2@HABV?$basic_string@DU?$char_traits@D@std@@V?$allocator@D@2@@std@@PAVCNCblock@@@boost@@QAE@XZ 0040c550 f i TH_NCRead.obj
 0001:0000b550       ??1?$function2@PAVCDXFdata@@HH@boost@@QAE@XZ 0040c550 f i TH_MakeNCD.obj
 0001:0000b550       ??1?$function2@PAVCDXFworkingOutline@@PAVCDXFshape@@H@boost@@QAE@XZ 0040c550 f i TH_AutoWorkingSet.obj
 0001:0000b550       ??1?$function2@XPBVCLayerData@@PAX@boost@@QAE@XZ 0040c550 f i TH_AutoWorkingSet.obj
 0001:0000b550       ??1?$function4@_NAAV?$_String_iterator@V?$_String_val@U?$_Simple_types@D@std@@@std@@@std@@ABV12@AAU?$context@U?$cons@AAUunused_type@spirit@boost@@Unil_@fusion@3@@fusion@boost@@U?$vector@$$V@23@@spirit@boost@@ABU?$reference@$$CBU?$rule@V?$_String_iterator@V?$_String_val@U?$_Simple_types@D@std@@@std@@@std@@Uunused_type@spirit@boost@@U345@U345@U345@@qi@spirit@boost@@@qi@45@@boost@@QAE@XZ 0040c550 f i TH_NCRead.obj
 0001:0000b550       ??1?$function4@_NAAV?$_String_iterator@V?$_String_val@U?$_Simple_types@D@std@@@std@@@std@@ABV12@AAU?$context@U?$cons@AAUunused_type@spirit@boost@@Unil_@fusion@3@@fusion@boost@@U?$vector@$$V@23@@spirit@boost@@ABUunused_type@45@@boost@@QAE@XZ 0040c550 f i TH_NCRead.obj
 0001:0000b550       ??1?$function4@_NAAV?$_String_iterator@V?$_String_val@U?$_Simple_types@D@std@@@std@@@std@@ABV12@AAU?$context@U?$cons@AAV?$basic_string@DU?$char_traits@D@std@@V?$allocator@D@2@@std@@Unil_@fusion@boost@@@fusion@boost@@U?$vector@$$V@23@@spirit@boost@@ABU?$reference@$$CBU?$rule@V?$_String_iterator@V?$_String_val@U?$_Simple_types@D@std@@@std@@@std@@Uunused_type@spirit@boost@@U345@U345@U345@@qi@spirit@boost@@@qi@45@@boost@@QAE@XZ 0040c550 f i TH_NCRead.obj
 0001:0000b5b0       ??$?4V?$bind_t@MV?$mf1@MVDECIMALPOINT@@M@_mfi@boost@@V?$list2@V?$value@VDECIMALPOINT@@@_bi@boost@@U?$arg@$00@3@@_bi@3@@_bi@boost@@@?$function@$$A6AMM@Z@boost@@QAEAAV01@V?$bind_t@MV?$mf1@MVDECIMALPOINT@@M@_mfi@boost@@V?$list2@V?$value@VDECIMALPOINT@@@_bi@boost@@U?$arg@$00@3@@_bi@3@@_bi@1@@Z 0040c5b0 f i MyTemplate.obj
 0001:0000b6c0       ?move_assign@?$function0@H@boost@@AAEXAAV12@@Z 0040c6c0 f i TH_NCRead.obj
 0001:0000b6c0       ?move_assign@?$function0@X@boost@@AAEXAAV12@@Z 0040c6c0 f i TH_MakeNCD.obj
 0001:0000b6c0       ?move_assign@?$function1@HH@boost@@AAEXAAV12@@Z 0040c6c0 f i TH_NCRead.obj
 0001:0000b6c0       ?move_assign@?$function1@MABV?$basic_string@DU?$char_traits@D@std@@V?$allocator@D@2@@std@@@boost@@AAEXAAV12@@Z 0040c6c0 f i TH_NCRead.obj
 0001:0000b6c0       ?move_assign@?$function1@MM@boost@@AAEXAAV12@@Z 0040c6c0 f i MyTemplate.obj
 0001:0000b6c0       ?move_assign@?$function1@W4ENGCODEOBJ@@H@boost@@AAEXAAV12@@Z 0040c6c0 f i TH_NCRead.obj
 0001:0000b6c0       ?move_assign@?$function1@XPBVCDXFdata@@@boost@@AAEXAAV12@@Z 0040c6c0 f i TH_MakeNCD.obj
 0001:0000b6c0       ?move_assign@?$function2@HABV?$basic_string@DU?$char_traits@D@std@@V?$allocator@D@2@@std@@PAVCNCblock@@@boost@@AAEXAAV12@@Z 0040c6c0 f i TH_NCRead.obj
 0001:0000b6c0       ?move_assign@?$function2@PAVCDXFdata@@HH@boost@@AAEXAAV12@@Z 0040c6c0 f i TH_MakeNCD.obj
 0001:0000b6c0       ?move_assign@?$function2@PAVCDXFworkingOutline@@PAVCDXFshape@@H@boost@@AAEXAAV12@@Z 0040c6c0 f i TH_AutoWorkingSet.obj
 0001:0000b6c0       ?move_assign@?$function2@XPBVCLayerData@@PAX@boost@@AAEXAAV12@@Z 0040c6c0 f i TH_AutoWorkingSet.obj
 0001:0000b6c0       ?move_assign@?$function4@_NAAV?$_String_iterator@V?$_String_val@U?$_Simple_types@D@std@@@std@@@std@@ABV12@AAU?$context@U?$cons@AAUunused_type@spirit@boost@@Unil_@fusion@3@@fusion@boost@@U?$vector@$$V@23@@spirit@boost@@ABU?$reference@$$CBU?$rule@V?$_String_iterator@V?$_String_val@U?$_Simple_types@D@std@@@std@@@std@@Uunused_type@spirit@boost@@U345@U345@U345@@qi@spirit@boost@@@qi@45@@boost@@AAEXAAV12@@Z 0040c6c0 f i TH_NCRead.obj
 0001:0000b6c0       ?move_assign@?$function4@_NAAV?$_String_iterator@V?$_String_val@U?$_Simple_types@D@std@@@std@@@std@@ABV12@AAU?$context@U?$cons@AAUunused_type@spirit@boost@@Unil_@fusion@3@@fusion@boost@@U?$vector@$$V@23@@spirit@boost@@ABUunused_type@45@@boost@@AAEXAAV12@@Z 0040c6c0 f i TH_NCRead.obj
 0001:0000b6c0       ?move_assign@?$function4@_NAAV?$_String_iterator@V?$_String_val@U?$_Simple_types@D@std@@@std@@@std@@ABV12@AAU?$context@U?$cons@AAV?$basic_string@DU?$char_traits@D@std@@V?$allocator@D@2@@std@@Unil_@fusion@boost@@@fusion@boost@@U?$vector@$$V@23@@spirit@boost@@ABU?$reference@$$CBU?$rule@V?$_String_iterator@V?$_String_val@U?$_Simple_types@D@std@@@std@@@std@@Uunused_type@spirit@boost@@U345@U345@U345@@qi@spirit@boost@@@qi@45@@boost@@AAEXAAV12@@Z 0040c6c0 f i TH_NCRead.obj
 0001:0000b7c0       ?invoke@?$function_obj_invoker1@V?$bind_t@MV?$mf1@MVDECIMALPOINT@@M@_mfi@boost@@V?$list2@V?$value@VDECIMALPOINT@@@_bi@boost@@U?$arg@$00@3@@_bi@3@@_bi@boost@@MM@function@detail@boost@@SAMAATfunction_buffer@234@M@Z 0040c7c0 f i MyTemplate.obj
 0001:0000b7e0       ?manage@?$functor_manager@V?$bind_t@MV?$mf1@MVDECIMALPOINT@@M@_mfi@boost@@V?$list2@V?$value@VDECIMALPOINT@@@_bi@boost@@U?$arg@$00@3@@_bi@3@@_bi@boost@@@function@detail@boost@@SAXABTfunction_buffer@234@AAT5234@W4functor_manager_operation_type@234@@Z 0040c7e0 f i MyTemplate.obj
 0001:0000b850       ?find_restart_lit@?$perl_matcher@PBDV?$allocator@U?$sub_match@PBD@boost@@@std@@U?$regex_traits@DV?$w32_regex_traits@D@boost@@@boost@@@re_detail_500@boost@@AAE_NXZ 0040c850 f i NCDoc.obj
 0001:0000b850       ?find_restart_lit@?$perl_matcher@V?$_String_const_iterator@V?$_String_val@U?$_Simple_types@D@std@@@std@@@std@@V?$allocator@U?$sub_match@V?$_String_const_iterator@V?$_String_val@U?$_Simple_types@D@std@@@std@@@std@@@boost@@@2@U?$regex_traits@DV?$w32_regex_traits@D@boost@@@boost@@@re_detail_500@boost@@AAE_NXZ 0040c850 f i NCDoc.obj
 0001:0000b850       ?has_empty_target@function@detail@boost@@YA_NZZ 0040c850 f i MyTemplate.obj
 0001:0000b850       ?match_fail@?$perl_matcher@PBDV?$allocator@U?$sub_match@PBD@boost@@@std@@U?$regex_traits@DV?$w32_regex_traits@D@boost@@@boost@@@re_detail_500@boost@@AAE_NXZ 0040c850 f i NCDoc.obj
 0001:0000b850       ?match_fail@?$perl_matcher@V?$_String_const_iterator@V?$_String_val@U?$_Simple_types@D@std@@@std@@@std@@V?$allocator@U?$sub_match@V?$_String_const_iterator@V?$_String_val@U?$_Simple_types@D@std@@@std@@@std@@@boost@@@2@U?$regex_traits@DV?$w32_regex_traits@D@boost@@@boost@@@re_detail_500@boost@@AAE_NXZ 0040c850 f i NCDoc.obj
 0001:0000b860       _sinf                      0040c860 f i MyTemplate.obj
 0001:0000b880       _cosf                      0040c880 f i MyTemplate.obj
 0001:0000b8a0       _atan2f                    0040c8a0 f i MyTemplate.obj
 0001:0000b8e0       _sqrtf                     0040c8e0 f i MyTemplate.obj
 0001:0000b910       ??0?$wrapexcept@Vbad_function_call@boost@@@boost@@QAE@ABVbad_function_call@1@@Z 0040c910 f i MyTemplate.obj
 0001:0000b980       ??1?$wrapexcept@Uescaped_list_error@boost@@@boost@@UAE@XZ 0040c980 f i NCMakeOption.obj
 0001:0000b980       ??1?$wrapexcept@Vbad_function_call@boost@@@boost@@UAE@XZ 0040c980 f i MyTemplate.obj
 0001:0000b980       ??1?$wrapexcept@Vbad_get@boost@@@boost@@UAE@XZ 0040c980 f i DXFshape.obj
 0001:0000b980       ??1?$wrapexcept@Vinvalid_argument@std@@@boost@@UAE@XZ 0040c980 f i NCDoc.obj
 0001:0000b980       ??1?$wrapexcept@Vlogic_error@std@@@boost@@UAE@XZ 0040c980 f i NCDoc.obj
 0001:0000b980       ??1?$wrapexcept@Vruntime_error@std@@@boost@@UAE@XZ 0040c980 f i DXFOption.obj
 0001:0000ba00       ??_E?$wrapexcept@Uescaped_list_error@boost@@@boost@@UAEPAXI@Z 0040ca00 f i * CIL library *:* CIL module *
 0001:0000ba00       ??_E?$wrapexcept@Vbad_function_call@boost@@@boost@@UAEPAXI@Z 0040ca00 f i * CIL library *:* CIL module *
 0001:0000ba00       ??_E?$wrapexcept@Vbad_get@boost@@@boost@@UAEPAXI@Z 0040ca00 f i * CIL library *:* CIL module *
 0001:0000ba00       ??_E?$wrapexcept@Vinvalid_argument@std@@@boost@@UAEPAXI@Z 0040ca00 f i * CIL library *:* CIL module *
 0001:0000ba00       ??_E?$wrapexcept@Vlogic_error@std@@@boost@@UAEPAXI@Z 0040ca00 f i * CIL library *:* CIL module *
 0001:0000ba00       ??_E?$wrapexcept@Vruntime_error@std@@@boost@@UAEPAXI@Z 0040ca00 f i * CIL library *:* CIL module *
 0001:0000ba00       ??_G?$wrapexcept@Uescaped_list_error@boost@@@boost@@UAEPAXI@Z 0040ca00 f i NCMakeOption.obj
 0001:0000ba00       ??_G?$wrapexcept@Vbad_function_call@boost@@@boost@@UAEPAXI@Z 0040ca00 f i MyTemplate.obj
 0001:0000ba00       ??_G?$wrapexcept@Vbad_get@boost@@@boost@@UAEPAXI@Z 0040ca00 f i DXFshape.obj
 0001:0000ba00       ??_G?$wrapexcept@Vinvalid_argument@std@@@boost@@UAEPAXI@Z 0040ca00 f i NCDoc.obj
 0001:0000ba00       ??_G?$wrapexcept@Vlogic_error@std@@@boost@@UAEPAXI@Z 0040ca00 f i NCDoc.obj
 0001:0000ba00       ??_G?$wrapexcept@Vruntime_error@std@@@boost@@UAEPAXI@Z 0040ca00 f i DXFOption.obj
 0001:0000ba90       ?clone@?$wrapexcept@Vbad_function_call@boost@@@boost@@UBEPBVclone_base@exception_detail@2@XZ 0040ca90 f i MyTemplate.obj
 0001:0000bb20       ?rethrow@?$wrapexcept@Vbad_function_call@boost@@@boost@@UBEXXZ 0040cb20 f i MyTemplate.obj
 0001:0000bb43       ??_E?$wrapexcept@Uescaped_list_error@boost@@@boost@@W3AEPAXI@Z 0040cb43 f i NCMakeOption.obj
 0001:0000bb43       ??_E?$wrapexcept@Vbad_function_call@boost@@@boost@@W3AEPAXI@Z 0040cb43 f i MyTemplate.obj
 0001:0000bb43       ??_E?$wrapexcept@Vbad_get@boost@@@boost@@W3AEPAXI@Z 0040cb43 f i DXFshape.obj
 0001:0000bb43       ??_E?$wrapexcept@Vinvalid_argument@std@@@boost@@W3AEPAXI@Z 0040cb43 f i NCDoc.obj
 0001:0000bb43       ??_E?$wrapexcept@Vlogic_error@std@@@boost@@W3AEPAXI@Z 0040cb43 f i NCDoc.obj
 0001:0000bb43       ??_E?$wrapexcept@Vruntime_error@std@@@boost@@W3AEPAXI@Z 0040cb43 f i DXFOption.obj
 0001:0000bb4b       ??_E?$wrapexcept@Uescaped_list_error@boost@@@boost@@WBA@AEPAXI@Z 0040cb4b f i NCMakeOption.obj
 0001:0000bb4b       ??_E?$wrapexcept@Vbad_function_call@boost@@@boost@@WBA@AEPAXI@Z 0040cb4b f i MyTemplate.obj
 0001:0000bb4b       ??_E?$wrapexcept@Vbad_get@boost@@@boost@@WBA@AEPAXI@Z 0040cb4b f i DXFshape.obj
 0001:0000bb4b       ??_E?$wrapexcept@Vinvalid_argument@std@@@boost@@WBA@AEPAXI@Z 0040cb4b f i NCDoc.obj
 0001:0000bb4b       ??_E?$wrapexcept@Vlogic_error@std@@@boost@@WBA@AEPAXI@Z 0040cb4b f i NCDoc.obj
 0001:0000bb4b       ??_E?$wrapexcept@Vruntime_error@std@@@boost@@WBA@AEPAXI@Z 0040cb4b f i DXFOption.obj
 0001:0000bb60       ??0?$wrapexcept@Vbad_function_call@boost@@@boost@@QAE@ABU01@@Z 0040cb60 f i MyTemplate.obj
 0001:0000bc30       ??0bad_function_call@boost@@QAE@ABV01@@Z 0040cc30 f i MyTemplate.obj
 0001:0000bc70       ??0runtime_error@std@@QAE@ABV01@@Z 0040cc70 f i MyTemplate.obj
 0001:0000bcb0       ??$throw_exception@Vbad_function_call@boost@@@boost@@YAXABVbad_function_call@0@@Z 0040ccb0 f i MyTemplate.obj
 0001:0000bce0       ??0bad_function_call@boost@@QAE@XZ 0040cce0 f i MyTemplate.obj
 0001:0000bd20       ?RoundCt4@DECIMALPOINT@@QAEMM@Z 0040cd20 f i MyTemplate.obj
 0001:0000bd90       ?RoundUp4@DECIMALPOINT@@QAEMM@Z 0040cd90 f i MyTemplate.obj
 0001:0000be00       ?RoundCt3@DECIMALPOINT@@QAEMM@Z 0040ce00 f i MyTemplate.obj
 0001:0000be70       ?RoundUp3@DECIMALPOINT@@QAEMM@Z 0040ce70 f i MyTemplate.obj
 0001:0000bee0       ?GetMessageMap@CAboutDlg@@MBEPBUAFX_MSGMAP@@XZ 0040cee0 f   AboutDlg.obj
 0001:0000bef0       ??_ECAboutDlg@@UAEPAXI@Z   0040cef0 f i * CIL library *:* CIL module *
 0001:0000bef0       ??_GCAboutDlg@@UAEPAXI@Z   0040cef0 f i AboutDlg.obj
 0001:0000bf50       ??1CAboutDlg@@UAE@XZ       0040cf50 f i AboutDlg.obj
 0001:0000bf80       ?DoDataExchange@CAboutDlg@@MAEXPAVCDataExchange@@@Z 0040cf80 f   AboutDlg.obj
 0001:0000bfc0       ?OnInitDialog@CAboutDlg@@MAEHXZ 0040cfc0 f   AboutDlg.obj
 0001:0000c060       ?OnCtlColor@CAboutDlg@@IAEPAUHBRUSH__@@PAVCDC@@PAVCWnd@@I@Z 0040d060 f   AboutDlg.obj
 0001:0000c0a0       ??_ECStatic@@UAEPAXI@Z     0040d0a0 f i * CIL library *:* CIL module *
 0001:0000c0a0       ??_ECThumbnailStatic@@UAEPAXI@Z 0040d0a0 f i * CIL library *:* CIL module *
 0001:0000c0a0       ??_GCStatic@@UAEPAXI@Z     0040d0a0 f i AboutDlg.obj
 0001:0000c0a0       ??_GCThumbnailStatic@@UAEPAXI@Z 0040d0a0 f i ThumbnailDlg.obj
 0001:0000c0e0       ??0CStatic@@QAE@XZ         0040d0e0 f i AboutDlg.obj
 0001:0000c100       ?GetMessageMap@CAddinDlg@@MBEPBUAFX_MSGMAP@@XZ 0040d100 f   AddinDlg.obj
 0001:0000c110       ??_ECAddinDlg@@UAEPAXI@Z   0040d110 f i * CIL library *:* CIL module *
 0001:0000c110       ??_GCAddinDlg@@UAEPAXI@Z   0040d110 f i AddinDlg.obj
 0001:0000c190       ??1CAddinDlg@@UAE@XZ       0040d190 f i AddinDlg.obj
 0001:0000c1e0       ?DoDataExchange@CAddinDlg@@MAEXPAVCDataExchange@@@Z 0040d1e0 f   AddinDlg.obj
 0001:0000c250       ?SetDetailData@CAddinDlg@@AAEXPAVCNCVCaddinIF@@@Z 0040d250 f   AddinDlg.obj
 0001:0000c690       ?OnInitDialog@CAddinDlg@@MAEHXZ 0040d690 f   AddinDlg.obj
 0001:0000c8d0       ?OnItemChangedAddinList@CAddinDlg@@IAEXPAUtagNMHDR@@PAJ@Z 0040d8d0 f   AddinDlg.obj
 0001:0000c8f0       ??_ECListCtrl@@UAEPAXI@Z   0040d8f0 f i * CIL library *:* CIL module *
 0001:0000c8f0       ??_GCListCtrl@@UAEPAXI@Z   0040d8f0 f i AddinDlg.obj
 0001:0000c930       ??_ECEdit@@UAEPAXI@Z       0040d930 f i * CIL library *:* CIL module *
 0001:0000c930       ??_GCEdit@@UAEPAXI@Z       0040d930 f i AddinDlg.obj
 0001:0000c970       ??0CEdit@@QAE@XZ           0040d970 f i AddinDlg.obj
 0001:0000c990       ?GetMessageMap@CCADbindDlg@@MBEPBUAFX_MSGMAP@@XZ 0040d990 f   CADbindDlg.obj
 0001:0000c9a0       ??_ECCADbindDlg@@UAEPAXI@Z 0040d9a0 f i * CIL library *:* CIL module *
 0001:0000c9a0       ??_GCCADbindDlg@@UAEPAXI@Z 0040d9a0 f i CADbindDlg.obj
 0001:0000c9e0       ??1CCADbindDlg@@UAE@XZ     0040d9e0 f i CADbindDlg.obj
 0001:0000ca70       ??_FCFloatEdit@@QAEXXZ     0040da70 f i CADbindDlg.obj
 0001:0000ca90       ?DoDataExchange@CCADbindDlg@@MAEXPAVCDataExchange@@@Z 0040da90 f   CADbindDlg.obj
 0001:0000cb20       ?PathOptimizeAdd@CCADbindDlg@@AAEXABV?$CStringT@DV?$StrTraitMFC_DLL@DV?$ChTraitsCRT@D@ATL@@@@@ATL@@@Z 0040db20 f   CADbindDlg.obj
 0001:0000cd40       ??1?$lambda_functor@V?$lambda_functor_base@V?$relational_action@Vequal_action@lambda@boost@@@lambda@boost@@V?$tuple@V?$lambda_functor@U?$placeholder@$00@lambda@boost@@@lambda@boost@@$$CBV?$CStringT@DV?$StrTraitMFC_DLL@DV?$ChTraitsCRT@D@ATL@@@@@ATL@@Unull_type@tuples@3@U673@U673@U673@U673@U673@U673@U673@@tuples@3@@lambda@boost@@@lambda@boost@@QAE@XZ 0040dd40 f i ReadDXF.obj
 0001:0000cd40       ??1?$lambda_functor_base@V?$relational_action@Vequal_action@lambda@boost@@@lambda@boost@@V?$tuple@V?$lambda_functor@U?$placeholder@$00@lambda@boost@@@lambda@boost@@$$CBV?$CStringT@DV?$StrTraitMFC_DLL@DV?$ChTraitsCRT@D@ATL@@@@@ATL@@Unull_type@tuples@3@U673@U673@U673@U673@U673@U673@U673@@tuples@3@@lambda@boost@@QAE@XZ 0040dd40 f i ReadDXF.obj
 0001:0000cd40       ??1?$tuple@HV?$CStringT@DV?$StrTraitMFC_DLL@DV?$ChTraitsCRT@D@ATL@@@@@ATL@@Unull_type@tuples@boost@@U345@U345@U345@U345@U345@U345@U345@@tuples@boost@@QAE@XZ 0040dd40 f i MakeCustomCode.obj
 0001:0000cd40       ??1?$tuple@V?$lambda_functor@U?$placeholder@$00@lambda@boost@@@lambda@boost@@$$CBV?$CStringT@DV?$StrTraitMFC_DLL@DV?$ChTraitsCRT@D@ATL@@@@@ATL@@Unull_type@tuples@3@U673@U673@U673@U673@U673@U673@U673@@tuples@boost@@QAE@XZ 0040dd40 f i ReadDXF.obj
 0001:0000cd40       ??1BINDFILE@@QAE@XZ        0040dd40 f i CADbindDlg.obj
 0001:0000cd50       ?OnInitDialog@CCADbindDlg@@MAEHXZ 0040dd50 f   CADbindDlg.obj
 0001:0000cee0       ?OnOK@CCADbindDlg@@MAEXXZ  0040dee0 f   CADbindDlg.obj
 0001:0000d120       ?OnBindFileAdd@CCADbindDlg@@QAEXXZ 0040e120 f   CADbindDlg.obj
 0001:0000d1c0       ?OnBindFileClr@CCADbindDlg@@QAEXXZ 0040e1c0 f   CADbindDlg.obj
 0001:0000d280       ?OnBindFileAllClr@CCADbindDlg@@QAEXXZ 0040e280 f   CADbindDlg.obj
 0001:0000d2d0       ?OnDropFiles@CCADbindDlg@@QAEXPAUHDROP__@@@Z 0040e2d0 f   CADbindDlg.obj
 0001:0000d390       ?OnNMDblclkBindList@CCADbindDlg@@QAEXPAUtagNMHDR@@PAJ@Z 0040e390 f   CADbindDlg.obj
 0001:0000d3d0       ?OnLvnBeginlabeledit@CCADbindDlg@@QAEXPAUtagNMHDR@@PAJ@Z 0040e3d0 f   CADbindDlg.obj
 0001:0000d410       ?OnLvnEndlabeledit@CCADbindDlg@@QAEXPAUtagNMHDR@@PAJ@Z 0040e410 f   CADbindDlg.obj
 0001:0000d540       ??1?$vector@UBINDFILE@@V?$allocator@UBINDFILE@@@std@@@std@@QAE@XZ 0040e540 f i CADbindDlg.obj
 0001:0000d5b0       ?deallocate@?$allocator@UBINDFILE@@@std@@QAEXQAUBINDFILE@@I@Z 0040e5b0 f i CADbindDlg.obj
 0001:0000d5f0       ??$_Destroy_range@V?$allocator@UBINDFILE@@@std@@@std@@YAXPAUBINDFILE@@QAU1@AAV?$allocator@UBINDFILE@@@0@@Z 0040e5f0 f i CADbindDlg.obj
 0001:0000d620       ??$_Emplace_reallocate@ABUBINDFILE@@@?$vector@UBINDFILE@@V?$allocator@UBINDFILE@@@std@@@std@@AAEPAUBINDFILE@@QAU2@ABU2@@Z 0040e620 f i CADbindDlg.obj
 0001:0000d850       ??$_Uninitialized_move@PAUBINDFILE@@V?$allocator@UBINDFILE@@@std@@@std@@YAPAUBINDFILE@@QAU1@0PAU1@AAV?$allocator@UBINDFILE@@@0@@Z 0040e850 f i CADbindDlg.obj
 0001:0000d8d0       ??1?$_Uninitialized_backout_al@V?$allocator@UBINDFILE@@@std@@@std@@QAE@XZ 0040e8d0 f i CADbindDlg.obj
 0001:0000d900       ?GetThisMessageMap@CChildBase@@KGPBUAFX_MSGMAP@@XZ 0040e900 f   ChildBase.obj
 0001:0000d910       ?ActivateFrame@CChildBase@@UAEXH@Z 0040e910 f   ChildBase.obj
 0001:0000d960       ?OnClose@CChildBase@@IAEXXZ 0040e960 f   ChildBase.obj
 0001:0000d9c0       ?OnUserFileChangeNotify@CChildBase@@IAEJIJ@Z 0040e9c0 f   ChildBase.obj
 0001:0000db40       ?GetMessageMap@CIntEdit@@MBEPBUAFX_MSGMAP@@XZ 0040eb40 f   CustomControl.obj
 0001:0000db50       ?GetMessageMap@CFloatEdit@@MBEPBUAFX_MSGMAP@@XZ 0040eb50 f   CustomControl.obj
 0001:0000db60       ?GetMessageMap@CColComboBox@@MBEPBUAFX_MSGMAP@@XZ 0040eb60 f   CustomControl.obj
 0001:0000dbc0       ??0CIntEdit@@QAE@XZ        0040ebc0 f   CustomControl.obj
 0001:0000dbe0       ??_ECIntEdit@@UAEPAXI@Z    0040ebe0 f i * CIL library *:* CIL module *
 0001:0000dbe0       ??_GCIntEdit@@UAEPAXI@Z    0040ebe0 f i CustomControl.obj
 0001:0000dc20       ??1CIntEdit@@UAE@XZ        0040ec20 f   CustomControl.obj
 0001:0000dc30       ??4CIntEdit@@QAEAAV0@H@Z   0040ec30 f   CustomControl.obj
 0001:0000dce0       ?OnChar@CIntEdit@@IAEXIII@Z 0040ece0 f   CustomControl.obj
 0001:0000dde0       ??_ECFloatEdit@@UAEPAXI@Z  0040ede0 f i * CIL library *:* CIL module *
 0001:0000dde0       ??_GCFloatEdit@@UAEPAXI@Z  0040ede0 f i CustomControl.obj
 0001:0000de20       ??1CFloatEdit@@UAE@XZ      0040ee20 f   CustomControl.obj
 0001:0000de30       ??4CFloatEdit@@QAEAAV0@M@Z 0040ee30 f   CustomControl.obj
 0001:0000df60       ?OnChar@CFloatEdit@@IAEXIII@Z 0040ef60 f   CustomControl.obj
 0001:0000e060       ??0CColComboBox@@QAE@XZ    0040f060 f   CustomControl.obj
 0001:0000e080       ??_ECColComboBox@@UAEPAXI@Z 0040f080 f i * CIL library *:* CIL module *
 0001:0000e080       ??_GCColComboBox@@UAEPAXI@Z 0040f080 f i CustomControl.obj
 0001:0000e0c0       ??1CColComboBox@@UAE@XZ    0040f0c0 f   CustomControl.obj
 0001:0000e0d0       ?MeasureItem@CColComboBox@@UAEXPAUtagMEASUREITEMSTRUCT@@@Z 0040f0d0 f   CustomControl.obj
 0001:0000e0f0       ?DrawItem@CColComboBox@@UAEXPAUtagDRAWITEMSTRUCT@@@Z 0040f0f0 f   CustomControl.obj
 0001:0000e140       ?ConvertSTRtoRGB@@YAKPBD@Z 0040f140 f   CustomControl.obj
 0001:0000e230       ?ConvertRGBtoSTR@@YA?AV?$CStringT@DV?$StrTraitMFC_DLL@DV?$ChTraitsCRT@D@ATL@@@@@ATL@@K@Z 0040f230 f   CustomControl.obj
 0001:0000e580       ??0?$basic_string@DU?$char_traits@D@std@@V?$allocator@D@2@@std@@QAE@U_String_constructor_concat_tag@1@AAV01@1@Z 0040f580 f i CustomControl.obj
 0001:0000e710       ?append@?$basic_string@DU?$char_traits@D@std@@V?$allocator@D@2@@std@@QAEAAV12@QBDI@Z 0040f710 f i CustomControl.obj
 0001:0000e860       ??_ECComboBox@@UAEPAXI@Z   0040f860 f i * CIL library *:* CIL module *
 0001:0000e860       ??_GCComboBox@@UAEPAXI@Z   0040f860 f i CustomControl.obj
 0001:0000e8a0       ??0CComboBox@@QAE@XZ       0040f8a0 f i CustomControl.obj
 0001:0000e8c0       _modff                     0040f8c0 f i CustomControl.obj
 0001:0000e910       ??_ECCustomMenu@@UAEPAXI@Z 0040f910 f i * CIL library *:* CIL module *
 0001:0000e910       ??_GCCustomMenu@@UAEPAXI@Z 0040f910 f i CustomMenu.obj
 0001:0000e9d0       ??1CCustomMenu@@UAE@XZ     0040f9d0 f   CustomMenu.obj
 0001:0000ea50       ?FindString@CCustomMenu@@IAEHABV?$CStringT@DV?$StrTraitMFC_DLL@DV?$ChTraitsCRT@D@ATL@@@@@ATL@@@Z 0040fa50 f   CustomMenu.obj
 0001:0000eaa0       ?DrawItemIcon@CCustomMenu@@MAEHPAVCDC@@PAUtagDRAWITEMSTRUCT@@@Z 0040faa0 f   CustomMenu.obj
 0001:0000ec80       ?DrawItemString@CCustomMenu@@IAEXPAVCDC@@PAUtagDRAWITEMSTRUCT@@H@Z 0040fc80 f   CustomMenu.obj
 0001:0000ee60       ?DrawItemStringText@CCustomMenu@@IAEXPAVCDC@@V?$CStringT@DV?$StrTraitMFC_DLL@DV?$ChTraitsCRT@D@ATL@@@@@ATL@@VCRect@@@Z 0040fe60 f   CustomMenu.obj
 0001:0000ef40       ??1CCustomMenuEx@@UAE@XZ   0040ff40 f   CustomMenu.obj
 0001:0000f030       ??_ECCustomMenuEx@@UAEPAXI@Z 00410030 f i * CIL library *:* CIL module *
 0001:0000f030       ??_GCCustomMenuEx@@UAEPAXI@Z 00410030 f i CustomMenu.obj
 0001:0000f070       ??1?$CSortArray@VCObArray@@PAVCDXFchain@@@@UAE@XZ 00410070 f i DXFshape.obj
 0001:0000f070       ??1?$CSortArray@VCObArray@@PAVCDXFcircle@@@@UAE@XZ 00410070 f i TH_MakeNCD.obj
 0001:0000f070       ??1?$CSortArray@VCObArray@@PAVCDXFdata@@@@UAE@XZ 00410070 f i TH_MakeLathe.obj
 0001:0000f070       ??1?$CSortArray@VCObArray@@PAVCDXFshape@@@@UAE@XZ 00410070 f i Layer.obj
 0001:0000f070       ??1?$CSortArray@VCObArray@@PAVCLayerData@@@@UAE@XZ 00410070 f i DXFDoc.obj
 0001:0000f070       ??1?$CTypedPtrArrayEx@VCObArray@@PAVCDXFdata@@@@UAE@XZ 00410070 f i DXFshape.obj
 0001:0000f070       ??1?$CTypedPtrArrayEx@VCObArray@@PAVCDXFtext@@@@UAE@XZ 00410070 f i Layer.obj
 0001:0000f070       ??1?$CTypedPtrArrayEx@VCObArray@@PAVCImageList@@@@UAE@XZ 00410070 f i CustomMenu.obj
 0001:0000f080       ?DrawItemIcon@CCustomMenuEx@@MAEHPAVCDC@@PAUtagDRAWITEMSTRUCT@@@Z 00410080 f   CustomMenu.obj
 0001:0000f1e0       ??1CFont@@UAE@XZ           004101e0 f i CustomMenu.obj
 0001:0000f1f0       ??_ECFont@@UAEPAXI@Z       004101f0 f i * CIL library *:* CIL module *
 0001:0000f1f0       ??_GCFont@@UAEPAXI@Z       004101f0 f i CustomMenu.obj
 0001:0000f230       ??0CFont@@QAE@XZ           00410230 f i CustomMenu.obj
 0001:0000f240       ??1CMenu@@UAE@XZ           00410240 f i CustomMenu.obj
 0001:0000f290       ??_ECMenu@@UAEPAXI@Z       00410290 f i * CIL library *:* CIL module *
 0001:0000f290       ??_GCMenu@@UAEPAXI@Z       00410290 f i CustomMenu.obj
 0001:0000f320       ??0CMenu@@QAE@XZ           00410320 f i CustomMenu.obj
 0001:0000f330       ?GetMessageMap@CCustomToolBar@@MBEPBUAFX_MSGMAP@@XZ 00410330 f   CustomToolBar.obj
 0001:0000f330       ?GetThisMessageMap@CCustomToolBar@@KGPBUAFX_MSGMAP@@XZ 00410330 f   CustomToolBar.obj
 0001:0000f340       ??0CCustomToolBar@@QAE@XZ  00410340 f   CustomToolBar.obj
 0001:0000f3c0       ??_ECCustomToolBar@@UAEPAXI@Z 004103c0 f i * CIL library *:* CIL module *
 0001:0000f3c0       ??_GCCustomToolBar@@UAEPAXI@Z 004103c0 f i CustomToolBar.obj
 0001:0000f400       ??_E?$CSortArray@VCPtrArray@@PAUCADBINDINFO@@@@UAEPAXI@Z 00410400 f i * CIL library *:* CIL module *
 0001:0000f400       ??_E?$CSortArray@VCPtrArray@@PAUTHUMBNAILINFO@@@@UAEPAXI@Z 00410400 f i * CIL library *:* CIL module *
 0001:0000f400       ??_E?$CTypedPtrArrayEx@VCPtrArray@@PAUCUSTTBINFO@@@@UAEPAXI@Z 00410400 f i * CIL library *:* CIL module *
 0001:0000f400       ??_E?$CTypedPtrArrayEx@VCPtrArray@@PAV?$CSortArray@VCObArray@@PAVCDXFdata@@@@@@UAEPAXI@Z 00410400 f i * CIL library *:* CIL module *
 0001:0000f400       ??_E?$CTypedPtrArrayEx@VCPtrArray@@PAV?$CTypedPtrListEx@VCObList@@PAVCDXFdata@@@@@@UAEPAXI@Z 00410400 f i * CIL library *:* CIL module *
 0001:0000f400       ??_E?$CTypedPtrArrayEx@VCPtrArray@@PAVCDXFMake@@@@UAEPAXI@Z 00410400 f i * CIL library *:* CIL module *
 0001:0000f400       ??_E?$CTypedPtrArrayEx@VCPtrArray@@PAVCNCMakeLathe@@@@UAEPAXI@Z 00410400 f i * CIL library *:* CIL module *
 0001:0000f400       ??_E?$CTypedPtrArrayEx@VCPtrArray@@PAVCNCMakeMill@@@@UAEPAXI@Z 00410400 f i * CIL library *:* CIL module *
 0001:0000f400       ??_E?$CTypedPtrArrayEx@VCPtrArray@@PAVCNCMakeWire@@@@UAEPAXI@Z 00410400 f i * CIL library *:* CIL module *
 0001:0000f400       ??_E?$CTypedPtrArrayEx@VCPtrArray@@PAVCNCVCaddinIF@@@@UAEPAXI@Z 00410400 f i * CIL library *:* CIL module *
 0001:0000f400       ??_E?$CTypedPtrArrayEx@VCPtrArray@@PAVCNCblock@@@@UAEPAXI@Z 00410400 f i * CIL library *:* CIL module *
 0001:0000f400       ??_E?$CTypedPtrArrayEx@VCPtrArray@@PAVCNCdata@@@@UAEPAXI@Z 00410400 f i * CIL library *:* CIL module *
 0001:0000f400       ??_G?$CSortArray@VCPtrArray@@PAUCADBINDINFO@@@@UAEPAXI@Z 00410400 f i DXFDoc.obj
 0001:0000f400       ??_G?$CSortArray@VCPtrArray@@PAUTHUMBNAILINFO@@@@UAEPAXI@Z 00410400 f i ThumbnailDlg.obj
 0001:0000f400       ??_G?$CTypedPtrArrayEx@VCPtrArray@@PAUCUSTTBINFO@@@@UAEPAXI@Z 00410400 f i CustomToolBar.obj
 0001:0000f400       ??_G?$CTypedPtrArrayEx@VCPtrArray@@PAV?$CSortArray@VCObArray@@PAVCDXFdata@@@@@@UAEPAXI@Z 00410400 f i TH_MakeNCD.obj
 0001:0000f400       ??_G?$CTypedPtrArrayEx@VCPtrArray@@PAV?$CTypedPtrListEx@VCObList@@PAVCDXFdata@@@@@@UAEPAXI@Z 00410400 f i DXFshape.obj
 0001:0000f400       ??_G?$CTypedPtrArrayEx@VCPtrArray@@PAVCDXFMake@@@@UAEPAXI@Z 00410400 f i DXFDoc.obj
 0001:0000f400       ??_G?$CTypedPtrArrayEx@VCPtrArray@@PAVCNCMakeLathe@@@@UAEPAXI@Z 00410400 f i TH_MakeLathe.obj
 0001:0000f400       ??_G?$CTypedPtrArrayEx@VCPtrArray@@PAVCNCMakeMill@@@@UAEPAXI@Z 00410400 f i TH_MakeNCD.obj
 0001:0000f400       ??_G?$CTypedPtrArrayEx@VCPtrArray@@PAVCNCMakeWire@@@@UAEPAXI@Z 00410400 f i TH_MakeWire.obj
 0001:0000f400       ??_G?$CTypedPtrArrayEx@VCPtrArray@@PAVCNCVCaddinIF@@@@UAEPAXI@Z 00410400 f i NCVC.obj
 0001:0000f400       ??_G?$CTypedPtrArrayEx@VCPtrArray@@PAVCNCblock@@@@UAEPAXI@Z 00410400 f i NCDoc.obj
 0001:0000f400       ??_G?$CTypedPtrArrayEx@VCPtrArray@@PAVCNCdata@@@@UAEPAXI@Z 00410400 f i NCdata.obj
 0001:0000f440       ??1CCustomToolBar@@UAE@XZ  00410440 f   CustomToolBar.obj
 0001:0000f4f0       ??1CUSTTBINFO@@QAE@XZ      004104f0 f i CustomToolBar.obj
 0001:0000f500       ?LoadToolBarEx@CCustomToolBar@@QAEHPBDPAUCUSTTBBUTTON@@H@Z 00410500 f   CustomToolBar.obj
 0001:0000f810       ??0CUSTTBINFO@@QAE@XZ      00410810 f i CustomToolBar.obj
 0001:0000f820       ?SetCustomButtons@CCustomToolBar@@QAEHPBDPAVCImageList@@1QAUCUSTTBINFO@@H@Z 00410820 f   CustomToolBar.obj
 0001:0000fa70       ?LoadToolBarItem@CCustomToolBar@@IAEHPBDAAV?$CMap@GAAGHAAH@@@Z 00410a70 f   CustomToolBar.obj
 0001:0000fb70       ?RestoreState@CCustomToolBar@@IAEXXZ 00410b70 f   CustomToolBar.obj
 0001:0000fcd0       ?RemoveAllButtons@CCustomToolBar@@IAEXXZ 00410cd0 f   CustomToolBar.obj
 0001:0000fd60       ?GetValueName@CCustomToolBar@@IAE?AV?$CStringT@DV?$StrTraitMFC_DLL@DV?$ChTraitsCRT@D@ATL@@@@@ATL@@XZ 00410d60 f   CustomToolBar.obj
 0001:0000fde0       ?OnDestroy@CCustomToolBar@@IAEXXZ 00410de0 f   CustomToolBar.obj
 0001:0000ff40       ?OnNotifyQueryInsertOrDelete@CCustomToolBar@@IAEXPAUtagNMHDR@@PAJ@Z 00410f40 f   CustomToolBar.obj
 0001:0000ff50       ?OnNotifyGetButtonInfo@CCustomToolBar@@IAEXPAUtagNMHDR@@PAJ@Z 00410f50 f   CustomToolBar.obj
 0001:0000ffc0       ?OnNotifyReset@CCustomToolBar@@IAEXPAUtagNMHDR@@PAJ@Z 00410fc0 f   CustomToolBar.obj
 0001:00010000       ?OnNotifyToolBarChange@CCustomToolBar@@IAEXPAUtagNMHDR@@PAJ@Z 00411000 f   CustomToolBar.obj
 0001:00010030       ??1?$CMap@GAAGHAAH@@UAE@XZ 00411030 f i CustomToolBar.obj
 0001:000100b0       ?Serialize@?$CMap@GAAGHAAH@@UAEXAAVCArchive@@@Z 004110b0 f i CustomToolBar.obj
 0001:00010170       ??_E?$CMap@GAAGHAAH@@UAEPAXI@Z 00411170 f i * CIL library *:* CIL module *
 0001:00010170       ??_G?$CMap@GAAGHAAH@@UAEPAXI@Z 00411170 f i CustomToolBar.obj
 0001:00010230       ??A?$CMap@GAAGHAAH@@QAEAAHAAG@Z 00411230 f i CustomToolBar.obj
 0001:00010390       ?GetAssocAt@?$CMap@GAAGHAAH@@IBEPAVCAssoc@1@AAGAAI1@Z 00411390 f i CustomToolBar.obj
 0001:00010400       ??$SerializeElements@G@@YGXAAVCArchive@@PAGH@Z 00411400 f i CustomToolBar.obj
 0001:00010490       ??$SerializeElements@H@@YGXAAVCArchive@@PAHH@Z 00411490 f i CustomToolBar.obj
 0001:00010490       ??$SerializeElements@PAV?$CTypedPtrArrayEx@VCObArray@@PAVCDXFdata@@@@@@YGXAAVCArchive@@PAPAV?$CTypedPtrArrayEx@VCObArray@@PAVCDXFdata@@@@H@Z 00411490 f i DXFshape.obj
 0001:00010520       ??HATL@@YA?AV?$CStringT@DV?$StrTraitMFC_DLL@DV?$ChTraitsCRT@D@ATL@@@@@0@PBDABV10@@Z 00411520 f i CustomToolBar.obj
 0001:000105c0       ?GetSubTreeRegKey@@YA?AV?$CStringT@DV?$StrTraitMFC_DLL@DV?$ChTraitsCRT@D@ATL@@@@@ATL@@HH@Z 004115c0 f i CustomToolBar.obj
 0001:000106d0       ?Open@CRegKey@ATL@@QAEJPAUHKEY__@@PBDK@Z 004116d0 f i CustomToolBar.obj
 0001:00010790       ??1CRegKey@ATL@@QAE@XZ     00411790 f i CustomToolBar.obj
 0001:000107b0       ??0CDocBase@@IAE@XZ        004117b0 f   DocBase.obj
 0001:00010890       ??_ECDocBase@@UAEPAXI@Z    00411890 f i * CIL library *:* CIL module *
 0001:00010890       ??_GCDocBase@@UAEPAXI@Z    00411890 f i DocBase.obj
 0001:000108e0       ?SetPathName@CDocBase@@UAEXPBDH@Z 004118e0 f   DocBase.obj
 0001:00010910       ?ReportSaveLoadException@CDocBase@@UAEXPBDPAVCException@@HI@Z 00411910 f   DocBase.obj
 0001:00010980       ?SetModifiedFlag@CDocBase@@UAEXH@Z 00411980 f   DocBase.obj
 0001:00010a50       ?OnOpenDocumentBase@CDocBase@@IAEHPBD@Z 00411a50 f   DocBase.obj
 0001:00010b70       ?FileChangeNotificationThread@@YAIPAX@Z 00411b70 f   DocBase.obj
 0001:00010d60       ?Read3dModel@@YAPAVBODY@@PBD0@Z 00411d60 f   DocBase.obj
 0001:00011070       ??_ECDxfAutoPocketgDlg@@UAEPAXI@Z 00412070 f i * CIL library *:* CIL module *
 0001:00011070       ??_GCDxfAutoPocketgDlg@@UAEPAXI@Z 00412070 f i DxfAutoPocketDlg.obj
 0001:000110f0       ??1CDxfAutoPocketgDlg@@UAE@XZ 004120f0 f i DxfAutoPocketDlg.obj
 0001:00011140       ?DoDataExchange@CDxfAutoPocketgDlg@@MAEXPAVCDataExchange@@@Z 00412140 f   DxfAutoPocketDlg.obj
 0001:000111b0       ?OnInitDialog@CDxfAutoPocketgDlg@@MAEHXZ 004121b0 f   DxfAutoPocketDlg.obj
 0001:00011200       ?OnOK@CDxfAutoPocketgDlg@@MAEXXZ 00412200 f   DxfAutoPocketDlg.obj
 0001:00011460       ?SetEllipseArgv_Circle@CDXFcircle@@IAEXPBUDXFBLOCK@@PAUDXFEARGV@@MMH@Z 00412460 f i DXFBlock.obj
 0001:000115b0       ?CopyBlock@CDXFBlockData@@QAEXPBV1@PBUDXFBLOCK@@@Z 004125b0 f   DXFBlock.obj
 0001:000118d0       ?CreateObject@CDXFChild@@SGPAVCObject@@XZ 004128d0 f   DXFChild.obj
 0001:00011980       ?GetRuntimeClass@CDXFChild@@UBEPAUCRuntimeClass@@XZ 00412980 f   DXFChild.obj
 0001:00011990       ?GetMessageMap@CDXFChild@@MBEPBUAFX_MSGMAP@@XZ 00412990 f   DXFChild.obj
 0001:000119a0       ?GetMessageMap@CDXFFrameSplit@@MBEPBUAFX_MSGMAP@@XZ 004129a0 f   DXFChild.obj
 0001:000119b0       ??_ECDXFChild@@UAEPAXI@Z   004129b0 f i * CIL library *:* CIL module *
 0001:000119b0       ??_GCDXFChild@@UAEPAXI@Z   004129b0 f i DXFChild.obj
 0001:00011a10       ??1CDXFFrameSplit@@UAE@XZ  00412a10 f i DXFChild.obj
 0001:00011a10       ??1CNCFrameSplit@@UAE@XZ   00412a10 f i NCChild.obj
 0001:00011a10       ??1CNCViewSplit@@UAE@XZ    00412a10 f i NCViewSplit.obj
 0001:00011a20       ??_ECDXFFrameSplit@@UAEPAXI@Z 00412a20 f i * CIL library *:* CIL module *
 0001:00011a20       ??_ECNCFrameSplit@@UAEPAXI@Z 00412a20 f i * CIL library *:* CIL module *
 0001:00011a20       ??_GCDXFFrameSplit@@UAEPAXI@Z 00412a20 f i DXFChild.obj
 0001:00011a20       ??_GCNCFrameSplit@@UAEPAXI@Z 00412a20 f i NCChild.obj
 0001:00011a60       ?OnCreateClient@CDXFChild@@MAEHPAUtagCREATESTRUCTA@@PAUCCreateContext@@@Z 00412a60 f   DXFChild.obj
 0001:00011b30       ?OnCmdMsg@CDXFChild@@UAEHIHPAXPAUAFX_CMDHANDLERINFO@@@Z 00412b30 f   DXFChild.obj
 0001:00011c10       ?SetDataInfo@CDXFChild@@QAEXPBVCDXFDoc@@@Z 00412c10 f   DXFChild.obj
 0001:00011cc0       ?ShowShapeView@CDXFChild@@QAEXXZ 00412cc0 f   DXFChild.obj
 0001:00011d90       ?OnCreate@CDXFChild@@IAEHPAUtagCREATESTRUCTA@@@Z 00412d90 f   DXFChild.obj
 0001:00011df0       ?OnSize@CDXFChild@@IAEXIHH@Z 00412df0 f   DXFChild.obj
 0001:00011e60       ?OnMDIActivate@CDXFChild@@IAEXHPAVCWnd@@0@Z 00412e60 f   DXFChild.obj
 0001:00011ee0       ?OnUserInitialUpdate@CDXFChild@@IAEJIJ@Z 00412ee0 f   DXFChild.obj
 0001:00011ef0       ?OnLButtonDblClk@CDXFFrameSplit@@IAEXIVCPoint@@@Z 00412ef0 f   DXFChild.obj
 0001:00011f20       ??_ECCAMHead@@UAEPAXI@Z    00412f20 f i * CIL library *:* CIL module *
 0001:00011f20       ??_GCCAMHead@@UAEPAXI@Z    00412f20 f i DXFdata.obj
 0001:00011f50       ?SetNativePoint@CDXFdata@@UAEXIABV?$CPointT@M@@@Z 00412f50 f i DXFdata.obj
 0001:00011f70       ?IsMatchPoint@CDXFdata@@QBEHABV?$CPointT@M@@@Z 00412f70 f i DXFdata.obj
 0001:00011ff0       ?IsMakeMatchPoint@CDXFpoint@@UAEHABV?$CPointT@M@@@Z 00412ff0 f i DXFdata.obj
 0001:00012030       ?GetEdgeGap@CDXFpoint@@UAEMABV?$CPointT@M@@H@Z 00413030 f i DXFdata.obj
 0001:00012080       ?GetEndCutterPoint@CDXFpoint@@UBE?BV?$CPointT@M@@XZ 00413080 f i DXFdata.obj
 0001:00012080       ?GetStartCutterPoint@CDXFarc@@UBE?BV?$CPointT@M@@XZ 00413080 f i DXFdata.obj
 0001:00012080       ?GetStartCutterPoint@CDXFline@@UBE?BV?$CPointT@M@@XZ 00413080 f i DXFdata.obj
 0001:00012080       ?GetStartCutterPoint@CDXFpoint@@UBE?BV?$CPointT@M@@XZ 00413080 f i DXFdata.obj
 0001:000120a0       ?GetEndMakePoint@CDXFpoint@@UBE?BV?$CPointT@M@@XZ 004130a0 f i DXFdata.obj
 0001:000120a0       ?GetStartMakePoint@CDXFarc@@UBE?BV?$CPointT@M@@XZ 004130a0 f i DXFdata.obj
 0001:000120a0       ?GetStartMakePoint@CDXFline@@UBE?BV?$CPointT@M@@XZ 004130a0 f i DXFdata.obj
 0001:000120a0       ?GetStartMakePoint@CDXFpoint@@UBE?BV?$CPointT@M@@XZ 004130a0 f i DXFdata.obj
 0001:000120c0       ?GetLength@CDXFpoint@@UBEMXZ 004130c0 f i DXFdata.obj
 0001:000120c0       ?OrgTuning_XY@CDXFpoint@@SAMPBV1@@Z 004130c0 f i DXFdata.obj
 0001:000120d0       ?IsMakeTarget@CDXFline@@UBEHXZ 004130d0 f i DXFdata.obj
 0001:00012120       ?IsMakeMatchPoint@CDXFarc@@UAEHABV?$CPointT@M@@@Z 00413120 f i DXFdata.obj
 0001:00012120       ?IsMakeMatchPoint@CDXFline@@UAEHABV?$CPointT@M@@@Z 00413120 f i DXFdata.obj
 0001:000121c0       ?GetEdgeGap@CDXFarc@@UAEMABV?$CPointT@M@@H@Z 004131c0 f i DXFdata.obj
 0001:000121c0       ?GetEdgeGap@CDXFline@@UAEMABV?$CPointT@M@@H@Z 004131c0 f i DXFdata.obj
 0001:00012270       ?GetEndCutterPoint@CDXFarc@@UBE?BV?$CPointT@M@@XZ 00413270 f i DXFdata.obj
 0001:00012270       ?GetEndCutterPoint@CDXFline@@UBE?BV?$CPointT@M@@XZ 00413270 f i DXFdata.obj
 0001:00012290       ?GetEndMakePoint@CDXFarc@@UBE?BV?$CPointT@M@@XZ 00413290 f i DXFdata.obj
 0001:00012290       ?GetEndMakePoint@CDXFline@@UBE?BV?$CPointT@M@@XZ 00413290 f i DXFdata.obj
 0001:000122b0       ?GetLength@CDXFline@@UBEMXZ 004132b0 f i DXFdata.obj
 0001:00012300       ?GetQuarterPoint@CDXFcircle@@IBEXABV?$CPointT@M@@QAV2@@Z 00413300 f i DXFdata.obj
 0001:00012420       ?IsMakeTarget@CDXFcircle@@UBEHXZ 00413420 f i DXFdata.obj
 0001:00012440       ?IsMakeMatchPoint@CDXFcircle@@UAEHABV?$CPointT@M@@@Z 00413440 f i DXFdata.obj
 0001:00012500       ?GetEdgeGap@CDXFcircle@@UAEMABV?$CPointT@M@@H@Z 00413500 f i DXFdata.obj
 0001:000125f0       ?GetEndCutterPoint@CDXFcircle@@UBE?BV?$CPointT@M@@XZ 004135f0 f i DXFdata.obj
 0001:000125f0       ?GetStartCutterPoint@CDXFcircle@@UBE?BV?$CPointT@M@@XZ 004135f0 f i DXFdata.obj
 0001:00012620       ?GetEndMakePoint@CDXFcircle@@UBE?BV?$CPointT@M@@XZ 00413620 f i DXFdata.obj
 0001:00012620       ?GetStartMakePoint@CDXFcircle@@UBE?BV?$CPointT@M@@XZ 00413620 f i DXFdata.obj
 0001:00012650       ?GetLength@CDXFcircle@@UBEMXZ 00413650 f i DXFdata.obj
 0001:00012660       ?IsMakeMatchPoint@CDXFcircleEx@@UAEHABV?$CPointT@M@@@Z 00413660 f i DXFdata.obj
 0001:000126b0       ?GetEdgeGap@CDXFcircleEx@@UAEMABV?$CPointT@M@@H@Z 004136b0 f i DXFdata.obj
 0001:00012700       ?GetStartCutterPoint@CDXFcircleEx@@UBE?BV?$CPointT@M@@XZ 00413700 f i DXFdata.obj
 0001:00012720       ?GetStartMakePoint@CDXFcircleEx@@UBE?BV?$CPointT@M@@XZ 00413720 f i DXFdata.obj
 0001:00012740       ?GetEndCutterPoint@CDXFcircleEx@@UBE?BV?$CPointT@M@@XZ 00413740 f i DXFdata.obj
 0001:00012750       ?GetEndMakePoint@CDXFcircleEx@@UBE?BV?$CPointT@M@@XZ 00413750 f i DXFdata.obj
 0001:00012760       ?SetNativePoint@CDXFarc@@UAEXIABV?$CPointT@M@@@Z 00413760 f i DXFdata.obj
 0001:000127e0       ?IsMakeTarget@CDXFarc@@UBEHXZ 004137e0 f i DXFdata.obj
 0001:000127e0       ?IsMakeTarget@CDXFellipse@@UBEHXZ 004137e0 f i DXFdata.obj
 0001:00012830       ?GetLength@CDXFarc@@UBEMXZ 00413830 f i DXFdata.obj
 0001:00012890       ?IsMakeMatchPoint@CDXFellipse@@UAEHABV?$CPointT@M@@@Z 00413890 f i DXFdata.obj
 0001:00012a00       ?IsStartEqEnd@CDXFellipse@@UBEHXZ 00413a00 f i DXFdata.obj
 0001:00012a10       ?GetEdgeGap@CDXFellipse@@UAEMABV?$CPointT@M@@H@Z 00413a10 f i DXFdata.obj
 0001:00012bd0       ?GetStartCutterPoint@CDXFellipse@@UBE?BV?$CPointT@M@@XZ 00413bd0 f i DXFdata.obj
 0001:00012c20       ?GetStartMakePoint@CDXFellipse@@UBE?BV?$CPointT@M@@XZ 00413c20 f i DXFdata.obj
 0001:00012c70       ?GetEndCutterPoint@CDXFellipse@@UBE?BV?$CPointT@M@@XZ 00413c70 f i DXFdata.obj
 0001:00012cc0       ?GetEndMakePoint@CDXFellipse@@UBE?BV?$CPointT@M@@XZ 00413cc0 f i DXFdata.obj
 0001:00012d10       ?IsStartEqEnd@CDXFpolyline@@UBEHXZ 00413d10 f i DXFdata.obj
 0001:00012d20       ?GetEdgeGap@CDXFtext@@UAEMABV?$CPointT@M@@H@Z 00413d20 f i DXFdata.obj
 0001:00012d30       ?CreateObject@CCAMHead@@SGPAVCObject@@XZ 00413d30 f   DXFdata.obj
 0001:00012d50       ?_GetBaseClass@CCAMHead@@KGPAUCRuntimeClass@@XZ 00413d50 f   DXFdata.obj
 0001:00012d50       ?_GetBaseClass@CDXFchain@@KGPAUCRuntimeClass@@XZ 00413d50 f   DXFshape.obj
 0001:00012d50       ?_GetBaseClass@CDXFdata@@KGPAUCRuntimeClass@@XZ 00413d50 f   DXFdata.obj
 0001:00012d50       ?_GetBaseClass@CDXFmap@@KGPAUCRuntimeClass@@XZ 00413d50 f   DXFshape.obj
 0001:00012d50       ?_GetBaseClass@CDXFshape@@KGPAUCRuntimeClass@@XZ 00413d50 f   DXFshape.obj
 0001:00012d50       ?_GetBaseClass@CDXFworking@@KGPAUCRuntimeClass@@XZ 00413d50 f   DXFshape.obj
 0001:00012d50       ?_GetBaseClass@CLayerData@@KGPAUCRuntimeClass@@XZ 00413d50 f   Layer.obj
 0001:00012d60       ?GetRuntimeClass@CCAMHead@@UBEPAUCRuntimeClass@@XZ 00413d60 f   DXFdata.obj
 0001:00012d70       ?GetRuntimeClass@CDXFdata@@UBEPAUCRuntimeClass@@XZ 00413d70 f   DXFdata.obj
 0001:00012d70       ?_GetBaseClass@CDXFpoint@@KGPAUCRuntimeClass@@XZ 00413d70 f   DXFdata.obj
 0001:00012d80       ?CreateObject@CDXFpoint@@SGPAVCObject@@XZ 00413d80 f   DXFdata.obj
 0001:00012e30       ?GetRuntimeClass@CDXFpoint@@UBEPAUCRuntimeClass@@XZ 00413e30 f   DXFdata.obj
 0001:00012e30       ?_GetBaseClass@CDXFline@@KGPAUCRuntimeClass@@XZ 00413e30 f   DXFdata.obj
 0001:00012e30       ?_GetBaseClass@CDXFtext@@KGPAUCRuntimeClass@@XZ 00413e30 f   DXFdata.obj
 0001:00012e40       ?CreateObject@CDXFline@@SGPAVCObject@@XZ 00413e40 f   DXFdata.obj
 0001:00012ff0       ?GetRuntimeClass@CDXFline@@UBEPAUCRuntimeClass@@XZ 00413ff0 f   DXFdata.obj
 0001:00012ff0       ?_GetBaseClass@CDXFcircle@@KGPAUCRuntimeClass@@XZ 00413ff0 f   DXFdata.obj
 0001:00012ff0       ?_GetBaseClass@CDXFpolyline@@KGPAUCRuntimeClass@@XZ 00413ff0 f   DXFdata.obj
 0001:00013000       ?CreateObject@CDXFcircle@@SGPAVCObject@@XZ 00414000 f   DXFdata.obj
 0001:00013240       ?GetRuntimeClass@CDXFcircle@@UBEPAUCRuntimeClass@@XZ 00414240 f   DXFdata.obj
 0001:00013240       ?_GetBaseClass@CDXFarc@@KGPAUCRuntimeClass@@XZ 00414240 f   DXFdata.obj
 0001:00013240       ?_GetBaseClass@CDXFcircleEx@@KGPAUCRuntimeClass@@XZ 00414240 f   DXFdata.obj
 0001:00013250       ?CreateObject@CDXFcircleEx@@SGPAVCObject@@XZ 00414250 f   DXFdata.obj
 0001:000132c0       ?GetRuntimeClass@CDXFcircleEx@@UBEPAUCRuntimeClass@@XZ 004142c0 f   DXFdata.obj
 0001:000132d0       ?CreateObject@CDXFarc@@SGPAVCObject@@XZ 004142d0 f   DXFdata.obj
 0001:00013340       ?GetRuntimeClass@CDXFarc@@UBEPAUCRuntimeClass@@XZ 00414340 f   DXFdata.obj
 0001:00013340       ?_GetBaseClass@CDXFellipse@@KGPAUCRuntimeClass@@XZ 00414340 f   DXFdata.obj
 0001:00013350       ?CreateObject@CDXFellipse@@SGPAVCObject@@XZ 00414350 f   DXFdata.obj
 0001:000133c0       ?GetRuntimeClass@CDXFellipse@@UBEPAUCRuntimeClass@@XZ 004143c0 f   DXFdata.obj
 0001:000133d0       ?CreateObject@CDXFpolyline@@SGPAVCObject@@XZ 004143d0 f   DXFdata.obj
 0001:00013440       ?GetRuntimeClass@CDXFpolyline@@UBEPAUCRuntimeClass@@XZ 00414440 f   DXFdata.obj
 0001:00013450       ?CreateObject@CDXFtext@@SGPAVCObject@@XZ 00414450 f   DXFdata.obj
 0001:000135c0       ?GetRuntimeClass@CDXFtext@@UBEPAUCRuntimeClass@@XZ 004145c0 f   DXFdata.obj
 0001:000135d0       ?Serialize@CCAMHead@@UAEXAAVCArchive@@@Z 004145d0 f   DXFdata.obj
 0001:00013820       ??0CDXFdata@@IAE@W4ENDXFTYPE@@PAVCLayerData@@HK@Z 00414820 f   DXFdata.obj
 0001:00013980       ??_ECDXFdata@@UAEPAXI@Z    00414980 f i * CIL library *:* CIL module *
 0001:00013980       ??_GCDXFdata@@UAEPAXI@Z    00414980 f i DXFdata.obj
 0001:000139e0       ?Serialize@CDXFdata@@UAEXAAVCArchive@@@Z 004149e0 f   DXFdata.obj
 0001:00013a90       ?GetDrawPen@CDXFdata@@QBEPAVCPen@@XZ 00414a90 f   DXFdata.obj
 0001:00013b10       ?SwapMakePt@CDXFdata@@UAEXH@Z 00414b10 f   DXFdata.obj
 0001:00013b70       ?SwapNativePt@CDXFdata@@UAEXXZ 00414b70 f   DXFdata.obj
 0001:00013ba0       ?RoundObjPoint@CDXFdata@@UAEXABV?$CPointT@M@@M@Z 00414ba0 f   DXFdata.obj
 0001:00013c80       ?IsDirectionPoint@CDXFdata@@UAEHABV?$CPointT@M@@0@Z 00414c80 f   DXFdata.obj
 0001:00013cd0       ?XRev@CDXFdata@@MAEXXZ     00414cd0 f   DXFdata.obj
 0001:00013cd0       ?XRev@CDXFpolyline@@MAEXXZ 00414cd0 f   DXFdata.obj
 0001:00013d10       ?YRev@CDXFdata@@MAEXXZ     00414d10 f   DXFdata.obj
 0001:00013d10       ?YRev@CDXFpolyline@@MAEXXZ 00414d10 f   DXFdata.obj
 0001:00013d50       ?OrgTuningBase@CDXFdata@@IAEXXZ 00414d50 f   DXFdata.obj
 0001:00013dd0       ??_ECDXFpoint@@UAEPAXI@Z   00414dd0 f i * CIL library *:* CIL module *
 0001:00013dd0       ??_GCDXFpoint@@UAEPAXI@Z   00414dd0 f i DXFdata.obj
 0001:00013e30       ??1CDXFarc@@UAE@XZ         00414e30 f i DXFdata.obj
 0001:00013e30       ??1CDXFcircle@@UAE@XZ      00414e30 f i DXFdata.obj
 0001:00013e30       ??1CDXFline@@UAE@XZ        00414e30 f i DXFdata.obj
 0001:00013e30       ??1CDXFpoint@@UAE@XZ       00414e30 f i DXFdata.obj
 0001:00013e60       ??0CDXFpoint@@QAE@PBUDXFPARGV@@K@Z 00414e60 f   DXFdata.obj
 0001:00013f30       ??0CDXFpoint@@QAE@PAVCLayerData@@PBV0@PBUDXFBLOCK@@K@Z 00414f30 f   DXFdata.obj
 0001:000140c0       ?Serialize@CDXFpoint@@UAEXAAVCArchive@@@Z 004150c0 f   DXFdata.obj
 0001:000142c0       ?SetMaxRect@CDXFpoint@@MAEXXZ 004152c0 f   DXFdata.obj
 0001:00014330       ?DrawTuning@CDXFpoint@@UAEXM@Z 00415330 f   DXFdata.obj
 0001:000143f0       ?Draw@CDXFpoint@@UBEXPAVCDC@@@Z 004153f0 f   DXFdata.obj
 0001:00014490       ?OrgTuning@CDXFpoint@@UAEMH@Z 00415490 f   DXFdata.obj
 0001:00014520       ?OrgTuning_Seq@CDXFpoint@@SAMPBV1@@Z 00415520 f   DXFdata.obj
 0001:00014580       ?GetSelectPointGap@CDXFpoint@@UAEMABV?$CPointT@M@@@Z 00415580 f   DXFdata.obj
 0001:00014590       ?CheckIntersectionCircle@CDXFcircle@@UBEHABV?$CPointT@M@@M@Z 00415590 f   DXFdata.obj
 0001:00014590       ?CheckIntersectionCircle@CDXFellipse@@UBEHABV?$CPointT@M@@M@Z 00415590 f   DXFdata.obj
 0001:00014590       ?CheckIntersectionCircle@CDXFpoint@@UBEHABV?$CPointT@M@@M@Z 00415590 f   DXFdata.obj
 0001:00014590       ?GetDirectionArraw@CDXFpoint@@UAEHABV?$CPointT@M@@QAY02V2@@Z 00415590 f   DXFdata.obj
 0001:000145a0       ?GetIntersectionPoint@CDXFpoint@@UBEHPBVCDXFdata@@QAV?$CPointT@M@@H@Z 004155a0 f   DXFdata.obj
 0001:000145b0       ?GetIntersectionPoint@CDXFpoint@@UBEHABV?$CPointT@M@@0QAV2@H@Z 004155b0 f   DXFdata.obj
 0001:000145c0       ?CalcOffsetIntersectionPoint2@CNCcycle@@UBE?AV?$optional@V?$CPointT@M@@@boost@@PBVCNCdata@@MH@Z 004155c0 f   NCdata.obj
 0001:000145c0       ?CalcOffsetIntersectionPoint2@CNCdata@@UBE?AV?$optional@V?$CPointT@M@@@boost@@PBV1@MH@Z 004155c0 f   NCdata.obj
 0001:000145c0       ?CalcOffsetIntersectionPoint@CDXFcircle@@UBE?AV?$optional@V?$CPointT@M@@@boost@@PBVCDXFdata@@MH@Z 004155c0 f   DXFdata.obj
 0001:000145c0       ?CalcOffsetIntersectionPoint@CDXFpoint@@UBE?AV?$optional@V?$CPointT@M@@@boost@@PBVCDXFdata@@MH@Z 004155c0 f   DXFdata.obj
 0001:000145c0       ?CalcPerpendicularPoint@CNCcycle@@UBE?AV?$optional@V?$CPointT@M@@@boost@@W4ENPOINTORDER@@MH@Z 004155c0 f   NCdata.obj
 0001:000145c0       ?CalcPerpendicularPoint@CNCdata@@UBE?AV?$optional@V?$CPointT@M@@@boost@@W4ENPOINTORDER@@MH@Z 004155c0 f   NCdata.obj
 0001:000145d0       ?SetVectorPoint@CDXFpoint@@UBEIAAV?$vector@V?$CPointT@M@@V?$allocator@V?$CPointT@M@@@std@@@std@@M@Z 004155d0 f   DXFdata.obj
 0001:00014620       ?DrawWire@CNCcycle@@UBEXPAVCDC@@H@Z 00415620 f   NCdata.obj
 0001:00014620       ?DrawWire@CNCdata@@UBEXPAVCDC@@H@Z 00415620 f   NCdata.obj
 0001:00014620       ?DrawWireXY@CNCcycle@@UBEXPAVCDC@@H@Z 00415620 f   NCdata.obj
 0001:00014620       ?DrawWireXY@CNCdata@@UBEXPAVCDC@@H@Z 00415620 f   NCdata.obj
 0001:00014620       ?DrawWireXZ@CNCcycle@@UBEXPAVCDC@@H@Z 00415620 f   NCdata.obj
 0001:00014620       ?DrawWireXZ@CNCdata@@UBEXPAVCDC@@H@Z 00415620 f   NCdata.obj
 0001:00014620       ?DrawWireYZ@CNCcycle@@UBEXPAVCDC@@H@Z 00415620 f   NCdata.obj
 0001:00014620       ?DrawWireYZ@CNCdata@@UBEXPAVCDC@@H@Z 00415620 f   NCdata.obj
 0001:00014620       ?SetVectorPoint@CDXFellipse@@UBEXAAV?$vector@V?$CPointT@M@@V?$allocator@V?$CPointT@M@@@std@@@std@@I@Z 00415620 f   DXFdata.obj
 0001:00014620       ?SetVectorPoint@CDXFpoint@@UBEXAAV?$vector@V?$CPointT@M@@V?$allocator@V?$CPointT@M@@@std@@@std@@I@Z 00415620 f   DXFdata.obj
 0001:00014620       ?SetVectorPoint@CDXFpolyline@@UBEXAAV?$vector@V?$CPointT@M@@V?$allocator@V?$CPointT@M@@@std@@@std@@I@Z 00415620 f   DXFdata.obj
 0001:00014630       ?SetWireHeteroData@CDXFcircle@@UBEXPBVCDXFdata@@AAV?$vector@V?$CPointT@M@@V?$allocator@V?$CPointT@M@@@std@@@std@@1M@Z 00415630 f   DXFdata.obj
 0001:00014630       ?SetWireHeteroData@CDXFellipse@@UBEXPBVCDXFdata@@AAV?$vector@V?$CPointT@M@@V?$allocator@V?$CPointT@M@@@std@@@std@@1M@Z 00415630 f   DXFdata.obj
 0001:00014630       ?SetWireHeteroData@CDXFpoint@@UBEXPBVCDXFdata@@AAV?$vector@V?$CPointT@M@@V?$allocator@V?$CPointT@M@@@std@@@std@@1M@Z 00415630 f   DXFdata.obj
 0001:00014630       ?SetWireHeteroData@CDXFpolyline@@UBEXPBVCDXFdata@@AAV?$vector@V?$CPointT@M@@V?$allocator@V?$CPointT@M@@@std@@@std@@1M@Z 00415630 f   DXFdata.obj
 0001:00014640       ??_ECDXFline@@UAEPAXI@Z    00415640 f i * CIL library *:* CIL module *
 0001:00014640       ??_GCDXFline@@UAEPAXI@Z    00415640 f i DXFdata.obj
 0001:000146a0       ??0CDXFline@@IAE@W4ENDXFTYPE@@PAVCLayerData@@HK@Z 004156a0 f   DXFdata.obj
 0001:00014710       ??0CDXFline@@QAE@PBUDXFLARGV@@K@Z 00415710 f   DXFdata.obj
 0001:000148f0       ??0CDXFline@@QAE@PAVCLayerData@@PBV0@PBUDXFBLOCK@@K@Z 004158f0 f   DXFdata.obj
 0001:00014c20       ?Serialize@CDXFline@@UAEXAAVCArchive@@@Z 00415c20 f   DXFdata.obj
 0001:00015000       ?SetMaxRect@CDXFline@@MAEXXZ 00416000 f   DXFdata.obj
 0001:00015070       ?DrawTuning@CDXFline@@UAEXM@Z 00416070 f   DXFdata.obj
 0001:000150f0       ?Draw@CDXFline@@UBEXPAVCDC@@@Z 004160f0 f   DXFdata.obj
 0001:00015130       ?OrgTuning@CDXFline@@UAEMH@Z 00416130 f   DXFdata.obj
 0001:00015220       ?GetSelectPointGap@CDXFline@@UAEMABV?$CPointT@M@@@Z 00416220 f   DXFdata.obj
 0001:00015470       ?GetDirectionArraw@CDXFline@@UAEHABV?$CPointT@M@@QAY02V2@@Z 00416470 f   DXFdata.obj
 0001:00015590       ?GetIntersectionPoint@CDXFline@@UBEHPBVCDXFdata@@QAV?$CPointT@M@@H@Z 00416590 f   DXFdata.obj
 0001:00015890       ?GetIntersectionPoint@CDXFline@@UBEHABV?$CPointT@M@@0QAV2@H@Z 00416890 f   DXFdata.obj
 0001:00015b00       ?CalcOffsetIntersectionPoint@CDXFline@@UBE?AV?$optional@V?$CPointT@M@@@boost@@PBVCDXFdata@@MH@Z 00416b00 f   DXFdata.obj
 0001:00015de0       ?CheckIntersectionCircle@CDXFline@@UBEHABV?$CPointT@M@@M@Z 00416de0 f   DXFdata.obj
 0001:00015fa0       ?SetVectorPoint@CDXFline@@UBEIAAV?$vector@V?$CPointT@M@@V?$allocator@V?$CPointT@M@@@std@@@std@@M@Z 00416fa0 f   DXFdata.obj
 0001:00016050       ?SetVectorPoint@CDXFline@@UBEXAAV?$vector@V?$CPointT@M@@V?$allocator@V?$CPointT@M@@@std@@@std@@I@Z 00417050 f   DXFdata.obj
 0001:000161d0       ?SetWireHeteroData@CDXFline@@UBEXPBVCDXFdata@@AAV?$vector@V?$CPointT@M@@V?$allocator@V?$CPointT@M@@@std@@@std@@1M@Z 004171d0 f   DXFdata.obj
 0001:00016210       ??_ECDXFcircle@@UAEPAXI@Z  00417210 f i * CIL library *:* CIL module *
 0001:00016210       ??_GCDXFcircle@@UAEPAXI@Z  00417210 f i DXFdata.obj
 0001:00016270       ??0CDXFcircle@@IAE@W4ENDXFTYPE@@PAVCLayerData@@ABV?$CPointT@M@@MHHK@Z 00417270 f   DXFdata.obj
 0001:00016370       ??0CDXFcircle@@QAE@PBUDXFCARGV@@K@Z 00417370 f   DXFdata.obj
 0001:00016500       ??0CDXFcircle@@QAE@PAVCLayerData@@PBV0@PBUDXFBLOCK@@K@Z 00417500 f   DXFdata.obj
 0001:00016700       ?Serialize@CDXFcircle@@UAEXAAVCArchive@@@Z 00417700 f   DXFdata.obj
 0001:00016a40       ?SwapMakePt@CDXFcircle@@UAEXH@Z 00417a40 f   DXFdata.obj
 0001:00016a50       ?RoundObjPoint@CDXFcircle@@UAEXABV?$CPointT@M@@M@Z 00417a50 f   DXFdata.obj
 0001:00016b20       ?SetCirclePoint@CDXFcircle@@MAEXXZ 00417b20 f   DXFdata.obj
 0001:00016bb0       ?XRev@CDXFcircle@@MAEXXZ   00417bb0 f   DXFdata.obj
 0001:00016c30       ?YRev@CDXFcircle@@MAEXXZ   00417c30 f   DXFdata.obj
 0001:00016cb0       ?SetMaxRect@CDXFcircle@@MAEXXZ 00417cb0 f   DXFdata.obj
 0001:00016d80       ?IsRangeAngle@CDXFcircle@@UBEHABV?$CPointT@M@@@Z 00417d80 f   DXFdata.obj
 0001:00016d80       ?OnEraseBkgnd@CViewBaseGL@@QAEHPAVCDC@@@Z 00417d80 f   ViewBaseGL.obj
 0001:00016d80       ?OnInitPage@CTabViewBase@@MAEHH@Z 00417d80 f   NCInfoTab.obj
 0001:00016d90       ?DrawTuning@CDXFcircle@@UAEXM@Z 00417d90 f   DXFdata.obj
 0001:00016e70       ?Draw@CDXFcircle@@UBEXPAVCDC@@@Z 00417e70 f   DXFdata.obj
 0001:00016e90       ?OrgTuning@CDXFcircle@@UAEMH@Z 00417e90 f   DXFdata.obj
 0001:00017040       ?GetSelectPointGap@CDXFcircle@@UAEMABV?$CPointT@M@@@Z 00418040 f   DXFdata.obj
 0001:00017110       ?GetDirectionArraw_Circle@CDXFcircle@@IAEHQBMQBV?$CPointT@M@@QAY02V2@@Z 00418110 f   DXFdata.obj
 0001:00017220       ?GetDirectionArraw@CDXFcircle@@UAEHABV?$CPointT@M@@QAY02V2@@Z 00418220 f   DXFdata.obj
 0001:000172e0       ?IsDirectionPoint@CDXFcircle@@UAEHABV?$CPointT@M@@0@Z 004182e0 f   DXFdata.obj
 0001:00017420       ?GetIntersectionPoint@CDXFcircle@@UBEHPBVCDXFdata@@QAV?$CPointT@M@@H@Z 00418420 f   DXFdata.obj
 0001:000175d0       ?GetIntersectionPoint@CDXFcircle@@UBEHABV?$CPointT@M@@0QAV2@H@Z 004185d0 f   DXFdata.obj
 0001:00017670       ?SetVectorPoint@CDXFcircle@@UBEIAAV?$vector@V?$CPointT@M@@V?$allocator@V?$CPointT@M@@@std@@@std@@M@Z 00418670 f   DXFdata.obj
 0001:000176f0       ?SetVectorPoint@CDXFcircle@@UBEXAAV?$vector@V?$CPointT@M@@V?$allocator@V?$CPointT@M@@@std@@@std@@I@Z 004186f0 f   DXFdata.obj
 0001:000177a0       ?SetVectorPointSub@CDXFcircle@@IBEIHMMMABV?$CPointT@M@@AAV?$vector@V?$CPointT@M@@V?$allocator@V?$CPointT@M@@@std@@@std@@@Z 004187a0 f   DXFdata.obj
 0001:00017980       ??0CDXFcircleEx@@IAE@XZ    00418980 f   DXFdata.obj
 0001:000179e0       ??_ECDXFcircleEx@@UAEPAXI@Z 004189e0 f i * CIL library *:* CIL module *
 0001:000179e0       ??_GCDXFcircleEx@@UAEPAXI@Z 004189e0 f i DXFdata.obj
 0001:00017a40       ?Serialize@CDXFcircleEx@@UAEXAAVCArchive@@@Z 00418a40 f   DXFdata.obj
 0001:00017e00       ?XRev@CDXFcircleEx@@MAEXXZ 00418e00 f   DXFdata.obj
 0001:00017e30       ?YRev@CDXFcircleEx@@MAEXXZ 00418e30 f   DXFdata.obj
 0001:00017e60       ?Draw@CDXFcircleEx@@UBEXPAVCDC@@@Z 00418e60 f   DXFdata.obj
 0001:00017ef0       ?OrgTuning@CDXFcircleEx@@UAEMH@Z 00418ef0 f   DXFdata.obj
 0001:00017f80       ??0CDXFarc@@IAE@XZ         00418f80 f   DXFdata.obj
 0001:00017fd0       ??_ECDXFarc@@UAEPAXI@Z     00418fd0 f i * CIL library *:* CIL module *
 0001:00017fd0       ??_GCDXFarc@@UAEPAXI@Z     00418fd0 f i DXFdata.obj
 0001:00018030       ??0CDXFarc@@QAE@PBUDXFAARGV@@K@Z 00419030 f   DXFdata.obj
 0001:00018240       ??0CDXFarc@@QAE@PBUDXFAARGV@@HABV?$CPointT@M@@1K@Z 00419240 f   DXFdata.obj
 0001:00018340       ??0CDXFarc@@QAE@PAVCLayerData@@PBV0@PBUDXFBLOCK@@K@Z 00419340 f   DXFdata.obj
 0001:00018740       ?Serialize@CDXFarc@@UAEXAAVCArchive@@@Z 00419740 f   DXFdata.obj
 0001:00018e70       ?SetMaxRect@CDXFarc@@MAEXXZ 00419e70 f   DXFdata.obj
 0001:000191b0       ?SwapMakePt@CDXFarc@@UAEXH@Z 0041a1b0 f   DXFdata.obj
 0001:00019230       ?SwapNativePt@CDXFarc@@UAEXXZ 0041a230 f   DXFdata.obj
 0001:000192b0       ?RoundObjPoint@CDXFarc@@UAEXABV?$CPointT@M@@M@Z 0041a2b0 f   DXFdata.obj
 0001:000193d0       ?SetVectorPoint@CDXFarc@@UBEIAAV?$vector@V?$CPointT@M@@V?$allocator@V?$CPointT@M@@@std@@@std@@M@Z 0041a3d0 f   DXFdata.obj
 0001:00019500       ?SetVectorPoint@CDXFarc@@UBEXAAV?$vector@V?$CPointT@M@@V?$allocator@V?$CPointT@M@@@std@@@std@@I@Z 0041a500 f   DXFdata.obj
 0001:00019590       ?SetWireHeteroData@CDXFarc@@UBEXPBVCDXFdata@@AAV?$vector@V?$CPointT@M@@V?$allocator@V?$CPointT@M@@@std@@@std@@1M@Z 0041a590 f   DXFdata.obj
 0001:00019650       ?XRev@CDXFarc@@MAEXXZ      0041a650 f   DXFdata.obj
 0001:000196a0       ?YRev@CDXFarc@@MAEXXZ      0041a6a0 f   DXFdata.obj
 0001:000196f0       ?AngleTuning@CDXFarc@@IAEXXZ 0041a6f0 f   DXFdata.obj
 0001:000199a0       ?IsRangeAngle@CDXFarc@@UBEHABV?$CPointT@M@@@Z 0041a9a0 f   DXFdata.obj
 0001:00019ce0       ?DrawTuning@CDXFarc@@UAEXM@Z 0041ace0 f   DXFdata.obj
 0001:00019d40       ?Draw@CDXFarc@@UBEXPAVCDC@@@Z 0041ad40 f   DXFdata.obj
 0001:00019f60       ?OrgTuning@CDXFarc@@UAEMH@Z 0041af60 f   DXFdata.obj
 0001:0001a000       ?GetSelectPointGap@CDXFarc@@UAEMABV?$CPointT@M@@@Z 0041b000 f   DXFdata.obj
 0001:0001a1a0       ?GetDirectionArraw@CDXFarc@@UAEHABV?$CPointT@M@@QAY02V2@@Z 0041b1a0 f   DXFdata.obj
 0001:0001a240       ?GetIntersectionPoint@CDXFarc@@UBEHPBVCDXFdata@@QAV?$CPointT@M@@H@Z 0041b240 f   DXFdata.obj
 0001:0001a480       ?GetIntersectionPoint@CDXFarc@@UBEHABV?$CPointT@M@@0QAV2@H@Z 0041b480 f   DXFdata.obj
 0001:0001a540       ?CalcOffsetIntersectionPoint@CDXFarc@@UBE?AV?$optional@V?$CPointT@M@@@boost@@PBVCDXFdata@@MH@Z 0041b540 f   DXFdata.obj
 0001:0001a8a0       ?CheckIntersectionCircle@CDXFarc@@UBEHABV?$CPointT@M@@M@Z 0041b8a0 f   DXFdata.obj
 0001:0001aa50       ??0CDXFellipse@@IAE@XZ     0041ba50 f   DXFdata.obj
 0001:0001ab20       ??_ECDXFellipse@@UAEPAXI@Z 0041bb20 f i * CIL library *:* CIL module *
 0001:0001ab20       ??_GCDXFellipse@@UAEPAXI@Z 0041bb20 f i DXFdata.obj
 0001:0001ab80       ??0CDXFellipse@@QAE@PBUDXFEARGV@@K@Z 0041bb80 f   DXFdata.obj
 0001:0001acc0       ??0CDXFellipse@@QAE@PAVCLayerData@@PBV0@PBUDXFBLOCK@@K@Z 0041bcc0 f   DXFdata.obj
 0001:0001b130       ?Serialize@CDXFellipse@@UAEXAAVCArchive@@@Z 0041c130 f   DXFdata.obj
 0001:0001b940       ?Construct@CDXFellipse@@AAEXXZ 0041c940 f   DXFdata.obj
 0001:0001ba60       ?EllipseCalc@CDXFellipse@@AAEXXZ 0041ca60 f   DXFdata.obj
 0001:0001bce0       ?SetMaxRect@CDXFellipse@@MAEXXZ 0041cce0 f   DXFdata.obj
 0001:0001c0e0       ?SwapMakePt@CDXFellipse@@UAEXH@Z 0041d0e0 f   DXFdata.obj
 0001:0001c180       ?SwapNativePt@CDXFellipse@@UAEXXZ 0041d180 f   DXFdata.obj
 0001:0001c200       ?RoundObjPoint@CDXFellipse@@UAEXABV?$CPointT@M@@M@Z 0041d200 f   DXFdata.obj
 0001:0001c310       ?SetVectorPoint@CDXFellipse@@UBEIAAV?$vector@V?$CPointT@M@@V?$allocator@V?$CPointT@M@@@std@@@std@@M@Z 0041d310 f   DXFdata.obj
 0001:0001c680       ?XRev@CDXFellipse@@MAEXXZ  0041d680 f   DXFdata.obj
 0001:0001c7b0       ?YRev@CDXFellipse@@MAEXXZ  0041d7b0 f   DXFdata.obj
 0001:0001c8e0       ?XYRev@CDXFellipse@@AAEXABV?$CPointT@M@@0@Z 0041d8e0 f   DXFdata.obj
 0001:0001ca70       ?DrawTuning@CDXFellipse@@UAEXM@Z 0041da70 f   DXFdata.obj
 0001:0001cae0       ?Draw@CDXFellipse@@UBEXPAVCDC@@@Z 0041dae0 f   DXFdata.obj
 0001:0001ce10       ?OrgTuning@CDXFellipse@@UAEMH@Z 0041de10 f   DXFdata.obj
 0001:0001d180       ?GetSelectPointGap@CDXFellipse@@UAEMABV?$CPointT@M@@@Z 0041e180 f   DXFdata.obj
 0001:0001d3b0       ?GetDirectionArraw@CDXFellipse@@UAEHABV?$CPointT@M@@QAY02V2@@Z 0041e3b0 f   DXFdata.obj
 0001:0001d760       ?IsDirectionPoint@CDXFellipse@@UAEHABV?$CPointT@M@@0@Z 0041e760 f   DXFdata.obj
 0001:0001d8c0       ?GetIntersectionPoint@CDXFellipse@@UBEHPBVCDXFdata@@QAV?$CPointT@M@@H@Z 0041e8c0 f   DXFdata.obj
 0001:0001da70       ?GetIntersectionPoint@CDXFellipse@@UBEHABV?$CPointT@M@@0QAV2@H@Z 0041ea70 f   DXFdata.obj
 0001:0001db70       ?CalcOffsetIntersectionPoint@CDXFellipse@@UBE?AV?$optional@V?$CPointT@M@@@boost@@PBVCDXFdata@@MH@Z 0041eb70 f   DXFdata.obj
 0001:0001dda0       ??0CDXFpolyline@@QAE@XZ    0041eda0 f   DXFdata.obj
 0001:0001df70       ??_ECDXFpolyline@@UAEPAXI@Z 0041ef70 f i * CIL library *:* CIL module *
 0001:0001df70       ??_GCDXFpolyline@@UAEPAXI@Z 0041ef70 f i DXFdata.obj
 0001:0001e050       ??1?$CTypedPtrList@VCObList@@PAVCDXFDoc@@@@UAE@XZ 0041f050 f i NCVC.obj
 0001:0001e050       ??1?$CTypedPtrListEx@VCObList@@PAVCDXFdata@@@@UAE@XZ 0041f050 f i DXFdata.obj
 0001:0001e050       ??1?$CTypedPtrListEx@VCObList@@PAVCDXFworking@@@@UAE@XZ 0041f050 f i DXFshape.obj
 0001:0001e050       ??1?$CTypedPtrListEx@VCObList@@PAVCDXFworkingOutline@@@@UAE@XZ 0041f050 f i DXFshape.obj
 0001:0001e060       ??_E?$CTypedPtrList@VCObList@@PAVCDXFDoc@@@@UAEPAXI@Z 0041f060 f i * CIL library *:* CIL module *
 0001:0001e060       ??_E?$CTypedPtrListEx@VCObList@@PAVCDXFdata@@@@UAEPAXI@Z 0041f060 f i * CIL library *:* CIL module *
 0001:0001e060       ??_E?$CTypedPtrListEx@VCObList@@PAVCDXFworking@@@@UAEPAXI@Z 0041f060 f i * CIL library *:* CIL module *
 0001:0001e060       ??_E?$CTypedPtrListEx@VCObList@@PAVCDXFworkingOutline@@@@UAEPAXI@Z 0041f060 f i * CIL library *:* CIL module *
 0001:0001e060       ??_G?$CTypedPtrList@VCObList@@PAVCDXFDoc@@@@UAEPAXI@Z 0041f060 f i NCVC.obj
 0001:0001e060       ??_G?$CTypedPtrListEx@VCObList@@PAVCDXFdata@@@@UAEPAXI@Z 0041f060 f i DXFdata.obj
 0001:0001e060       ??_G?$CTypedPtrListEx@VCObList@@PAVCDXFworking@@@@UAEPAXI@Z 0041f060 f i DXFshape.obj
 0001:0001e060       ??_G?$CTypedPtrListEx@VCObList@@PAVCDXFworkingOutline@@@@UAEPAXI@Z 0041f060 f i DXFshape.obj
 0001:0001e0a0       ??0CDXFpolyline@@QAE@PAVCLayerData@@PBV0@PBUDXFBLOCK@@K@Z 0041f0a0 f   DXFdata.obj
 0001:0001e290       ?Serialize@CDXFpolyline@@UAEXAAVCArchive@@@Z 0041f290 f   DXFdata.obj
 0001:0001e490       ?SetMaxRect@CDXFpolyline@@MAEXXZ 0041f490 f   DXFdata.obj
 0001:0001e660       ?SwapMakePt@CDXFpolyline@@UAEXH@Z 0041f660 f   DXFdata.obj
 0001:0001e6d0       ?SwapNativePt@CDXFpolyline@@UAEXXZ 0041f6d0 f   DXFdata.obj
 0001:0001e720       ?RoundObjPoint@CDXFpolyline@@UAEXABV?$CPointT@M@@M@Z 0041f720 f   DXFdata.obj
 0001:0001e770       ?IsDirectionPoint@CDXFpolyline@@UAEHABV?$CPointT@M@@0@Z 0041f770 f   DXFdata.obj
 0001:0001e840       ?SetVectorPoint@CDXFpolyline@@UBEIAAV?$vector@V?$CPointT@M@@V?$allocator@V?$CPointT@M@@@std@@@std@@M@Z 0041f840 f   DXFdata.obj
 0001:0001e8a0       ?SetVertex@CDXFpolyline@@QAEHPBUDXFPARGV@@MABV?$CPointT@M@@@Z 0041f8a0 f   DXFdata.obj
 0001:0001ed10       ?EndSeq@CDXFpolyline@@QAEXXZ 0041fd10 f   DXFdata.obj
 0001:0001ede0       ?GetFirstObject@CDXFpolyline@@QBEPAVCDXFdata@@XZ 0041fde0 f   DXFdata.obj
 0001:0001eeb0       ?CheckPolylineIntersection_SubLoop@CDXFpolyline@@AAEXABV?$CPointT@M@@0PAU__POSITION@@@Z 0041feb0 f   DXFdata.obj
 0001:0001f2f0       ?CheckPolylineIntersection_SubLoop@CDXFpolyline@@AAEXPBVCDXFarc@@PAU__POSITION@@@Z 004202f0 f   DXFdata.obj
 0001:0001f670       ?CheckPolylineIntersection_SubLoop@CDXFpolyline@@AAEXPBVCDXFellipse@@PAU__POSITION@@@Z 00420670 f   DXFdata.obj
 0001:0001f8e0       ?DrawTuning@CDXFpolyline@@UAEXM@Z 004208e0 f   DXFdata.obj
 0001:0001f910       ?Draw@CDXFpolyline@@UBEXPAVCDC@@@Z 00420910 f   DXFdata.obj
 0001:0001f9a0       ?OrgTuning@CDXFpolyline@@UAEMH@Z 004209a0 f   DXFdata.obj
 0001:0001f9f0       ?GetSelectPointGap@CDXFpolyline@@UAEMABV?$CPointT@M@@@Z 004209f0 f   DXFdata.obj
 0001:0001fb80       ?GetDirectionArraw@CDXFpolyline@@UAEHABV?$CPointT@M@@QAY02V2@@Z 00420b80 f   DXFdata.obj
 0001:0001fcb0       ?GetIntersectionPoint@CDXFpolyline@@UBEHPBVCDXFdata@@QAV?$CPointT@M@@H@Z 00420cb0 f   DXFdata.obj
 0001:0001fe00       ?GetIntersectionPoint@CDXFpolyline@@UBEHABV?$CPointT@M@@0QAV2@H@Z 00420e00 f   DXFdata.obj
 0001:0001fec0       ?CalcOffsetIntersectionPoint@CDXFpolyline@@UBE?AV?$optional@V?$CPointT@M@@@boost@@PBVCDXFdata@@MH@Z 00420ec0 f   DXFdata.obj
 0001:00020080       ?CheckIntersectionCircle@CDXFpolyline@@UBEHABV?$CPointT@M@@M@Z 00421080 f   DXFdata.obj
 0001:000201f0       ??_ECDXFtext@@UAEPAXI@Z    004211f0 f i * CIL library *:* CIL module *
 0001:000201f0       ??_GCDXFtext@@UAEPAXI@Z    004211f0 f i DXFdata.obj
 0001:00020250       ??0CDXFtext@@QAE@PBUDXFTARGV@@K@Z 00421250 f   DXFdata.obj
 0001:00020420       ??0CDXFtext@@QAE@PAVCLayerData@@PBV0@PBUDXFBLOCK@@K@Z 00421420 f   DXFdata.obj
 0001:000206d0       ?Serialize@CDXFtext@@UAEXAAVCArchive@@@Z 004216d0 f   DXFdata.obj
 0001:00020910       ?Draw@CDXFtext@@UBEXPAVCDC@@@Z 00421910 f   DXFdata.obj
 0001:00020950       ?OrgTuning@CDXFtext@@UAEMH@Z 00421950 f   DXFdata.obj
 0001:000209c0       ?GetNext@?$_CTypedPtrList@VCObList@@PAVCDXFdata@@@@QAEAAPAVCDXFdata@@AAPAU__POSITION@@@Z 004219c0 f i DXFdata.obj
 0001:000209e0       ?GetTail@?$_CTypedPtrList@VCObList@@PAVCDXFdata@@@@QAEAAPAVCDXFdata@@XZ 004219e0 f i DXFdata.obj
 0001:000209f0       ?GetHead@?$_CTypedPtrList@VCObList@@PAVCDXFdata@@@@QAEAAPAVCDXFdata@@XZ 004219f0 f i DXFdata.obj
 0001:00020a00       ?RoundUp@?$CPointT@M@@QBE?AV1@XZ 00421a00 f i DXFdata.obj
 0001:00020ac0       ??$?5DV?$StrTraitMFC_DLL@DV?$ChTraitsCRT@D@ATL@@@@@CArchive@@QAEAAV0@AAV?$CStringT@DV?$StrTraitMFC_DLL@DV?$ChTraitsCRT@D@ATL@@@@@ATL@@@Z 00421ac0 f i DXFdata.obj
 0001:00020c80       ??$_Emplace_reallocate@ABV?$CPointT@M@@@?$vector@V?$CPointT@M@@V?$allocator@V?$CPointT@M@@@std@@@std@@AAEPAV?$CPointT@M@@QAV2@ABV2@@Z 00421c80 f i DXFdata.obj
 0001:00020d90       ?allocate@?$allocator@V?$CPointT@M@@@std@@QAEPAV?$CPointT@M@@I@Z 00421d90 f i DXFdata.obj
 0001:00020df0       ?AllocateHeap@?$CTempBuffer@D$0IA@VCCRTAllocator@ATL@@@ATL@@AAEXI@Z 00421df0 f i DXFdata.obj
 0001:00020df0       ?AllocateHeap@?$CTempBuffer@_W$0IA@VCCRTAllocator@ATL@@@ATL@@AAEXI@Z 00421df0 f i DXFdata.obj
 0001:00020e20       ?FreeHeap@?$CTempBuffer@D$0IA@VCCRTAllocator@ATL@@@ATL@@AAEXXZ 00421e20 f i DXFdata.obj
 0001:00020e20       ?FreeHeap@?$CTempBuffer@_W$0IA@VCCRTAllocator@ATL@@@ATL@@AAEXXZ 00421e20 f i DXFdata.obj
 0001:00020e30       ??1?$CTempBuffer@D$0IA@VCCRTAllocator@ATL@@@ATL@@QAE@XZ 00421e30 f i DXFdata.obj
 0001:00020e30       ??1?$CTempBuffer@_W$0IA@VCCRTAllocator@ATL@@@ATL@@QAE@XZ 00421e30 f i DXFdata.obj
 0001:00020e40       _atanf                     00421e40 f i DXFdata.obj
 0001:00020e60       ?GetHeadPosition@CObList@@QBEPAU__POSITION@@XZ 00421e60 f i DXFdata.obj
 0001:00020e70       ?AtlThrowImpl@ATL@@YGXJ@Z  00421e70 f i DXFdata.obj
 0001:00020e90       ?GetDocExtString@CNCVCApp@@QAE?AV?$CStringT@DV?$StrTraitMFC_DLL@DV?$ChTraitsCRT@D@ATL@@@@@ATL@@W4DOCTYPE@@@Z 00421e90 f i DXFDoc.obj
 0001:00020f00       ?SetMaxRect@CDXFDoc@@AAEXPBVCDXFdata@@@Z 00421f00 f i DXFDoc.obj
 0001:00020fc0       ?CreateObject@CDXFDoc@@SGPAVCObject@@XZ 00421fc0 f   DXFDoc.obj
 0001:00021030       ?GetRuntimeClass@CDXFDoc@@UBEPAUCRuntimeClass@@XZ 00422030 f   DXFDoc.obj
 0001:00021040       ?GetMessageMap@CDXFDoc@@MBEPBUAFX_MSGMAP@@XZ 00422040 f   DXFDoc.obj
 0001:00021050       ??0CDXFDoc@@IAE@XZ         00422050 f   DXFDoc.obj
 0001:00021240       ??_ECDXFDoc@@UAEPAXI@Z     00422240 f i * CIL library *:* CIL module *
 0001:00021240       ??_GCDXFDoc@@UAEPAXI@Z     00422240 f i DXFDoc.obj
 0001:00021280       ??1?$CTypedPtrMap@VCMapStringToOb@@V?$CStringT@DV?$StrTraitMFC_DLL@DV?$ChTraitsCRT@D@ATL@@@@@ATL@@PAVCLayerData@@@@UAE@XZ 00422280 f i DXFDoc.obj
 0001:00021290       ??1?$CSortArray@VCPtrArray@@PAUCADBINDINFO@@@@UAE@XZ 00422290 f i DXFDoc.obj
 0001:00021290       ??1?$CTypedPtrArrayEx@VCPtrArray@@PAV?$CSortArray@VCObArray@@PAVCDXFdata@@@@@@UAE@XZ 00422290 f i TH_MakeNCD.obj
 0001:00021290       ??1?$CTypedPtrArrayEx@VCPtrArray@@PAV?$CTypedPtrListEx@VCObList@@PAVCDXFdata@@@@@@UAE@XZ 00422290 f i DXFshape.obj
 0001:00021290       ??1?$CTypedPtrArrayEx@VCPtrArray@@PAVCDXFMake@@@@UAE@XZ 00422290 f i DXFDoc.obj
 0001:00021290       ??1?$CTypedPtrArrayEx@VCPtrArray@@PAVCNCVCaddinIF@@@@UAE@XZ 00422290 f i NCVC.obj
 0001:00021290       ??1?$CTypedPtrArrayEx@VCPtrArray@@PAVCNCblock@@@@UAE@XZ 00422290 f i NCDoc.obj
 0001:00021290       ??1?$CTypedPtrArrayEx@VCPtrArray@@PAVCNCdata@@@@UAE@XZ 00422290 f i NCdata.obj
 0001:000212a0       ??_E?$CSortArray@VCObArray@@PAVCDXFchain@@@@UAEPAXI@Z 004222a0 f i * CIL library *:* CIL module *
 0001:000212a0       ??_E?$CSortArray@VCObArray@@PAVCDXFcircle@@@@UAEPAXI@Z 004222a0 f i * CIL library *:* CIL module *
 0001:000212a0       ??_E?$CSortArray@VCObArray@@PAVCDXFdata@@@@UAEPAXI@Z 004222a0 f i * CIL library *:* CIL module *
 0001:000212a0       ??_E?$CSortArray@VCObArray@@PAVCDXFshape@@@@UAEPAXI@Z 004222a0 f i * CIL library *:* CIL module *
 0001:000212a0       ??_E?$CSortArray@VCObArray@@PAVCDXFworkingOutline@@@@UAEPAXI@Z 004222a0 f i * CIL library *:* CIL module *
 0001:000212a0       ??_E?$CSortArray@VCObArray@@PAVCLayerData@@@@UAEPAXI@Z 004222a0 f i * CIL library *:* CIL module *
 0001:000212a0       ??_E?$CTypedPtrArrayEx@VCObArray@@PAVCDXFdata@@@@UAEPAXI@Z 004222a0 f i * CIL library *:* CIL module *
 0001:000212a0       ??_E?$CTypedPtrArrayEx@VCObArray@@PAVCDXFtext@@@@UAEPAXI@Z 004222a0 f i * CIL library *:* CIL module *
 0001:000212a0       ??_E?$CTypedPtrArrayEx@VCObArray@@PAVCImageList@@@@UAEPAXI@Z 004222a0 f i * CIL library *:* CIL module *
 0001:000212a0       ??_E?$CTypedPtrArrayEx@VCObArray@@PAVCWnd@@@@UAEPAXI@Z 004222a0 f i * CIL library *:* CIL module *
 0001:000212a0       ??_G?$CSortArray@VCObArray@@PAVCDXFchain@@@@UAEPAXI@Z 004222a0 f i DXFshape.obj
 0001:000212a0       ??_G?$CSortArray@VCObArray@@PAVCDXFcircle@@@@UAEPAXI@Z 004222a0 f i TH_MakeNCD.obj
 0001:000212a0       ??_G?$CSortArray@VCObArray@@PAVCDXFdata@@@@UAEPAXI@Z 004222a0 f i TH_MakeLathe.obj
 0001:000212a0       ??_G?$CSortArray@VCObArray@@PAVCDXFshape@@@@UAEPAXI@Z 004222a0 f i Layer.obj
 0001:000212a0       ??_G?$CSortArray@VCObArray@@PAVCDXFworkingOutline@@@@UAEPAXI@Z 004222a0 f i DXFshape.obj
 0001:000212a0       ??_G?$CSortArray@VCObArray@@PAVCLayerData@@@@UAEPAXI@Z 004222a0 f i DXFDoc.obj
 0001:000212a0       ??_G?$CTypedPtrArrayEx@VCObArray@@PAVCDXFdata@@@@UAEPAXI@Z 004222a0 f i DXFshape.obj
 0001:000212a0       ??_G?$CTypedPtrArrayEx@VCObArray@@PAVCDXFtext@@@@UAEPAXI@Z 004222a0 f i Layer.obj
 0001:000212a0       ??_G?$CTypedPtrArrayEx@VCObArray@@PAVCImageList@@@@UAEPAXI@Z 004222a0 f i MainFrm.obj
 0001:000212a0       ??_G?$CTypedPtrArrayEx@VCObArray@@PAVCWnd@@@@UAEPAXI@Z 004222a0 f i NCInfoTab.obj
 0001:000212e0       ??1CDXFDoc@@UAE@XZ         004222e0 f   DXFDoc.obj
 0001:00021460       ?RemoveData@CDXFDoc@@AAEXPAVCLayerData@@H@Z 00422460 f   DXFDoc.obj
 0001:000215c0       ?DataOperation@CDXFDoc@@QAEXPAVCDXFdata@@W4ENDXFOPERATION@@H@Z 004225c0 f   DXFDoc.obj
 0001:00021750       ?AddLayerMap@CDXFDoc@@QAEPAVCLayerData@@ABV?$CStringT@DV?$StrTraitMFC_DLL@DV?$ChTraitsCRT@D@ATL@@@@@ATL@@H@Z 00422750 f   DXFDoc.obj
 0001:00021920       ?CheckDuplexFile@CDXFDoc@@QAE?AV?$CStringT@DV?$StrTraitMFC_DLL@DV?$ChTraitsCRT@D@ATL@@@@@ATL@@ABV23@PBV?$CSortArray@VCObArray@@PAVCLayerData@@@@@Z 00422920 f   DXFDoc.obj
 0001:00021b40       ?ReadLayerMap@CDXFDoc@@QAEHPBD@Z 00422b40 f   DXFDoc.obj
 0001:00021d90       ?SaveLayerMap@CDXFDoc@@QAEHPBDPBV?$CSortArray@VCObArray@@PAVCLayerData@@@@@Z 00422d90 f   DXFDoc.obj
 0001:00021f60       ?AllChangeFactor@CDXFDoc@@QAEXM@Z 00422f60 f   DXFDoc.obj
 0001:00022110       ?AllSetDxfFlg@CDXFDoc@@QAEXKH@Z 00423110 f   DXFDoc.obj
 0001:000221f0       ?AllRoundObjPoint@CDXFDoc@@QAEXM@Z 004231f0 f   DXFDoc.obj
 0001:000224d0       ?CreateCutterOrigin@CDXFDoc@@QAEXABV?$CPointT@M@@MH@Z 004234d0 f   DXFDoc.obj
 0001:000225f0       ?CreateLatheLine@CDXFDoc@@QAEXABV?$CPointT@M@@0@Z 004235f0 f   DXFDoc.obj
 0001:00022730       ?CreateLatheLine@CDXFDoc@@QAEXPBVCDXFline@@PBUDXFBLOCK@@@Z 00423730 f   DXFDoc.obj
 0001:00022850       ?GetEditOrgPoint@CDXFDoc@@AAEHPBDAAV?$CPointT@M@@@Z 00423850 f   DXFDoc.obj
 0001:00022aa0       ?GetSelectObject@CDXFDoc@@QAE?AV?$tuple@PAVCDXFshape@@PAVCDXFdata@@MUnull_type@tuples@boost@@U345@U345@U345@U345@U345@U345@@tuples@boost@@ABV?$CPointT@M@@ABV?$CRectT@M@@@Z 00423aa0 f   DXFDoc.obj
 0001:00022c40       ?MakeDXF_Sub@@YAXPBVCDXFDoc@@ABV?$CPointT@M@@AAV?$CTypedPtrArrayEx@VCPtrArray@@PAVCDXFMake@@@@@Z 00423c40 f   DXFDoc.obj
 0001:00022db0       ?MakeDXF@CDXFDoc@@AAEXABV?$CStringT@DV?$StrTraitMFC_DLL@DV?$ChTraitsCRT@D@ATL@@@@@ATL@@@Z 00423db0 f   DXFDoc.obj
 0001:00023260       ??1CDXFMakeOption@@QAE@XZ  00424260 f i DXFDoc.obj
 0001:000232b0       ?OnCmdMsg@CDXFDoc@@UAEHIHPAXPAUAFX_CMDHANDLERINFO@@@Z 004242b0 f   DXFDoc.obj
 0001:000232e0       ?OnNewDocument@CDXFDoc@@UAEHXZ 004242e0 f   DXFDoc.obj
 0001:000233f0       ?OnOpenDocument@CDXFDoc@@UAEHPBD@Z 004243f0 f   DXFDoc.obj
 0001:00023850       ?OnSaveDocument@CDXFDoc@@UAEHPBD@Z 00424850 f   DXFDoc.obj
 0001:00023930       ?OnCloseDocument@CDXFDoc@@UAEXXZ 00424930 f   DXFDoc.obj
 0001:000239d0       ?SaveModified@CDXFDoc@@UAEHXZ 004249d0 f   DXFDoc.obj
 0001:00023b40       ?UpdateFrameCounts@CDXFDoc@@UAEXXZ 00424b40 f   DXFDoc.obj
 0001:00023b90       ?Serialize@CDXFDoc@@UAEXAAVCArchive@@@Z 00424b90 f   DXFDoc.obj
 0001:00025450       ?OnEditOrigin@CDXFDoc@@IAEXXZ 00426450 f   DXFDoc.obj
 0001:00025780       ??1CDxfEditOrgDlg@@UAE@XZ  00426780 f i DXFDoc.obj
 0001:000257d0       ?OnUpdateEditShape@CDXFDoc@@IAEXPAVCCmdUI@@@Z 004267d0 f   DXFDoc.obj
 0001:00025800       ?OnEditShape@CDXFDoc@@IAEXXZ 00426800 f   DXFDoc.obj
 0001:000258e0       ??1CThreadDlg@@UAE@XZ      004268e0 f i DXFDoc.obj
 0001:00025910       ?OnEditAuto@CDXFDoc@@IAEXI@Z 00426910 f   DXFDoc.obj
 0001:00025c80       ?OnEditStrictOffset@CDXFDoc@@IAEXXZ 00426c80 f   DXFDoc.obj
 0001:00025d40       ?OnUpdateEditShaping@CDXFDoc@@IAEXPAVCCmdUI@@@Z 00426d40 f   DXFDoc.obj
 0001:00025d60       ?OnUpdateShapePattern@CDXFDoc@@IAEXPAVCCmdUI@@@Z 00426d60 f   DXFDoc.obj
 0001:00025db0       ?OnShapePattern@CDXFDoc@@IAEXI@Z 00426db0 f   DXFDoc.obj
 0001:00025df0       ?OnFileDXF2DXF@CDXFDoc@@IAEXXZ 00426df0 f   DXFDoc.obj
 0001:000260c0       ?OnUpdateFileDXF2NCD@CDXFDoc@@IAEXPAVCCmdUI@@@Z 004270c0 f   DXFDoc.obj
 0001:000261c0       ?OnFileDXF2NCD@CDXFDoc@@IAEXI@Z 004271c0 f   DXFDoc.obj
 0001:00026c20       ??1CMakeNCDlgEx@@UAE@XZ    00427c20 f i DXFDoc.obj
 0001:00026c80       ??1CMakeNCDlgEx2@@UAE@XZ   00427c80 f i DXFDoc.obj
 0001:00026d60       ??1CMakeNCDlgEx3@@UAE@XZ   00427d60 f i DXFDoc.obj
 0001:00026d80       ?OnFileSave@CDXFDoc@@IAEXXZ 00427d80 f   DXFDoc.obj
 0001:00026e50       ?OnFileSaveAs@CDXFDoc@@IAEXXZ 00427e50 f   DXFDoc.obj
 0001:00027010       ?RestoreCircleTypeThread@CDXFDoc@@CAIPAX@Z 00428010 f   DXFDoc.obj
 0001:00027750       ??_E?$CTypedPtrMap@VCMapStringToOb@@V?$CStringT@DV?$StrTraitMFC_DLL@DV?$ChTraitsCRT@D@ATL@@@@@ATL@@PAVCLayerData@@@@UAEPAXI@Z 00428750 f i * CIL library *:* CIL module *
 0001:00027750       ??_G?$CTypedPtrMap@VCMapStringToOb@@V?$CStringT@DV?$StrTraitMFC_DLL@DV?$ChTraitsCRT@D@ATL@@@@@ATL@@PAVCLayerData@@@@UAEPAXI@Z 00428750 f i DXFDoc.obj
 0001:00027790       ?QSort@?$CSortArray@VCObArray@@PAVCDXFdata@@@@AAEXP6AHPAVCDXFdata@@0@ZHH@Z 00428790 f i TH_MakeLathe.obj
 0001:00027790       ?QSort@?$CSortArray@VCObArray@@PAVCDXFshape@@@@AAEXP6AHPAVCDXFshape@@0@ZHH@Z 00428790 f i Layer.obj
 0001:00027790       ?QSort@?$CSortArray@VCObArray@@PAVCLayerData@@@@AAEXP6AHPAVCLayerData@@0@ZHH@Z 00428790 f i DXFDoc.obj
 0001:00027790       ?QSort@?$CSortArray@VCPtrArray@@PAUCADBINDINFO@@@@AAEXP6AHPAUCADBINDINFO@@0@ZHH@Z 00428790 f i DXFDoc.obj
 0001:00027790       ?QSort@?$CSortArray@VCPtrArray@@PAUTHUMBNAILINFO@@@@AAEXP6AHPAUTHUMBNAILINFO@@0@ZHH@Z 00428790 f i ThumbnailDlg.obj
 0001:00027850       ??1CCriticalSection@@UAE@XZ 00428850 f i DXFDoc.obj
 0001:00027870       ??_ECCriticalSection@@UAEPAXI@Z 00428870 f i * CIL library *:* CIL module *
 0001:00027870       ??_GCCriticalSection@@UAEPAXI@Z 00428870 f i DXFDoc.obj
 0001:000278c0       ?Lock@CCriticalSection@@UAEHK@Z 004288c0 f i DXFDoc.obj
 0001:000278e0       ?Unlock@CSyncObject@@UAEHJPAJ@Z 004288e0 f i DXFDoc.obj
 0001:000278f0       ?Unlock@CCriticalSection@@UAEHXZ 004288f0 f i DXFDoc.obj
 0001:00027900       ??0CCriticalSection@@QAE@XZ 00428900 f i DXFDoc.obj
 0001:00027980       ?GetMessageMap@CDxfEditOrgDlg@@MBEPBUAFX_MSGMAP@@XZ 00428980 f   DxfEditOrgDlg.obj
 0001:00027990       ??_ECDxfEditOrgDlg@@UAEPAXI@Z 00428990 f i * CIL library *:* CIL module *
 0001:00027990       ??_GCDxfEditOrgDlg@@UAEPAXI@Z 00428990 f i DxfEditOrgDlg.obj
 0001:00027a10       ?DoDataExchange@CDxfEditOrgDlg@@MAEXPAVCDataExchange@@@Z 00428a10 f   DxfEditOrgDlg.obj
 0001:00027aa0       ?OnInitDialog@CDxfEditOrgDlg@@MAEHXZ 00428aa0 f   DxfEditOrgDlg.obj
 0001:00027b20       ?OnSelect@CDxfEditOrgDlg@@IAEXXZ 00428b20 f   DxfEditOrgDlg.obj
 0001:00027b80       ?OnOK@CDxfEditOrgDlg@@MAEXXZ 00428b80 f   DxfEditOrgDlg.obj
 0001:00028fd0       ??0CDXFMake@@QAE@W4enSECNAME@@PBVCDocBase@@@Z 00429fd0 f   DXFMakeClass.obj
 0001:000291e0       ??0CDXFMake@@QAE@PBVCDXFdata@@ABV?$CPointT@M@@@Z 0042a1e0 f   DXFMakeClass.obj
 0001:00029580       ??0CDXFMake@@QAE@ABV?$CPoint3T@M@@M@Z 0042a580 f   DXFMakeClass.obj
 0001:00029b50       ??0CDXFMake@@QAE@ABV?$CRectT@M@@@Z 0042ab50 f   DXFMakeClass.obj
 0001:00029da0       ?MakeSection_Header@CDXFMake@@AAEXPBVCDocBase@@@Z 0042ada0 f   DXFMakeClass.obj
 0001:0002a870       ?MakeSection_Tables@CDXFMake@@AAEXPBVCDocBase@@@Z 0042b870 f   DXFMakeClass.obj
 0001:0002ca30       ??1TABLELAYERINFO@@QAE@XZ  0042da30 f i DXFMakeClass.obj
 0001:0002ca50       ?MakeSection_TableLayer_NCD@CDXFMake@@AAEXAAV?$vector@UTABLELAYERINFO@@V?$allocator@UTABLELAYERINFO@@@std@@@std@@@Z 0042da50 f   DXFMakeClass.obj
 0001:0002cc30       ?MakeSection_TableLayer_DXF@CDXFMake@@AAEXAAV?$vector@UTABLELAYERINFO@@V?$allocator@UTABLELAYERINFO@@@std@@@std@@PBVCDXFDoc@@@Z 0042dc30 f   DXFMakeClass.obj
 0001:0002ce60       ?MakeDXF_Figure@CDXFMake@@AAE?AV?$CStringT@DV?$StrTraitMFC_DLL@DV?$ChTraitsCRT@D@ATL@@@@@ATL@@HH@Z 0042de60 f   DXFMakeClass.obj
 0001:0002d0a0       ?MakeValueCycle@CDXFMake@@AAE?AV?$CStringT@DV?$StrTraitMFC_DLL@DV?$ChTraitsCRT@D@ATL@@@@@ATL@@PBVCNCcycle@@HHW4ENPLANE@@@Z 0042e0a0 f   DXFMakeClass.obj
 0001:0002df10       ?MakeDXF_NCtoLine@CDXFMake@@AAEXPBVCNCline@@H@Z 0042ef10 f   DXFMakeClass.obj
 0001:0002e4e0       ?MakeDXF_NCtoArc@CDXFMake@@AAEXPBVCNCcircle@@H@Z 0042f4e0 f   DXFMakeClass.obj
 0001:0002e740       ?MakeDXF_NCtoCycle@CDXFMake@@AAEXPBVCNCcycle@@@Z 0042f740 f   DXFMakeClass.obj
 0001:0002ea50       ?MakeValueCycle_XY_Circle@CDXFMake@@AAE?AV?$CStringT@DV?$StrTraitMFC_DLL@DV?$ChTraitsCRT@D@ATL@@@@@ATL@@PBVCNCcycle@@H@Z 0042fa50 f   DXFMakeClass.obj
 0001:0002ea70       ?MakeValueCycle_XZ_Circle@CDXFMake@@AAE?AV?$CStringT@DV?$StrTraitMFC_DLL@DV?$ChTraitsCRT@D@ATL@@@@@ATL@@PBVCNCcycle@@H@Z 0042fa70 f   DXFMakeClass.obj
 0001:0002ea90       ?MakeValueCycle_YZ_Circle@CDXFMake@@AAE?AV?$CStringT@DV?$StrTraitMFC_DLL@DV?$ChTraitsCRT@D@ATL@@@@@ATL@@PBVCNCcycle@@H@Z 0042fa90 f   DXFMakeClass.obj
 0001:0002eab0       ?MakeValueCycle_XY_Point@CDXFMake@@AAE?AV?$CStringT@DV?$StrTraitMFC_DLL@DV?$ChTraitsCRT@D@ATL@@@@@ATL@@PBVCNCcycle@@H@Z 0042fab0 f   DXFMakeClass.obj
 0001:0002ead0       ?MakeValueCycle_XZ_Point@CDXFMake@@AAE?AV?$CStringT@DV?$StrTraitMFC_DLL@DV?$ChTraitsCRT@D@ATL@@@@@ATL@@PBVCNCcycle@@H@Z 0042fad0 f   DXFMakeClass.obj
 0001:0002eaf0       ?MakeValueCycle_YZ_Point@CDXFMake@@AAE?AV?$CStringT@DV?$StrTraitMFC_DLL@DV?$ChTraitsCRT@D@ATL@@@@@ATL@@PBVCNCcycle@@H@Z 0042faf0 f   DXFMakeClass.obj
 0001:0002eb10       ?MakeDXF_PolylineDismantle@CDXFMake@@AAEXPBVCDXFpolyline@@ABV?$CPointT@M@@@Z 0042fb10 f   DXFMakeClass.obj
 0001:0002eef0       ?SetStaticOption@CDXFMake@@SAXPBVCDXFMakeOption@@@Z 0042fef0 f   DXFMakeClass.obj
 0001:0002ef90       ?InitialColorIndex@@YAXXZ  0042ff90 f   DXFMakeClass.obj
 0001:0002ff90       ??1?$vector@UTABLELAYERINFO@@V?$allocator@UTABLELAYERINFO@@@std@@@std@@QAE@XZ 00430f90 f i DXFMakeClass.obj
 0001:00030020       ?GetYZ@?$CPoint3T@M@@QBE?AV?$CPointT@M@@XZ 00431020 f i DXFMakeClass.obj
 0001:00030040       ?GetXZ@?$CPoint3T@M@@QBE?AV?$CPointT@M@@XZ 00431040 f i DXFMakeClass.obj
 0001:00030060       ??$_Destroy_range@V?$allocator@UTABLELAYERINFO@@@std@@@std@@YAXPAUTABLELAYERINFO@@QAU1@AAV?$allocator@UTABLELAYERINFO@@@0@@Z 00431060 f i DXFMakeClass.obj
 0001:00030090       ??$_Emplace_reallocate@UTABLELAYERINFO@@@?$vector@UTABLELAYERINFO@@V?$allocator@UTABLELAYERINFO@@@std@@@std@@AAEPAUTABLELAYERINFO@@QAU2@$$QAU2@@Z 00431090 f i DXFMakeClass.obj
 0001:00030340       ??$_Uninitialized_move@PAUTABLELAYERINFO@@V?$allocator@UTABLELAYERINFO@@@std@@@std@@YAPAUTABLELAYERINFO@@QAU1@0PAU1@AAV?$allocator@UTABLELAYERINFO@@@0@@Z 00431340 f i DXFMakeClass.obj
 0001:000303d0       ??1?$_Uninitialized_backout_al@V?$allocator@UTABLELAYERINFO@@@std@@@std@@QAE@XZ 004313d0 f i DXFMakeClass.obj
 0001:00030400       ??$_Sort_unchecked@PAUINDEXCOLOR@@U?$less@X@std@@@std@@YAXPAUINDEXCOLOR@@0HU?$less@X@0@@Z 00431400 f i DXFMakeClass.obj
 0001:00030650       ??$_Partition_by_median_guess_unchecked@PAUINDEXCOLOR@@U?$less@X@std@@@std@@YA?AU?$pair@PAUINDEXCOLOR@@PAU1@@0@PAUINDEXCOLOR@@0U?$less@X@0@@Z 00431650 f i DXFMakeClass.obj
 0001:00030900       ??$_Pop_heap_hole_by_index@PAUINDEXCOLOR@@U1@U?$less@X@std@@@std@@YAXPAUINDEXCOLOR@@HH$$QAU1@U?$less@X@0@@Z 00431900 f i DXFMakeClass.obj
 0001:00030a00       ??$_Med3_unchecked@PAUINDEXCOLOR@@U?$less@X@std@@@std@@YAXPAUINDEXCOLOR@@00U?$less@X@0@@Z 00431a00 f i DXFMakeClass.obj
 0001:00030a90       _tanf                      00431a90 f i DXFMakeClass.obj
 0001:00030ab0       ??0CDXFMakeOption@@QAE@H@Z 00431ab0 f   DXFMakeOption.obj
 0001:00030bb0       ?Initialize_Registry@CDXFMakeOption@@AAEXXZ 00431bb0 f   DXFMakeOption.obj
 0001:00030e60       ??0CDXFOption@@QAE@XZ      00431e60 f   DXFOption.obj
 0001:00031380       ??_FCStringList@@QAEXXZ    00432380 f i DXFOption.obj
 0001:00031390       ?ReadInitHistory@CDXFOption@@AAEHW4NCMAKETYPE@@@Z 00432390 f   DXFOption.obj
 0001:000315d0       ?AddListHistory@CDXFOption@@AAEHW4NCMAKETYPE@@PBD@Z 004325d0 f   DXFOption.obj
 0001:000316f0       ?DelInitHistory@CDXFOption@@QAEXW4NCMAKETYPE@@PBD@Z 004326f0 f   DXFOption.obj
 0001:00031750       ?GetIgnoreStr@CDXFOption@@QBE?AV?$CStringT@DV?$StrTraitMFC_DLL@DV?$ChTraitsCRT@D@ATL@@@@@ATL@@XZ 00432750 f   DXFOption.obj
 0001:00031850       ?SetIgnoreArray@CDXFOption@@QAEXABV?$CStringT@DV?$StrTraitMFC_DLL@DV?$ChTraitsCRT@D@ATL@@@@@ATL@@@Z 00432850 f   DXFOption.obj
 0001:00031c10       ??1?$char_separator@DU?$char_traits@D@std@@@boost@@QAE@XZ 00432c10 f i DXFOption.obj
 0001:00031c10       ??1?$no_case_literal_string@AAY02$$CBD$00@qi@spirit@boost@@QAE@XZ 00432c10 f i TH_NCRead.obj
 0001:00031c10       ??1?$no_case_literal_string@QBD$00@qi@spirit@boost@@QAE@XZ 00432c10 f i TH_NCRead.obj
 0001:00031c10       ??1?$no_case_literal_string@QBD$0A@@qi@spirit@boost@@QAE@XZ 00432c10 f i TH_NCRead.obj
 0001:00031ca0       ??1?$tokenizer@V?$char_separator@DU?$char_traits@D@std@@@boost@@V?$_String_const_iterator@V?$_String_val@U?$_Simple_types@D@std@@@std@@@std@@V?$basic_string@DU?$char_traits@D@std@@V?$allocator@D@2@@4@@boost@@QAE@XZ 00432ca0 f i DXFOption.obj
 0001:00031cb0       ??1?$auto_any@V?$token_iterator@V?$char_separator@DU?$char_traits@D@std@@@boost@@V?$_String_const_iterator@V?$_String_val@U?$_Simple_types@D@std@@@std@@@std@@V?$basic_string@DU?$char_traits@D@std@@V?$allocator@D@2@@4@@boost@@@foreach_detail_@boost@@QAE@XZ 00432cb0 f i DXFOption.obj
 0001:00031cb0       ??1?$token_iterator@V?$char_separator@DU?$char_traits@D@std@@@boost@@V?$_String_const_iterator@V?$_String_val@U?$_Simple_types@D@std@@@std@@@std@@V?$basic_string@DU?$char_traits@D@std@@V?$allocator@D@2@@4@@boost@@QAE@XZ 00432cb0 f i DXFOption.obj
 0001:00031d10       ?SaveDXFoption@CDXFOption@@QAEHXZ 00432d10 f   DXFOption.obj
 0001:00031ec0       ?SaveBindOption@CDXFOption@@QAEHXZ 00432ec0 f   DXFOption.obj
 0001:00032100       ??1?$basic_regex@DU?$regex_traits@DV?$w32_regex_traits@D@boost@@@boost@@@boost@@QAE@XZ 00433100 f i DXFOption.obj
 0001:00032100       ??1?$pair@V?$shared_ptr@$$CBV?$w32_regex_traits_implementation@D@re_detail_500@boost@@@std@@PBK@std@@QAE@XZ 00433100 f i DXFOption.obj
 0001:00032100       ??1?$regex_iterator@V?$_String_const_iterator@V?$_String_val@U?$_Simple_types@D@std@@@std@@@std@@DU?$regex_traits@DV?$w32_regex_traits@D@boost@@@boost@@@boost@@QAE@XZ 00433100 f i NCDoc.obj
 0001:00032100       ??1?$shared_ptr@$$CBV?$w32_regex_traits_implementation@D@re_detail_500@boost@@@std@@QAE@XZ 00433100 f i DXFOption.obj
 0001:00032100       ??1?$shared_ptr@V?$basic_regex_implementation@DU?$regex_traits@DV?$w32_regex_traits@D@boost@@@boost@@@re_detail_500@boost@@@std@@QAE@XZ 00433100 f i DXFOption.obj
 0001:00032100       ??1?$shared_ptr@V?$regex_iterator_implementation@V?$_String_const_iterator@V?$_String_val@U?$_Simple_types@D@std@@@std@@@std@@DU?$regex_traits@DV?$w32_regex_traits@D@boost@@@boost@@@boost@@@std@@QAE@XZ 00433100 f i NCDoc.obj
 0001:00032100       ??1?$shared_ptr@X@std@@QAE@XZ 00433100 f i DXFOption.obj
 0001:00032130       ??4?$basic_string@DU?$char_traits@D@std@@V?$allocator@D@2@@std@@QAEAAV01@ABV01@@Z 00433130 f i DXFOption.obj
 0001:00032160       ?do_assign@?$basic_regex@DU?$regex_traits@DV?$w32_regex_traits@D@boost@@@boost@@@boost@@AAEAAV12@PBD0I@Z 00433160 f i DXFOption.obj
 0001:00032380       ??$begin@V?$tokenizer@V?$char_separator@DU?$char_traits@D@std@@@boost@@V?$_String_const_iterator@V?$_String_val@U?$_Simple_types@D@std@@@std@@@std@@V?$basic_string@DU?$char_traits@D@std@@V?$allocator@D@2@@4@@boost@@U?$bool_@$0A@@mpl@2@@foreach_detail_@boost@@YA?AU?$auto_any@V?$token_iterator@V?$char_separator@DU?$char_traits@D@std@@@boost@@V?$_String_const_iterator@V?$_String_val@U?$_Simple_types@D@std@@@std@@@std@@V?$basic_string@DU?$char_traits@D@std@@V?$allocator@D@2@@4@@boost@@@01@ABUauto_any_base@01@PAU?$type2type@V?$tokenizer@V?$char_separator@DU?$char_traits@D@std@@@boost@@V?$_String_const_iterator@V?$_String_val@U?$_Simple_types@D@std@@@std@@@std@@V?$basic_string@DU?$char_traits@D@std@@V?$allocator@D@2@@4@@boost@@U?$bool_@$0A@@mpl@2@@01@PAU?$bool_@$0A@@mpl@1@@Z 00433380 f i DXFOption.obj
 0001:00032440       ??$end@V?$tokenizer@V?$char_separator@DU?$char_traits@D@std@@@boost@@V?$_String_const_iterator@V?$_String_val@U?$_Simple_types@D@std@@@std@@@std@@V?$basic_string@DU?$char_traits@D@std@@V?$allocator@D@2@@4@@boost@@U?$bool_@$0A@@mpl@2@@foreach_detail_@boost@@YA?AU?$auto_any@V?$token_iterator@V?$char_separator@DU?$char_traits@D@std@@@boost@@V?$_String_const_iterator@V?$_String_val@U?$_Simple_types@D@std@@@std@@@std@@V?$basic_string@DU?$char_traits@D@std@@V?$allocator@D@2@@4@@boost@@@01@ABUauto_any_base@01@PAU?$type2type@V?$tokenizer@V?$char_separator@DU?$char_traits@D@std@@@boost@@V?$_String_const_iterator@V?$_String_val@U?$_Simple_types@D@std@@@std@@@std@@V?$basic_string@DU?$char_traits@D@std@@V?$allocator@D@2@@4@@boost@@U?$bool_@$0A@@mpl@2@@01@PAU?$bool_@$0A@@mpl@1@@Z 00433440 f i DXFOption.obj
 0001:00032500       ?assign@?$basic_regex_implementation@DU?$regex_traits@DV?$w32_regex_traits@D@boost@@@boost@@@re_detail_500@boost@@QAEXPBD0I@Z 00433500 f i DXFOption.obj
 0001:00032760       ??1?$basic_regex_parser@DU?$regex_traits@DV?$w32_regex_traits@D@boost@@@boost@@@re_detail_500@boost@@QAE@XZ 00433760 f i DXFOption.obj
 0001:00032780       ??0?$token_iterator@V?$char_separator@DU?$char_traits@D@std@@@boost@@V?$_String_const_iterator@V?$_String_val@U?$_Simple_types@D@std@@@std@@@std@@V?$basic_string@DU?$char_traits@D@std@@V?$allocator@D@2@@4@@boost@@QAE@ABV01@@Z 00433780 f i DXFOption.obj
 0001:00032830       ??1?$basic_regex_creator@DU?$regex_traits@DV?$w32_regex_traits@D@boost@@@boost@@@re_detail_500@boost@@QAE@XZ 00433830 f i DXFOption.obj
 0001:00032890       ??1?$vector@V?$CPointT@M@@V?$allocator@V?$CPointT@M@@@std@@@std@@QAE@XZ 00433890 f i DXFshape.obj
 0001:00032890       ??1named_subexpressions@re_detail_500@boost@@QAE@XZ 00433890 f i DXFOption.obj
 0001:000328a0       ??0?$regex_data@DU?$regex_traits@DV?$w32_regex_traits@D@boost@@@boost@@@re_detail_500@boost@@QAE@XZ 004338a0 f i DXFOption.obj
 0001:00032ab0       ??1?$vector@HV?$allocator@H@std@@@std@@QAE@XZ 00433ab0 f i TH_MakeNurbs.obj
 0001:00032ab0       ??1?$vector@JV?$allocator@J@std@@@std@@QAE@XZ 00433ab0 f i DXFOption.obj
 0001:00032ab0       ??1?$vector@PAUCREATEBOTTOMVERTEXPARAM@@V?$allocator@PAUCREATEBOTTOMVERTEXPARAM@@@std@@@std@@QAE@XZ 00433ab0 f i NCViewGL_Mill.obj
 0001:00032ab0       ??1?$vector@PAU__POSITION@@V?$allocator@PAU__POSITION@@@std@@@std@@QAE@XZ 00433ab0 f i DXFshape.obj
 0001:00032ab0       ??1?$vector@PAXV?$allocator@PAX@std@@@std@@QAE@XZ 00433ab0 f i NCViewGL_Mill.obj
 0001:00032ab0       ?_Tidy@?$vector@IV?$allocator@I@std@@@std@@AAEXXZ 00433ab0 f i DXFshape.obj
 0001:00032ab0       ?_Tidy@?$vector@MV?$allocator@M@std@@@std@@AAEXXZ 00433ab0 f i NCdataGL.obj
 0001:00032b10       ??1?$vector@U?$pair@II@std@@V?$allocator@U?$pair@II@std@@@2@@std@@QAE@XZ 00433b10 f i DXFOption.obj
 0001:00032b10       ??1?$vector@U?$pair@_NPAUre_syntax_base@re_detail_500@boost@@@std@@V?$allocator@U?$pair@_NPAUre_syntax_base@re_detail_500@boost@@@std@@@2@@std@@QAE@XZ 00433b10 f i DXFOption.obj
 0001:00032b10       ??1?$vector@Uname@named_subexpressions@re_detail_500@boost@@V?$allocator@Uname@named_subexpressions@re_detail_500@boost@@@std@@@std@@QAE@XZ 00433b10 f i DXFOption.obj
 0001:00032b10       ?_Tidy@?$vector@V?$CPointT@M@@V?$allocator@V?$CPointT@M@@@std@@@std@@AAEXXZ 00433b10 f i DXFshape.obj
 0001:00032b70       ??$?0V?$basic_regex_implementation@DU?$regex_traits@DV?$w32_regex_traits@D@boost@@@boost@@@re_detail_500@boost@@$0A@@?$shared_ptr@V?$basic_regex_implementation@DU?$regex_traits@DV?$w32_regex_traits@D@boost@@@boost@@@re_detail_500@boost@@@std@@QAE@PAV?$basic_regex_implementation@DU?$regex_traits@DV?$w32_regex_traits@D@boost@@@boost@@@re_detail_500@boost@@@Z 00433b70 f i DXFOption.obj
 0001:00032c10       ?parse@?$basic_regex_parser@DU?$regex_traits@DV?$w32_regex_traits@D@boost@@@boost@@@re_detail_500@boost@@QAEXPBD0I@Z 00433c10 f i DXFOption.obj
 0001:00033000       ?_Delete_this@?$_Ref_count@U?$regex_traits_wrapper@U?$regex_traits@DV?$w32_regex_traits@D@boost@@@boost@@@boost@@@std@@EAEXXZ 00434000 f i DXFOption.obj
 0001:00033000       ?_Delete_this@?$_Ref_count@V?$basic_regex_implementation@DU?$regex_traits@DV?$w32_regex_traits@D@boost@@@boost@@@re_detail_500@boost@@@std@@EAEXXZ 00434000 f i DXFOption.obj
 0001:00033000       ?_Delete_this@?$_Ref_count@V?$regex_iterator_implementation@V?$_String_const_iterator@V?$_String_val@U?$_Simple_types@D@std@@@std@@@std@@DU?$regex_traits@DV?$w32_regex_traits@D@boost@@@boost@@@boost@@@std@@EAEXXZ 00434000 f i NCDoc.obj
 0001:00033000       ?_Delete_this@?$_Ref_count@V?$w32_regex_traits_implementation@D@re_detail_500@boost@@@std@@EAEXXZ 00434000 f i DXFOption.obj
 0001:00033000       ?_Delete_this@?$_Ref_count_resource@PAUHINSTANCE__@@P6AXPAX@Z@std@@EAEXXZ 00434000 f i DXFOption.obj
 0001:00033010       ?_Destroy@?$_Ref_count@U?$regex_traits_wrapper@U?$regex_traits@DV?$w32_regex_traits@D@boost@@@boost@@@boost@@@std@@EAEXXZ 00434010 f i DXFOption.obj
 0001:00033060       ??1?$_Temporary_owner@U?$regex_traits_wrapper@U?$regex_traits@DV?$w32_regex_traits@D@boost@@@boost@@@boost@@@std@@QAE@XZ 00434060 f i DXFOption.obj
 0001:000330a0       ?_Destroy@?$_Ref_count@V?$basic_regex_implementation@DU?$regex_traits@DV?$w32_regex_traits@D@boost@@@boost@@@re_detail_500@boost@@@std@@EAEXXZ 004340a0 f i DXFOption.obj
 0001:000330b0       ??1?$_Temporary_owner@V?$basic_regex_implementation@DU?$regex_traits@DV?$w32_regex_traits@D@boost@@@boost@@@re_detail_500@boost@@@std@@QAE@XZ 004340b0 f i DXFOption.obj
 0001:000330c0       ??B?$integral_constant@_N$00@boost@@QBEABU?$bool_@$00@mpl@1@XZ 004340c0 f i DXFOption.obj
 0001:000330d0       ??_E?$_Ref_count@U?$regex_traits_wrapper@U?$regex_traits@DV?$w32_regex_traits@D@boost@@@boost@@@boost@@@std@@UAEPAXI@Z 004340d0 f i * CIL library *:* CIL module *
 0001:000330d0       ??_E?$_Ref_count@V?$basic_regex_implementation@DU?$regex_traits@DV?$w32_regex_traits@D@boost@@@boost@@@re_detail_500@boost@@@std@@UAEPAXI@Z 004340d0 f i * CIL library *:* CIL module *
 0001:000330d0       ??_E?$_Ref_count@V?$regex_iterator_implementation@V?$_String_const_iterator@V?$_String_val@U?$_Simple_types@D@std@@@std@@@std@@DU?$regex_traits@DV?$w32_regex_traits@D@boost@@@boost@@@boost@@@std@@UAEPAXI@Z 004340d0 f i * CIL library *:* CIL module *
 0001:000330d0       ??_E?$_Ref_count@V?$w32_regex_traits_implementation@D@re_detail_500@boost@@@std@@UAEPAXI@Z 004340d0 f i * CIL library *:* CIL module *
 0001:000330d0       ??_G?$_Ref_count@U?$regex_traits_wrapper@U?$regex_traits@DV?$w32_regex_traits@D@boost@@@boost@@@boost@@@std@@UAEPAXI@Z 004340d0 f i DXFOption.obj
 0001:000330d0       ??_G?$_Ref_count@V?$basic_regex_implementation@DU?$regex_traits@DV?$w32_regex_traits@D@boost@@@boost@@@re_detail_500@boost@@@std@@UAEPAXI@Z 004340d0 f i DXFOption.obj
 0001:000330d0       ??_G?$_Ref_count@V?$regex_iterator_implementation@V?$_String_const_iterator@V?$_String_val@U?$_Simple_types@D@std@@@std@@@std@@DU?$regex_traits@DV?$w32_regex_traits@D@boost@@@boost@@@boost@@@std@@UAEPAXI@Z 004340d0 f i NCDoc.obj
 0001:000330d0       ??_G?$_Ref_count@V?$w32_regex_traits_implementation@D@re_detail_500@boost@@@std@@UAEPAXI@Z 004340d0 f i DXFOption.obj
 0001:000330f0       ??_G?$basic_regex_implementation@DU?$regex_traits@DV?$w32_regex_traits@D@boost@@@boost@@@re_detail_500@boost@@QAEPAXI@Z 004340f0 f i DXFOption.obj
 0001:00033160       ?fail@?$basic_regex_parser@DU?$regex_traits@DV?$w32_regex_traits@D@boost@@@boost@@@re_detail_500@boost@@QAEXW4error_type@regex_constants@3@HV?$basic_string@DU?$char_traits@D@std@@V?$allocator@D@2@@std@@H@Z 00434160 f i DXFOption.obj
 0001:000333d0       ?fail@?$basic_regex_parser@DU?$regex_traits@DV?$w32_regex_traits@D@boost@@@boost@@@re_detail_500@boost@@QAEXW4error_type@regex_constants@3@H@Z 004343d0 f i DXFOption.obj
 0001:00033490       ?parse_all@?$basic_regex_parser@DU?$regex_traits@DV?$w32_regex_traits@D@boost@@@boost@@@re_detail_500@boost@@QAE_NXZ 00434490 f i DXFOption.obj
 0001:000335e0       ?parse_basic@?$basic_regex_parser@DU?$regex_traits@DV?$w32_regex_traits@D@boost@@@boost@@@re_detail_500@boost@@QAE_NXZ 004345e0 f i DXFOption.obj
 0001:000337d0       ?parse_extended@?$basic_regex_parser@DU?$regex_traits@DV?$w32_regex_traits@D@boost@@@boost@@@re_detail_500@boost@@QAE_NXZ 004347d0 f i DXFOption.obj
 0001:00033cd0       ?parse_literal@?$basic_regex_parser@DU?$regex_traits@DV?$w32_regex_traits@D@boost@@@boost@@@re_detail_500@boost@@QAE_NXZ 00434cd0 f i DXFOption.obj
 0001:00033d20       ?unwind_alts@?$basic_regex_parser@DU?$regex_traits@DV?$w32_regex_traits@D@boost@@@boost@@@re_detail_500@boost@@QAE_NH@Z 00434d20 f i DXFOption.obj
 0001:00033f90       ?append_state@?$basic_regex_creator@DU?$regex_traits@DV?$w32_regex_traits@D@boost@@@boost@@@re_detail_500@boost@@QAEPAUre_syntax_base@23@W4syntax_element_type@23@I@Z 00434f90 f i DXFOption.obj
 0001:00034020       ?finalize@?$basic_regex_creator@DU?$regex_traits@DV?$w32_regex_traits@D@boost@@@boost@@@re_detail_500@boost@@QAEXPBD0@Z 00435020 f i DXFOption.obj
 0001:00034310       ??$trim_right_if@V?$basic_string@DU?$char_traits@D@std@@V?$allocator@D@2@@std@@Uis_classifiedF@detail@algorithm@boost@@@algorithm@boost@@YAXAAV?$basic_string@DU?$char_traits@D@std@@V?$allocator@D@2@@std@@Uis_classifiedF@detail@01@@Z 00435310 f i DXFOption.obj
 0001:00034470       ??$trim_left_if@V?$basic_string@DU?$char_traits@D@std@@V?$allocator@D@2@@std@@Uis_classifiedF@detail@algorithm@boost@@@algorithm@boost@@YAXAAV?$basic_string@DU?$char_traits@D@std@@V?$allocator@D@2@@std@@Uis_classifiedF@detail@01@@Z 00435470 f i DXFOption.obj
 0001:00034590       ??$?RV?$_String_const_iterator@V?$_String_val@U?$_Simple_types@D@std@@@std@@@std@@V?$basic_string@DU?$char_traits@D@std@@V?$allocator@D@2@@1@@?$char_separator@DU?$char_traits@D@std@@@boost@@QAE_NAAV?$_String_const_iterator@V?$_String_val@U?$_Simple_types@D@std@@@std@@@std@@V23@AAV?$basic_string@DU?$char_traits@D@std@@V?$allocator@D@2@@3@@Z 00435590 f i DXFOption.obj
 0001:000346f0       ?end@?$tokenizer@V?$char_separator@DU?$char_traits@D@std@@@boost@@V?$_String_const_iterator@V?$_String_val@U?$_Simple_types@D@std@@@std@@@std@@V?$basic_string@DU?$char_traits@D@std@@V?$allocator@D@2@@4@@boost@@QBE?AV?$token_iterator@V?$char_separator@DU?$char_traits@D@std@@@boost@@V?$_String_const_iterator@V?$_String_val@U?$_Simple_types@D@std@@@std@@@std@@V?$basic_string@DU?$char_traits@D@std@@V?$allocator@D@2@@4@@2@XZ 004356f0 f i DXFOption.obj
 0001:00034790       ?begin@?$tokenizer@V?$char_separator@DU?$char_traits@D@std@@@boost@@V?$_String_const_iterator@V?$_String_val@U?$_Simple_types@D@std@@@std@@@std@@V?$basic_string@DU?$char_traits@D@std@@V?$allocator@D@2@@4@@boost@@QBE?AV?$token_iterator@V?$char_separator@DU?$char_traits@D@std@@@boost@@V?$_String_const_iterator@V?$_String_val@U?$_Simple_types@D@std@@@std@@@std@@V?$basic_string@DU?$char_traits@D@std@@V?$allocator@D@2@@4@@2@XZ 00435790 f i DXFOption.obj
 0001:00034830       ?is_dropped@?$char_separator@DU?$char_traits@D@std@@@boost@@ABE_ND@Z 00435830 f i DXFOption.obj
 0001:000348a0       ?is_kept@?$char_separator@DU?$char_traits@D@std@@@boost@@ABE_ND@Z 004358a0 f i DXFOption.obj
 0001:00034910       ?assign@?$vector@EV?$allocator@E@std@@@std@@QAEXIABE@Z 00435910 f i DXFOption.obj
 0001:00034a10       ?error_string@?$w32_regex_traits@D@boost@@QBE?AV?$basic_string@DU?$char_traits@D@std@@V?$allocator@D@2@@std@@W4error_type@regex_constants@2@@Z 00435a10 f i DXFOption.obj
 0001:00034a30       ?isctype@?$w32_regex_traits@D@boost@@QBE_NDI@Z 00435a30 f i DXFOption.obj
 0001:00034ac0       ?lookup_classname@?$w32_regex_traits@D@boost@@QBEIPBD0@Z 00435ac0 f i DXFOption.obj
 0001:00034bf0       ??0?$token_iterator@V?$char_separator@DU?$char_traits@D@std@@@boost@@V?$_String_const_iterator@V?$_String_val@U?$_Simple_types@D@std@@@std@@@std@@V?$basic_string@DU?$char_traits@D@std@@V?$allocator@D@2@@4@@boost@@QAE@V?$char_separator@DU?$char_traits@D@std@@@1@V?$_String_const_iterator@V?$_String_val@U?$_Simple_types@D@std@@@std@@@std@@1@Z 00435bf0 f i DXFOption.obj
 0001:00034cd0       ?error_string@?$w32_regex_traits_implementation@D@re_detail_500@boost@@QBE?AV?$basic_string@DU?$char_traits@D@std@@V?$allocator@D@2@@std@@W4error_type@regex_constants@3@@Z 00435cd0 f i DXFOption.obj
 0001:00034ef0       ?lookup_classname_imp@?$w32_regex_traits_implementation@D@re_detail_500@boost@@ABEIPBD0@Z 00435ef0 f i DXFOption.obj
 0001:00035150       ?parse_open_paren@?$basic_regex_parser@DU?$regex_traits@DV?$w32_regex_traits@D@boost@@@boost@@@re_detail_500@boost@@QAE_NXZ 00436150 f i DXFOption.obj
 0001:00035390       ?parse_basic_escape@?$basic_regex_parser@DU?$regex_traits@DV?$w32_regex_traits@D@boost@@@boost@@@re_detail_500@boost@@QAE_NXZ 00436390 f i DXFOption.obj
 0001:00035aa0       ?parse_extended_escape@?$basic_regex_parser@DU?$regex_traits@DV?$w32_regex_traits@D@boost@@@boost@@@re_detail_500@boost@@QAE_NXZ 00436aa0 f i DXFOption.obj
 0001:00036680       ?parse_repeat@?$basic_regex_parser@DU?$regex_traits@DV?$w32_regex_traits@D@boost@@@boost@@@re_detail_500@boost@@QAE_NII@Z 00437680 f i DXFOption.obj
 0001:00036b00       ?parse_repeat_range@?$basic_regex_parser@DU?$regex_traits@DV?$w32_regex_traits@D@boost@@@boost@@@re_detail_500@boost@@QAE_N_N@Z 00437b00 f i DXFOption.obj
 0001:00037320       ?parse_alt@?$basic_regex_parser@DU?$regex_traits@DV?$w32_regex_traits@D@boost@@@boost@@@re_detail_500@boost@@QAE_NXZ 00438320 f i DXFOption.obj
 0001:00037550       ?parse_set@?$basic_regex_parser@DU?$regex_traits@DV?$w32_regex_traits@D@boost@@@boost@@@re_detail_500@boost@@QAE_NXZ 00438550 f i DXFOption.obj
 0001:000377b0       ?append_literal@?$basic_regex_creator@DU?$regex_traits@DV?$w32_regex_traits@D@boost@@@boost@@@re_detail_500@boost@@QAEPAUre_literal@23@D@Z 004387b0 f i DXFOption.obj
 0001:00037880       ?fixup_recursions@?$basic_regex_creator@DU?$regex_traits@DV?$w32_regex_traits@D@boost@@@boost@@@re_detail_500@boost@@AAEXPAUre_syntax_base@23@@Z 00438880 f i DXFOption.obj
 0001:00037b10       ?create_startmaps@?$basic_regex_creator@DU?$regex_traits@DV?$w32_regex_traits@D@boost@@@boost@@@re_detail_500@boost@@AAEXPAUre_syntax_base@23@@Z 00438b10 f i DXFOption.obj
 0001:00037da0       ?create_startmap@?$basic_regex_creator@DU?$regex_traits@DV?$w32_regex_traits@D@boost@@@boost@@@re_detail_500@boost@@AAEXPAUre_syntax_base@23@PAEPAIE@Z 00438da0 f i DXFOption.obj
 0001:00038520       ?do_get@?$object_cache@KV?$w32_regex_traits_implementation@D@re_detail_500@boost@@@boost@@CA?AV?$shared_ptr@$$CBV?$w32_regex_traits_implementation@D@re_detail_500@boost@@@std@@ABKI@Z 00439520 f i DXFOption.obj
 0001:000389c0       ??1?$basic_char_set@DU?$regex_traits@DV?$w32_regex_traits@D@boost@@@boost@@@re_detail_500@boost@@QAE@XZ 004399c0 f i DXFOption.obj
 0001:000389e0       ??1?$set@U?$digraph@D@re_detail_500@boost@@U?$less@U?$digraph@D@re_detail_500@boost@@@std@@V?$allocator@U?$digraph@D@re_detail_500@boost@@@5@@std@@QAE@XZ 004399e0 f i DXFOption.obj
 0001:000389f0       ??1?$_Tree@V?$_Tset_traits@U?$digraph@D@re_detail_500@boost@@U?$less@U?$digraph@D@re_detail_500@boost@@@std@@V?$allocator@U?$digraph@D@re_detail_500@boost@@@5@$0A@@std@@@std@@QAE@XZ 004399f0 f i DXFOption.obj
 0001:00038a30       ??1?$vector@U?$digraph@D@re_detail_500@boost@@V?$allocator@U?$digraph@D@re_detail_500@boost@@@std@@@std@@QAE@XZ 00439a30 f i DXFOption.obj
 0001:00038a90       ??0?$basic_char_set@DU?$regex_traits@DV?$w32_regex_traits@D@boost@@@boost@@@re_detail_500@boost@@QAE@XZ 00439a90 f i DXFOption.obj
 0001:00038b60       ?erase@?$_Tree@V?$_Tmap_traits@KV?$_List_iterator@V?$_List_val@U?$_List_simple_types@U?$pair@V?$shared_ptr@$$CBV?$w32_regex_traits_implementation@D@re_detail_500@boost@@@std@@PBK@std@@@std@@@std@@@std@@U?$less@K@2@V?$allocator@U?$pair@$$CBKV?$_List_iterator@V?$_List_val@U?$_List_simple_types@U?$pair@V?$shared_ptr@$$CBV?$w32_regex_traits_implementation@D@re_detail_500@boost@@@std@@PBK@std@@@std@@@std@@@std@@@std@@@2@$0A@@std@@@std@@QAEIABK@Z 00439b60 f i DXFOption.obj
 0001:00038cc0       ??1?$_Tree@V?$_Tmap_traits@HHU?$less@H@std@@V?$allocator@U?$pair@$$CBHH@std@@@2@$0A@@std@@@std@@QAE@XZ 00439cc0 f i ViewBaseGL.obj
 0001:00038cc0       ??1?$_Tree@V?$_Tmap_traits@KV?$_List_iterator@V?$_List_val@U?$_List_simple_types@U?$pair@V?$shared_ptr@$$CBV?$w32_regex_traits_implementation@D@re_detail_500@boost@@@std@@PBK@std@@@std@@@std@@@std@@U?$less@K@2@V?$allocator@U?$pair@$$CBKV?$_List_iterator@V?$_List_val@U?$_List_simple_types@U?$pair@V?$shared_ptr@$$CBV?$w32_regex_traits_implementation@D@re_detail_500@boost@@@std@@PBK@std@@@std@@@std@@@std@@@std@@@2@$0A@@std@@@std@@QAE@XZ 00439cc0 f i DXFOption.obj
 0001:00038d00       ??1?$list@U?$pair@V?$shared_ptr@$$CBV?$w32_regex_traits_implementation@D@re_detail_500@boost@@@std@@PBK@std@@V?$allocator@U?$pair@V?$shared_ptr@$$CBV?$w32_regex_traits_implementation@D@re_detail_500@boost@@@std@@PBK@std@@@2@@std@@QAE@XZ 00439d00 f i DXFOption.obj
 0001:00038d70       ?_Xrange@?$vector@U?$pair@II@std@@V?$allocator@U?$pair@II@std@@@2@@std@@CAXXZ 00439d70 f i DXFOption.obj
 0001:00038d80       ??E?$_Tree_unchecked_const_iterator@V?$_Tree_val@U?$_Tree_simple_types@U?$digraph@D@re_detail_500@boost@@@std@@@std@@U_Iterator_base0@2@@std@@QAEAAV01@XZ 00439d80 f i DXFOption.obj
 0001:00038d80       ??E?$_Tree_unchecked_const_iterator@V?$_Tree_val@U?$_Tree_simple_types@U?$pair@$$CBKV?$_List_iterator@V?$_List_val@U?$_List_simple_types@U?$pair@V?$shared_ptr@$$CBV?$w32_regex_traits_implementation@D@re_detail_500@boost@@@std@@PBK@std@@@std@@@std@@@std@@@std@@@std@@@std@@U_Iterator_base0@2@@std@@QAEAAV01@XZ 00439d80 f i DXFOption.obj
 0001:00038de0       ?_Extract@?$_Tree_val@U?$_Tree_simple_types@U?$pair@$$CBKV?$_List_iterator@V?$_List_val@U?$_List_simple_types@U?$pair@V?$shared_ptr@$$CBV?$w32_regex_traits_implementation@D@re_detail_500@boost@@@std@@PBK@std@@@std@@@std@@@std@@@std@@@std@@@std@@QAEPAU?$_Tree_node@U?$pair@$$CBKV?$_List_iterator@V?$_List_val@U?$_List_simple_types@U?$pair@V?$shared_ptr@$$CBV?$w32_regex_traits_implementation@D@re_detail_500@boost@@@std@@PBK@std@@@std@@@std@@@std@@@std@@PAX@2@V?$_Tree_unchecked_const_iterator@V?$_Tree_val@U?$_Tree_simple_types@U?$pair@$$CBKV?$_List_iterator@V?$_List_val@U?$_List_simple_types@U?$pair@V?$shared_ptr@$$CBV?$w32_regex_traits_implementation@D@re_detail_500@boost@@@std@@PBK@std@@@std@@@std@@@std@@@std@@@std@@@std@@U_Iterator_base0@2@@2@@Z 00439de0 f i DXFOption.obj
 0001:00039230       ??0?$w32_regex_traits_implementation@D@re_detail_500@boost@@QAE@K@Z 0043a230 f i DXFOption.obj
 0001:00039980       ?parse_backref@?$basic_regex_parser@DU?$regex_traits@DV?$w32_regex_traits@D@boost@@@boost@@@re_detail_500@boost@@QAE_NXZ 0043a980 f i DXFOption.obj
 0001:00039a70       ?parse_set_literal@?$basic_regex_parser@DU?$regex_traits@DV?$w32_regex_traits@D@boost@@@boost@@@re_detail_500@boost@@QAEXAAV?$basic_char_set@DU?$regex_traits@DV?$w32_regex_traits@D@boost@@@boost@@@23@@Z 0043aa70 f i DXFOption.obj
 0001:00039c20       ?parse_inner_set@?$basic_regex_parser@DU?$regex_traits@DV?$w32_regex_traits@D@boost@@@boost@@@re_detail_500@boost@@QAE_NAAV?$basic_char_set@DU?$regex_traits@DV?$w32_regex_traits@D@boost@@@boost@@@23@@Z 0043ac20 f i DXFOption.obj
 0001:0003a4f0       ?parse_QE@?$basic_regex_parser@DU?$regex_traits@DV?$w32_regex_traits@D@boost@@@boost@@@re_detail_500@boost@@QAE_NXZ 0043b4f0 f i DXFOption.obj
 0001:0003a6b0       ?parse_perl_extension@?$basic_regex_parser@DU?$regex_traits@DV?$w32_regex_traits@D@boost@@@boost@@@re_detail_500@boost@@QAE_NXZ 0043b6b0 f i DXFOption.obj
 0001:0003bfa0       ?parse_perl_verb@?$basic_regex_parser@DU?$regex_traits@DV?$w32_regex_traits@D@boost@@@boost@@@re_detail_500@boost@@QAE_NXZ 0043cfa0 f i DXFOption.obj
 0001:0003c530       ?add_emacs_code@?$basic_regex_parser@DU?$regex_traits@DV?$w32_regex_traits@D@boost@@@boost@@@re_detail_500@boost@@QAE_N_N@Z 0043d530 f i DXFOption.obj
 0001:0003caa0       ?unescape_character@?$basic_regex_parser@DU?$regex_traits@DV?$w32_regex_traits@D@boost@@@boost@@@re_detail_500@boost@@QAEDXZ 0043daa0 f i DXFOption.obj
 0001:0003d550       ?insert_state@?$basic_regex_creator@DU?$regex_traits@DV?$w32_regex_traits@D@boost@@@boost@@@re_detail_500@boost@@QAEPAUre_syntax_base@23@HW4syntax_element_type@23@I@Z 0043e550 f i DXFOption.obj
 0001:0003d600       ?append_set@?$basic_regex_creator@DU?$regex_traits@DV?$w32_regex_traits@D@boost@@@boost@@@re_detail_500@boost@@QAEPAUre_syntax_base@23@ABV?$basic_char_set@DU?$regex_traits@DV?$w32_regex_traits@D@boost@@@boost@@@23@@Z 0043e600 f i DXFOption.obj
 0001:0003d630       ?calculate_backstep@?$basic_regex_creator@DU?$regex_traits@DV?$w32_regex_traits@D@boost@@@boost@@@re_detail_500@boost@@AAEHPAUre_syntax_base@23@@Z 0043e630 f i DXFOption.obj
 0001:0003d780       ?set_all_masks@?$basic_regex_creator@DU?$regex_traits@DV?$w32_regex_traits@D@boost@@@boost@@@re_detail_500@boost@@AAEXPAEE@Z 0043e780 f i DXFOption.obj
 0001:0003d820       ?get_repeat_type@?$basic_regex_creator@DU?$regex_traits@DV?$w32_regex_traits@D@boost@@@boost@@@re_detail_500@boost@@AAE?AW4syntax_element_type@23@PAUre_syntax_base@23@@Z 0043e820 f i DXFOption.obj
 0001:0003d8b0       ??$hash_value_from_capture_name@PBD@re_detail_500@boost@@YAHPBD0@Z 0043e8b0 f i DXFOption.obj
 0001:0003d900       ??$re_is_set_member@PADDU?$regex_traits@DV?$w32_regex_traits@D@boost@@@boost@@I@re_detail_500@boost@@YAPADPAD0PBU?$re_set_long@I@01@ABU?$regex_data@DU?$regex_traits@DV?$w32_regex_traits@D@boost@@@boost@@@01@_N@Z 0043e900 f i DXFOption.obj
 0001:0003d900       ??$re_is_set_member@PBDDU?$regex_traits@DV?$w32_regex_traits@D@boost@@@boost@@I@re_detail_500@boost@@YAPBDPBD0PBU?$re_set_long@I@01@ABU?$regex_data@DU?$regex_traits@DV?$w32_regex_traits@D@boost@@@boost@@@01@_N@Z 0043e900 f i NCDoc.obj
 0001:0003ddb0       ??$_Find_lower_bound@H@?$_Tree@V?$_Tmap_traits@HV?$basic_string@DU?$char_traits@D@std@@V?$allocator@D@2@@std@@U?$less@H@2@V?$allocator@U?$pair@$$CBHV?$basic_string@DU?$char_traits@D@std@@V?$allocator@D@2@@std@@@std@@@2@$0A@@std@@@std@@IBE?AU?$_Tree_find_result@PAU?$_Tree_node@U?$pair@$$CBHV?$basic_string@DU?$char_traits@D@std@@V?$allocator@D@2@@std@@@std@@PAX@std@@@1@ABH@Z 0043edb0 f i DXFOption.obj
 0001:0003de00       ??$global_toi@DV?$w32_regex_traits@D@boost@@@re_detail_500@boost@@YA_JAAPBDPBDHABV?$w32_regex_traits@D@1@@Z 0043ee00 f i DXFOption.obj
 0001:0003df20       ??$_Erase_tree@V?$allocator@U?$_Tree_node@U?$pair@$$CBHH@std@@PAX@std@@@std@@@?$_Tree_val@U?$_Tree_simple_types@U?$pair@$$CBHH@std@@@std@@@std@@QAEXAAV?$allocator@U?$_Tree_node@U?$pair@$$CBHH@std@@PAX@std@@@1@PAU?$_Tree_node@U?$pair@$$CBHH@std@@PAX@1@@Z 0043ef20 f i ViewBaseGL.obj
 0001:0003df20       ??$_Erase_tree@V?$allocator@U?$_Tree_node@U?$pair@$$CBKV?$_List_iterator@V?$_List_val@U?$_List_simple_types@U?$pair@V?$shared_ptr@$$CBV?$w32_regex_traits_implementation@D@re_detail_500@boost@@@std@@PBK@std@@@std@@@std@@@std@@@std@@PAX@std@@@std@@@?$_Tree_val@U?$_Tree_simple_types@U?$pair@$$CBKV?$_List_iterator@V?$_List_val@U?$_List_simple_types@U?$pair@V?$shared_ptr@$$CBV?$w32_regex_traits_implementation@D@re_detail_500@boost@@@std@@PBK@std@@@std@@@std@@@std@@@std@@@std@@@std@@QAEXAAV?$allocator@U?$_Tree_node@U?$pair@$$CBKV?$_List_iterator@V?$_List_val@U?$_List_simple_types@U?$pair@V?$shared_ptr@$$CBV?$w32_regex_traits_implementation@D@re_detail_500@boost@@@std@@PBK@std@@@std@@@std@@@std@@@std@@PAX@std@@@1@PAU?$_Tree_node@U?$pair@$$CBKV?$_List_iterator@V?$_List_val@U?$_List_simple_types@U?$pair@V?$shared_ptr@$$CBV?$w32_regex_traits_implementation@D@re_detail_500@boost@@@std@@PBK@std@@@std@@@std@@@std@@@std@@PAX@1@@Z 0043ef20 f i DXFOption.obj
 0001:0003df60       ??1?$map@HV?$basic_string@DU?$char_traits@D@std@@V?$allocator@D@2@@std@@U?$less@H@2@V?$allocator@U?$pair@$$CBHV?$basic_string@DU?$char_traits@D@std@@V?$allocator@D@2@@std@@@std@@@2@@std@@QAE@XZ 0043ef60 f i DXFOption.obj
 0001:0003df80       ??1?$map@V?$basic_string@DU?$char_traits@D@std@@V?$allocator@D@2@@std@@IU?$less@V?$basic_string@DU?$char_traits@D@std@@V?$allocator@D@2@@std@@@2@V?$allocator@U?$pair@$$CBV?$basic_string@DU?$char_traits@D@std@@V?$allocator@D@2@@std@@I@std@@@2@@std@@QAE@XZ 0043ef80 f i DXFOption.obj
 0001:0003dfa0       ??1?$map@V?$basic_string@DU?$char_traits@D@std@@V?$allocator@D@2@@std@@V12@U?$less@V?$basic_string@DU?$char_traits@D@std@@V?$allocator@D@2@@std@@@2@V?$allocator@U?$pair@$$CBV?$basic_string@DU?$char_traits@D@std@@V?$allocator@D@2@@std@@V12@@std@@@2@@std@@QAE@XZ 0043efa0 f i DXFOption.obj
 0001:0003dfc0       ?_Destroy@?$_Ref_count@V?$w32_regex_traits_implementation@D@re_detail_500@boost@@@std@@EAEXXZ 0043efc0 f i DXFOption.obj
 0001:0003dfd0       ??1?$_Temporary_owner@V?$w32_regex_traits_implementation@D@re_detail_500@boost@@@std@@QAE@XZ 0043efd0 f i DXFOption.obj
 0001:0003dfe0       ?add_equivalent@?$basic_char_set@DU?$regex_traits@DV?$w32_regex_traits@D@boost@@@boost@@@re_detail_500@boost@@QAEXABU?$digraph@D@23@@Z 0043efe0 f i DXFOption.obj
 0001:0003e030       ??A?$map@V?$basic_string@DU?$char_traits@D@std@@V?$allocator@D@2@@std@@IU?$less@V?$basic_string@DU?$char_traits@D@std@@V?$allocator@D@2@@std@@@2@V?$allocator@U?$pair@$$CBV?$basic_string@DU?$char_traits@D@std@@V?$allocator@D@2@@std@@I@std@@@2@@std@@QAEAAIABV?$basic_string@DU?$char_traits@D@std@@V?$allocator@D@2@@1@@Z 0043f030 f i DXFOption.obj
 0001:0003e120       ?value@?$w32_regex_traits@D@boost@@QBEHDH@Z 0043f120 f i DXFOption.obj
 0001:0003e190       ??A?$map@HV?$basic_string@DU?$char_traits@D@std@@V?$allocator@D@2@@std@@U?$less@H@2@V?$allocator@U?$pair@$$CBHV?$basic_string@DU?$char_traits@D@std@@V?$allocator@D@2@@std@@@std@@@2@@std@@QAEAAV?$basic_string@DU?$char_traits@D@std@@V?$allocator@D@2@@1@$$QAH@Z 0043f190 f i DXFOption.obj
 0001:0003e260       ??_G?$w32_regex_traits_implementation@D@re_detail_500@boost@@QAEPAXI@Z 0043f260 f i DXFOption.obj
 0001:0003e2e0       ??1?$_Alloc_construct_ptr@V?$allocator@U?$_List_node@U?$pair@V?$shared_ptr@$$CBV?$w32_regex_traits_implementation@D@re_detail_500@boost@@@std@@PBK@std@@PAX@std@@@std@@@std@@QAE@XZ 0043f2e0 f i DXFOption.obj
 0001:0003e300       ?lookup_collatename@?$w32_regex_traits_implementation@D@re_detail_500@boost@@QBE?AV?$basic_string@DU?$char_traits@D@std@@V?$allocator@D@2@@std@@PBD0@Z 0043f300 f i DXFOption.obj
 0001:0003e6b0       ?transform_primary@?$w32_regex_traits_implementation@D@re_detail_500@boost@@QBE?AV?$basic_string@DU?$char_traits@D@std@@V?$allocator@D@2@@std@@PBD0@Z 0043f6b0 f i DXFOption.obj
 0001:0003e990       ?match_verb@?$basic_regex_parser@DU?$regex_traits@DV?$w32_regex_traits@D@boost@@@boost@@@re_detail_500@boost@@QAE_NPBD@Z 0043f990 f i DXFOption.obj
 0001:0003ea40       ?get_next_set_literal@?$basic_regex_parser@DU?$regex_traits@DV?$w32_regex_traits@D@boost@@@boost@@@re_detail_500@boost@@QAE?AU?$digraph@D@23@AAV?$basic_char_set@DU?$regex_traits@DV?$w32_regex_traits@D@boost@@@boost@@@23@@Z 0043fa40 f i DXFOption.obj
 0001:0003ecd0       ?parse_options@?$basic_regex_parser@DU?$regex_traits@DV?$w32_regex_traits@D@boost@@@boost@@@re_detail_500@boost@@QAEIXZ 0043fcd0 f i DXFOption.obj
 0001:0003ee90       ?append_set@?$basic_regex_creator@DU?$regex_traits@DV?$w32_regex_traits@D@boost@@@boost@@@re_detail_500@boost@@QAEPAUre_syntax_base@23@ABV?$basic_char_set@DU?$regex_traits@DV?$w32_regex_traits@D@boost@@@boost@@@23@PAU?$integral_constant@_N$00@std@@@Z 0043fe90 f i DXFOption.obj
 0001:0003f760       ?append_set@?$basic_regex_creator@DU?$regex_traits@DV?$w32_regex_traits@D@boost@@@boost@@@re_detail_500@boost@@QAEPAUre_syntax_base@23@ABV?$basic_char_set@DU?$regex_traits@DV?$w32_regex_traits@D@boost@@@boost@@@23@PAU?$integral_constant@_N$0A@@std@@@Z 00440760 f i DXFOption.obj
 0001:00040100       ??$find_sort_syntax@V?$w32_regex_traits_implementation@D@re_detail_500@boost@@D@re_detail_500@boost@@YAIPBV?$w32_regex_traits_implementation@D@01@PAD@Z 00441100 f i DXFOption.obj
 0001:00040450       ??$valid_value@D@re_detail_500@boost@@YA_ND_J@Z 00441450 f i DXFOption.obj
 0001:00040470       ??$emplace@U?$pair@KV?$_List_iterator@V?$_List_val@U?$_List_simple_types@U?$pair@V?$shared_ptr@$$CBV?$w32_regex_traits_implementation@D@re_detail_500@boost@@@std@@PBK@std@@@std@@@std@@@std@@@std@@@?$_Tree@V?$_Tmap_traits@KV?$_List_iterator@V?$_List_val@U?$_List_simple_types@U?$pair@V?$shared_ptr@$$CBV?$w32_regex_traits_implementation@D@re_detail_500@boost@@@std@@PBK@std@@@std@@@std@@@std@@U?$less@K@2@V?$allocator@U?$pair@$$CBKV?$_List_iterator@V?$_List_val@U?$_List_simple_types@U?$pair@V?$shared_ptr@$$CBV?$w32_regex_traits_implementation@D@re_detail_500@boost@@@std@@PBK@std@@@std@@@std@@@std@@@std@@@2@$0A@@std@@@std@@QAE?AU?$pair@V?$_Tree_iterator@V?$_Tree_val@U?$_Tree_simple_types@U?$pair@$$CBKV?$_List_iterator@V?$_List_val@U?$_List_simple_types@U?$pair@V?$shared_ptr@$$CBV?$w32_regex_traits_implementation@D@re_detail_500@boost@@@std@@PBK@std@@@std@@@std@@@std@@@std@@@std@@@std@@@std@@_N@1@$$QAU?$pair@KV?$_List_iterator@V?$_List_val@U?$_List_simple_types@U?$pair@V?$shared_ptr@$$CBV?$w32_regex_traits_implementation@D@re_detail_500@boost@@@std@@PBK@std@@@std@@@std@@@std@@@1@@Z 00441470 f i DXFOption.obj
 0001:00040540       ??$_Emplace_reallocate@U?$pair@II@std@@@?$vector@U?$pair@II@std@@V?$allocator@U?$pair@II@std@@@2@@std@@AAEPAU?$pair@II@1@QAU21@$$QAU21@@Z 00441540 f i DXFOption.obj
 0001:00040540       ??$_Emplace_reallocate@U?$pair@_NPAUre_syntax_base@re_detail_500@boost@@@std@@@?$vector@U?$pair@_NPAUre_syntax_base@re_detail_500@boost@@@std@@V?$allocator@U?$pair@_NPAUre_syntax_base@re_detail_500@boost@@@std@@@2@@std@@AAEPAU?$pair@_NPAUre_syntax_base@re_detail_500@boost@@@1@QAU21@$$QAU21@@Z 00441540 f i DXFOption.obj
 0001:00040540       ??$_Emplace_reallocate@Uname@named_subexpressions@re_detail_500@boost@@@?$vector@Uname@named_subexpressions@re_detail_500@boost@@V?$allocator@Uname@named_subexpressions@re_detail_500@boost@@@std@@@std@@AAEPAUname@named_subexpressions@re_detail_500@boost@@QAU2345@$$QAU2345@@Z 00441540 f i DXFOption.obj
 0001:000406a0       ??$_Erase_tree@V?$allocator@U?$_Tree_node@U?$digraph@D@re_detail_500@boost@@PAX@std@@@std@@@?$_Tree_val@U?$_Tree_simple_types@U?$digraph@D@re_detail_500@boost@@@std@@@std@@QAEXAAV?$allocator@U?$_Tree_node@U?$digraph@D@re_detail_500@boost@@PAX@std@@@1@PAU?$_Tree_node@U?$digraph@D@re_detail_500@boost@@PAX@1@@Z 004416a0 f i DXFOption.obj
 0001:000406e0       ??$_Find_lower_bound@K@?$_Tree@V?$_Tmap_traits@KV?$_List_iterator@V?$_List_val@U?$_List_simple_types@U?$pair@V?$shared_ptr@$$CBV?$w32_regex_traits_implementation@D@re_detail_500@boost@@@std@@PBK@std@@@std@@@std@@@std@@U?$less@K@2@V?$allocator@U?$pair@$$CBKV?$_List_iterator@V?$_List_val@U?$_List_simple_types@U?$pair@V?$shared_ptr@$$CBV?$w32_regex_traits_implementation@D@re_detail_500@boost@@@std@@PBK@std@@@std@@@std@@@std@@@std@@@2@$0A@@std@@@std@@IBE?AU?$_Tree_find_result@PAU?$_Tree_node@U?$pair@$$CBKV?$_List_iterator@V?$_List_val@U?$_List_simple_types@U?$pair@V?$shared_ptr@$$CBV?$w32_regex_traits_implementation@D@re_detail_500@boost@@@std@@PBK@std@@@std@@@std@@@std@@@std@@PAX@std@@@1@ABK@Z 004416e0 f i DXFOption.obj
 0001:00040730       ??$_Emplace_reallocate@ABQAUCREATEBOTTOMVERTEXPARAM@@@?$vector@PAUCREATEBOTTOMVERTEXPARAM@@V?$allocator@PAUCREATEBOTTOMVERTEXPARAM@@@std@@@std@@AAEPAPAUCREATEBOTTOMVERTEXPARAM@@QAPAU2@ABQAU2@@Z 00441730 f i NCViewGL_Mill.obj
 0001:00040730       ??$_Emplace_reallocate@ABQAU__POSITION@@@?$vector@PAU__POSITION@@V?$allocator@PAU__POSITION@@@std@@@std@@AAEPAPAU__POSITION@@QAPAU2@ABQAU2@@Z 00441730 f i DXFshape.obj
 0001:00040730       ??$_Emplace_reallocate@H@?$vector@HV?$allocator@H@std@@@std@@AAEPAHQAH$$QAH@Z 00441730 f i TH_MakeNurbs.obj
 0001:00040730       ??$_Emplace_reallocate@J@?$vector@JV?$allocator@J@std@@@std@@AAEPAJQAJ$$QAJ@Z 00441730 f i DXFOption.obj
 0001:00040730       ??$_Emplace_reallocate@PAX@?$vector@PAXV?$allocator@PAX@std@@@std@@AAEPAPAXQAPAX$$QAPAX@Z 00441730 f i NCViewGL_Mill.obj
 0001:00040890       ??$_Find_lower_bound@V?$basic_string@DU?$char_traits@D@std@@V?$allocator@D@2@@std@@@?$_Tree@V?$_Tmap_traits@V?$basic_string@DU?$char_traits@D@std@@V?$allocator@D@2@@std@@IU?$less@V?$basic_string@DU?$char_traits@D@std@@V?$allocator@D@2@@std@@@2@V?$allocator@U?$pair@$$CBV?$basic_string@DU?$char_traits@D@std@@V?$allocator@D@2@@std@@I@std@@@2@$0A@@std@@@std@@IBE?AU?$_Tree_find_result@PAU?$_Tree_node@U?$pair@$$CBV?$basic_string@DU?$char_traits@D@std@@V?$allocator@D@2@@std@@I@std@@PAX@std@@@1@ABV?$basic_string@DU?$char_traits@D@std@@V?$allocator@D@2@@1@@Z 00441890 f i DXFOption.obj
 0001:00040910       ??$insert@$0A@$0A@@?$_Tree@V?$_Tset_traits@U?$digraph@D@re_detail_500@boost@@U?$less@U?$digraph@D@re_detail_500@boost@@@std@@V?$allocator@U?$digraph@D@re_detail_500@boost@@@5@$0A@@std@@@std@@QAE?AU?$pair@V?$_Tree_const_iterator@V?$_Tree_val@U?$_Tree_simple_types@U?$digraph@D@re_detail_500@boost@@@std@@@std@@@std@@_N@1@ABU?$digraph@D@re_detail_500@boost@@@Z 00441910 f i DXFOption.obj
 0001:00040a20       ?_Insert_node@?$_Tree_val@U?$_Tree_simple_types@U?$digraph@D@re_detail_500@boost@@@std@@@std@@QAEPAU?$_Tree_node@U?$digraph@D@re_detail_500@boost@@PAX@2@U?$_Tree_id@PAU?$_Tree_node@U?$digraph@D@re_detail_500@boost@@PAX@std@@@2@QAU32@@Z 00441a20 f i DXFOption.obj
 0001:00040a20       ?_Insert_node@?$_Tree_val@U?$_Tree_simple_types@U?$pair@$$CBHH@std@@@std@@@std@@QAEPAU?$_Tree_node@U?$pair@$$CBHH@std@@PAX@2@U?$_Tree_id@PAU?$_Tree_node@U?$pair@$$CBHH@std@@PAX@std@@@2@QAU32@@Z 00441a20 f i ViewBaseGL.obj
 0001:00040a20       ?_Insert_node@?$_Tree_val@U?$_Tree_simple_types@U?$pair@$$CBHV?$basic_string@DU?$char_traits@D@std@@V?$allocator@D@2@@std@@@std@@@std@@@std@@QAEPAU?$_Tree_node@U?$pair@$$CBHV?$basic_string@DU?$char_traits@D@std@@V?$allocator@D@2@@std@@@std@@PAX@2@U?$_Tree_id@PAU?$_Tree_node@U?$pair@$$CBHV?$basic_string@DU?$char_traits@D@std@@V?$allocator@D@2@@std@@@std@@PAX@std@@@2@QAU32@@Z 00441a20 f i DXFOption.obj
 0001:00040a20       ?_Insert_node@?$_Tree_val@U?$_Tree_simple_types@U?$pair@$$CBKV?$_List_iterator@V?$_List_val@U?$_List_simple_types@U?$pair@V?$shared_ptr@$$CBV?$w32_regex_traits_implementation@D@re_detail_500@boost@@@std@@PBK@std@@@std@@@std@@@std@@@std@@@std@@@std@@QAEPAU?$_Tree_node@U?$pair@$$CBKV?$_List_iterator@V?$_List_val@U?$_List_simple_types@U?$pair@V?$shared_ptr@$$CBV?$w32_regex_traits_implementation@D@re_detail_500@boost@@@std@@PBK@std@@@std@@@std@@@std@@@std@@PAX@2@U?$_Tree_id@PAU?$_Tree_node@U?$pair@$$CBKV?$_List_iterator@V?$_List_val@U?$_List_simple_types@U?$pair@V?$shared_ptr@$$CBV?$w32_regex_traits_implementation@D@re_detail_500@boost@@@std@@PBK@std@@@std@@@std@@@std@@@std@@PAX@std@@@2@QAU32@@Z 00441a20 f i DXFOption.obj
 0001:00040a20       ?_Insert_node@?$_Tree_val@U?$_Tree_simple_types@U?$pair@$$CBV?$basic_string@DU?$char_traits@D@std@@V?$allocator@D@2@@std@@I@std@@@std@@@std@@QAEPAU?$_Tree_node@U?$pair@$$CBV?$basic_string@DU?$char_traits@D@std@@V?$allocator@D@2@@std@@I@std@@PAX@2@U?$_Tree_id@PAU?$_Tree_node@U?$pair@$$CBV?$basic_string@DU?$char_traits@D@std@@V?$allocator@D@2@@std@@I@std@@PAX@std@@@2@QAU32@@Z 00441a20 f i DXFOption.obj
 0001:00040c10       ??1?$_Alloc_construct_ptr@V?$allocator@U?$_Tree_node@U?$pair@$$CBHV?$basic_string@DU?$char_traits@D@std@@V?$allocator@D@2@@std@@@std@@PAX@std@@@std@@@std@@QAE@XZ 00441c10 f i DXFOption.obj
 0001:00040c10       ??1?$_Alloc_construct_ptr@V?$allocator@U?$_Tree_node@U?$pair@$$CBV?$basic_string@DU?$char_traits@D@std@@V?$allocator@D@2@@std@@I@std@@PAX@std@@@std@@@std@@QAE@XZ 00441c10 f i DXFOption.obj
 0001:00040c10       ??1?$_Tree_temp_node_alloc@V?$allocator@U?$_Tree_node@U?$pair@$$CBV?$basic_string@DU?$char_traits@D@std@@V?$allocator@D@2@@std@@I@std@@PAX@std@@@std@@@std@@QAE@XZ 00441c10 f i DXFOption.obj
 0001:00040c30       ??$?0V?$_String_iterator@V?$_String_val@U?$_Simple_types@D@std@@@std@@@std@@$0A@@?$basic_string@DU?$char_traits@D@std@@V?$allocator@D@2@@std@@QAE@V?$_String_iterator@V?$_String_val@U?$_Simple_types@D@std@@@std@@@1@0ABV?$allocator@D@1@@Z 00441c30 f i DXFOption.obj
 0001:00040cf0       ??$distance@V?$_Tree_const_iterator@V?$_Tree_val@U?$_Tree_simple_types@U?$digraph@D@re_detail_500@boost@@@std@@@std@@@std@@@std@@YAHV?$_Tree_const_iterator@V?$_Tree_val@U?$_Tree_simple_types@U?$digraph@D@re_detail_500@boost@@@std@@@std@@@0@0@Z 00441cf0 f i DXFOption.obj
 0001:00040d50       ??$_Erase_tree@V?$allocator@U?$_Tree_node@U?$pair@$$CBV?$basic_string@DU?$char_traits@D@std@@V?$allocator@D@2@@std@@V12@@std@@PAX@std@@@std@@@?$_Tree_val@U?$_Tree_simple_types@U?$pair@$$CBV?$basic_string@DU?$char_traits@D@std@@V?$allocator@D@2@@std@@V12@@std@@@std@@@std@@QAEXAAV?$allocator@U?$_Tree_node@U?$pair@$$CBV?$basic_string@DU?$char_traits@D@std@@V?$allocator@D@2@@std@@V12@@std@@PAX@std@@@1@PAU?$_Tree_node@U?$pair@$$CBV?$basic_string@DU?$char_traits@D@std@@V?$allocator@D@2@@std@@V12@@std@@PAX@1@@Z 00441d50 f i DXFOption.obj
 0001:00040e20       ??$_Erase_tree@V?$allocator@U?$_Tree_node@U?$pair@$$CBV?$basic_string@DU?$char_traits@D@std@@V?$allocator@D@2@@std@@I@std@@PAX@std@@@std@@@?$_Tree_val@U?$_Tree_simple_types@U?$pair@$$CBV?$basic_string@DU?$char_traits@D@std@@V?$allocator@D@2@@std@@I@std@@@std@@@std@@QAEXAAV?$allocator@U?$_Tree_node@U?$pair@$$CBV?$basic_string@DU?$char_traits@D@std@@V?$allocator@D@2@@std@@I@std@@PAX@std@@@1@PAU?$_Tree_node@U?$pair@$$CBV?$basic_string@DU?$char_traits@D@std@@V?$allocator@D@2@@std@@I@std@@PAX@1@@Z 00441e20 f i DXFOption.obj
 0001:00040eb0       ??$_Erase_tree@V?$allocator@U?$_Tree_node@U?$pair@$$CBHV?$basic_string@DU?$char_traits@D@std@@V?$allocator@D@2@@std@@@std@@PAX@std@@@std@@@?$_Tree_val@U?$_Tree_simple_types@U?$pair@$$CBHV?$basic_string@DU?$char_traits@D@std@@V?$allocator@D@2@@std@@@std@@@std@@@std@@QAEXAAV?$allocator@U?$_Tree_node@U?$pair@$$CBHV?$basic_string@DU?$char_traits@D@std@@V?$allocator@D@2@@std@@@std@@PAX@std@@@1@PAU?$_Tree_node@U?$pair@$$CBHV?$basic_string@DU?$char_traits@D@std@@V?$allocator@D@2@@std@@@std@@PAX@1@@Z 00441eb0 f i DXFOption.obj
 0001:00040f40       ??$_Emplace_reallocate@ABU?$digraph@D@re_detail_500@boost@@@?$vector@U?$digraph@D@re_detail_500@boost@@V?$allocator@U?$digraph@D@re_detail_500@boost@@@std@@@std@@AAEPAU?$digraph@D@re_detail_500@boost@@QAU234@ABU234@@Z 00441f40 f i DXFOption.obj
 0001:000410e0       ??1?$_Alloc_construct_ptr@V?$allocator@U?$_Tree_node@U?$digraph@D@re_detail_500@boost@@PAX@std@@@std@@@std@@QAE@XZ 004420e0 f i DXFOption.obj
 0001:00041100       ??1?$_Alloc_construct_ptr@V?$allocator@U?$_Tree_node@U?$pair@$$CBHH@std@@PAX@std@@@std@@@std@@QAE@XZ 00442100 f i ViewBaseGL.obj
 0001:00041100       ??1?$_Alloc_construct_ptr@V?$allocator@U?$_Tree_node@U?$pair@$$CBKV?$_List_iterator@V?$_List_val@U?$_List_simple_types@U?$pair@V?$shared_ptr@$$CBV?$w32_regex_traits_implementation@D@re_detail_500@boost@@@std@@PBK@std@@@std@@@std@@@std@@@std@@PAX@std@@@std@@@std@@QAE@XZ 00442100 f i DXFOption.obj
 0001:00041120       ?_Throw_tree_length_error@std@@YAXXZ 00442120 f i DXFOption.obj
 0001:00041130       ?insert@?$basic_string@DU?$char_traits@D@std@@V?$allocator@D@2@@std@@QAEAAV12@IID@Z 00442130 f i DXFOption.obj
 0001:000412d0       ??$_Traits_equal@U?$char_traits@D@std@@@std@@YA_NQBDI0I@Z 004422d0 f i DXFOption.obj
 0001:00041340       ?lookup_default_collate_name@re_detail_500@boost@@YA?AV?$basic_string@DU?$char_traits@D@std@@V?$allocator@D@2@@std@@ABV34@@Z 00442340 f i DXFOption.obj
 0001:000414b0       ??0?$basic_string@DU?$char_traits@D@std@@V?$allocator@D@2@@std@@QAE@ID@Z 004424b0 f i DXFOption.obj
 0001:00041560       ?_Xran@?$_String_val@U?$_Simple_types@D@std@@@std@@SAXXZ 00442560 f i DXFOption.obj
 0001:00041570       ?w32_transform@re_detail_500@boost@@YA?AV?$basic_string@DU?$char_traits@D@std@@V?$allocator@D@2@@std@@KPBD0@Z 00442570 f i DXFOption.obj
 0001:00041740       ??4?$basic_string@DU?$char_traits@D@std@@V?$allocator@D@2@@std@@QAEAAV01@$$QAV01@@Z 00442740 f i DXFOption.obj
 0001:000417c0       ?append@?$basic_string@DU?$char_traits@D@std@@V?$allocator@D@2@@std@@QAEAAV12@ID@Z 004427c0 f i DXFOption.obj
 0001:00041920       ?get_catalog_name@?$w32_regex_traits@D@boost@@SA?AV?$basic_string@DU?$char_traits@D@std@@V?$allocator@D@2@@std@@XZ 00442920 f i DXFOption.obj
 0001:00041ae0       ??1?$_Temporary_owner_del@PAUHINSTANCE__@@P6AXPAX@Z@std@@QAE@XZ 00442ae0 f i DXFOption.obj
 0001:00041b30       ?_Destroy@?$_Ref_count_resource@PAUHINSTANCE__@@P6AXPAX@Z@std@@EAEXXZ 00442b30 f i DXFOption.obj
 0001:00041b80       ??_E?$_Ref_count_resource@PAUHINSTANCE__@@P6AXPAX@Z@std@@UAEPAXI@Z 00442b80 f i * CIL library *:* CIL module *
 0001:00041b80       ??_G?$_Ref_count_resource@PAUHINSTANCE__@@P6AXPAX@Z@std@@UAEPAXI@Z 00442b80 f i DXFOption.obj
 0001:00041ba0       ?_Get_deleter@?$_Ref_count_resource@PAUHINSTANCE__@@P6AXPAX@Z@std@@UBEPAXABVtype_info@@@Z 00442ba0 f i DXFOption.obj
 0001:00041bd0       ?free_module@re_detail_500@boost@@YAXPAX@Z 00442bd0 f i DXFOption.obj
 0001:00041be0       ?w32_cat_open@re_detail_500@boost@@YA?AV?$shared_ptr@X@std@@ABV?$basic_string@DU?$char_traits@D@std@@V?$allocator@D@2@@4@@Z 00442be0 f i DXFOption.obj
 0001:00041ca0       ??$?HDU?$char_traits@D@std@@V?$allocator@D@1@@std@@YA?AV?$basic_string@DU?$char_traits@D@std@@V?$allocator@D@2@@0@ABV10@0@Z 00442ca0 f i DXFOption.obj
 0001:00041d80       ??0?$wrapexcept@Vruntime_error@std@@@boost@@QAE@ABVruntime_error@std@@@Z 00442d80 f i DXFOption.obj
 0001:00041df0       ?clone@?$wrapexcept@Vruntime_error@std@@@boost@@UBEPBVclone_base@exception_detail@2@XZ 00442df0 f i DXFOption.obj
 0001:00041e80       ?rethrow@?$wrapexcept@Vruntime_error@std@@@boost@@UBEXXZ 00442e80 f i DXFOption.obj
 0001:00041eb0       ??0?$wrapexcept@Vruntime_error@std@@@boost@@QAE@ABU01@@Z 00442eb0 f i DXFOption.obj
 0001:00041f80       ??$throw_exception@Vruntime_error@std@@@boost@@YAXABVruntime_error@std@@@Z 00442f80 f i DXFOption.obj
 0001:00041fb0       ??$raise_runtime_error@Vruntime_error@std@@@re_detail_500@boost@@YAXABVruntime_error@std@@@Z 00442fb0 f i DXFOption.obj
 0001:00041fc0       ?get_default_syntax@re_detail_500@boost@@YAPBDE@Z 00442fc0 f i DXFOption.obj
 0001:00042250       ??$init@D@?$w32_regex_traits_char_layer@D@re_detail_500@boost@@AAEXXZ 00443250 f i DXFOption.obj
 0001:00042800       ??1recursion_saver@re_detail_500@boost@@QAE@XZ 00443800 f i DXFOption.obj
 0001:00042880       ??A?$basic_string@DU?$char_traits@D@std@@V?$allocator@D@2@@std@@QAEAADI@Z 00443880 f i DXFOption.obj
 0001:000428a0       ?_Buy_raw@?$vector@EV?$allocator@E@std@@@std@@AAEXI@Z 004438a0 f i DXFOption.obj
 0001:00042920       ??1?$lock_guard@Vmutex@std@@@std@@QAE@XZ 00443920 f i DXFOption.obj
 0001:00042930       ?resize@raw_storage@re_detail_500@boost@@QAEXI@Z 00443930 f i DXFOption.obj
 0001:000429a0       ??0?$wrapexcept@Vregex_error@boost@@@boost@@QAE@ABVregex_error@1@@Z 004439a0 f i DXFOption.obj
 0001:00042a20       ?clone@?$wrapexcept@Vregex_error@boost@@@boost@@UBEPBVclone_base@exception_detail@2@XZ 00443a20 f i DXFOption.obj
 0001:00042ab0       ?rethrow@?$wrapexcept@Vregex_error@boost@@@boost@@UBEXXZ 00443ab0 f i DXFOption.obj
 0001:00042ae0       ??0?$wrapexcept@Vregex_error@boost@@@boost@@QAE@ABU01@@Z 00443ae0 f i DXFOption.obj
 0001:00042bb0       ??0regex_error@boost@@QAE@ABV01@@Z 00443bb0 f i DXFOption.obj
 0001:00042bf0       ??$throw_exception@Vregex_error@boost@@@boost@@YAXABVregex_error@0@@Z 00443bf0 f i DXFOption.obj
 0001:00042c20       ??$raise_runtime_error@Vregex_error@boost@@@re_detail_500@boost@@YAXABVregex_error@1@@Z 00443c20 f i NCDoc.obj
 0001:00042c20       ?raise@regex_error@boost@@QBEXXZ 00443c20 f i DXFOption.obj
 0001:00042c30       ??0runtime_error@std@@QAE@ABV?$basic_string@DU?$char_traits@D@std@@V?$allocator@D@2@@1@@Z 00443c30 f i DXFOption.obj
 0001:00042c80       ??0regex_error@boost@@QAE@ABV?$basic_string@DU?$char_traits@D@std@@V?$allocator@D@2@@std@@W4error_type@regex_constants@1@H@Z 00443c80 f i DXFOption.obj
 0001:00042ce0       ??1?$vector@EV?$allocator@E@std@@@std@@QAE@XZ 00443ce0 f i DXFOption.obj
 0001:00042d30       ??0?$basic_string@DU?$char_traits@D@std@@V?$allocator@D@2@@std@@QAE@ABV01@@Z 00443d30 f i DXFOption.obj
 0001:00042de0       ?GetMessageMap@CDxfSetup@@MBEPBUAFX_MSGMAP@@XZ 00443de0 f   DxfSetup.obj
 0001:00042df0       ??0CDxfSetup@@QAE@I@Z      00443df0 f   DxfSetup.obj
 0001:00043070       ??_ECDxfSetup@@UAEPAXI@Z   00444070 f i * CIL library *:* CIL module *
 0001:00043070       ??_GCDxfSetup@@UAEPAXI@Z   00444070 f i DxfSetup.obj
 0001:000430b0       ??1CDxfSetup@@UAE@XZ       004440b0 f i DxfSetup.obj
 0001:00043190       ??1CDxfSetup1@@UAE@XZ      00444190 f i DxfSetup.obj
 0001:000431e0       ??1CDxfSetup2@@UAE@XZ      004441e0 f i DxfSetup.obj
 0001:00043230       ?OnReload@CDxfSetup@@QAEHPAVCPropertyPage@@@Z 00444230 f   DxfSetup.obj
 0001:00043420       ??1CDxfSetupReload@@UAE@XZ 00444420 f i DxfSetup.obj
 0001:00043440       ?OnDestroy@CDxfSetup@@IAEXXZ 00444440 f   DxfSetup.obj
 0001:00043460       ?GetMessageMap@CDxfSetup1@@MBEPBUAFX_MSGMAP@@XZ 00444460 f   DxfSetup1.obj
 0001:00043470       ??_ECDxfSetup1@@UAEPAXI@Z  00444470 f i * CIL library *:* CIL module *
 0001:00043470       ??_GCDxfSetup1@@UAEPAXI@Z  00444470 f i DxfSetup1.obj
 0001:000434f0       ?DoDataExchange@CDxfSetup1@@MAEXPAVCDataExchange@@@Z 004444f0 f   DxfSetup1.obj
 0001:00043570       ?OnInitDialog@CDxfSetup1@@MAEHXZ 00444570 f   DxfSetup1.obj
 0001:000435f0       ?OnApply@CDxfSetup1@@UAEHXZ 004445f0 f   DxfSetup1.obj
 0001:000436e0       ?OnSetActive@CDxfSetup1@@UAEHXZ 004446e0 f   DxfSetup1.obj
 0001:00043710       ?OnKillActive@CDxfSetup1@@UAEHXZ 00444710 f   DxfSetup1.obj
 0001:00043780       ?OnReload@CDxfSetup1@@IAEXXZ 00444780 f   DxfSetup1.obj
 0001:00043810       ?GetMessageMap@CDxfSetup2@@MBEPBUAFX_MSGMAP@@XZ 00444810 f   DxfSetup2.obj
 0001:00043820       ??_ECDxfSetup2@@UAEPAXI@Z  00444820 f i * CIL library *:* CIL module *
 0001:00043820       ??_GCDxfSetup2@@UAEPAXI@Z  00444820 f i DxfSetup2.obj
 0001:000438a0       ?DoDataExchange@CDxfSetup2@@MAEXPAVCDataExchange@@@Z 004448a0 f   DxfSetup2.obj
 0001:00043910       ?OnInitDialog@CDxfSetup2@@MAEHXZ 00444910 f   DxfSetup2.obj
 0001:00043950       ?OnApply@CDxfSetup2@@UAEHXZ 00444950 f   DxfSetup2.obj
 0001:000439a0       ?OnReload@CDxfSetup2@@IAEXXZ 004449a0 f   DxfSetup2.obj
 0001:00043a30       ?OnSetActive@CDxfSetup2@@UAEHXZ 00444a30 f   DxfSetup2.obj
 0001:00043a70       ??_ECDxfSetupReload@@UAEPAXI@Z 00444a70 f i * CIL library *:* CIL module *
 0001:00043a70       ??_GCDxfSetupReload@@UAEPAXI@Z 00444a70 f i DxfSetupReload.obj
 0001:00043ac0       ?OnInitDialog@CDxfSetupReload@@MAEHXZ 00444ac0 f   DxfSetupReload.obj
 0001:00043c30       ?OnOK@CDxfSetupReload@@MAEXXZ 00444c30 f   DxfSetupReload.obj
 0001:00043cb0       ??_ECListBox@@UAEPAXI@Z    00444cb0 f i * CIL library *:* CIL module *
 0001:00043cb0       ??_GCListBox@@UAEPAXI@Z    00444cb0 f i DxfSetupReload.obj
 0001:00043cf0       ??0CListBox@@QAE@XZ        00444cf0 f i DxfSetupReload.obj
 0001:00043d10       ??_ECCheckListBox@@UAEPAXI@Z 00444d10 f i * CIL library *:* CIL module *
 0001:00043d10       ??_GCCheckListBox@@UAEPAXI@Z 00444d10 f i DxfSetupReload.obj
 0001:00043d50       ??$HashKey@AAV?$CPointT@M@@@@YGIAAV?$CPointT@M@@@Z 00444d50 f i DXFshape.obj
 0001:00043d90       ??_ECDXFworkingDirection@@UAEPAXI@Z 00444d90 f i * CIL library *:* CIL module *
 0001:00043d90       ??_GCDXFworkingDirection@@UAEPAXI@Z 00444d90 f i DXFshape.obj
 0001:00043dd0       ??1CDXFworking@@UAE@XZ     00444dd0 f i DXFshape.obj
 0001:00043dd0       ??1DXFTARGV@@QAE@XZ        00444dd0 f i NCVCaddinDXF.obj
 0001:00043de0       ??_ECDXFworkingStart@@UAEPAXI@Z 00444de0 f i * CIL library *:* CIL module *
 0001:00043de0       ??_GCDXFworkingStart@@UAEPAXI@Z 00444de0 f i DXFshape.obj
 0001:00043e20       ??_ECDXFworkingOutline@@UAEPAXI@Z 00444e20 f i * CIL library *:* CIL module *
 0001:00043e20       ??_GCDXFworkingOutline@@UAEPAXI@Z 00444e20 f i DXFshape.obj
 0001:00043f20       ??_ECDXFworkingPocket@@UAEPAXI@Z 00444f20 f i * CIL library *:* CIL module *
 0001:00043f20       ??_GCDXFworkingPocket@@UAEPAXI@Z 00444f20 f i DXFshape.obj
 0001:00043ff0       ?GetShapeChain@CDXFshape@@QBEPAVCDXFchain@@XZ 00444ff0 f i DXFshape.obj
 0001:00044090       ?GetShapeMap@CDXFshape@@QBEPAVCDXFmap@@XZ 00445090 f i DXFshape.obj
 0001:00044130       ?GetRuntimeClass@CDXFworking@@UBEPAUCRuntimeClass@@XZ 00445130 f   DXFshape.obj
 0001:00044130       ?_GetBaseClass@CDXFworkingDirection@@KGPAUCRuntimeClass@@XZ 00445130 f   DXFshape.obj
 0001:00044130       ?_GetBaseClass@CDXFworkingOutline@@KGPAUCRuntimeClass@@XZ 00445130 f   DXFshape.obj
 0001:00044130       ?_GetBaseClass@CDXFworkingPocket@@KGPAUCRuntimeClass@@XZ 00445130 f   DXFshape.obj
 0001:00044130       ?_GetBaseClass@CDXFworkingStart@@KGPAUCRuntimeClass@@XZ 00445130 f   DXFshape.obj
 0001:00044140       ?CreateObject@CDXFworkingDirection@@SGPAVCObject@@XZ 00445140 f   DXFshape.obj
 0001:00044220       ?GetRuntimeClass@CDXFworkingDirection@@UBEPAUCRuntimeClass@@XZ 00445220 f   DXFshape.obj
 0001:00044230       ?CreateObject@CDXFworkingStart@@SGPAVCObject@@XZ 00445230 f   DXFshape.obj
 0001:000442e0       ?GetRuntimeClass@CDXFworkingStart@@UBEPAUCRuntimeClass@@XZ 004452e0 f   DXFshape.obj
 0001:000442f0       ?CreateObject@CDXFworkingOutline@@SGPAVCObject@@XZ 004452f0 f   DXFshape.obj
 0001:000443d0       ?GetRuntimeClass@CDXFworkingOutline@@UBEPAUCRuntimeClass@@XZ 004453d0 f   DXFshape.obj
 0001:000443e0       ?CreateObject@CDXFworkingPocket@@SGPAVCObject@@XZ 004453e0 f   DXFshape.obj
 0001:00044480       ?GetRuntimeClass@CDXFworkingPocket@@UBEPAUCRuntimeClass@@XZ 00445480 f   DXFshape.obj
 0001:00044490       ?CreateObject@CDXFmap@@SGPAVCObject@@XZ 00445490 f   DXFshape.obj
 0001:000444e0       ?GetRuntimeClass@CDXFmap@@UBEPAUCRuntimeClass@@XZ 004454e0 f   DXFshape.obj
 0001:000444f0       ?CreateObject@CDXFchain@@SGPAVCObject@@XZ 004454f0 f   DXFshape.obj
 0001:000445a0       ?GetRuntimeClass@CDXFchain@@UBEPAUCRuntimeClass@@XZ 004455a0 f   DXFshape.obj
 0001:000445b0       ?CreateObject@CDXFshape@@SGPAVCObject@@XZ 004455b0 f   DXFshape.obj
 0001:00044730       ?GetRuntimeClass@CDXFshape@@UBEPAUCRuntimeClass@@XZ 00445730 f   DXFshape.obj
 0001:00044740       ??0CDXFworking@@IAE@W4ENWORKINGTYPE@@PAVCDXFshape@@PAVCDXFdata@@K@Z 00445740 f   DXFshape.obj
 0001:00044950       ??_ECDXFworking@@UAEPAXI@Z 00445950 f i * CIL library *:* CIL module *
 0001:00044950       ??_GCDXFworking@@UAEPAXI@Z 00445950 f i DXFshape.obj
 0001:00044990       ?Serialize@CDXFworking@@UAEXAAVCArchive@@@Z 00445990 f   DXFshape.obj
 0001:00044b90       ?DrawTuning@CDXFworkingDirection@@UAEXM@Z 00445b90 f   DXFshape.obj
 0001:00044c40       ?Draw@CDXFworkingDirection@@UBEXPAVCDC@@@Z 00445c40 f   DXFshape.obj
 0001:00044c60       ?Serialize@CDXFworkingDirection@@UAEXAAVCArchive@@@Z 00445c60 f   DXFshape.obj
 0001:00045000       ?DrawTuning@CDXFworkingStart@@UAEXM@Z 00446000 f   DXFshape.obj
 0001:000450b0       ?Draw@CDXFworkingStart@@UBEXPAVCDC@@@Z 004460b0 f   DXFshape.obj
 0001:000450d0       ?Serialize@CDXFworkingStart@@UAEXAAVCArchive@@@Z 004460d0 f   DXFshape.obj
 0001:000452b0       ??0CDXFworkingOutline@@QAE@PAVCDXFshape@@PBVCDXFchain@@MK@Z 004462b0 f   DXFshape.obj
 0001:000453c0       ?SeparateAdd_Construct@CDXFworkingOutline@@AAEXPBVCDXFchain@@@Z 004463c0 f   DXFshape.obj
 0001:00045580       ?SeparateModify@CDXFworkingOutline@@QAEXXZ 00446580 f   DXFshape.obj
 0001:00045c00       ?SetMergeHandle@CDXFworkingOutline@@QAEXABV?$CStringT@DV?$StrTraitMFC_DLL@DV?$ChTraitsCRT@D@ATL@@@@@ATL@@@Z 00446c00 f   DXFshape.obj
 0001:00045c60       ?DrawTuning@CDXFworkingOutline@@UAEXM@Z 00446c60 f   DXFshape.obj
 0001:00045cc0       ?Draw@CDXFworkingOutline@@UBEXPAVCDC@@@Z 00446cc0 f   DXFshape.obj
 0001:00045d20       ?Serialize@CDXFworkingOutline@@UAEXAAVCArchive@@@Z 00446d20 f   DXFshape.obj
 0001:00046390       ?DrawTuning@CDXFworkingPocket@@UAEXM@Z 00447390 f   DXFshape.obj
 0001:000463e0       ?Draw@CDXFworkingPocket@@UBEXPAVCDC@@@Z 004473e0 f   DXFshape.obj
 0001:00046420       ?Serialize@CDXFworkingPocket@@UAEXAAVCArchive@@@Z 00447420 f   DXFshape.obj
 0001:00046440       ??_ECDXFmap@@UAEPAXI@Z     00447440 f i * CIL library *:* CIL module *
 0001:00046440       ??_GCDXFmap@@UAEPAXI@Z     00447440 f i DXFshape.obj
 0001:00046510       ??1CDXFmap@@UAE@XZ         00447510 f   DXFshape.obj
 0001:000465a0       ?Serialize@CDXFmap@@UAEXAAVCArchive@@@Z 004475a0 f   DXFshape.obj
 0001:00046a80       ??0?$CTypedPtrArrayEx@VCObArray@@PAVCDXFdata@@@@QAE@XZ 00447a80 f i DXFshape.obj
 0001:00046aa0       ?RemoveAll@CDXFmap@@QAEXXZ 00447aa0 f   DXFshape.obj
 0001:00046b20       ?SetPointMap@CDXFmap@@QAEXPAVCDXFdata@@@Z 00447b20 f   DXFshape.obj
 0001:00046c20       ?SetMakePointMap@CDXFmap@@QAEXPAVCDXFdata@@@Z 00447c20 f   DXFshape.obj
 0001:00046d40       ?IsEulerRequirement@CDXFmap@@QBE?AV?$tuple@HPAV?$CTypedPtrArrayEx@VCObArray@@PAVCDXFdata@@@@V?$CPointT@M@@Unull_type@tuples@boost@@U345@U345@U345@U345@U345@U345@@tuples@boost@@ABV?$CPointT@M@@@Z 00447d40 f   DXFshape.obj
 0001:00046fa0       ?GetMapTypeFlag@CDXFmap@@QBEKXZ 00447fa0 f   DXFshape.obj
 0001:00047210       ?IsAllSearchFlg@CDXFmap@@QBEHXZ 00448210 f   DXFshape.obj
 0001:00047290       ?AllMapObject_ClearSearchFlg@CDXFmap@@QBEXH@Z 00448290 f   DXFshape.obj
 0001:00047310       ?CopyToChain@CDXFmap@@QAEHPAVCDXFchain@@@Z 00448310 f   DXFshape.obj
 0001:000476a0       ?Append@CDXFmap@@QAEXPBV1@@Z 004486a0 f   DXFshape.obj
 0001:000477c0       ?GetObjectCount@CDXFmap@@QBEHXZ 004487c0 f   DXFshape.obj
 0001:00047840       ?RemoveObject@CDXFmap@@QAEXPBVCDXFdata@@@Z 00448840 f   DXFshape.obj
 0001:00047a00       ?DrawShape@CDXFmap@@QBEXPAVCDC@@@Z 00448a00 f   DXFshape.obj
 0001:00047b90       ??_ECDXFchain@@UAEPAXI@Z   00448b90 f i * CIL library *:* CIL module *
 0001:00047b90       ??_GCDXFchain@@UAEPAXI@Z   00448b90 f i DXFshape.obj
 0001:00047bd0       ??1CDXFchain@@UAE@XZ       00448bd0 f   DXFshape.obj
 0001:00047be0       ?Serialize@CDXFchain@@UAEXAAVCArchive@@@Z 00448be0 f   DXFshape.obj
 0001:00047e30       ?IsPointInPolygon@CDXFchain@@QBEHABV?$CPointT@M@@@Z 00448e30 f   DXFshape.obj
 0001:000480e0       ?SetLoopFunc@CDXFchain@@QAEPAU__POSITION@@PBVCDXFdata@@HH@Z 004490e0 f   DXFshape.obj
 0001:000482d0       ?SetVectorPoint@CDXFchain@@QAEXPAU__POSITION@@AAV?$vector@V?$CPointT@M@@V?$allocator@V?$CPointT@M@@@std@@@std@@I@Z 004492d0 f   DXFshape.obj
 0001:00048510       ??_ECDXFshape@@UAEPAXI@Z   00449510 f i * CIL library *:* CIL module *
 0001:00048510       ??_GCDXFshape@@UAEPAXI@Z   00449510 f i DXFshape.obj
 0001:00048550       ??0CDXFshape@@QAE@W4DXFSHAPE_ASSEMBLE@@PBDKPAVCLayerData@@PAVCDXFchain@@@Z 00449550 f   DXFshape.obj
 0001:00048720       ??0CDXFshape@@QAE@W4DXFSHAPE_ASSEMBLE@@PBDKPAVCLayerData@@PAVCDXFmap@@@Z 00449720 f   DXFshape.obj
 0001:000488f0       ?SetDetailInfo@CDXFshape@@AAEXPAVCDXFchain@@@Z 004498f0 f   DXFshape.obj
 0001:000489b0       ?SetDetailInfo@CDXFshape@@AAEXPAVCDXFmap@@@Z 004499b0 f   DXFshape.obj
 0001:00048ac0       ??1CDXFshape@@UAE@XZ       00449ac0 f   DXFshape.obj
 0001:00048c10       ?Serialize@CDXFshape@@UAEXAAVCArchive@@@Z 00449c10 f   DXFshape.obj
 0001:000492b0       ?DelWorkingData@CDXFshape@@QAEHPAVCDXFworking@@PAV1@@Z 0044a2b0 f   DXFshape.obj
 0001:00049360       ?GetFirstChainPosition@CDXFshape@@QAEPAU__POSITION@@XZ 0044a360 f   DXFshape.obj
 0001:00049650       ?LinkObject@CDXFshape@@QAEHXZ 0044a650 f   DXFshape.obj
 0001:000496c0       ?ChangeCreate_MapToChain@CDXFshape@@QAEHPAVCDXFmap@@@Z 0044a6c0 f   DXFshape.obj
 0001:00049830       ?ChangeCreate_ChainToMap@CDXFshape@@QAEHPAVCDXFchain@@@Z 0044a830 f   DXFshape.obj
 0001:000499c0       ?LinkShape@CDXFshape@@QAEHPAV1@@Z 0044a9c0 f   DXFshape.obj
 0001:00049d70       ?CreateOutlineTempObject@CDXFshape@@QAEHHPAVCDXFchain@@M@Z 0044ad70 f   DXFshape.obj
 0001:0004a6f0       ?CreateOutlineTempObject_polyline@CDXFshape@@AAEHPBVCDXFpolyline@@HMPAVCDXFchain@@AAV?$CTypedPtrArrayEx@VCPtrArray@@PAV?$CTypedPtrListEx@VCObList@@PAVCDXFdata@@@@@@@Z 0044b6f0 f   DXFshape.obj
 0001:0004ad80       ?CreateScanLine_X@CDXFshape@@QAEHPAVCDXFchain@@@Z 0044bd80 f   DXFshape.obj
 0001:0004b070       ?CreateScanLine_Y@CDXFshape@@QAEHPAVCDXFchain@@@Z 0044c070 f   DXFshape.obj
 0001:0004b380       ?CreateScanLine_ScrollCircle@CDXFshape@@QAEHPAVCDXFchain@@@Z 0044c380 f   DXFshape.obj
 0001:0004b6f0       ?CreateScanLine_Lathe@CDXFshape@@QAEXHM@Z 0044c6f0 f   DXFshape.obj
 0001:0004bac0       ?CrearScanLine_Lathe@CDXFshape@@QAEXXZ 0044cac0 f   DXFshape.obj
 0001:0004bb30       ?SeparateOutlineIntersection@CDXFshape@@AAEHPAVCDXFchain@@AAV?$CTypedPtrArrayEx@VCPtrArray@@PAV?$CTypedPtrListEx@VCObList@@PAVCDXFdata@@@@@@H@Z 0044cb30 f   DXFshape.obj
 0001:0004bed0       ?CheckSeparateChain@CDXFshape@@AAEHPAV?$CTypedPtrListEx@VCObList@@PAVCDXFdata@@@@M@Z 0044ced0 f   DXFshape.obj
 0001:0004c1f0       ?DrawWorking@CDXFshape@@QBEXPAVCDC@@@Z 0044d1f0 f   DXFshape.obj
 0001:0004c370       ?GetSelectObjectFromShape@CDXFshape@@QAEMABV?$CPointT@M@@PBV?$CRectT@M@@PAPAVCDXFdata@@@Z 0044d370 f   DXFshape.obj
 0001:0004c770       ?SetShapeSwitch@CDXFshape@@QAEXH@Z 0044d770 f   DXFshape.obj
 0001:0004c8e0       ?DrawShape@CDXFshape@@QBEXPAVCDC@@@Z 0044d8e0 f   DXFshape.obj
 0001:0004ca80       ?CreateDxfOffsetObject@@YAPAVCDXFdata@@PBV1@ABV?$CPointT@M@@1HM@Z 0044da80 f   DXFshape.obj
 0001:0004d4b0       ??1?$vector@IV?$allocator@I@std@@@std@@QAE@XZ 0044e4b0 f i DXFshape.obj
 0001:0004d4b0       ??1?$vector@MV?$allocator@M@std@@@std@@QAE@XZ 0044e4b0 f i NCdataGL.obj
 0001:0004d4b0       ??1?$vector@_NV?$allocator@_N@std@@@std@@QAE@XZ 0044e4b0 f i NCInfoView.obj
 0001:0004d4c0       ?GetPrev@?$_CTypedPtrList@VCObList@@PAVCDXFdata@@@@QAEAAPAVCDXFdata@@AAPAU__POSITION@@@Z 0044e4c0 f i DXFshape.obj
 0001:0004d4e0       ?SetAt@?$CMap@V?$CPointT@M@@AAV1@PAV?$CTypedPtrArrayEx@VCObArray@@PAVCDXFdata@@@@AAPAV2@@@QAEXAAV?$CPointT@M@@AAPAV?$CTypedPtrArrayEx@VCObArray@@PAVCDXFdata@@@@@Z 0044e4e0 f i DXFshape.obj
 0001:0004d5d0       ?GetNextAssoc@?$CMap@V?$CPointT@M@@AAV1@PAV?$CTypedPtrArrayEx@VCObArray@@PAVCDXFdata@@@@AAPAV2@@@QBEXAAPAU__POSITION@@AAV?$CPointT@M@@AAPAV?$CTypedPtrArrayEx@VCObArray@@PAVCDXFdata@@@@@Z 0044e5d0 f i DXFshape.obj
 0001:0004d650       ?InitHashTable@?$CMap@V?$CPointT@M@@AAV1@PAV?$CTypedPtrArrayEx@VCObArray@@PAVCDXFdata@@@@AAPAV2@@@QAEXIH@Z 0044e650 f i DXFshape.obj
 0001:0004d6c0       ?Serialize@?$CMap@V?$CPointT@M@@AAV1@PAV?$CTypedPtrArrayEx@VCObArray@@PAVCDXFdata@@@@AAPAV2@@@UAEXAAVCArchive@@@Z 0044e6c0 f i DXFshape.obj
 0001:0004d7b0       ??_E?$CMap@V?$CPointT@M@@AAV1@PAV?$CTypedPtrArrayEx@VCObArray@@PAVCDXFdata@@@@AAPAV2@@@UAEPAXI@Z 0044e7b0 f i * CIL library *:* CIL module *
 0001:0004d7b0       ??_G?$CMap@V?$CPointT@M@@AAV1@PAV?$CTypedPtrArrayEx@VCObArray@@PAVCDXFdata@@@@AAPAV2@@@UAEPAXI@Z 0044e7b0 f i DXFshape.obj
 0001:0004d870       ?GetAssocAt@?$CMap@V?$CPointT@M@@AAV1@PAV?$CTypedPtrArrayEx@VCObArray@@PAVCDXFdata@@@@AAPAV2@@@IBEPAVCAssoc@1@AAV?$CPointT@M@@AAI1@Z 0044e870 f i DXFshape.obj
 0001:0004d900       ??$SerializeElements@V?$CPointT@M@@@@YGXAAVCArchive@@PAV?$CPointT@M@@H@Z 0044e900 f i DXFshape.obj
 0001:0004d990       ??$apply_visitor@$$CBUGetObjectCount_Visitor@@@?$variant@PAVCDXFchain@@PAVCDXFmap@@@boost@@QGBEHABUGetObjectCount_Visitor@@@Z 0044e990 f i DXFshape.obj
 0001:0004db10       ??$apply_visitor@$$CBUOrgTuning_Visitor@@@?$variant@PAVCDXFchain@@PAVCDXFmap@@@boost@@QGAEXABUOrgTuning_Visitor@@@Z 0044eb10 f i DXFshape.obj
 0001:0004dcc0       ??$_Emplace_reallocate@ABI@?$vector@IV?$allocator@I@std@@@std@@AAEPAIQAIABI@Z 0044ecc0 f i DXFshape.obj
 0001:0004dcc0       ??$_Emplace_reallocate@ABM@?$vector@MV?$allocator@M@std@@@std@@AAEPAMQAMABM@Z 0044ecc0 f i NCViewGL_Wire.obj
 0001:0004dcc0       ??$_Emplace_reallocate@I@?$vector@IV?$allocator@I@std@@@std@@AAEPAIQAI$$QAI@Z 0044ecc0 f i NCdataGL.obj
 0001:0004dda0       ?_Change_array@?$vector@IV?$allocator@I@std@@@std@@AAEXQAIII@Z 0044eda0 f i DXFshape.obj
 0001:0004dda0       ?_Change_array@?$vector@MV?$allocator@M@std@@@std@@AAEXQAMII@Z 0044eda0 f i NCdataGL.obj
 0001:0004de00       ?allocate@?$allocator@I@std@@QAEPAII@Z 0044ee00 f i DXFshape.obj
 0001:0004de00       ?allocate@?$allocator@M@std@@QAEPAMI@Z 0044ee00 f i NCdataGL.obj
 0001:0004de60       ?variant_assign@?$variant@PAVCDXFchain@@PAVCDXFmap@@@boost@@AAEX$$QAV12@@Z 0044ee60 f i DXFshape.obj
 0001:0004de60       ?variant_assign@?$variant@PAVCNCblock@@PAVCNCdata@@@boost@@AAEX$$QAV12@@Z 0044ee60 f i NCChild.obj
 0001:0004e160       ??$apply_visitor@V?$direct_assigner@PAVCDXFchain@@@variant@detail@boost@@@?$variant@PAVCDXFchain@@PAVCDXFmap@@@boost@@QGAE_NAAV?$direct_assigner@PAVCDXFchain@@@variant@detail@1@@Z 0044f160 f i DXFshape.obj
 0001:0004e160       ??$apply_visitor@V?$direct_assigner@PAVCNCblock@@@variant@detail@boost@@@?$variant@PAVCNCblock@@PAVCNCdata@@@boost@@QGAE_NAAV?$direct_assigner@PAVCNCblock@@@variant@detail@1@@Z 0044f160 f i NCListView.obj
 0001:0004e160       ??$apply_visitor@V?$direct_assigner@PAVCNCdata@@@variant@detail@boost@@@?$variant@PAVCNCdata@@URANGEPARAM@@@boost@@QGAE_NAAV?$direct_assigner@PAVCNCdata@@@variant@detail@1@@Z 0044f160 f i NCViewGL.obj
 0001:0004e2e0       ??$apply_visitor@V?$direct_assigner@PAVCDXFmap@@@variant@detail@boost@@@?$variant@PAVCDXFchain@@PAVCDXFmap@@@boost@@QGAE_NAAV?$direct_assigner@PAVCDXFmap@@@variant@detail@1@@Z 0044f2e0 f i DXFshape.obj
 0001:0004e2e0       ??$apply_visitor@V?$direct_assigner@PAVCNCdata@@@variant@detail@boost@@@?$variant@PAVCNCblock@@PAVCNCdata@@@boost@@QGAE_NAAV?$direct_assigner@PAVCNCdata@@@variant@detail@1@@Z 0044f2e0 f i NCListView.obj
 0001:0004e2e0       ??$apply_visitor@V?$direct_mover@PAVCNCdata@@@variant@detail@boost@@@?$variant@PAVCNCblock@@PAVCNCdata@@@boost@@QGAE_NAAV?$direct_mover@PAVCNCdata@@@variant@detail@1@@Z 0044f2e0 f i NCChild.obj
 0001:0004e460       ??0bad_get@boost@@QAE@XZ   0044f460 f i DXFshape.obj
 0001:0004e480       ??$throw_exception@Vbad_get@boost@@@boost@@YAXABVbad_get@0@@Z 0044f480 f i DXFshape.obj
 0001:0004e4b0       ??0?$wrapexcept@Vbad_get@boost@@@boost@@QAE@ABU01@@Z 0044f4b0 f i DXFshape.obj
 0001:0004e580       ??0bad_get@boost@@QAE@ABV01@@Z 0044f580 f i DXFshape.obj
 0001:0004e5c0       ?rethrow@?$wrapexcept@Vbad_get@boost@@@boost@@UBEXXZ 0044f5c0 f i DXFshape.obj
 0001:0004e5f0       ?clone@?$wrapexcept@Vbad_get@boost@@@boost@@UBEPBVclone_base@exception_detail@2@XZ 0044f5f0 f i DXFshape.obj
 0001:0004e680       ??0?$wrapexcept@Vbad_get@boost@@@boost@@QAE@ABVbad_get@1@@Z 0044f680 f i DXFshape.obj
 0001:0004e6f0       ??$apply_visitor@U?$get_visitor@PAVCDXFchain@@@variant@detail@boost@@@?$variant@PAVCDXFchain@@PAVCDXFmap@@@boost@@QGAEPAPAVCDXFchain@@AAU?$get_visitor@PAVCDXFchain@@@variant@detail@1@@Z 0044f6f0 f i DXFshape.obj
 0001:0004e6f0       ??$apply_visitor@U?$get_visitor@PAVCNCblock@@@variant@detail@boost@@@?$variant@PAVCNCblock@@PAVCNCdata@@@boost@@QGAEPAPAVCNCblock@@AAU?$get_visitor@PAVCNCblock@@@variant@detail@1@@Z 0044f6f0 f i NCChild.obj
 0001:0004e6f0       ??$apply_visitor@U?$get_visitor@PAVCNCdata@@@variant@detail@boost@@@?$variant@PAVCNCdata@@URANGEPARAM@@@boost@@QGAEPAPAVCNCdata@@AAU?$get_visitor@PAVCNCdata@@@variant@detail@1@@Z 0044f6f0 f i NCViewGL_Mill.obj
 0001:0004e6f0       ??$apply_visitor@U?$get_visitor@QAVCDXFchain@@@variant@detail@boost@@@?$variant@PAVCDXFchain@@PAVCDXFmap@@@boost@@QGBEPBQAVCDXFchain@@AAU?$get_visitor@QAVCDXFchain@@@variant@detail@1@@Z 0044f6f0 f i DXFshape.obj
 0001:0004e870       ??$apply_visitor@U?$get_visitor@PAVCDXFmap@@@variant@detail@boost@@@?$variant@PAVCDXFchain@@PAVCDXFmap@@@boost@@QGAEPAPAVCDXFmap@@AAU?$get_visitor@PAVCDXFmap@@@variant@detail@1@@Z 0044f870 f i DXFshape.obj
 0001:0004e870       ??$apply_visitor@U?$get_visitor@PAVCNCdata@@@variant@detail@boost@@@?$variant@PAVCNCblock@@PAVCNCdata@@@boost@@QGAEPAPAVCNCdata@@AAU?$get_visitor@PAVCNCdata@@@variant@detail@1@@Z 0044f870 f i NCChild.obj
 0001:0004e870       ??$apply_visitor@U?$get_visitor@QAVCDXFmap@@@variant@detail@boost@@@?$variant@PAVCDXFchain@@PAVCDXFmap@@@boost@@QGBEPBQAVCDXFmap@@AAU?$get_visitor@QAVCDXFmap@@@variant@detail@1@@Z 0044f870 f i DXFshape.obj
 0001:0004e870       ??$apply_visitor@U?$get_visitor@URANGEPARAM@@@variant@detail@boost@@@?$variant@PAVCNCdata@@URANGEPARAM@@@boost@@QGAEPAURANGEPARAM@@AAU?$get_visitor@URANGEPARAM@@@variant@detail@1@@Z 0044f870 f i NCViewGL_Mill.obj
 0001:0004e9f0       ??$forced_return@H@variant@detail@boost@@YAHXZ 0044f9f0 f i DXFshape.obj
 0001:0004e9f0       ??$forced_return@PAPAVCDXFchain@@@variant@detail@boost@@YAPAPAVCDXFchain@@XZ 0044f9f0 f i DXFshape.obj
 0001:0004e9f0       ??$forced_return@PAPAVCDXFmap@@@variant@detail@boost@@YAPAPAVCDXFmap@@XZ 0044f9f0 f i DXFshape.obj
 0001:0004e9f0       ??$forced_return@PAPAVCDXFshape@@@variant@detail@boost@@YAPAPAVCDXFshape@@XZ 0044f9f0 f i DXFView.obj
 0001:0004e9f0       ??$forced_return@PAPAVCDXFworking@@@variant@detail@boost@@YAPAPAVCDXFworking@@XZ 0044f9f0 f i DXFView.obj
 0001:0004e9f0       ??$forced_return@PAPAVCLayerData@@@variant@detail@boost@@YAPAPAVCLayerData@@XZ 0044f9f0 f i TH_AutoWorkingSet.obj
 0001:0004e9f0       ??$forced_return@PAPAVCNCblock@@@variant@detail@boost@@YAPAPAVCNCblock@@XZ 0044f9f0 f i NCChild.obj
 0001:0004e9f0       ??$forced_return@PAPAVCNCdata@@@variant@detail@boost@@YAPAPAVCNCdata@@XZ 0044f9f0 f i NCChild.obj
 0001:0004e9f0       ??$forced_return@PAURANGEPARAM@@@variant@detail@boost@@YAPAURANGEPARAM@@XZ 0044f9f0 f i NCViewGL_Mill.obj
 0001:0004e9f0       ??$forced_return@PBQAVCDXFchain@@@variant@detail@boost@@YAPBQAVCDXFchain@@XZ 0044f9f0 f i DXFshape.obj
 0001:0004e9f0       ??$forced_return@PBQAVCDXFmap@@@variant@detail@boost@@YAPBQAVCDXFmap@@XZ 0044f9f0 f i DXFshape.obj
 0001:0004e9f0       ??$forced_return@X@variant@detail@boost@@YAXXZ 0044f9f0 f i DXFshape.obj
 0001:0004e9f0       ??$forced_return@_N@variant@detail@boost@@YA_NXZ 0044f9f0 f i DXFshape.obj
 0001:0004ea00       ??$visitation_impl@U?$int_@$0BE@@mpl@boost@@U?$visitation_impl_step@U?$l_iter@Ul_end@mpl@boost@@@mpl@boost@@U123@@variant@detail@3@Uassign_storage@563@PAXUhas_fallback_type_@?$variant@KPAVCLayerData@@PAVCDXFshape@@PAVCDXFworking@@@3@@variant@detail@boost@@YAXHHAAUassign_storage@012@PAXU?$bool_@$00@mpl@2@Uhas_fallback_type_@?$variant@KPAVCLayerData@@PAVCDXFshape@@PAVCDXFworking@@@2@PAU?$int_@$0BE@@52@PAU?$visitation_impl_step@U?$l_iter@Ul_end@mpl@boost@@@mpl@boost@@U123@@012@@Z 0044fa00 f i DXFView.obj
 0001:0004ea00       ??$visitation_impl@U?$int_@$0BE@@mpl@boost@@U?$visitation_impl_step@U?$l_iter@Ul_end@mpl@boost@@@mpl@boost@@U123@@variant@detail@3@Umove_storage@563@PAXUhas_fallback_type_@?$variant@KPAVCLayerData@@PAVCDXFshape@@PAVCDXFworking@@@3@@variant@detail@boost@@YAXHHAAUmove_storage@012@PAXU?$bool_@$00@mpl@2@Uhas_fallback_type_@?$variant@KPAVCLayerData@@PAVCDXFshape@@PAVCDXFworking@@@2@PAU?$int_@$0BE@@52@PAU?$visitation_impl_step@U?$l_iter@Ul_end@mpl@boost@@@mpl@boost@@U123@@012@@Z 0044fa00 f i DXFShapeView.obj
 0001:0004ea00       ??$visitation_impl@U?$int_@$0BE@@mpl@boost@@U?$visitation_impl_step@U?$l_iter@Ul_end@mpl@boost@@@mpl@boost@@U123@@variant@detail@3@Umove_storage@563@PAXUhas_fallback_type_@?$variant@PAVCDXFchain@@PAVCDXFmap@@@3@@variant@detail@boost@@YAXHHAAUmove_storage@012@PAXU?$bool_@$00@mpl@2@Uhas_fallback_type_@?$variant@PAVCDXFchain@@PAVCDXFmap@@@2@PAU?$int_@$0BE@@52@PAU?$visitation_impl_step@U?$l_iter@Ul_end@mpl@boost@@@mpl@boost@@U123@@012@@Z 0044fa00 f i DXFshape.obj
 0001:0004ea00       ??$visitation_impl@U?$int_@$0BE@@mpl@boost@@U?$visitation_impl_step@U?$l_iter@Ul_end@mpl@boost@@@mpl@boost@@U123@@variant@detail@3@Umove_storage@563@PAXUhas_fallback_type_@?$variant@PAVCNCblock@@PAVCNCdata@@@3@@variant@detail@boost@@YAXHHAAUmove_storage@012@PAXU?$bool_@$00@mpl@2@Uhas_fallback_type_@?$variant@PAVCNCblock@@PAVCNCdata@@@2@PAU?$int_@$0BE@@52@PAU?$visitation_impl_step@U?$l_iter@Ul_end@mpl@boost@@@mpl@boost@@U123@@012@@Z 0044fa00 f i NCChild.obj
 0001:0004ea00       ??$visitation_impl@U?$int_@$0BE@@mpl@boost@@U?$visitation_impl_step@U?$l_iter@Ul_end@mpl@boost@@@mpl@boost@@U123@@variant@detail@3@Umove_storage@563@PAXUhas_fallback_type_@?$variant@PAVCNCdata@@URANGEPARAM@@@3@@variant@detail@boost@@YAXHHAAUmove_storage@012@PAXU?$bool_@$00@mpl@2@Uhas_fallback_type_@?$variant@PAVCNCdata@@URANGEPARAM@@@2@PAU?$int_@$0BE@@52@PAU?$visitation_impl_step@U?$l_iter@Ul_end@mpl@boost@@@mpl@boost@@U123@@012@@Z 0044fa00 f i NCViewGL.obj
 0001:0004ea00       ??$visitation_impl@U?$int_@$0BE@@mpl@boost@@U?$visitation_impl_step@U?$l_iter@Ul_end@mpl@boost@@@mpl@boost@@U123@@variant@detail@3@V?$invoke_visitor@$$CBUGetObjectCount_Visitor@@$0A@@563@PBXUhas_fallback_type_@?$variant@PAVCDXFchain@@PAVCDXFmap@@@3@@variant@detail@boost@@YAHHHAAV?$invoke_visitor@$$CBUGetObjectCount_Visitor@@$0A@@012@PBXU?$bool_@$00@mpl@2@Uhas_fallback_type_@?$variant@PAVCDXFchain@@PAVCDXFmap@@@2@PAU?$int_@$0BE@@52@PAU?$visitation_impl_step@U?$l_iter@Ul_end@mpl@boost@@@mpl@boost@@U123@@012@@Z 0044fa00 f i DXFshape.obj
 0001:0004ea00       ??$visitation_impl@U?$int_@$0BE@@mpl@boost@@U?$visitation_impl_step@U?$l_iter@Ul_end@mpl@boost@@@mpl@boost@@U123@@variant@detail@3@V?$invoke_visitor@$$CBUOrgTuning_Visitor@@$0A@@563@PAXUhas_fallback_type_@?$variant@PAVCDXFchain@@PAVCDXFmap@@@3@@variant@detail@boost@@YAXHHAAV?$invoke_visitor@$$CBUOrgTuning_Visitor@@$0A@@012@PAXU?$bool_@$00@mpl@2@Uhas_fallback_type_@?$variant@PAVCDXFchain@@PAVCDXFmap@@@2@PAU?$int_@$0BE@@52@PAU?$visitation_impl_step@U?$l_iter@Ul_end@mpl@boost@@@mpl@boost@@U123@@012@@Z 0044fa00 f i DXFshape.obj
 0001:0004ea00       ??$visitation_impl@U?$int_@$0BE@@mpl@boost@@U?$visitation_impl_step@U?$l_iter@Ul_end@mpl@boost@@@mpl@boost@@U123@@variant@detail@3@V?$invoke_visitor@U?$get_visitor@PAVCDXFchain@@@variant@detail@boost@@$0A@@563@PAXUhas_fallback_type_@?$variant@PAVCDXFchain@@PAVCDXFmap@@@3@@variant@detail@boost@@YAPAPAVCDXFchain@@HHAAV?$invoke_visitor@U?$get_visitor@PAVCDXFchain@@@variant@detail@boost@@$0A@@012@PAXU?$bool_@$00@mpl@2@Uhas_fallback_type_@?$variant@PAVCDXFchain@@PAVCDXFmap@@@2@PAU?$int_@$0BE@@62@PAU?$visitation_impl_step@U?$l_iter@Ul_end@mpl@boost@@@mpl@boost@@U123@@012@@Z 0044fa00 f i DXFshape.obj
 0001:0004ea00       ??$visitation_impl@U?$int_@$0BE@@mpl@boost@@U?$visitation_impl_step@U?$l_iter@Ul_end@mpl@boost@@@mpl@boost@@U123@@variant@detail@3@V?$invoke_visitor@U?$get_visitor@PAVCDXFmap@@@variant@detail@boost@@$0A@@563@PAXUhas_fallback_type_@?$variant@PAVCDXFchain@@PAVCDXFmap@@@3@@variant@detail@boost@@YAPAPAVCDXFmap@@HHAAV?$invoke_visitor@U?$get_visitor@PAVCDXFmap@@@variant@detail@boost@@$0A@@012@PAXU?$bool_@$00@mpl@2@Uhas_fallback_type_@?$variant@PAVCDXFchain@@PAVCDXFmap@@@2@PAU?$int_@$0BE@@62@PAU?$visitation_impl_step@U?$l_iter@Ul_end@mpl@boost@@@mpl@boost@@U123@@012@@Z 0044fa00 f i DXFshape.obj
 0001:0004ea00       ??$visitation_impl@U?$int_@$0BE@@mpl@boost@@U?$visitation_impl_step@U?$l_iter@Ul_end@mpl@boost@@@mpl@boost@@U123@@variant@detail@3@V?$invoke_visitor@U?$get_visitor@PAVCDXFshape@@@variant@detail@boost@@$0A@@563@PAXUhas_fallback_type_@?$variant@KPAVCLayerData@@PAVCDXFshape@@PAVCDXFworking@@@3@@variant@detail@boost@@YAPAPAVCDXFshape@@HHAAV?$invoke_visitor@U?$get_visitor@PAVCDXFshape@@@variant@detail@boost@@$0A@@012@PAXU?$bool_@$00@mpl@2@Uhas_fallback_type_@?$variant@KPAVCLayerData@@PAVCDXFshape@@PAVCDXFworking@@@2@PAU?$int_@$0BE@@62@PAU?$visitation_impl_step@U?$l_iter@Ul_end@mpl@boost@@@mpl@boost@@U123@@012@@Z 0044fa00 f i DXFView.obj
 0001:0004ea00       ??$visitation_impl@U?$int_@$0BE@@mpl@boost@@U?$visitation_impl_step@U?$l_iter@Ul_end@mpl@boost@@@mpl@boost@@U123@@variant@detail@3@V?$invoke_visitor@U?$get_visitor@PAVCDXFworking@@@variant@detail@boost@@$0A@@563@PAXUhas_fallback_type_@?$variant@KPAVCLayerData@@PAVCDXFshape@@PAVCDXFworking@@@3@@variant@detail@boost@@YAPAPAVCDXFworking@@HHAAV?$invoke_visitor@U?$get_visitor@PAVCDXFworking@@@variant@detail@boost@@$0A@@012@PAXU?$bool_@$00@mpl@2@Uhas_fallback_type_@?$variant@KPAVCLayerData@@PAVCDXFshape@@PAVCDXFworking@@@2@PAU?$int_@$0BE@@62@PAU?$visitation_impl_step@U?$l_iter@Ul_end@mpl@boost@@@mpl@boost@@U123@@012@@Z 0044fa00 f i DXFView.obj
 0001:0004ea00       ??$visitation_impl@U?$int_@$0BE@@mpl@boost@@U?$visitation_impl_step@U?$l_iter@Ul_end@mpl@boost@@@mpl@boost@@U123@@variant@detail@3@V?$invoke_visitor@U?$get_visitor@PAVCLayerData@@@variant@detail@boost@@$0A@@563@PAXUhas_fallback_type_@?$variant@KPAVCLayerData@@PAVCDXFshape@@PAVCDXFworking@@@3@@variant@detail@boost@@YAPAPAVCLayerData@@HHAAV?$invoke_visitor@U?$get_visitor@PAVCLayerData@@@variant@detail@boost@@$0A@@012@PAXU?$bool_@$00@mpl@2@Uhas_fallback_type_@?$variant@KPAVCLayerData@@PAVCDXFshape@@PAVCDXFworking@@@2@PAU?$int_@$0BE@@62@PAU?$visitation_impl_step@U?$l_iter@Ul_end@mpl@boost@@@mpl@boost@@U123@@012@@Z 0044fa00 f i TH_AutoWorkingSet.obj
 0001:0004ea00       ??$visitation_impl@U?$int_@$0BE@@mpl@boost@@U?$visitation_impl_step@U?$l_iter@Ul_end@mpl@boost@@@mpl@boost@@U123@@variant@detail@3@V?$invoke_visitor@U?$get_visitor@PAVCNCblock@@@variant@detail@boost@@$0A@@563@PAXUhas_fallback_type_@?$variant@PAVCNCblock@@PAVCNCdata@@@3@@variant@detail@boost@@YAPAPAVCNCblock@@HHAAV?$invoke_visitor@U?$get_visitor@PAVCNCblock@@@variant@detail@boost@@$0A@@012@PAXU?$bool_@$00@mpl@2@Uhas_fallback_type_@?$variant@PAVCNCblock@@PAVCNCdata@@@2@PAU?$int_@$0BE@@62@PAU?$visitation_impl_step@U?$l_iter@Ul_end@mpl@boost@@@mpl@boost@@U123@@012@@Z 0044fa00 f i NCChild.obj
 0001:0004ea00       ??$visitation_impl@U?$int_@$0BE@@mpl@boost@@U?$visitation_impl_step@U?$l_iter@Ul_end@mpl@boost@@@mpl@boost@@U123@@variant@detail@3@V?$invoke_visitor@U?$get_visitor@PAVCNCdata@@@variant@detail@boost@@$0A@@563@PAXUhas_fallback_type_@?$variant@PAVCNCblock@@PAVCNCdata@@@3@@variant@detail@boost@@YAPAPAVCNCdata@@HHAAV?$invoke_visitor@U?$get_visitor@PAVCNCdata@@@variant@detail@boost@@$0A@@012@PAXU?$bool_@$00@mpl@2@Uhas_fallback_type_@?$variant@PAVCNCblock@@PAVCNCdata@@@2@PAU?$int_@$0BE@@62@PAU?$visitation_impl_step@U?$l_iter@Ul_end@mpl@boost@@@mpl@boost@@U123@@012@@Z 0044fa00 f i NCChild.obj
 0001:0004ea00       ??$visitation_impl@U?$int_@$0BE@@mpl@boost@@U?$visitation_impl_step@U?$l_iter@Ul_end@mpl@boost@@@mpl@boost@@U123@@variant@detail@3@V?$invoke_visitor@U?$get_visitor@PAVCNCdata@@@variant@detail@boost@@$0A@@563@PAXUhas_fallback_type_@?$variant@PAVCNCdata@@URANGEPARAM@@@3@@variant@detail@boost@@YAPAPAVCNCdata@@HHAAV?$invoke_visitor@U?$get_visitor@PAVCNCdata@@@variant@detail@boost@@$0A@@012@PAXU?$bool_@$00@mpl@2@Uhas_fallback_type_@?$variant@PAVCNCdata@@URANGEPARAM@@@2@PAU?$int_@$0BE@@62@PAU?$visitation_impl_step@U?$l_iter@Ul_end@mpl@boost@@@mpl@boost@@U123@@012@@Z 0044fa00 f i NCViewGL_Mill.obj
 0001:0004ea00       ??$visitation_impl@U?$int_@$0BE@@mpl@boost@@U?$visitation_impl_step@U?$l_iter@Ul_end@mpl@boost@@@mpl@boost@@U123@@variant@detail@3@V?$invoke_visitor@U?$get_visitor@QAVCDXFchain@@@variant@detail@boost@@$0A@@563@PBXUhas_fallback_type_@?$variant@PAVCDXFchain@@PAVCDXFmap@@@3@@variant@detail@boost@@YAPBQAVCDXFchain@@HHAAV?$invoke_visitor@U?$get_visitor@QAVCDXFchain@@@variant@detail@boost@@$0A@@012@PBXU?$bool_@$00@mpl@2@Uhas_fallback_type_@?$variant@PAVCDXFchain@@PAVCDXFmap@@@2@PAU?$int_@$0BE@@62@PAU?$visitation_impl_step@U?$l_iter@Ul_end@mpl@boost@@@mpl@boost@@U123@@012@@Z 0044fa00 f i DXFshape.obj
 0001:0004ea00       ??$visitation_impl@U?$int_@$0BE@@mpl@boost@@U?$visitation_impl_step@U?$l_iter@Ul_end@mpl@boost@@@mpl@boost@@U123@@variant@detail@3@V?$invoke_visitor@U?$get_visitor@QAVCDXFmap@@@variant@detail@boost@@$0A@@563@PBXUhas_fallback_type_@?$variant@PAVCDXFchain@@PAVCDXFmap@@@3@@variant@detail@boost@@YAPBQAVCDXFmap@@HHAAV?$invoke_visitor@U?$get_visitor@QAVCDXFmap@@@variant@detail@boost@@$0A@@012@PBXU?$bool_@$00@mpl@2@Uhas_fallback_type_@?$variant@PAVCDXFchain@@PAVCDXFmap@@@2@PAU?$int_@$0BE@@62@PAU?$visitation_impl_step@U?$l_iter@Ul_end@mpl@boost@@@mpl@boost@@U123@@012@@Z 0044fa00 f i DXFshape.obj
 0001:0004ea00       ??$visitation_impl@U?$int_@$0BE@@mpl@boost@@U?$visitation_impl_step@U?$l_iter@Ul_end@mpl@boost@@@mpl@boost@@U123@@variant@detail@3@V?$invoke_visitor@U?$get_visitor@URANGEPARAM@@@variant@detail@boost@@$0A@@563@PAXUhas_fallback_type_@?$variant@PAVCNCdata@@URANGEPARAM@@@3@@variant@detail@boost@@YAPAURANGEPARAM@@HHAAV?$invoke_visitor@U?$get_visitor@URANGEPARAM@@@variant@detail@boost@@$0A@@012@PAXU?$bool_@$00@mpl@2@Uhas_fallback_type_@?$variant@PAVCNCdata@@URANGEPARAM@@@2@PAU?$int_@$0BE@@62@PAU?$visitation_impl_step@U?$l_iter@Ul_end@mpl@boost@@@mpl@boost@@U123@@012@@Z 0044fa00 f i NCViewGL_Mill.obj
 0001:0004ea00       ??$visitation_impl@U?$int_@$0BE@@mpl@boost@@U?$visitation_impl_step@U?$l_iter@Ul_end@mpl@boost@@@mpl@boost@@U123@@variant@detail@3@V?$invoke_visitor@V?$direct_assigner@PAVCDXFchain@@@variant@detail@boost@@$0A@@563@PAXUhas_fallback_type_@?$variant@PAVCDXFchain@@PAVCDXFmap@@@3@@variant@detail@boost@@YA_NHHAAV?$invoke_visitor@V?$direct_assigner@PAVCDXFchain@@@variant@detail@boost@@$0A@@012@PAXU?$bool_@$00@mpl@2@Uhas_fallback_type_@?$variant@PAVCDXFchain@@PAVCDXFmap@@@2@PAU?$int_@$0BE@@52@PAU?$visitation_impl_step@U?$l_iter@Ul_end@mpl@boost@@@mpl@boost@@U123@@012@@Z 0044fa00 f i DXFshape.obj
 0001:0004ea00       ??$visitation_impl@U?$int_@$0BE@@mpl@boost@@U?$visitation_impl_step@U?$l_iter@Ul_end@mpl@boost@@@mpl@boost@@U123@@variant@detail@3@V?$invoke_visitor@V?$direct_assigner@PAVCDXFmap@@@variant@detail@boost@@$0A@@563@PAXUhas_fallback_type_@?$variant@PAVCDXFchain@@PAVCDXFmap@@@3@@variant@detail@boost@@YA_NHHAAV?$invoke_visitor@V?$direct_assigner@PAVCDXFmap@@@variant@detail@boost@@$0A@@012@PAXU?$bool_@$00@mpl@2@Uhas_fallback_type_@?$variant@PAVCDXFchain@@PAVCDXFmap@@@2@PAU?$int_@$0BE@@52@PAU?$visitation_impl_step@U?$l_iter@Ul_end@mpl@boost@@@mpl@boost@@U123@@012@@Z 0044fa00 f i DXFshape.obj
 0001:0004ea00       ??$visitation_impl@U?$int_@$0BE@@mpl@boost@@U?$visitation_impl_step@U?$l_iter@Ul_end@mpl@boost@@@mpl@boost@@U123@@variant@detail@3@V?$invoke_visitor@V?$direct_assigner@PAVCDXFshape@@@variant@detail@boost@@$0A@@563@PAXUhas_fallback_type_@?$variant@KPAVCLayerData@@PAVCDXFshape@@PAVCDXFworking@@@3@@variant@detail@boost@@YA_NHHAAV?$invoke_visitor@V?$direct_assigner@PAVCDXFshape@@@variant@detail@boost@@$0A@@012@PAXU?$bool_@$00@mpl@2@Uhas_fallback_type_@?$variant@KPAVCLayerData@@PAVCDXFshape@@PAVCDXFworking@@@2@PAU?$int_@$0BE@@52@PAU?$visitation_impl_step@U?$l_iter@Ul_end@mpl@boost@@@mpl@boost@@U123@@012@@Z 0044fa00 f i DXFShapeView.obj
 0001:0004ea00       ??$visitation_impl@U?$int_@$0BE@@mpl@boost@@U?$visitation_impl_step@U?$l_iter@Ul_end@mpl@boost@@@mpl@boost@@U123@@variant@detail@3@V?$invoke_visitor@V?$direct_assigner@PAVCDXFworking@@@variant@detail@boost@@$0A@@563@PAXUhas_fallback_type_@?$variant@KPAVCLayerData@@PAVCDXFshape@@PAVCDXFworking@@@3@@variant@detail@boost@@YA_NHHAAV?$invoke_visitor@V?$direct_assigner@PAVCDXFworking@@@variant@detail@boost@@$0A@@012@PAXU?$bool_@$00@mpl@2@Uhas_fallback_type_@?$variant@KPAVCLayerData@@PAVCDXFshape@@PAVCDXFworking@@@2@PAU?$int_@$0BE@@52@PAU?$visitation_impl_step@U?$l_iter@Ul_end@mpl@boost@@@mpl@boost@@U123@@012@@Z 0044fa00 f i DXFShapeView.obj
 0001:0004ea00       ??$visitation_impl@U?$int_@$0BE@@mpl@boost@@U?$visitation_impl_step@U?$l_iter@Ul_end@mpl@boost@@@mpl@boost@@U123@@variant@detail@3@V?$invoke_visitor@V?$direct_assigner@PAVCLayerData@@@variant@detail@boost@@$0A@@563@PAXUhas_fallback_type_@?$variant@KPAVCLayerData@@PAVCDXFshape@@PAVCDXFworking@@@3@@variant@detail@boost@@YA_NHHAAV?$invoke_visitor@V?$direct_assigner@PAVCLayerData@@@variant@detail@boost@@$0A@@012@PAXU?$bool_@$00@mpl@2@Uhas_fallback_type_@?$variant@KPAVCLayerData@@PAVCDXFshape@@PAVCDXFworking@@@2@PAU?$int_@$0BE@@52@PAU?$visitation_impl_step@U?$l_iter@Ul_end@mpl@boost@@@mpl@boost@@U123@@012@@Z 0044fa00 f i DXFShapeView.obj
 0001:0004ea00       ??$visitation_impl@U?$int_@$0BE@@mpl@boost@@U?$visitation_impl_step@U?$l_iter@Ul_end@mpl@boost@@@mpl@boost@@U123@@variant@detail@3@V?$invoke_visitor@V?$direct_assigner@PAVCNCblock@@@variant@detail@boost@@$0A@@563@PAXUhas_fallback_type_@?$variant@PAVCNCblock@@PAVCNCdata@@@3@@variant@detail@boost@@YA_NHHAAV?$invoke_visitor@V?$direct_assigner@PAVCNCblock@@@variant@detail@boost@@$0A@@012@PAXU?$bool_@$00@mpl@2@Uhas_fallback_type_@?$variant@PAVCNCblock@@PAVCNCdata@@@2@PAU?$int_@$0BE@@52@PAU?$visitation_impl_step@U?$l_iter@Ul_end@mpl@boost@@@mpl@boost@@U123@@012@@Z 0044fa00 f i NCListView.obj
 0001:0004ea00       ??$visitation_impl@U?$int_@$0BE@@mpl@boost@@U?$visitation_impl_step@U?$l_iter@Ul_end@mpl@boost@@@mpl@boost@@U123@@variant@detail@3@V?$invoke_visitor@V?$direct_assigner@PAVCNCdata@@@variant@detail@boost@@$0A@@563@PAXUhas_fallback_type_@?$variant@PAVCNCblock@@PAVCNCdata@@@3@@variant@detail@boost@@YA_NHHAAV?$invoke_visitor@V?$direct_assigner@PAVCNCdata@@@variant@detail@boost@@$0A@@012@PAXU?$bool_@$00@mpl@2@Uhas_fallback_type_@?$variant@PAVCNCblock@@PAVCNCdata@@@2@PAU?$int_@$0BE@@52@PAU?$visitation_impl_step@U?$l_iter@Ul_end@mpl@boost@@@mpl@boost@@U123@@012@@Z 0044fa00 f i NCListView.obj
 0001:0004ea00       ??$visitation_impl@U?$int_@$0BE@@mpl@boost@@U?$visitation_impl_step@U?$l_iter@Ul_end@mpl@boost@@@mpl@boost@@U123@@variant@detail@3@V?$invoke_visitor@V?$direct_assigner@PAVCNCdata@@@variant@detail@boost@@$0A@@563@PAXUhas_fallback_type_@?$variant@PAVCNCdata@@URANGEPARAM@@@3@@variant@detail@boost@@YA_NHHAAV?$invoke_visitor@V?$direct_assigner@PAVCNCdata@@@variant@detail@boost@@$0A@@012@PAXU?$bool_@$00@mpl@2@Uhas_fallback_type_@?$variant@PAVCNCdata@@URANGEPARAM@@@2@PAU?$int_@$0BE@@52@PAU?$visitation_impl_step@U?$l_iter@Ul_end@mpl@boost@@@mpl@boost@@U123@@012@@Z 0044fa00 f i NCViewGL.obj
 0001:0004ea00       ??$visitation_impl@U?$int_@$0BE@@mpl@boost@@U?$visitation_impl_step@U?$l_iter@Ul_end@mpl@boost@@@mpl@boost@@U123@@variant@detail@3@V?$invoke_visitor@V?$direct_mover@K@variant@detail@boost@@$0A@@563@PAXUhas_fallback_type_@?$variant@KPAVCLayerData@@PAVCDXFshape@@PAVCDXFworking@@@3@@variant@detail@boost@@YA_NHHAAV?$invoke_visitor@V?$direct_mover@K@variant@detail@boost@@$0A@@012@PAXU?$bool_@$00@mpl@2@Uhas_fallback_type_@?$variant@KPAVCLayerData@@PAVCDXFshape@@PAVCDXFworking@@@2@PAU?$int_@$0BE@@52@PAU?$visitation_impl_step@U?$l_iter@Ul_end@mpl@boost@@@mpl@boost@@U123@@012@@Z 0044fa00 f i DXFShapeView.obj
 0001:0004ea00       ??$visitation_impl@U?$int_@$0BE@@mpl@boost@@U?$visitation_impl_step@U?$l_iter@Ul_end@mpl@boost@@@mpl@boost@@U123@@variant@detail@3@V?$invoke_visitor@V?$direct_mover@PAVCLayerData@@@variant@detail@boost@@$0A@@563@PAXUhas_fallback_type_@?$variant@KPAVCLayerData@@PAVCDXFshape@@PAVCDXFworking@@@3@@variant@detail@boost@@YA_NHHAAV?$invoke_visitor@V?$direct_mover@PAVCLayerData@@@variant@detail@boost@@$0A@@012@PAXU?$bool_@$00@mpl@2@Uhas_fallback_type_@?$variant@KPAVCLayerData@@PAVCDXFshape@@PAVCDXFworking@@@2@PAU?$int_@$0BE@@52@PAU?$visitation_impl_step@U?$l_iter@Ul_end@mpl@boost@@@mpl@boost@@U123@@012@@Z 0044fa00 f i DXFShapeView.obj
 0001:0004ea00       ??$visitation_impl@U?$int_@$0BE@@mpl@boost@@U?$visitation_impl_step@U?$l_iter@Ul_end@mpl@boost@@@mpl@boost@@U123@@variant@detail@3@V?$invoke_visitor@V?$direct_mover@PAVCNCdata@@@variant@detail@boost@@$0A@@563@PAXUhas_fallback_type_@?$variant@PAVCNCblock@@PAVCNCdata@@@3@@variant@detail@boost@@YA_NHHAAV?$invoke_visitor@V?$direct_mover@PAVCNCdata@@@variant@detail@boost@@$0A@@012@PAXU?$bool_@$00@mpl@2@Uhas_fallback_type_@?$variant@PAVCNCblock@@PAVCNCdata@@@2@PAU?$int_@$0BE@@52@PAU?$visitation_impl_step@U?$l_iter@Ul_end@mpl@boost@@@mpl@boost@@U123@@012@@Z 0044fa00 f i NCChild.obj
 0001:0004ea00       ??$visitation_impl@U?$int_@$0BE@@mpl@boost@@U?$visitation_impl_step@U?$l_iter@Ul_end@mpl@boost@@@mpl@boost@@U123@@variant@detail@3@V?$invoke_visitor@V?$direct_mover@URANGEPARAM@@@variant@detail@boost@@$0A@@563@PAXUhas_fallback_type_@?$variant@PAVCNCdata@@URANGEPARAM@@@3@@variant@detail@boost@@YA_NHHAAV?$invoke_visitor@V?$direct_mover@URANGEPARAM@@@variant@detail@boost@@$0A@@012@PAXU?$bool_@$00@mpl@2@Uhas_fallback_type_@?$variant@PAVCNCdata@@URANGEPARAM@@@2@PAU?$int_@$0BE@@52@PAU?$visitation_impl_step@U?$l_iter@Ul_end@mpl@boost@@@mpl@boost@@U123@@012@@Z 0044fa00 f i NCViewGL.obj
 0001:0004ea00       ??$visitation_impl@U?$int_@$0BE@@mpl@boost@@U?$visitation_impl_step@U?$l_iter@Ul_end@mpl@boost@@@mpl@boost@@U123@@variant@detail@3@Vassigner@?$variant@KPAVCLayerData@@PAVCDXFshape@@PAVCDXFworking@@@3@PBXUhas_fallback_type_@83@@variant@detail@boost@@YAXHHAAVassigner@?$variant@KPAVCLayerData@@PAVCDXFshape@@PAVCDXFworking@@@2@PBXU?$bool_@$00@mpl@2@Uhas_fallback_type_@42@PAU?$int_@$0BE@@62@PAU?$visitation_impl_step@U?$l_iter@Ul_end@mpl@boost@@@mpl@boost@@U123@@012@@Z 0044fa00 f i DXFView.obj
 0001:0004ea00       ??$visitation_impl@U?$int_@$0BE@@mpl@boost@@U?$visitation_impl_step@U?$l_iter@Ul_end@mpl@boost@@@mpl@boost@@U123@@variant@detail@3@Vmove_assigner@?$variant@KPAVCLayerData@@PAVCDXFshape@@PAVCDXFworking@@@3@PAXUhas_fallback_type_@83@@variant@detail@boost@@YAXHHAAVmove_assigner@?$variant@KPAVCLayerData@@PAVCDXFshape@@PAVCDXFworking@@@2@PAXU?$bool_@$00@mpl@2@Uhas_fallback_type_@42@PAU?$int_@$0BE@@62@PAU?$visitation_impl_step@U?$l_iter@Ul_end@mpl@boost@@@mpl@boost@@U123@@012@@Z 0044fa00 f i DXFShapeView.obj
 0001:0004ea00       ??$visitation_impl@U?$int_@$0BE@@mpl@boost@@U?$visitation_impl_step@U?$l_iter@Ul_end@mpl@boost@@@mpl@boost@@U123@@variant@detail@3@Vmove_assigner@?$variant@PAVCDXFchain@@PAVCDXFmap@@@3@PAXUhas_fallback_type_@83@@variant@detail@boost@@YAXHHAAVmove_assigner@?$variant@PAVCDXFchain@@PAVCDXFmap@@@2@PAXU?$bool_@$00@mpl@2@Uhas_fallback_type_@42@PAU?$int_@$0BE@@62@PAU?$visitation_impl_step@U?$l_iter@Ul_end@mpl@boost@@@mpl@boost@@U123@@012@@Z 0044fa00 f i DXFshape.obj
 0001:0004ea00       ??$visitation_impl@U?$int_@$0BE@@mpl@boost@@U?$visitation_impl_step@U?$l_iter@Ul_end@mpl@boost@@@mpl@boost@@U123@@variant@detail@3@Vmove_assigner@?$variant@PAVCNCblock@@PAVCNCdata@@@3@PAXUhas_fallback_type_@83@@variant@detail@boost@@YAXHHAAVmove_assigner@?$variant@PAVCNCblock@@PAVCNCdata@@@2@PAXU?$bool_@$00@mpl@2@Uhas_fallback_type_@42@PAU?$int_@$0BE@@62@PAU?$visitation_impl_step@U?$l_iter@Ul_end@mpl@boost@@@mpl@boost@@U123@@012@@Z 0044fa00 f i NCChild.obj
 0001:0004ea00       ??$visitation_impl@U?$int_@$0BE@@mpl@boost@@U?$visitation_impl_step@U?$l_iter@Ul_end@mpl@boost@@@mpl@boost@@U123@@variant@detail@3@Vmove_assigner@?$variant@PAVCNCdata@@URANGEPARAM@@@3@PAXUhas_fallback_type_@83@@variant@detail@boost@@YAXHHAAVmove_assigner@?$variant@PAVCNCdata@@URANGEPARAM@@@2@PAXU?$bool_@$00@mpl@2@Uhas_fallback_type_@42@PAU?$int_@$0BE@@62@PAU?$visitation_impl_step@U?$l_iter@Ul_end@mpl@boost@@@mpl@boost@@U123@@012@@Z 0044fa00 f i NCViewGL.obj
 0001:0004ea00       ??$visitation_impl_invoke@Uassign_storage@variant@detail@boost@@PAXUhas_fallback_type_@?$variant@KPAVCLayerData@@PAVCDXFshape@@PAVCDXFworking@@@4@@variant@detail@boost@@YAXHAAUassign_storage@012@PAXPAUapply_visitor_unrolled@012@Uhas_fallback_type_@?$variant@KPAVCLayerData@@PAVCDXFshape@@PAVCDXFworking@@@2@J@Z 0044fa00 f i DXFView.obj
 0001:0004ea00       ??$visitation_impl_invoke@Umove_storage@variant@detail@boost@@PAXUhas_fallback_type_@?$variant@KPAVCLayerData@@PAVCDXFshape@@PAVCDXFworking@@@4@@variant@detail@boost@@YAXHAAUmove_storage@012@PAXPAUapply_visitor_unrolled@012@Uhas_fallback_type_@?$variant@KPAVCLayerData@@PAVCDXFshape@@PAVCDXFworking@@@2@J@Z 0044fa00 f i DXFShapeView.obj
 0001:0004ea00       ??$visitation_impl_invoke@Umove_storage@variant@detail@boost@@PAXUhas_fallback_type_@?$variant@PAVCDXFchain@@PAVCDXFmap@@@4@@variant@detail@boost@@YAXHAAUmove_storage@012@PAXPAUapply_visitor_unrolled@012@Uhas_fallback_type_@?$variant@PAVCDXFchain@@PAVCDXFmap@@@2@J@Z 0044fa00 f i DXFshape.obj
 0001:0004ea00       ??$visitation_impl_invoke@Umove_storage@variant@detail@boost@@PAXUhas_fallback_type_@?$variant@PAVCNCblock@@PAVCNCdata@@@4@@variant@detail@boost@@YAXHAAUmove_storage@012@PAXPAUapply_visitor_unrolled@012@Uhas_fallback_type_@?$variant@PAVCNCblock@@PAVCNCdata@@@2@J@Z 0044fa00 f i NCChild.obj
 0001:0004ea00       ??$visitation_impl_invoke@Umove_storage@variant@detail@boost@@PAXUhas_fallback_type_@?$variant@PAVCNCdata@@URANGEPARAM@@@4@@variant@detail@boost@@YAXHAAUmove_storage@012@PAXPAUapply_visitor_unrolled@012@Uhas_fallback_type_@?$variant@PAVCNCdata@@URANGEPARAM@@@2@J@Z 0044fa00 f i NCViewGL.obj
 0001:0004ea00       ??$visitation_impl_invoke@V?$invoke_visitor@$$CBUGetObjectCount_Visitor@@$0A@@variant@detail@boost@@PBXUhas_fallback_type_@?$variant@PAVCDXFchain@@PAVCDXFmap@@@4@@variant@detail@boost@@YAHHAAV?$invoke_visitor@$$CBUGetObjectCount_Visitor@@$0A@@012@PBXPAUapply_visitor_unrolled@012@Uhas_fallback_type_@?$variant@PAVCDXFchain@@PAVCDXFmap@@@2@J@Z 0044fa00 f i DXFshape.obj
 0001:0004ea00       ??$visitation_impl_invoke@V?$invoke_visitor@$$CBUOrgTuning_Visitor@@$0A@@variant@detail@boost@@PAXUhas_fallback_type_@?$variant@PAVCDXFchain@@PAVCDXFmap@@@4@@variant@detail@boost@@YAXHAAV?$invoke_visitor@$$CBUOrgTuning_Visitor@@$0A@@012@PAXPAUapply_visitor_unrolled@012@Uhas_fallback_type_@?$variant@PAVCDXFchain@@PAVCDXFmap@@@2@J@Z 0044fa00 f i DXFshape.obj
 0001:0004ea00       ??$visitation_impl_invoke@V?$invoke_visitor@U?$get_visitor@PAVCDXFchain@@@variant@detail@boost@@$0A@@variant@detail@boost@@PAXUhas_fallback_type_@?$variant@PAVCDXFchain@@PAVCDXFmap@@@4@@variant@detail@boost@@YAPAPAVCDXFchain@@HAAV?$invoke_visitor@U?$get_visitor@PAVCDXFchain@@@variant@detail@boost@@$0A@@012@PAXPAUapply_visitor_unrolled@012@Uhas_fallback_type_@?$variant@PAVCDXFchain@@PAVCDXFmap@@@2@J@Z 0044fa00 f i DXFshape.obj
 0001:0004ea00       ??$visitation_impl_invoke@V?$invoke_visitor@U?$get_visitor@PAVCDXFmap@@@variant@detail@boost@@$0A@@variant@detail@boost@@PAXUhas_fallback_type_@?$variant@PAVCDXFchain@@PAVCDXFmap@@@4@@variant@detail@boost@@YAPAPAVCDXFmap@@HAAV?$invoke_visitor@U?$get_visitor@PAVCDXFmap@@@variant@detail@boost@@$0A@@012@PAXPAUapply_visitor_unrolled@012@Uhas_fallback_type_@?$variant@PAVCDXFchain@@PAVCDXFmap@@@2@J@Z 0044fa00 f i DXFshape.obj
 0001:0004ea00       ??$visitation_impl_invoke@V?$invoke_visitor@U?$get_visitor@PAVCDXFshape@@@variant@detail@boost@@$0A@@variant@detail@boost@@PAXUhas_fallback_type_@?$variant@KPAVCLayerData@@PAVCDXFshape@@PAVCDXFworking@@@4@@variant@detail@boost@@YAPAPAVCDXFshape@@HAAV?$invoke_visitor@U?$get_visitor@PAVCDXFshape@@@variant@detail@boost@@$0A@@012@PAXPAUapply_visitor_unrolled@012@Uhas_fallback_type_@?$variant@KPAVCLayerData@@PAVCDXFshape@@PAVCDXFworking@@@2@J@Z 0044fa00 f i DXFView.obj
 0001:0004ea00       ??$visitation_impl_invoke@V?$invoke_visitor@U?$get_visitor@PAVCDXFworking@@@variant@detail@boost@@$0A@@variant@detail@boost@@PAXUhas_fallback_type_@?$variant@KPAVCLayerData@@PAVCDXFshape@@PAVCDXFworking@@@4@@variant@detail@boost@@YAPAPAVCDXFworking@@HAAV?$invoke_visitor@U?$get_visitor@PAVCDXFworking@@@variant@detail@boost@@$0A@@012@PAXPAUapply_visitor_unrolled@012@Uhas_fallback_type_@?$variant@KPAVCLayerData@@PAVCDXFshape@@PAVCDXFworking@@@2@J@Z 0044fa00 f i DXFView.obj
 0001:0004ea00       ??$visitation_impl_invoke@V?$invoke_visitor@U?$get_visitor@PAVCLayerData@@@variant@detail@boost@@$0A@@variant@detail@boost@@PAXUhas_fallback_type_@?$variant@KPAVCLayerData@@PAVCDXFshape@@PAVCDXFworking@@@4@@variant@detail@boost@@YAPAPAVCLayerData@@HAAV?$invoke_visitor@U?$get_visitor@PAVCLayerData@@@variant@detail@boost@@$0A@@012@PAXPAUapply_visitor_unrolled@012@Uhas_fallback_type_@?$variant@KPAVCLayerData@@PAVCDXFshape@@PAVCDXFworking@@@2@J@Z 0044fa00 f i TH_AutoWorkingSet.obj
 0001:0004ea00       ??$visitation_impl_invoke@V?$invoke_visitor@U?$get_visitor@PAVCNCblock@@@variant@detail@boost@@$0A@@variant@detail@boost@@PAXUhas_fallback_type_@?$variant@PAVCNCblock@@PAVCNCdata@@@4@@variant@detail@boost@@YAPAPAVCNCblock@@HAAV?$invoke_visitor@U?$get_visitor@PAVCNCblock@@@variant@detail@boost@@$0A@@012@PAXPAUapply_visitor_unrolled@012@Uhas_fallback_type_@?$variant@PAVCNCblock@@PAVCNCdata@@@2@J@Z 0044fa00 f i NCChild.obj
 0001:0004ea00       ??$visitation_impl_invoke@V?$invoke_visitor@U?$get_visitor@PAVCNCdata@@@variant@detail@boost@@$0A@@variant@detail@boost@@PAXUhas_fallback_type_@?$variant@PAVCNCblock@@PAVCNCdata@@@4@@variant@detail@boost@@YAPAPAVCNCdata@@HAAV?$invoke_visitor@U?$get_visitor@PAVCNCdata@@@variant@detail@boost@@$0A@@012@PAXPAUapply_visitor_unrolled@012@Uhas_fallback_type_@?$variant@PAVCNCblock@@PAVCNCdata@@@2@J@Z 0044fa00 f i NCChild.obj
 0001:0004ea00       ??$visitation_impl_invoke@V?$invoke_visitor@U?$get_visitor@PAVCNCdata@@@variant@detail@boost@@$0A@@variant@detail@boost@@PAXUhas_fallback_type_@?$variant@PAVCNCdata@@URANGEPARAM@@@4@@variant@detail@boost@@YAPAPAVCNCdata@@HAAV?$invoke_visitor@U?$get_visitor@PAVCNCdata@@@variant@detail@boost@@$0A@@012@PAXPAUapply_visitor_unrolled@012@Uhas_fallback_type_@?$variant@PAVCNCdata@@URANGEPARAM@@@2@J@Z 0044fa00 f i NCViewGL_Mill.obj
 0001:0004ea00       ??$visitation_impl_invoke@V?$invoke_visitor@U?$get_visitor@QAVCDXFchain@@@variant@detail@boost@@$0A@@variant@detail@boost@@PBXUhas_fallback_type_@?$variant@PAVCDXFchain@@PAVCDXFmap@@@4@@variant@detail@boost@@YAPBQAVCDXFchain@@HAAV?$invoke_visitor@U?$get_visitor@QAVCDXFchain@@@variant@detail@boost@@$0A@@012@PBXPAUapply_visitor_unrolled@012@Uhas_fallback_type_@?$variant@PAVCDXFchain@@PAVCDXFmap@@@2@J@Z 0044fa00 f i DXFshape.obj
 0001:0004ea00       ??$visitation_impl_invoke@V?$invoke_visitor@U?$get_visitor@QAVCDXFmap@@@variant@detail@boost@@$0A@@variant@detail@boost@@PBXUhas_fallback_type_@?$variant@PAVCDXFchain@@PAVCDXFmap@@@4@@variant@detail@boost@@YAPBQAVCDXFmap@@HAAV?$invoke_visitor@U?$get_visitor@QAVCDXFmap@@@variant@detail@boost@@$0A@@012@PBXPAUapply_visitor_unrolled@012@Uhas_fallback_type_@?$variant@PAVCDXFchain@@PAVCDXFmap@@@2@J@Z 0044fa00 f i DXFshape.obj
 0001:0004ea00       ??$visitation_impl_invoke@V?$invoke_visitor@U?$get_visitor@URANGEPARAM@@@variant@detail@boost@@$0A@@variant@detail@boost@@PAXUhas_fallback_type_@?$variant@PAVCNCdata@@URANGEPARAM@@@4@@variant@detail@boost@@YAPAURANGEPARAM@@HAAV?$invoke_visitor@U?$get_visitor@URANGEPARAM@@@variant@detail@boost@@$0A@@012@PAXPAUapply_visitor_unrolled@012@Uhas_fallback_type_@?$variant@PAVCNCdata@@URANGEPARAM@@@2@J@Z 0044fa00 f i NCViewGL_Mill.obj
 0001:0004ea00       ??$visitation_impl_invoke@V?$invoke_visitor@V?$direct_assigner@PAVCDXFchain@@@variant@detail@boost@@$0A@@variant@detail@boost@@PAXUhas_fallback_type_@?$variant@PAVCDXFchain@@PAVCDXFmap@@@4@@variant@detail@boost@@YA_NHAAV?$invoke_visitor@V?$direct_assigner@PAVCDXFchain@@@variant@detail@boost@@$0A@@012@PAXPAUapply_visitor_unrolled@012@Uhas_fallback_type_@?$variant@PAVCDXFchain@@PAVCDXFmap@@@2@J@Z 0044fa00 f i DXFshape.obj
 0001:0004ea00       ??$visitation_impl_invoke@V?$invoke_visitor@V?$direct_assigner@PAVCDXFmap@@@variant@detail@boost@@$0A@@variant@detail@boost@@PAXUhas_fallback_type_@?$variant@PAVCDXFchain@@PAVCDXFmap@@@4@@variant@detail@boost@@YA_NHAAV?$invoke_visitor@V?$direct_assigner@PAVCDXFmap@@@variant@detail@boost@@$0A@@012@PAXPAUapply_visitor_unrolled@012@Uhas_fallback_type_@?$variant@PAVCDXFchain@@PAVCDXFmap@@@2@J@Z 0044fa00 f i DXFshape.obj
 0001:0004ea00       ??$visitation_impl_invoke@V?$invoke_visitor@V?$direct_assigner@PAVCDXFshape@@@variant@detail@boost@@$0A@@variant@detail@boost@@PAXUhas_fallback_type_@?$variant@KPAVCLayerData@@PAVCDXFshape@@PAVCDXFworking@@@4@@variant@detail@boost@@YA_NHAAV?$invoke_visitor@V?$direct_assigner@PAVCDXFshape@@@variant@detail@boost@@$0A@@012@PAXPAUapply_visitor_unrolled@012@Uhas_fallback_type_@?$variant@KPAVCLayerData@@PAVCDXFshape@@PAVCDXFworking@@@2@J@Z 0044fa00 f i DXFShapeView.obj
 0001:0004ea00       ??$visitation_impl_invoke@V?$invoke_visitor@V?$direct_assigner@PAVCDXFworking@@@variant@detail@boost@@$0A@@variant@detail@boost@@PAXUhas_fallback_type_@?$variant@KPAVCLayerData@@PAVCDXFshape@@PAVCDXFworking@@@4@@variant@detail@boost@@YA_NHAAV?$invoke_visitor@V?$direct_assigner@PAVCDXFworking@@@variant@detail@boost@@$0A@@012@PAXPAUapply_visitor_unrolled@012@Uhas_fallback_type_@?$variant@KPAVCLayerData@@PAVCDXFshape@@PAVCDXFworking@@@2@J@Z 0044fa00 f i DXFShapeView.obj
 0001:0004ea00       ??$visitation_impl_invoke@V?$invoke_visitor@V?$direct_assigner@PAVCLayerData@@@variant@detail@boost@@$0A@@variant@detail@boost@@PAXUhas_fallback_type_@?$variant@KPAVCLayerData@@PAVCDXFshape@@PAVCDXFworking@@@4@@variant@detail@boost@@YA_NHAAV?$invoke_visitor@V?$direct_assigner@PAVCLayerData@@@variant@detail@boost@@$0A@@012@PAXPAUapply_visitor_unrolled@012@Uhas_fallback_type_@?$variant@KPAVCLayerData@@PAVCDXFshape@@PAVCDXFworking@@@2@J@Z 0044fa00 f i DXFShapeView.obj
 0001:0004ea00       ??$visitation_impl_invoke@V?$invoke_visitor@V?$direct_assigner@PAVCNCblock@@@variant@detail@boost@@$0A@@variant@detail@boost@@PAXUhas_fallback_type_@?$variant@PAVCNCblock@@PAVCNCdata@@@4@@variant@detail@boost@@YA_NHAAV?$invoke_visitor@V?$direct_assigner@PAVCNCblock@@@variant@detail@boost@@$0A@@012@PAXPAUapply_visitor_unrolled@012@Uhas_fallback_type_@?$variant@PAVCNCblock@@PAVCNCdata@@@2@J@Z 0044fa00 f i NCListView.obj
 0001:0004ea00       ??$visitation_impl_invoke@V?$invoke_visitor@V?$direct_assigner@PAVCNCdata@@@variant@detail@boost@@$0A@@variant@detail@boost@@PAXUhas_fallback_type_@?$variant@PAVCNCblock@@PAVCNCdata@@@4@@variant@detail@boost@@YA_NHAAV?$invoke_visitor@V?$direct_assigner@PAVCNCdata@@@variant@detail@boost@@$0A@@012@PAXPAUapply_visitor_unrolled@012@Uhas_fallback_type_@?$variant@PAVCNCblock@@PAVCNCdata@@@2@J@Z 0044fa00 f i NCListView.obj
 0001:0004ea00       ??$visitation_impl_invoke@V?$invoke_visitor@V?$direct_assigner@PAVCNCdata@@@variant@detail@boost@@$0A@@variant@detail@boost@@PAXUhas_fallback_type_@?$variant@PAVCNCdata@@URANGEPARAM@@@4@@variant@detail@boost@@YA_NHAAV?$invoke_visitor@V?$direct_assigner@PAVCNCdata@@@variant@detail@boost@@$0A@@012@PAXPAUapply_visitor_unrolled@012@Uhas_fallback_type_@?$variant@PAVCNCdata@@URANGEPARAM@@@2@J@Z 0044fa00 f i NCViewGL.obj
 0001:0004ea00       ??$visitation_impl_invoke@V?$invoke_visitor@V?$direct_mover@K@variant@detail@boost@@$0A@@variant@detail@boost@@PAXUhas_fallback_type_@?$variant@KPAVCLayerData@@PAVCDXFshape@@PAVCDXFworking@@@4@@variant@detail@boost@@YA_NHAAV?$invoke_visitor@V?$direct_mover@K@variant@detail@boost@@$0A@@012@PAXPAUapply_visitor_unrolled@012@Uhas_fallback_type_@?$variant@KPAVCLayerData@@PAVCDXFshape@@PAVCDXFworking@@@2@J@Z 0044fa00 f i DXFShapeView.obj
 0001:0004ea00       ??$visitation_impl_invoke@V?$invoke_visitor@V?$direct_mover@PAVCLayerData@@@variant@detail@boost@@$0A@@variant@detail@boost@@PAXUhas_fallback_type_@?$variant@KPAVCLayerData@@PAVCDXFshape@@PAVCDXFworking@@@4@@variant@detail@boost@@YA_NHAAV?$invoke_visitor@V?$direct_mover@PAVCLayerData@@@variant@detail@boost@@$0A@@012@PAXPAUapply_visitor_unrolled@012@Uhas_fallback_type_@?$variant@KPAVCLayerData@@PAVCDXFshape@@PAVCDXFworking@@@2@J@Z 0044fa00 f i DXFShapeView.obj
 0001:0004ea00       ??$visitation_impl_invoke@V?$invoke_visitor@V?$direct_mover@PAVCNCdata@@@variant@detail@boost@@$0A@@variant@detail@boost@@PAXUhas_fallback_type_@?$variant@PAVCNCblock@@PAVCNCdata@@@4@@variant@detail@boost@@YA_NHAAV?$invoke_visitor@V?$direct_mover@PAVCNCdata@@@variant@detail@boost@@$0A@@012@PAXPAUapply_visitor_unrolled@012@Uhas_fallback_type_@?$variant@PAVCNCblock@@PAVCNCdata@@@2@J@Z 0044fa00 f i NCChild.obj
 0001:0004ea00       ??$visitation_impl_invoke@V?$invoke_visitor@V?$direct_mover@URANGEPARAM@@@variant@detail@boost@@$0A@@variant@detail@boost@@PAXUhas_fallback_type_@?$variant@PAVCNCdata@@URANGEPARAM@@@4@@variant@detail@boost@@YA_NHAAV?$invoke_visitor@V?$direct_mover@URANGEPARAM@@@variant@detail@boost@@$0A@@012@PAXPAUapply_visitor_unrolled@012@Uhas_fallback_type_@?$variant@PAVCNCdata@@URANGEPARAM@@@2@J@Z 0044fa00 f i NCViewGL.obj
 0001:0004ea00       ??$visitation_impl_invoke@Vassigner@?$variant@KPAVCLayerData@@PAVCDXFshape@@PAVCDXFworking@@@boost@@PBXUhas_fallback_type_@23@@variant@detail@boost@@YAXHAAVassigner@?$variant@KPAVCLayerData@@PAVCDXFshape@@PAVCDXFworking@@@2@PBXPAUapply_visitor_unrolled@012@Uhas_fallback_type_@42@J@Z 0044fa00 f i DXFView.obj
 0001:0004ea00       ??$visitation_impl_invoke@Vmove_assigner@?$variant@KPAVCLayerData@@PAVCDXFshape@@PAVCDXFworking@@@boost@@PAXUhas_fallback_type_@23@@variant@detail@boost@@YAXHAAVmove_assigner@?$variant@KPAVCLayerData@@PAVCDXFshape@@PAVCDXFworking@@@2@PAXPAUapply_visitor_unrolled@012@Uhas_fallback_type_@42@J@Z 0044fa00 f i DXFShapeView.obj
 0001:0004ea00       ??$visitation_impl_invoke@Vmove_assigner@?$variant@PAVCDXFchain@@PAVCDXFmap@@@boost@@PAXUhas_fallback_type_@23@@variant@detail@boost@@YAXHAAVmove_assigner@?$variant@PAVCDXFchain@@PAVCDXFmap@@@2@PAXPAUapply_visitor_unrolled@012@Uhas_fallback_type_@42@J@Z 0044fa00 f i DXFshape.obj
 0001:0004ea00       ??$visitation_impl_invoke@Vmove_assigner@?$variant@PAVCNCblock@@PAVCNCdata@@@boost@@PAXUhas_fallback_type_@23@@variant@detail@boost@@YAXHAAVmove_assigner@?$variant@PAVCNCblock@@PAVCNCdata@@@2@PAXPAUapply_visitor_unrolled@012@Uhas_fallback_type_@42@J@Z 0044fa00 f i NCChild.obj
 0001:0004ea00       ??$visitation_impl_invoke@Vmove_assigner@?$variant@PAVCNCdata@@URANGEPARAM@@@boost@@PAXUhas_fallback_type_@23@@variant@detail@boost@@YAXHAAVmove_assigner@?$variant@PAVCNCdata@@URANGEPARAM@@@2@PAXPAUapply_visitor_unrolled@012@Uhas_fallback_type_@42@J@Z 0044fa00 f i NCViewGL.obj
 0001:0004ea10       ??$visitation_impl_invoke@V?$invoke_visitor@$$CBUOrgTuning_Visitor@@$0A@@variant@detail@boost@@PAXPAVCDXFmap@@Uhas_fallback_type_@?$variant@PAVCDXFchain@@PAVCDXFmap@@@4@@variant@detail@boost@@YAXHAAV?$invoke_visitor@$$CBUOrgTuning_Visitor@@$0A@@012@PAXPAPAVCDXFmap@@Uhas_fallback_type_@?$variant@PAVCDXFchain@@PAVCDXFmap@@@2@H@Z 0044fa10 f i DXFshape.obj
 0001:0004ea90       ?what@bad_get@boost@@UBEPBDXZ 0044fa90 f i DXFshape.obj
 0001:0004eaa0       _acosf                     0044faa0 f i DXFshape.obj
 0001:0004eac0       ?CreateObject@CDXFShapeView@@SGPAVCObject@@XZ 0044fac0 f   DXFShapeView.obj
 0001:0004eb70       ?_GetBaseClass@CDXFShapeView@@KGPAUCRuntimeClass@@XZ 0044fb70 f   DXFShapeView.obj
 0001:0004eb80       ?GetRuntimeClass@CDXFShapeView@@UBEPAUCRuntimeClass@@XZ 0044fb80 f   DXFShapeView.obj
 0001:0004eb90       ?GetMessageMap@CDXFShapeView@@MBEPBUAFX_MSGMAP@@XZ 0044fb90 f   DXFShapeView.obj
 0001:0004eba0       ??_ECDXFShapeView@@UAEPAXI@Z 0044fba0 f i * CIL library *:* CIL module *
 0001:0004eba0       ??_GCDXFShapeView@@UAEPAXI@Z 0044fba0 f i DXFShapeView.obj
 0001:0004ebe0       ?PreCreateWindow@CDXFShapeView@@MAEHAAUtagCREATESTRUCTA@@@Z 0044fbe0 f   DXFShapeView.obj
 0001:0004ec00       ?OnInitialUpdate@CDXFShapeView@@UAEXXZ 0044fc00 f   DXFShapeView.obj
 0001:0004ed70       ?OnUpdate@CDXFShapeView@@MAEXPAVCView@@JPAVCObject@@@Z 0044fd70 f   DXFShapeView.obj
 0001:0004f030       ?PreTranslateMessage@CDXFShapeView@@UAEHPAUtagMSG@@@Z 00450030 f   DXFShapeView.obj
 0001:0004f120       ?OnUpdateShape@CDXFShapeView@@AAEXPAUDXFADDSHAPE@@@Z 00450120 f   DXFShapeView.obj
 0001:0004f3a0       ?DragInsert@CDXFShapeView@@AAEXXZ 004503a0 f   DXFShapeView.obj
 0001:0004f520       ?DragInsertLayer@CDXFShapeView@@AAEPAU_TREEITEM@@XZ 00450520 f   DXFShapeView.obj
 0001:0004f980       ?DragInsertShape@CDXFShapeView@@AAEPAU_TREEITEM@@XZ 00450980 f   DXFShapeView.obj
 0001:0004fd30       ?DragLink@CDXFShapeView@@AAEXXZ 00450d30 f   DXFShapeView.obj
 0001:00050070       ?DragCancel@CDXFShapeView@@AAEXHH@Z 00451070 f   DXFShapeView.obj
 0001:00050130       ?GetParentAssemble@CDXFShapeView@@AAEKPAU_TREEITEM@@@Z 00451130 f   DXFShapeView.obj
 0001:000501b0       ?SetShapeSwitch_SubordinateTree@CDXFShapeView@@AAEXPAU_TREEITEM@@H@Z 004511b0 f   DXFShapeView.obj
 0001:00050280       ?SetShapeTree@CDXFShapeView@@AAEXXZ 00451280 f   DXFShapeView.obj
 0001:00050450       ?AutoWorkingDel@CDXFShapeView@@AAEXPBVCLayerData@@PBVCDXFshape@@@Z 00451450 f   DXFShapeView.obj
 0001:000505c0       ?AutoWorkingSet@CDXFShapeView@@AAEXHPBVCLayerData@@PBVCDXFshape@@@Z 004515c0 f   DXFShapeView.obj
 0001:000507a0       ?OnSortShape@CDXFShapeView@@IAEXXZ 004517a0 f   DXFShapeView.obj
 0001:00050830       ?OnUpdateWorkingDel@CDXFShapeView@@IAEXPAVCCmdUI@@@Z 00451830 f   DXFShapeView.obj
 0001:000508b0       ?OnWorkingDel@CDXFShapeView@@IAEXXZ 004518b0 f   DXFShapeView.obj
 0001:000509c0       ?OnUpdateEditShapeProp@CDXFShapeView@@IAEXPAVCCmdUI@@@Z 004519c0 f   DXFShapeView.obj
 0001:00050a30       ?OnEditShapeProp@CDXFShapeView@@IAEXXZ 00451a30 f   DXFShapeView.obj
 0001:000514a0       ??1CShapePropDlg@@UAE@XZ   004524a0 f i DXFShapeView.obj
 0001:000514f0       ?OnUpdateEditShapeName@CDXFShapeView@@IAEXPAVCCmdUI@@@Z 004524f0 f   DXFShapeView.obj
 0001:00051560       ?OnEditShapeName@CDXFShapeView@@IAEXXZ 00452560 f   DXFShapeView.obj
 0001:000515d0       ?OnCreate@CDXFShapeView@@IAEHPAUtagCREATESTRUCTA@@@Z 004525d0 f   DXFShapeView.obj
 0001:00051630       ?OnContextMenu@CDXFShapeView@@IAEXPAVCWnd@@VCPoint@@@Z 00452630 f   DXFShapeView.obj
 0001:00051700       ?OnGetDispInfo@CDXFShapeView@@IAEXPAUtagNMHDR@@PAJ@Z 00452700 f   DXFShapeView.obj
 0001:000517a0       ?OnBeginLabelEdit@CDXFShapeView@@IAEXPAUtagNMHDR@@PAJ@Z 004527a0 f   DXFShapeView.obj
 0001:00051800       ?OnEndLabelEdit@CDXFShapeView@@IAEXPAUtagNMHDR@@PAJ@Z 00452800 f   DXFShapeView.obj
 0001:00051900       ?OnKeyDown@CDXFShapeView@@IAEXPAUtagNMHDR@@PAJ@Z 00452900 f   DXFShapeView.obj
 0001:00051a10       ?OnChar@CDXFShapeView@@IAEXIII@Z 00452a10 f   DXFShapeView.obj
 0001:00051a20       ?OnSelChanged@CDXFShapeView@@IAEXPAUtagNMHDR@@PAJ@Z 00452a20 f   DXFShapeView.obj
 0001:00051d00       ?OnBeginDrag@CDXFShapeView@@IAEXPAUtagNMHDR@@PAJ@Z 00452d00 f   DXFShapeView.obj
 0001:00051ec0       ?OnMouseMove@CDXFShapeView@@IAEXIVCPoint@@@Z 00452ec0 f   DXFShapeView.obj
 0001:00052030       ?OnLButtonUp@CDXFShapeView@@IAEXIVCPoint@@@Z 00453030 f   DXFShapeView.obj
 0001:00052090       ?DrawWireLine@CNCdata@@UBEXW4ENNCDRAWVIEW@@PAVCDC@@H@Z 00453090 f   NCdata.obj
 0001:00052090       ?OnRButtonDown@CDXFShapeView@@IAEXIVCPoint@@@Z 00453090 f   DXFShapeView.obj
 0001:00052090       ?SetCorrectPoint@CNCcycle@@UAEXW4ENPOINTORDER@@ABV?$CPointT@M@@M@Z 00453090 f   NCdata.obj
 0001:00052090       ?SetCorrectPoint@CNCdata@@UAEXW4ENPOINTORDER@@ABV?$CPointT@M@@M@Z 00453090 f   NCdata.obj
 0001:000520a0       ?OnRButtonUp@CDXFShapeView@@IAEXIVCPoint@@@Z 004530a0 f   DXFShapeView.obj
 0001:000520f0       ??0?$variant@KPAVCLayerData@@PAVCDXFshape@@PAVCDXFworking@@@boost@@QAE@XZ 004530f0 f i DXFShapeView.obj
 0001:00052100       ?variant_assign@?$variant@KPAVCLayerData@@PAVCDXFshape@@PAVCDXFworking@@@boost@@AAEX$$QAV12@@Z 00453100 f i DXFShapeView.obj
 0001:00052100       ?variant_assign@?$variant@KPAVCLayerData@@PAVCDXFshape@@PAVCDXFworking@@@boost@@AAEXABV12@@Z 00453100 f i DXFView.obj
 0001:000523d0       ??$apply_visitor@V?$direct_mover@K@variant@detail@boost@@@?$variant@KPAVCLayerData@@PAVCDXFshape@@PAVCDXFworking@@@boost@@QGAE_NAAV?$direct_mover@K@variant@detail@1@@Z 004533d0 f i DXFShapeView.obj
 0001:00052540       ??$apply_visitor@V?$direct_assigner@PAVCLayerData@@@variant@detail@boost@@@?$variant@KPAVCLayerData@@PAVCDXFshape@@PAVCDXFworking@@@boost@@QGAE_NAAV?$direct_assigner@PAVCLayerData@@@variant@detail@1@@Z 00453540 f i DXFShapeView.obj
 0001:00052540       ??$apply_visitor@V?$direct_mover@PAVCLayerData@@@variant@detail@boost@@@?$variant@KPAVCLayerData@@PAVCDXFshape@@PAVCDXFworking@@@boost@@QGAE_NAAV?$direct_mover@PAVCLayerData@@@variant@detail@1@@Z 00453540 f i DXFShapeView.obj
 0001:000526b0       ??$apply_visitor@V?$direct_assigner@PAVCDXFshape@@@variant@detail@boost@@@?$variant@KPAVCLayerData@@PAVCDXFshape@@PAVCDXFworking@@@boost@@QGAE_NAAV?$direct_assigner@PAVCDXFshape@@@variant@detail@1@@Z 004536b0 f i DXFShapeView.obj
 0001:00052820       ??$apply_visitor@V?$direct_assigner@PAVCDXFworking@@@variant@detail@boost@@@?$variant@KPAVCLayerData@@PAVCDXFshape@@PAVCDXFworking@@@boost@@QGAE_NAAV?$direct_assigner@PAVCDXFworking@@@variant@detail@1@@Z 00453820 f i DXFShapeView.obj
 0001:00052990       ?GetBindInfo_fromView@CDXFDoc@@QBEHPBVCDXFView@@@Z 00453990 f i DXFView.obj
 0001:000529d0       ?DrawMagnifyRect@CViewBase@@QAEXPAVCDC@@@Z 004539d0 f i DXFView.obj
 0001:00052a60       ?CreateObject@CDXFView@@SGPAVCObject@@XZ 00453a60 f   DXFView.obj
 0001:00052c60       ?GetRuntimeClass@CViewBase@@UBEPAUCRuntimeClass@@XZ 00453c60 f   ViewBase.obj
 0001:00052c60       ?_GetBaseClass@CDXFView@@KGPAUCRuntimeClass@@XZ 00453c60 f   DXFView.obj
 0001:00052c60       ?_GetBaseClass@CNCViewBase@@KGPAUCRuntimeClass@@XZ 00453c60 f   NCViewBase.obj
 0001:00052c70       ?GetRuntimeClass@CDXFView@@UBEPAUCRuntimeClass@@XZ 00453c70 f   DXFView.obj
 0001:00052c80       ?GetMessageMap@CDXFView@@MBEPBUAFX_MSGMAP@@XZ 00453c80 f   DXFView.obj
 0001:00052c90       ??_ECDXFView@@UAEPAXI@Z    00453c90 f i * CIL library *:* CIL module *
 0001:00052c90       ??_GCDXFView@@UAEPAXI@Z    00453c90 f i DXFView.obj
 0001:00052d60       ??1CViewBase@@UAE@XZ       00453d60 f i DXFView.obj
 0001:00052d70       ??_FCDXFchain@@QAEXXZ      00453d70 f i DXFView.obj
 0001:00052dc0       ??_E?$CTypedPtrList@VCPtrList@@PAVCExecOption@@@@UAEPAXI@Z 00453dc0 f i * CIL library *:* CIL module *
 0001:00052dc0       ??_E?$CTypedPtrList@VCPtrList@@PAVCMCTOOLINFO@@@@UAEPAXI@Z 00453dc0 f i * CIL library *:* CIL module *
 0001:00052dc0       ??_E?$CTypedPtrList@VCPtrList@@PAVCRecentViewInfo@@@@UAEPAXI@Z 00453dc0 f i * CIL library *:* CIL module *
 0001:00052dc0       ??_E?$CTypedPtrListEx@VCPtrList@@PAUCADBINDINFO@@@@UAEPAXI@Z 00453dc0 f i * CIL library *:* CIL module *
 0001:00052dc0       ??_G?$CTypedPtrList@VCPtrList@@PAVCExecOption@@@@UAEPAXI@Z 00453dc0 f i NCVC.obj
 0001:00052dc0       ??_G?$CTypedPtrList@VCPtrList@@PAVCMCTOOLINFO@@@@UAEPAXI@Z 00453dc0 f i MachineOption.obj
 0001:00052dc0       ??_G?$CTypedPtrList@VCPtrList@@PAVCRecentViewInfo@@@@UAEPAXI@Z 00453dc0 f i NCVC.obj
 0001:00052dc0       ??_G?$CTypedPtrListEx@VCPtrList@@PAUCADBINDINFO@@@@UAEPAXI@Z 00453dc0 f i DXFView.obj
 0001:00052e00       ?OnCmdMsg@CDXFView@@UAEHIHPAXPAUAFX_CMDHANDLERINFO@@@Z 00453e00 f   DXFView.obj
 0001:00052e30       ?OnInitialUpdate@CDXFView@@UAEXXZ 00453e30 f   DXFView.obj
 0001:00052ec0       ?OnUpdate@CDXFView@@MAEXPAVCView@@JPAVCObject@@@Z 00453ec0 f   DXFView.obj
 0001:00053120       ?OnUpdateShape@CDXFView@@AAEHQAV?$variant@KPAVCLayerData@@PAVCDXFshape@@PAVCDXFworking@@@boost@@@Z 00454120 f   DXFView.obj
 0001:00053340       ?CreateWorkingData@CDXFView@@AAEPAVCDXFworking@@XZ 00454340 f   DXFView.obj
 0001:000536e0       ?CreateOutlineTempObject@CDXFView@@AAEHPAVCDXFshape@@@Z 004546e0 f   DXFView.obj
 0001:00053810       ?DeleteOutlineTempObject@CDXFView@@AAEXXZ 00454810 f   DXFView.obj
 0001:00053850       ?CancelForSelect@CDXFView@@AAEHPAVCDC@@@Z 00454850 f   DXFView.obj
 0001:00053930       ?AllChangeFactor_OutlineTempObject@CDXFView@@AAEXXZ 00454930 f   DXFView.obj
 0001:00053980       ?BindMove@CDXFView@@AAEXH@Z 00454980 f   DXFView.obj
 0001:00053b30       ?BindMsgPost@CDXFView@@AAEXPAVCDC@@PAUCADBINDINFO@@PAVCPoint@@@Z 00454b30 f   DXFView.obj
 0001:00053c70       ?ClearBindSelectData@CDXFView@@AAEXXZ 00454c70 f   DXFView.obj
 0001:00053cf0       ?OnDraw@CDXFView@@MAEXPAVCDC@@@Z 00454cf0 f   DXFView.obj
 0001:00054480       ?DrawTemporaryProcess@CDXFView@@AAEXPAVCDC@@@Z 00455480 f   DXFView.obj
 0001:000545a0       ?DrawTempArraw@CDXFView@@AAEXPAVCDC@@@Z 004555a0 f   DXFView.obj
 0001:00054720       ?DrawTempStart@CDXFView@@AAEXPAVCDC@@@Z 00455720 f   DXFView.obj
 0001:00054850       ?DrawTempOutline@CDXFView@@AAEXPAVCDC@@@Z 00455850 f   DXFView.obj
 0001:00054910       ?OnUpdateEditUndo@CDXFView@@IAEXPAVCCmdUI@@@Z 00455910 f   DXFView.obj
 0001:00054930       ?OnEditUndo@CDXFView@@IAEXXZ 00455930 f   DXFView.obj
 0001:00054a90       ?OnEditCopy@CDXFView@@IAEXXZ 00455a90 f   DXFView.obj
 0001:00054a90       ?OnEditCopy@CNCViewBase@@QAEXXZ 00455a90 f   NCViewBase.obj
 0001:00054bc0       ?OnUpdateEditBind@CDXFView@@IAEXPAVCCmdUI@@@Z 00455bc0 f   DXFView.obj
 0001:00054bf0       ?OnEditBindDel@CDXFView@@IAEXXZ 00455bf0 f   DXFView.obj
 0001:00054d10       ?OnEditBindTarget@CDXFView@@IAEXXZ 00455d10 f   DXFView.obj
 0001:00054d80       ?OnUpdateViewLayer@CDXFView@@IAEXPAVCCmdUI@@@Z 00455d80 f   DXFView.obj
 0001:00054dc0       ?OnViewLayer@CDXFView@@IAEXXZ 00455dc0 f   DXFView.obj
 0001:00054ef0       ?OnUpdateMouseCursor@CDXFView@@IAEXPAVCCmdUI@@@Z 00455ef0 f   DXFView.obj
 0001:00055100       ?OnMoveKey@CDXFView@@IAEXI@Z 00456100 f   DXFView.obj
 0001:00055180       ?OnLensKey@CDXFView@@IAEXI@Z 00456180 f   DXFView.obj
 0001:00055360       ?OnViewLensComm@CDXFView@@MAEXXZ 00456360 f   DXFView.obj
 0001:00055530       ?OnDestroy@CDXFView@@IAEXXZ 00456530 f   DXFView.obj
 0001:00055550       ?OnContextMenu@CDXFView@@IAEXPAVCWnd@@VCPoint@@@Z 00456550 f   DXFView.obj
 0001:00055590       ?OnUserViewFitMsg@CDXFView@@IAEJIJ@Z 00456590 f   DXFView.obj
 0001:00055730       ?OnBindInitMsg@CDXFView@@IAEJIJ@Z 00456730 f   DXFView.obj
 0001:00055f60       ?OnBindLButtonDown@CDXFView@@IAEJIJ@Z 00456f60 f   DXFView.obj
 0001:00056140       ?OnBindRoundMsg@CDXFView@@IAEJIJ@Z 00457140 f   DXFView.obj
 0001:000562c0       ?OnBindCancel@CDXFView@@IAEJIJ@Z 004572c0 f   DXFView.obj
 0001:00056390       ?OnLButtonDown@CDXFView@@IAEXIVCPoint@@@Z 00457390 f   DXFView.obj
 0001:00056490       ?OnLButtonUp@CDXFView@@IAEXIVCPoint@@@Z 00457490 f   DXFView.obj
 0001:00056bd0       ?OnRButtonDown@CDXFView@@IAEXIVCPoint@@@Z 00457bd0 f   DXFView.obj
 0001:00056c80       ?OnRButtonUp@CDXFView@@IAEXIVCPoint@@@Z 00457c80 f   DXFView.obj
 0001:00056da0       ?OnLButtonDblClk@CDXFView@@IAEXIVCPoint@@@Z 00457da0 f   DXFView.obj
 0001:00057000       ?OnLButtonUp_Separate@CDXFView@@AAEXPAVCDC@@PAVCDXFdata@@ABV?$CPointT@M@@ABV?$CRectT@M@@@Z 00458000 f   DXFView.obj
 0001:000575c0       ?OnLButtonUp_Vector@CDXFView@@AAEXPAVCDC@@PAVCDXFdata@@ABV?$CPointT@M@@ABV?$CRectT@M@@@Z 004585c0 f   DXFView.obj
 0001:000577b0       ?OnLButtonUp_Start@CDXFView@@AAEXPAVCDC@@PAVCDXFdata@@ABV?$CPointT@M@@ABV?$CRectT@M@@@Z 004587b0 f   DXFView.obj
 0001:000579d0       ?OnLButtonUp_Outline@CDXFView@@AAEXPAVCDC@@PAVCDXFdata@@ABV?$CPointT@M@@ABV?$CRectT@M@@@Z 004589d0 f   DXFView.obj
 0001:000580b0       ?OnMouseMove@CDXFView@@IAEXIVCPoint@@@Z 004590b0 f   DXFView.obj
 0001:000584f0       ?OnMouseMove_Vector@CDXFView@@AAEXPAVCDC@@ABV?$CPointT@M@@ABV?$CRectT@M@@@Z 004594f0 f   DXFView.obj
 0001:000585b0       ?OnMouseMove_Start@CDXFView@@AAEXPAVCDC@@ABV?$CPointT@M@@ABV?$CRectT@M@@@Z 004595b0 f   DXFView.obj
 0001:00058660       ?OnMouseMove_Outline@CDXFView@@AAEXPAVCDC@@ABV?$CPointT@M@@ABV?$CRectT@M@@@Z 00459660 f   DXFView.obj
 0001:00058970       ?OnMouseWheel@CDXFView@@IAEHIFVCPoint@@@Z 00459970 f   DXFView.obj
 0001:000589d0       ?OnKeyDown@CDXFView@@IAEXIII@Z 004599d0 f   DXFView.obj
 0001:00058a80       ?OnEraseBkgnd@CDXFView@@IAEHPAVCDC@@@Z 00459a80 f   DXFView.obj
 0001:00058ad0       ?OnNcHitTest@CDXFView@@IAEJVCPoint@@@Z 00459ad0 f   DXFView.obj
 0001:00058b20       ?OnToolTipNotify@CDXFView@@IAEHIPAUtagNMHDR@@PAJ@Z 00459b20 f   DXFView.obj
 0001:00058bd0       ?OnToolHitTest@CDXFView@@UBEHVCPoint@@PAUtagTOOLINFOA@@@Z 00459bd0 f   DXFView.obj
 0001:00058c30       ??1?$vector@V?$vector@V?$CPointT@M@@V?$allocator@V?$CPointT@M@@@std@@@std@@V?$allocator@V?$vector@V?$CPointT@M@@V?$allocator@V?$CPointT@M@@@std@@@std@@@2@@std@@QAE@XZ 00459c30 f i DXFView.obj
 0001:00058cb0       ??1?$vector@USELECTBIND@@V?$allocator@USELECTBIND@@@std@@@std@@QAE@XZ 00459cb0 f i DXFView.obj
 0001:00058d20       ??$_Destroy_range@V?$allocator@V?$vector@V?$CPointT@M@@V?$allocator@V?$CPointT@M@@@std@@@std@@@std@@@std@@YAXPAV?$vector@V?$CPointT@M@@V?$allocator@V?$CPointT@M@@@std@@@0@QAV10@AAV?$allocator@V?$vector@V?$CPointT@M@@V?$allocator@V?$CPointT@M@@@std@@@std@@@0@@Z 00459d20 f i DXFView.obj
 0001:00058d50       ??$_Emplace_reallocate@ABV?$vector@V?$CPointT@M@@V?$allocator@V?$CPointT@M@@@std@@@std@@@?$vector@V?$vector@V?$CPointT@M@@V?$allocator@V?$CPointT@M@@@std@@@std@@V?$allocator@V?$vector@V?$CPointT@M@@V?$allocator@V?$CPointT@M@@@std@@@std@@@2@@std@@AAEPAV?$vector@V?$CPointT@M@@V?$allocator@V?$CPointT@M@@@std@@@1@QAV21@ABV21@@Z 00459d50 f i DXFView.obj
 0001:00058fd0       ??$_Emplace_reallocate@ABUSELECTBIND@@@?$vector@USELECTBIND@@V?$allocator@USELECTBIND@@@std@@@std@@AAEPAUSELECTBIND@@QAU2@ABU2@@Z 00459fd0 f i DXFView.obj
 0001:000591b0       ??$construct@V?$vector@V?$CPointT@M@@V?$allocator@V?$CPointT@M@@@std@@@std@@ABV12@@?$_Default_allocator_traits@V?$allocator@V?$vector@V?$CPointT@M@@V?$allocator@V?$CPointT@M@@@std@@@std@@@std@@@std@@SAXAAV?$allocator@V?$vector@V?$CPointT@M@@V?$allocator@V?$CPointT@M@@@std@@@std@@@1@QAV?$vector@V?$CPointT@M@@V?$allocator@V?$CPointT@M@@@std@@@1@ABV31@@Z 0045a1b0 f i DXFView.obj
 0001:00059220       ??$_Sort_unchecked@PAUSELECTBIND@@U?$less@X@std@@@std@@YAXPAUSELECTBIND@@0HU?$less@X@0@@Z 0045a220 f i DXFView.obj
 0001:000594f0       ??$apply_visitor@U?$get_visitor@PAVCDXFshape@@@variant@detail@boost@@@?$variant@KPAVCLayerData@@PAVCDXFshape@@PAVCDXFworking@@@boost@@QGAEPAPAVCDXFshape@@AAU?$get_visitor@PAVCDXFshape@@@variant@detail@1@@Z 0045a4f0 f i DXFView.obj
 0001:00059650       ??$apply_visitor@U?$get_visitor@PAVCDXFworking@@@variant@detail@boost@@@?$variant@KPAVCLayerData@@PAVCDXFshape@@PAVCDXFworking@@@boost@@QGAEPAPAVCDXFworking@@AAU?$get_visitor@PAVCDXFworking@@@variant@detail@1@@Z 0045a650 f i DXFView.obj
 0001:000597b0       ??$_Partition_by_median_guess_unchecked@PAUSELECTBIND@@U?$less@X@std@@@std@@YA?AU?$pair@PAUSELECTBIND@@PAU1@@0@PAUSELECTBIND@@0U?$less@X@0@@Z 0045a7b0 f i DXFView.obj
 0001:00059ad0       ??$_Pop_heap_hole_by_index@PAUSELECTBIND@@U1@U?$less@X@std@@@std@@YAXPAUSELECTBIND@@HH$$QAU1@U?$less@X@0@@Z 0045aad0 f i DXFView.obj
 0001:00059c10       ??$_Med3_unchecked@PAUSELECTBIND@@U?$less@X@std@@@std@@YAXPAUSELECTBIND@@00U?$less@X@0@@Z 0045ac10 f i DXFView.obj
 0001:00059cb0       ??0CExecOption@@QAE@ABV?$CStringT@DV?$StrTraitMFC_DLL@DV?$ChTraitsCRT@D@ATL@@@@@ATL@@@Z 0045acb0 f   ExecOption.obj
 0001:0005a230       ??0CExecOption@@QAE@ABV?$CStringT@DV?$StrTraitMFC_DLL@DV?$ChTraitsCRT@D@ATL@@@@@ATL@@00HHH@Z 0045b230 f   ExecOption.obj
 0001:0005a2e0       ??0CExecOption@@QAE@ABV?$CStringT@DV?$StrTraitMFC_DLL@DV?$ChTraitsCRT@D@ATL@@@@@ATL@@W4DOCTYPE@@@Z 0045b2e0 f   ExecOption.obj
 0001:0005a550       ?GetStringData@CExecOption@@QBE?AV?$CStringT@DV?$StrTraitMFC_DLL@DV?$ChTraitsCRT@D@ATL@@@@@ATL@@XZ 0045b550 f   ExecOption.obj
 0001:0005a9e0       ?GetMessageMap@CExecSetupDlg@@MBEPBUAFX_MSGMAP@@XZ 0045b9e0 f   ExecSetupDlg.obj
 0001:0005a9f0       ??_ECExecSetupDlg@@UAEPAXI@Z 0045b9f0 f i * CIL library *:* CIL module *
 0001:0005a9f0       ??_GCExecSetupDlg@@UAEPAXI@Z 0045b9f0 f i ExecSetupDlg.obj
 0001:0005aa30       ??1CExecSetupDlg@@UAE@XZ   0045ba30 f i ExecSetupDlg.obj
 0001:0005aa90       ?DoDataExchange@CExecSetupDlg@@MAEXPAVCDataExchange@@@Z 0045ba90 f   ExecSetupDlg.obj
 0001:0005ab30       ?SetDetailData@CExecSetupDlg@@AAEXPBVCExecOption@@@Z 0045bb30 f   ExecSetupDlg.obj
 0001:0005abd0       ?CheckData@CExecSetupDlg@@AAEHXZ 0045bbd0 f   ExecSetupDlg.obj
 0001:0005acb0       ?SwapObject@CExecSetupDlg@@AAEXHH@Z 0045bcb0 f   ExecSetupDlg.obj
 0001:0005ad60       ?OnInitDialog@CExecSetupDlg@@MAEHXZ 0045bd60 f   ExecSetupDlg.obj
 0001:0005af00       ?OnOK@CExecSetupDlg@@MAEXXZ 0045bf00 f   ExecSetupDlg.obj
 0001:0005afd0       ?OnCancel@CExecSetupDlg@@MAEXXZ 0045bfd0 f   ExecSetupDlg.obj
 0001:0005b050       ?OnItemChangedExeList@CExecSetupDlg@@IAEXPAUtagNMHDR@@PAJ@Z 0045c050 f   ExecSetupDlg.obj
 0001:0005b110       ?OnGetDispInfoExeList@CExecSetupDlg@@IAEXPAUtagNMHDR@@PAJ@Z 0045c110 f   ExecSetupDlg.obj
 0001:0005b150       ?OnKeyDownList@CExecSetupDlg@@IAEXPAUtagNMHDR@@PAJ@Z 0045c150 f   ExecSetupDlg.obj
 0001:0005b170       ?OnAdd@CExecSetupDlg@@IAEXXZ 0045c170 f   ExecSetupDlg.obj
 0001:0005b4f0       ?OnMod@CExecSetupDlg@@IAEXXZ 0045c4f0 f   ExecSetupDlg.obj
 0001:0005b820       ?OnDel@CExecSetupDlg@@IAEXXZ 0045c820 f   ExecSetupDlg.obj
 0001:0005b880       ?OnUp@CExecSetupDlg@@IAEXXZ 0045c880 f   ExecSetupDlg.obj
 0001:0005b8d0       ?OnDown@CExecSetupDlg@@IAEXXZ 0045c8d0 f   ExecSetupDlg.obj
 0001:0005b930       ?OnFileUP@CExecSetupDlg@@IAEXXZ 0045c930 f   ExecSetupDlg.obj
 0001:0005baf0       ?OnDropFiles@CExecSetupDlg@@IAEXPAUHDROP__@@@Z 0045caf0 f   ExecSetupDlg.obj
 0001:0005bca0       ?GetMessageMap@CExtensionDlg@@MBEPBUAFX_MSGMAP@@XZ 0045cca0 f   ExtensionDlg.obj
 0001:0005bcb0       ??_ECExtensionDlg@@UAEPAXI@Z 0045ccb0 f i * CIL library *:* CIL module *
 0001:0005bcb0       ??_GCExtensionDlg@@UAEPAXI@Z 0045ccb0 f i ExtensionDlg.obj
 0001:0005bcf0       ??1CExtensionDlg@@UAE@XZ   0045ccf0 f i ExtensionDlg.obj
 0001:0005bdb0       ?DoDataExchange@CExtensionDlg@@MAEXPAVCDataExchange@@@Z 0045cdb0 f   ExtensionDlg.obj
 0001:0005be70       ?OnInitDialog@CExtensionDlg@@MAEHXZ 0045ce70 f   ExtensionDlg.obj
 0001:0005c020       ?OnOK@CExtensionDlg@@MAEXXZ 0045d020 f   ExtensionDlg.obj
 0001:0005c1f0       ?OnExtAdd@CExtensionDlg@@IAEXXZ 0045d1f0 f   ExtensionDlg.obj
 0001:0005c360       ?OnExtDel@CExtensionDlg@@IAEXXZ 0045d360 f   ExtensionDlg.obj
 0001:0005c4b0       ?OnExtDefault@CExtensionDlg@@IAEXXZ 0045d4b0 f   ExtensionDlg.obj
 0001:0005c560       ?OnExtSelchangeList@CExtensionDlg@@IAEXXZ 0045d560 f   ExtensionDlg.obj
 0001:0005c670       ?CreateObject@CLayerData@@SGPAVCObject@@XZ 0045d670 f   Layer.obj
 0001:0005c7b0       ?GetRuntimeClass@CLayerData@@UBEPAUCRuntimeClass@@XZ 0045d7b0 f   Layer.obj
 0001:0005c7c0       ??_ECLayerData@@UAEPAXI@Z  0045d7c0 f i * CIL library *:* CIL module *
 0001:0005c7c0       ??_GCLayerData@@UAEPAXI@Z  0045d7c0 f i Layer.obj
 0001:0005c800       ??0CLayerData@@QAE@PBV0@H@Z 0045d800 f   Layer.obj
 0001:0005c970       ??1CLayerData@@UAE@XZ      0045d970 f   Layer.obj
 0001:0005caa0       ?SetInitFile@CLayerData@@QAEXPBD@Z 0045daa0 f   Layer.obj
 0001:0005cbc0       ?SetLayerInfo@CLayerData@@QAEXABV?$CStringT@DV?$StrTraitMFC_DLL@DV?$ChTraitsCRT@D@ATL@@@@@ATL@@@Z 0045dbc0 f   Layer.obj
 0001:0005d2c0       ?FormatLayerInfo@CLayerData@@QAE?AV?$CStringT@DV?$StrTraitMFC_DLL@DV?$ChTraitsCRT@D@ATL@@@@@ATL@@PBD@Z 0045e2c0 f   Layer.obj
 0001:0005d4a0       ?Serialize@CLayerData@@UAEXAAVCArchive@@@Z 0045e4a0 f   Layer.obj
 0001:0005d830       ?GetMessageMap@CLayerDlg@@MBEPBUAFX_MSGMAP@@XZ 0045e830 f   LayerDlg.obj
 0001:0005d840       ??_ECLayerDlg@@UAEPAXI@Z   0045e840 f i * CIL library *:* CIL module *
 0001:0005d840       ??_GCLayerDlg@@UAEPAXI@Z   0045e840 f i LayerDlg.obj
 0001:0005d8a0       ?DoDataExchange@CLayerDlg@@MAEXPAVCDataExchange@@@Z 0045e8a0 f   LayerDlg.obj
 0001:0005d8d0       ?SetLayerTree@CLayerDlg@@AAEXPBVCDXFDoc@@@Z 0045e8d0 f   LayerDlg.obj
 0001:0005da60       ?SetChildCheck@CLayerDlg@@AAEXPAU_TREEITEM@@@Z 0045ea60 f   LayerDlg.obj
 0001:0005dad0       ?SetParentCheck@CLayerDlg@@AAEXPAU_TREEITEM@@@Z 0045ead0 f   LayerDlg.obj
 0001:0005dbb0       ?OnInitDialog@CLayerDlg@@MAEHXZ 0045ebb0 f   LayerDlg.obj
 0001:0005dcc0       ?OnOK@CLayerDlg@@MAEXXZ    0045ecc0 f   LayerDlg.obj
 0001:0005dee0       ?OnCancel@CLayerDlg@@MAEXXZ 0045eee0 f   LayerDlg.obj
 0001:0005df00       ?PostNcDestroy@CLayerDlg@@MAEXXZ 0045ef00 f   LayerDlg.obj
 0001:0005df40       ?OnUserSwitchDocument@CLayerDlg@@IAEJIJ@Z 0045ef40 f   LayerDlg.obj
 0001:0005e1b0       ?OnLayerTreeKeydown@CLayerDlg@@IAEXPAUtagNMHDR@@PAJ@Z 0045f1b0 f   LayerDlg.obj
 0001:0005e220       ?OnLayerTreeClick@CLayerDlg@@IAEXPAUtagNMHDR@@PAJ@Z 0045f220 f   LayerDlg.obj
 0001:0005e2c0       ?OnLayerTreeGetdispinfo@CLayerDlg@@IAEXPAUtagNMHDR@@PAJ@Z 0045f2c0 f   LayerDlg.obj
 0001:0005e310       ??_ECTreeCtrl@@UAEPAXI@Z   0045f310 f i * CIL library *:* CIL module *
 0001:0005e310       ??_GCTreeCtrl@@UAEPAXI@Z   0045f310 f i LayerDlg.obj
 0001:0005e350       ?LoadToolBar@CCustomMenu@@QAEHI@Z 0045f350 f i MainFrm.obj
 0001:0005e440       ?_GetBaseClass@CMainFrame@@KGPAUCRuntimeClass@@XZ 0045f440 f   MainFrm.obj
 0001:0005e450       ?GetRuntimeClass@CMainFrame@@UBEPAUCRuntimeClass@@XZ 0045f450 f   MainFrm.obj
 0001:0005e460       ?GetMessageMap@CMainFrame@@MBEPBUAFX_MSGMAP@@XZ 0045f460 f   MainFrm.obj
 0001:0005e470       ??0CMainFrame@@QAE@XZ      0045f470 f   MainFrm.obj
 0001:0005e8b0       ??_ECMainFrame@@UAEPAXI@Z  0045f8b0 f i * CIL library *:* CIL module *
 0001:0005e8b0       ??_GCMainFrame@@UAEPAXI@Z  0045f8b0 f i MainFrm.obj
 0001:0005ea50       ??1CMainStatusBar@@UAE@XZ  0045fa50 f i MainFrm.obj
 0001:0005ea70       ??1CMachineToolBar@@UAE@XZ 0045fa70 f i MainFrm.obj
 0001:0005ea90       ??_ECMachineToolBar@@UAEPAXI@Z 0045fa90 f i * CIL library *:* CIL module *
 0001:0005ea90       ??_GCMachineToolBar@@UAEPAXI@Z 0045fa90 f i MainFrm.obj
 0001:0005eae0       ?OnCommand@CMainFrame@@MAEHIJ@Z 0045fae0 f   MainFrm.obj
 0001:0005ed10       ?SaveWindowState@CMainFrame@@AAEXXZ 0045fd10 f   MainFrm.obj
 0001:0005eda0       ?ChangeViewOption@CMainFrame@@QAEXXZ 0045fda0 f   MainFrm.obj
 0001:0005f240       ?GetIconHandle@CMainFrame@@QAEPAUHICON__@@HPBD@Z 00460240 f   MainFrm.obj
 0001:0005f310       ?CreateDisableToolBar@CMainFrame@@AAEXW4EN_TOOLBARIMAGE@@@Z 00460310 f   MainFrm.obj
 0001:0005f520       ?CommandReplace@CMainFrame@@AAE?AV?$CStringT@DV?$StrTraitMFC_DLL@DV?$ChTraitsCRT@D@ATL@@@@@ATL@@PBVCExecOption@@PBVCDocument@@@Z 00460520 f   MainFrm.obj
 0001:0005f890       ?CreateOutsideProcess@CMainFrame@@QAEHPBD0HH@Z 00460890 f   MainFrm.obj
 0001:0005fae0       ?SetExecButtons@CMainFrame@@QAEXH@Z 00460ae0 f   MainFrm.obj
 0001:00060020       ?SetAddinButtons@CMainFrame@@QAEXXZ 00461020 f   MainFrm.obj
 0001:00060380       ?StatusBarEventTimerProc@CMainFrame@@SGXPAUHWND__@@IIK@Z 00461380 f   MainFrm.obj
 0001:000603a0       ?OnCreate@CMainFrame@@IAEHPAUtagCREATESTRUCTA@@@Z 004613a0 f   MainFrm.obj
 0001:000609f0       ?OnSize@CMainFrame@@IAEXIHH@Z 004619f0 f   MainFrm.obj
 0001:00060a40       ?OnClose@CMainFrame@@IAEXXZ 00461a40 f   MainFrm.obj
 0001:00060ae0       ?OnDestroy@CMainFrame@@IAEXXZ 00461ae0 f   MainFrm.obj
 0001:00060b90       ?OnEndSession@CMainFrame@@IAEXH@Z 00461b90 f   MainFrm.obj
 0001:00060c30       ?OnMenuSelect@CMainFrame@@IAEXIIPAUHMENU__@@@Z 00461c30 f   MainFrm.obj
 0001:00060cb0       ?OnInitMenuPopup@CMainFrame@@IAEXPAVCMenu@@IH@Z 00461cb0 f   MainFrm.obj
 0001:00060e80       ?OnUserFileChange@CMainFrame@@IAEJIJ@Z 00461e80 f   MainFrm.obj
 0001:00060f70       ?OnDrawItem@CMainFrame@@IAEXHPAUtagDRAWITEMSTRUCT@@@Z 00461f70 f   MainFrm.obj
 0001:000610f0       ?OnMeasureItem@CMainFrame@@IAEXHPAUtagMEASUREITEMSTRUCT@@@Z 004620f0 f   MainFrm.obj
 0001:00061240       ?OnSysColorChange@CMainFrame@@IAEXXZ 00462240 f   MainFrm.obj
 0001:000612e0       ?OnToolTipText@CMainFrame@@IAEHIPAUtagNMHDR@@PAJ@Z 004622e0 f   MainFrm.obj
 0001:000613d0       ?OnUpdateExecButtonCheck@CMainFrame@@IAEXPAVCCmdUI@@@Z 004623d0 f   MainFrm.obj
 0001:000614c0       ?OnUpdateAddinButtonCheck@CMainFrame@@IAEXPAVCCmdUI@@@Z 004624c0 f   MainFrm.obj
 0001:000615b0       ?OnUpdateDate@CMainFrame@@IAEXPAVCCmdUI@@@Z 004625b0 f   MainFrm.obj
 0001:000616e0       ?OnUpdateTime@CMainFrame@@IAEXPAVCCmdUI@@@Z 004626e0 f   MainFrm.obj
 0001:00061810       ?OnNextPane@CMainFrame@@IAEXXZ 00462810 f   MainFrm.obj
 0001:00061830       ?OnUpdateEditCopy@CNCListView@@IAEXPAVCCmdUI@@@Z 00462830 f   NCListView.obj
 0001:00061830       ?OnUpdateEditCopy@CViewBaseGL@@QAEXPAVCCmdUI@@@Z 00462830 f   ViewBaseGL.obj
 0001:00061830       ?OnUpdateEditCut@CMainFrame@@IAEXPAVCCmdUI@@@Z 00462830 f   MainFrm.obj
 0001:00061830       ?OnUpdateEditPaste@CMainFrame@@IAEXPAVCCmdUI@@@Z 00462830 f   MainFrm.obj
 0001:00061830       ?OnUpdateMoveRoundKey@CNCInfoBase@@QAEXPAVCCmdUI@@@Z 00462830 f   NCInfoView.obj
 0001:00061830       ?OnUpdateMoveRoundKey@CNCListView@@IAEXPAVCCmdUI@@@Z 00462830 f   NCListView.obj
 0001:00061830       ?OnUpdateRoundKey@CNCViewBase@@QAEXPAVCCmdUI@@@Z 00462830 f   NCViewBase.obj
 0001:00061840       ?OnViewToolbarCustom@CMainFrame@@IAEXXZ 00462840 f   MainFrm.obj
 0001:000619a0       ??1CMakeBindOptDlg@@UAE@XZ 004629a0 f i MakeBindOptDlg.obj
 0001:000619a0       ??1CToolBarSetupDlg@@UAE@XZ 004629a0 f i MainFrm.obj
 0001:000619b0       ?OnContextMenu@CMainFrame@@IAEXPAVCWnd@@VCPoint@@@Z 004629b0 f   MainFrm.obj
 0001:000619e0       ?GetMessageMap@CMachineToolBar@@MBEPBUAFX_MSGMAP@@XZ 004629e0 f   MainFrm.obj
 0001:000619f0       ?OnCreate@CMachineToolBar@@IAEHPAUtagCREATESTRUCTA@@@Z 004629f0 f   MainFrm.obj
 0001:00061b70       ?OnSelchangeMC@CMachineToolBar@@IAEXXZ 00462b70 f   MainFrm.obj
 0001:00061d50       ?ChangeMachine@CMachineToolBar@@QAEXXZ 00462d50 f   MainFrm.obj
 0001:00061e80       ??_E?$CTypedPtrMap@VCMapWordToPtr@@GPAUCUSTMENUINFO@@@@UAEPAXI@Z 00462e80 f i * CIL library *:* CIL module *
 0001:00061e80       ??_E?$CTypedPtrMap@VCMapWordToPtr@@GPAVCExecOption@@@@UAEPAXI@Z 00462e80 f i * CIL library *:* CIL module *
 0001:00061e80       ??_E?$CTypedPtrMap@VCMapWordToPtr@@GPAVCNCVCaddinMap@@@@UAEPAXI@Z 00462e80 f i * CIL library *:* CIL module *
 0001:00061e80       ??_G?$CTypedPtrMap@VCMapWordToPtr@@GPAUCUSTMENUINFO@@@@UAEPAXI@Z 00462e80 f i MainFrm.obj
 0001:00061e80       ??_G?$CTypedPtrMap@VCMapWordToPtr@@GPAVCExecOption@@@@UAEPAXI@Z 00462e80 f i NCVC.obj
 0001:00061e80       ??_G?$CTypedPtrMap@VCMapWordToPtr@@GPAVCNCVCaddinMap@@@@UAEPAXI@Z 00462e80 f i NCVC.obj
 0001:00061ec0       ?GetTrackingID@CFrameWnd@@UAEIXZ 00462ec0 f i MainFrm.obj
 0001:00061ed0       ?GetTickCount@CTime@ATL@@SG?AV12@XZ 00462ed0 f i MainFrm.obj
 0001:00061f00       ??1CBitmap@@UAE@XZ         00462f00 f i MainFrm.obj
 0001:00061f10       ??_ECBitmap@@UAEPAXI@Z     00462f10 f i * CIL library *:* CIL module *
 0001:00061f10       ??_GCBitmap@@UAEPAXI@Z     00462f10 f i MainFrm.obj
 0001:00061f50       ??0CBrush@@QAE@XZ          00462f50 f i MainFrm.obj
 0001:00061f60       ??0CPen@@QAE@XZ            00462f60 f i MainFrm.obj
 0001:00061f70       ??_ECPen@@UAEPAXI@Z        00462f70 f i * CIL library *:* CIL module *
 0001:00061f70       ??_GCPen@@UAEPAXI@Z        00462f70 f i MainFrm.obj
 0001:00061fb0       ??1CPen@@UAE@XZ            00462fb0 f i MainFrm.obj
 0001:00061fc0       ?GetMessageMap@CMainStatusBar@@MBEPBUAFX_MSGMAP@@XZ 00462fc0 f   MainStatusBar.obj
 0001:00061fd0       ??_ECMainStatusBar@@UAEPAXI@Z 00462fd0 f i * CIL library *:* CIL module *
 0001:00061fd0       ??_GCMainStatusBar@@UAEPAXI@Z 00462fd0 f i MainStatusBar.obj
 0001:00062020       ?OnCreate@CMainStatusBar@@IAEHPAUtagCREATESTRUCTA@@@Z 00463020 f   MainStatusBar.obj
 0001:000620e0       ?ChangeProgressSize@CMainStatusBar@@QAEXHH@Z 004630e0 f   MainStatusBar.obj
 0001:00062160       ?OnUserProgressPos@CMainStatusBar@@IAEJIJ@Z 00463160 f   MainStatusBar.obj
 0001:00062180       ??_ECProgressCtrl@@UAEPAXI@Z 00463180 f i * CIL library *:* CIL module *
 0001:00062180       ??_GCProgressCtrl@@UAEPAXI@Z 00463180 f i MainStatusBar.obj
 0001:000621c0       ??_ECMakeBindOptDlg@@UAEPAXI@Z 004631c0 f i * CIL library *:* CIL module *
 0001:000621c0       ??_GCMakeBindOptDlg@@UAEPAXI@Z 004631c0 f i MakeBindOptDlg.obj
 0001:00062200       ?DoDataExchange@CMakeBindOptDlg@@MAEXPAVCDataExchange@@@Z 00463200 f   MakeBindOptDlg.obj
 0001:00062240       ?OnOK@CMakeBindOptDlg@@MAEXXZ 00463240 f   MakeBindOptDlg.obj
 0001:00062280       ?ReplaceCustomCode@CMakeCustomCode@@QBE?AV?$tuple@HV?$CStringT@DV?$StrTraitMFC_DLL@DV?$ChTraitsCRT@D@ATL@@@@@ATL@@Unull_type@tuples@boost@@U345@U345@U345@U345@U345@U345@U345@@tuples@boost@@ABV?$basic_string@DU?$char_traits@D@std@@V?$allocator@D@2@@std@@@Z 00463280 f   MakeCustomCode.obj
 0001:000627e0       ?substr@?$basic_string@DU?$char_traits@D@std@@V?$allocator@D@2@@std@@QBE?AV12@II@Z 004637e0 f i MakeCustomCode.obj
 0001:00062840       ?AddElement@CStringKeyIndex@@QAEXIQAPBD@Z 00463840 f i MakeCustomCode.obj
 0001:000628e0       ?SetElement@CStringKeyIndex@@QAEXIQAPBD@Z 004638e0 f i MakeCustomCode.obj
 0001:00062940       ??1CStringKeyIndex@@UAE@XZ 00463940 f i MakeCustomCode.obj
 0001:00062950       ??_ECStringKeyIndex@@UAEPAXI@Z 00463950 f i * CIL library *:* CIL module *
 0001:00062950       ??_GCStringKeyIndex@@UAEPAXI@Z 00463950 f i MakeCustomCode.obj
 0001:00062990       ?GetMessageMap@CMakeDXFDlg@@MBEPBUAFX_MSGMAP@@XZ 00463990 f   MakeDXFDlg.obj
 0001:00062990       ?GetMessageMap@CMakeNCDlgEx@@MBEPBUAFX_MSGMAP@@XZ 00463990 f   MakeNCDlgEx.obj
 0001:000629a0       ??0CMakeDXFDlg@@QAE@PAVCNCDoc@@@Z 004639a0 f   MakeDXFDlg.obj
 0001:00062c10       ??_ECMakeDXFDlg@@UAEPAXI@Z 00463c10 f i * CIL library *:* CIL module *
 0001:00062c10       ??_GCMakeDXFDlg@@UAEPAXI@Z 00463c10 f i MakeDXFDlg.obj
 0001:00062c50       ??1CMakeDXFDlg@@UAE@XZ     00463c50 f i MakeDXFDlg.obj
 0001:00062cf0       ??1CMakeDXFDlg1@@UAE@XZ    00463cf0 f i MakeDXFDlg.obj
 0001:00062da0       ??1CMakeDXFDlg2@@UAE@XZ    00463da0 f i MakeDXFDlg.obj
 0001:00062dd0       ?GetMessageMap@CMakeDXFDlg1@@MBEPBUAFX_MSGMAP@@XZ 00463dd0 f   MakeDXFDlg1.obj
 0001:00062de0       ??_ECMakeDXFDlg1@@UAEPAXI@Z 00463de0 f i * CIL library *:* CIL module *
 0001:00062de0       ??_GCMakeDXFDlg1@@UAEPAXI@Z 00463de0 f i MakeDXFDlg1.obj
 0001:00062e20       ?DoDataExchange@CMakeDXFDlg1@@MAEXPAVCDataExchange@@@Z 00463e20 f   MakeDXFDlg1.obj
 0001:00062f70       ?OnInitDialog@CMakeDXFDlg1@@MAEHXZ 00463f70 f   MakeDXFDlg1.obj
 0001:00063280       ?OnKillFocusDXFFile@CMakeDXFDlg1@@IAEXXZ 00464280 f   MakeDXFDlg1.obj
 0001:000632b0       ?OnMKDXFileUp@CMakeDXFDlg1@@IAEXXZ 004642b0 f   MakeDXFDlg1.obj
 0001:00063380       ?OnApply@CMakeDXFDlg1@@UAEHXZ 00464380 f   MakeDXFDlg1.obj
 0001:00063420       ?OnKillActive@CMakeDXFDlg1@@UAEHXZ 00464420 f   MakeDXFDlg1.obj
 0001:00063540       ?GetMessageMap@CMakeDXFDlg2@@MBEPBUAFX_MSGMAP@@XZ 00464540 f   MakeDXFDlg2.obj
 0001:00063550       ??_ECMakeDXFDlg2@@UAEPAXI@Z 00464550 f i * CIL library *:* CIL module *
 0001:00063550       ??_GCMakeDXFDlg2@@UAEPAXI@Z 00464550 f i MakeDXFDlg2.obj
 0001:000635b0       ?DoDataExchange@CMakeDXFDlg2@@MAEXPAVCDataExchange@@@Z 004645b0 f   MakeDXFDlg2.obj
 0001:00063620       ?OnInitDialog@CMakeDXFDlg2@@MAEHXZ 00464620 f   MakeDXFDlg2.obj
 0001:000636c0       ?OnSelchangeCycle@CMakeDXFDlg2@@IAEXXZ 004646c0 f   MakeDXFDlg2.obj
 0001:000636f0       ?OnApply@CMakeDXFDlg2@@UAEHXZ 004646f0 f   MakeDXFDlg2.obj
 0001:00063800       ?OnKillActive@CMakeDXFDlg2@@UAEHXZ 00464800 f   MakeDXFDlg2.obj
 0001:000639b0       ?GetUserDefaultExt@CNCVCDocTemplate@@QBE?AV?$CStringT@DV?$StrTraitMFC_DLL@DV?$ChTraitsCRT@D@ATL@@@@@ATL@@XZ 004649b0 f i MakeNCDlg.obj
 0001:00063a90       ?GetFilterString@CNCVCApp@@QAE?AV?$CStringT@DV?$StrTraitMFC_DLL@DV?$ChTraitsCRT@D@ATL@@@@@ATL@@W4DOCTYPE@@@Z 00464a90 f i MakeNCDlg.obj
 0001:00063b30       ?GetMessageMap@CMakeNCDlg@@MBEPBUAFX_MSGMAP@@XZ 00464b30 f   MakeNCDlg.obj
 0001:00063b40       ??_ECMakeNCDlg@@UAEPAXI@Z  00464b40 f i * CIL library *:* CIL module *
 0001:00063b40       ??_GCMakeNCDlg@@UAEPAXI@Z  00464b40 f i MakeNCDlg.obj
 0001:00063b80       ??0CMakeNCDlg@@QAE@IW4NCMAKETYPE@@PAVC3dModelDoc@@@Z 00464b80 f   MakeNCDlg.obj
 0001:00063de0       ?CommonConstructor@CMakeNCDlg@@AAEXIW4NCMAKETYPE@@PAVCDocBase@@@Z 00464de0 f   MakeNCDlg.obj
 0001:00063e60       ?DoDataExchange@CMakeNCDlg@@MAEXPAVCDataExchange@@@Z 00464e60 f   MakeNCDlg.obj
 0001:00063ef0       ?OnInitDialog@CMakeNCDlg@@MAEHXZ 00464ef0 f   MakeNCDlg.obj
 0001:00063fe0       ?OnOK@CMakeNCDlg@@MAEXXZ   00464fe0 f   MakeNCDlg.obj
 0001:00064230       ?OnMKNCFileUp@CMakeNCDlg@@IAEXXZ 00465230 f   MakeNCDlg.obj
 0001:00064300       ?OnMKNCInitUp@CMakeNCDlg@@IAEXXZ 00465300 f   MakeNCDlg.obj
 0001:000643d0       ?OnMKNCInitEdit@CMakeNCDlg@@IAEXXZ 004653d0 f   MakeNCDlg.obj
 0001:00064930       ?OnBindOpt@CMakeNCDlg@@IAEXXZ 00465930 f   MakeNCDlg.obj
 0001:000649d0       ?OnSelChangeInit@CMakeNCDlg@@IAEXXZ 004659d0 f   MakeNCDlg.obj
 0001:00064b20       ?OnKillFocusNCFile@CMakeNCDlg@@IAEXXZ 00465b20 f   MakeNCDlg.obj
 0001:00064b60       ?OnKillFocusInit@CMakeNCDlg@@IAEXXZ 00465b60 f   MakeNCDlg.obj
 0001:00064ba0       ?CreateNCFile@@YAXPAVCDXFDoc@@AAV?$CStringT@DV?$StrTraitMFC_DLL@DV?$ChTraitsCRT@D@ATL@@@@@ATL@@1@Z 00465ba0 f   MakeNCDlg.obj
 0001:00064db0       ?CreateLayerFile@@YAXPBVCDXFDoc@@AAV?$CStringT@DV?$StrTraitMFC_DLL@DV?$ChTraitsCRT@D@ATL@@@@@ATL@@1@Z 00465db0 f   MakeNCDlg.obj
 0001:00064ee0       ?CheckMakeDlgFileExt@@YAHW4DOCTYPE@@AAV?$CStringT@DV?$StrTraitMFC_DLL@DV?$ChTraitsCRT@D@ATL@@@@@ATL@@@Z 00465ee0 f   MakeNCDlg.obj
 0001:000650a0       ?MakeDlgFileRefer@@YA?AV?$CStringT@DV?$StrTraitMFC_DLL@DV?$ChTraitsCRT@D@ATL@@@@@ATL@@HABV12@PAVCDialog@@HAAV12@2H@Z 004660a0 f   MakeNCDlg.obj
 0001:000651d0       ?MakeNCDlgInitFileEdit@@YAXAAV?$CStringT@DV?$StrTraitMFC_DLL@DV?$ChTraitsCRT@D@ATL@@@@@ATL@@0PAVCDialog@@HAAVCComboBox@@@Z 004661d0 f   MakeNCDlg.obj
 0001:00065360       ?MakeDlgKillFocus@@YAXAAV?$CStringT@DV?$StrTraitMFC_DLL@DV?$ChTraitsCRT@D@ATL@@@@@ATL@@0PAVCDialog@@H@Z 00466360 f   MakeNCDlg.obj
 0001:00065420       ?InitialMakeNCDlgComboBox@@YAHPBVCStringList@@AAVCComboBox@@@Z 00466420 f   MakeNCDlg.obj
 0001:000654e0       ??0CMakeNCDlgEx@@QAE@IPAVCDXFDoc@@@Z 004664e0 f   MakeNCDlgEx.obj
 0001:00065960       ??_ECMakeNCDlgEx@@UAEPAXI@Z 00466960 f i * CIL library *:* CIL module *
 0001:00065960       ??_GCMakeNCDlgEx@@UAEPAXI@Z 00466960 f i MakeNCDlgEx.obj
 0001:000659a0       ?GetMessageMap@CMakeNCDlgEx11@@MBEPBUAFX_MSGMAP@@XZ 004669a0 f   MakeNCDlgEx11.obj
 0001:000659b0       ??0CMakeNCDlgEx11@@QAE@PAVCMakeNCDlgEx@@H@Z 004669b0 f   MakeNCDlgEx11.obj
 0001:00065de0       ??_ECMakeNCDlgEx11@@UAEPAXI@Z 00466de0 f i * CIL library *:* CIL module *
 0001:00065de0       ??_GCMakeNCDlgEx11@@UAEPAXI@Z 00466de0 f i MakeNCDlgEx11.obj
 0001:00065e20       ??1CMakeNCDlgEx11@@UAE@XZ  00466e20 f   MakeNCDlgEx11.obj
 0001:00065f80       ?DoDataExchange@CMakeNCDlgEx11@@MAEXPAVCDataExchange@@@Z 00466f80 f   MakeNCDlgEx11.obj
 0001:000660a0       ?GetNowState@CMakeNCDlgEx11@@AAEXXZ 004670a0 f   MakeNCDlgEx11.obj
 0001:00066230       ?SetNowState@CMakeNCDlgEx11@@AAEXH@Z 00467230 f   MakeNCDlgEx11.obj
 0001:00066340       ?EnablePartOut@CMakeNCDlgEx11@@AAEXXZ 00467340 f   MakeNCDlgEx11.obj
 0001:00066640       ?OnInitDialog@CMakeNCDlgEx11@@MAEHXZ 00467640 f   MakeNCDlgEx11.obj
 0001:000667e0       ?OnOK@CMakeNCDlgEx11@@MAEXXZ 004677e0 f   MakeNCDlgEx11.obj
 0001:00066a80       ?OnNewLayer@CMakeNCDlgEx11@@IAEXXZ 00467a80 f   MakeNCDlgEx11.obj
 0001:00066c20       ?OnSetFocusLayer@CMakeNCDlgEx11@@IAEXXZ 00467c20 f   MakeNCDlgEx11.obj
 0001:00066c40       ?OnSelChangeLayer@CMakeNCDlgEx11@@IAEXXZ 00467c40 f   MakeNCDlgEx11.obj
 0001:00066ce0       ?OnMKNCInitUp@CMakeNCDlgEx11@@IAEXXZ 00467ce0 f   MakeNCDlgEx11.obj
 0001:00066db0       ?OnMKNCInitEdit@CMakeNCDlgEx11@@IAEXXZ 00467db0 f   MakeNCDlgEx11.obj
 0001:00066df0       ?OnSelChangeInit@CMakeNCDlgEx11@@IAEXXZ 00467df0 f   MakeNCDlgEx11.obj
 0001:00066f40       ?OnMKNCFileUp@CMakeNCDlgEx11@@IAEXXZ 00467f40 f   MakeNCDlgEx11.obj
 0001:00067020       ?OnKillFocusInit@CMakeNCDlgEx11@@IAEXXZ 00468020 f   MakeNCDlgEx11.obj
 0001:00067050       ?OnKillFocusNCFile@CMakeNCDlgEx11@@IAEXXZ 00468050 f   MakeNCDlgEx11.obj
 0001:00067080       ?OnCopy@CMakeNCDlgEx11@@IAEXXZ 00468080 f   MakeNCDlgEx11.obj
 0001:000674b0       ?OnPartOut@CMakeNCDlgEx11@@IAEXXZ 004684b0 f   MakeNCDlgEx11.obj
 0001:00067530       ?GetMessageMap@CMakeNCDlgEx2@@MBEPBUAFX_MSGMAP@@XZ 00468530 f   MakeNCDlgEx2.obj
 0001:00067540       ??_ECMakeNCDlgEx2@@UAEPAXI@Z 00468540 f i * CIL library *:* CIL module *
 0001:00067540       ??_GCMakeNCDlgEx2@@UAEPAXI@Z 00468540 f i MakeNCDlgEx2.obj
 0001:00067580       ?DoDataExchange@CMakeNCDlgEx2@@MAEXPAVCDataExchange@@@Z 00468580 f   MakeNCDlgEx2.obj
 0001:00067670       ?CheckNewLayer@CMakeNCDlgEx2@@AAEXXZ 00468670 f   MakeNCDlgEx2.obj
 0001:00067780       ?OnInitDialog@CMakeNCDlgEx2@@MAEHXZ 00468780 f   MakeNCDlgEx2.obj
 0001:00067ad0       ?OnSetActive@CMakeNCDlgEx2@@UAEHXZ 00468ad0 f   MakeNCDlgEx2.obj
 0001:00067b00       ?OnWizardNext@CMakeNCDlgEx2@@UAEJXZ 00468b00 f   MakeNCDlgEx2.obj
 0001:00067e10       ?OnMKNCFileUp@CMakeNCDlgEx2@@IAEXXZ 00468e10 f   MakeNCDlgEx2.obj
 0001:00067ee0       ?OnMKNCInitUp@CMakeNCDlgEx2@@IAEXXZ 00468ee0 f   MakeNCDlgEx2.obj
 0001:00067fa0       ?OnMKNCLayerUp@CMakeNCDlgEx2@@IAEXXZ 00468fa0 f   MakeNCDlgEx2.obj
 0001:00068070       ?OnMKNCInitEdit@CMakeNCDlgEx2@@IAEXXZ 00469070 f   MakeNCDlgEx2.obj
 0001:000680a0       ?OnMKNCLayerEdit@CMakeNCDlgEx2@@IAEXXZ 004690a0 f   MakeNCDlgEx2.obj
 0001:000682d0       ?OnSelChangeInit@CMakeNCDlgEx2@@IAEXXZ 004692d0 f   MakeNCDlgEx2.obj
 0001:00068420       ?OnSelChangeLayerToInit@CMakeNCDlgEx2@@IAEXXZ 00469420 f   MakeNCDlgEx2.obj
 0001:00068480       ?OnKillFocusNCFile@CMakeNCDlgEx2@@IAEXXZ 00469480 f   MakeNCDlgEx2.obj
 0001:000684c0       ?OnKillFocusInit@CMakeNCDlgEx2@@IAEXXZ 004694c0 f   MakeNCDlgEx2.obj
 0001:00068500       ?OnKillFocusLayerToInit@CMakeNCDlgEx2@@IAEXXZ 00469500 f   MakeNCDlgEx2.obj
 0001:000686a0       ?GetMessageMap@CMakeNCDlgEx21@@MBEPBUAFX_MSGMAP@@XZ 004696a0 f   MakeNCDlgEx21.obj
 0001:000686b0       ??0CMakeNCDlgEx21@@QAE@PAVCMakeNCDlgEx@@H@Z 004696b0 f   MakeNCDlgEx21.obj
 0001:00068ab0       ??_ECMakeNCDlgEx21@@UAEPAXI@Z 00469ab0 f i * CIL library *:* CIL module *
 0001:00068ab0       ??_GCMakeNCDlgEx21@@UAEPAXI@Z 00469ab0 f i MakeNCDlgEx21.obj
 0001:00068af0       ??1CMakeNCDlgEx21@@UAE@XZ  00469af0 f   MakeNCDlgEx21.obj
 0001:00068c40       ?DoDataExchange@CMakeNCDlgEx21@@MAEXPAVCDataExchange@@@Z 00469c40 f   MakeNCDlgEx21.obj
 0001:00068d50       ?GetNowState@CMakeNCDlgEx21@@AAEXXZ 00469d50 f   MakeNCDlgEx21.obj
 0001:00068ee0       ?SetNowState@CMakeNCDlgEx21@@AAEXH@Z 00469ee0 f   MakeNCDlgEx21.obj
 0001:00068fc0       ?EnablePartOut@CMakeNCDlgEx21@@AAEXXZ 00469fc0 f   MakeNCDlgEx21.obj
 0001:000692c0       ?OnInitDialog@CMakeNCDlgEx21@@MAEHXZ 0046a2c0 f   MakeNCDlgEx21.obj
 0001:00069450       ?OnOK@CMakeNCDlgEx21@@MAEXXZ 0046a450 f   MakeNCDlgEx21.obj
 0001:00069610       ?OnNewLayer@CMakeNCDlgEx21@@IAEXXZ 0046a610 f   MakeNCDlgEx21.obj
 0001:000697b0       ?OnSetFocusLayer@CMakeNCDlgEx21@@IAEXXZ 0046a7b0 f   MakeNCDlgEx21.obj
 0001:000697d0       ?OnSelChangeLayer@CMakeNCDlgEx21@@IAEXXZ 0046a7d0 f   MakeNCDlgEx21.obj
 0001:00069880       ?OnMKNCFileUp@CMakeNCDlgEx21@@IAEXXZ 0046a880 f   MakeNCDlgEx21.obj
 0001:00069960       ?OnKillFocusNCFile@CMakeNCDlgEx21@@IAEXXZ 0046a960 f   MakeNCDlgEx21.obj
 0001:00069990       ?OnCopy@CMakeNCDlgEx21@@IAEXXZ 0046a990 f   MakeNCDlgEx21.obj
 0001:00069dc0       ?OnStep@CMakeNCDlgEx21@@IAEXXZ 0046adc0 f   MakeNCDlgEx21.obj
 0001:00069ec0       ?OnPartOut@CMakeNCDlgEx21@@IAEXXZ 0046aec0 f   MakeNCDlgEx21.obj
 0001:00069f40       ?GetMessageMap@CMakeNCDlgEx3@@MBEPBUAFX_MSGMAP@@XZ 0046af40 f   MakeNCDlgEx3.obj
 0001:00069f50       ??_ECMakeNCDlgEx3@@UAEPAXI@Z 0046af50 f i * CIL library *:* CIL module *
 0001:00069f50       ??_GCMakeNCDlgEx3@@UAEPAXI@Z 0046af50 f i MakeNCDlgEx3.obj
 0001:00069fa0       ?DoDataExchange@CMakeNCDlgEx3@@MAEXPAVCDataExchange@@@Z 0046afa0 f   MakeNCDlgEx3.obj
 0001:00069fc0       ?OnInitDialog@CMakeNCDlgEx3@@MAEHXZ 0046afc0 f   MakeNCDlgEx3.obj
 0001:0006a300       ?OnSetActive@CMakeNCDlgEx3@@UAEHXZ 0046b300 f   MakeNCDlgEx3.obj
 0001:0006a320       ?OnWizardFinish@CMakeNCDlgEx3@@UAEHXZ 0046b320 f   MakeNCDlgEx3.obj
 0001:0006a7b0       ?OnKillActive@CMakeNCDlgEx3@@UAEHXZ 0046b7b0 f   MakeNCDlgEx3.obj
 0001:0006a980       ?OnGetDispInfoLayerList@CMakeNCDlgEx3@@IAEXPAUtagNMHDR@@PAJ@Z 0046b980 f   MakeNCDlgEx3.obj
 0001:0006aaa0       ?OnDblClkLayerList@CMakeNCDlgEx3@@IAEXPAUtagNMHDR@@PAJ@Z 0046baa0 f   MakeNCDlgEx3.obj
 0001:0006abc0       ?OnColumnClickLayerList@CMakeNCDlgEx3@@IAEXPAUtagNMHDR@@PAJ@Z 0046bbc0 f   MakeNCDlgEx3.obj
 0001:0006ac10       ?OnEndScrollLayerList@CMakeNCDlgEx3@@IAEXPAUtagNMHDR@@PAJ@Z 0046bc10 f   MakeNCDlgEx3.obj
 0001:0006ac30       ?CompareFunc@CMakeNCDlgEx3@@KGHJJJ@Z 0046bc30 f   MakeNCDlgEx3.obj
 0001:0006ad00       ?OnUp@CMakeNCDlgEx3@@IAEXXZ 0046bd00 f   MakeNCDlgEx3.obj
 0001:0006adb0       ?OnDown@CMakeNCDlgEx3@@IAEXXZ 0046bdb0 f   MakeNCDlgEx3.obj
 0001:0006ae80       ?SwapObject@CMakeNCDlgEx3@@AAEXHH@Z 0046be80 f   MakeNCDlgEx3.obj
 0001:0006af30       ?OnQuerySiblings@CMakeNCDlgEx3@@IAEJIJ@Z 0046bf30 f   MakeNCDlgEx3.obj
 0001:0006b080       ?SetHeaderMark@CMakeNCDlgEx3@@AAEXH@Z 0046c080 f   MakeNCDlgEx3.obj
 0001:0006b150       ??0CMachineOption@@QAE@XZ  0046c150 f   MachineOption.obj
 0001:0006b630       ??1?$CTypedPtrList@VCPtrList@@PAVCExecOption@@@@UAE@XZ 0046c630 f i NCVC.obj
 0001:0006b630       ??1?$CTypedPtrList@VCPtrList@@PAVCMCTOOLINFO@@@@UAE@XZ 0046c630 f i MachineOption.obj
 0001:0006b630       ??1?$CTypedPtrList@VCPtrList@@PAVCRecentViewInfo@@@@UAE@XZ 0046c630 f i NCVC.obj
 0001:0006b640       ??1CMachineOption@@QAE@XZ  0046c640 f   MachineOption.obj
 0001:0006b800       ??1CMCTOOLINFO@@QAE@XZ     0046c800 f i MachineOption.obj
 0001:0006b810       ?Convert@CMachineOption@@AAEXXZ 0046c810 f   MachineOption.obj
 0001:0006bab0       ?ReadMachineOption@CMachineOption@@QAEHPBDH@Z 0046cab0 f   MachineOption.obj
 0001:0006cea0       ?SaveMachineOption@CMachineOption@@QAEHPBD@Z 0046dea0 f   MachineOption.obj
 0001:0006d8b0       ?ConvertWorkOffset@CMachineOption@@AAEXIPBD@Z 0046e8b0 f   MachineOption.obj
 0001:0006db20       ?AddMCListHistory@CMachineOption@@AAEHPBD@Z 0046eb20 f   MachineOption.obj
 0001:0006dc30       ?AddTool@CMachineOption@@QAEHHMH@Z 0046ec30 f   MachineOption.obj
 0001:0006ddc0       ?ReductionTools@CMachineOption@@QAEXH@Z 0046edc0 f   MachineOption.obj
 0001:0006de20       ?GetMCHeadFileName@CMachineOption@@QBE?AV?$CStringT@DV?$StrTraitMFC_DLL@DV?$ChTraitsCRT@D@ATL@@@@@ATL@@XZ 0046ee20 f i MachineSetup.obj
 0001:0006dea0       ?GetMessageMap@CMachineSetup@@MBEPBUAFX_MSGMAP@@XZ 0046eea0 f   MachineSetup.obj
 0001:0006deb0       ??0CMachineSetup@@QAE@PBD0@Z 0046eeb0 f   MachineSetup.obj
 0001:0006e410       ??_ECMachineSetup@@UAEPAXI@Z 0046f410 f i * CIL library *:* CIL module *
 0001:0006e410       ??_GCMachineSetup@@UAEPAXI@Z 0046f410 f i MachineSetup.obj
 0001:0006e450       ??1CMachineSetup@@UAE@XZ   0046f450 f i MachineSetup.obj
 0001:0006e590       ??1CMachineSetup1@@UAE@XZ  0046f590 f i MachineSetup.obj
 0001:0006e620       ??1CMachineSetup2@@UAE@XZ  0046f620 f i MachineSetup.obj
 0001:0006e6a0       ??1CMachineSetup3@@UAE@XZ  0046f6a0 f i MachineSetup.obj
 0001:0006e700       ??1CMachineSetup4@@UAE@XZ  0046f700 f i MachineSetup.obj
 0001:0006e780       ??1CMachineSetup5@@UAE@XZ  0046f780 f i MachineSetup.obj
 0001:0006e7d0       ?OnInitDialog@CMachineSetup@@UAEHXZ 0046f7d0 f   MachineSetup.obj
 0001:0006e870       ?OnDestroy@CMachineSetup@@IAEXXZ 0046f870 f   MachineSetup.obj
 0001:0006e890       ?OnApplyNow@CMachineSetup@@IAEXXZ 0046f890 f   MachineSetup.obj
 0001:0006eab0       ?GetMessageMap@CMachineSetup1@@MBEPBUAFX_MSGMAP@@XZ 0046fab0 f   MachineSetup1.obj
 0001:0006eab0       ?GetMessageMap@CMachineSetup2@@MBEPBUAFX_MSGMAP@@XZ 0046fab0 f   MachineSetup2.obj
 0001:0006eab0       ?GetMessageMap@CMakeLatheSetup5@@MBEPBUAFX_MSGMAP@@XZ 0046fab0 f   MakeLatheSetup5.obj
 0001:0006eab0       ?GetMessageMap@CMakeNCSetup8@@MBEPBUAFX_MSGMAP@@XZ 0046fab0 f   MakeNCSetup8.obj
 0001:0006eab0       ?GetMessageMap@CMakeWireSetup2@@MBEPBUAFX_MSGMAP@@XZ 0046fab0 f   MakeWireSetup2.obj
 0001:0006eac0       ??_ECMachineSetup1@@UAEPAXI@Z 0046fac0 f i * CIL library *:* CIL module *
 0001:0006eac0       ??_GCMachineSetup1@@UAEPAXI@Z 0046fac0 f i MachineSetup1.obj
 0001:0006eb00       ?DoDataExchange@CMachineSetup1@@MAEXPAVCDataExchange@@@Z 0046fb00 f   MachineSetup1.obj
 0001:0006ebb0       ?OnInitDialog@CMachineSetup1@@MAEHXZ 0046fbb0 f   MachineSetup1.obj
 0001:0006ec80       ?OnApply@CMachineSetup1@@UAEHXZ 0046fc80 f   MachineSetup1.obj
 0001:0006ef80       ?OnKillActive@CMachineSetup1@@UAEHXZ 0046ff80 f   MachineSetup1.obj
 0001:0006f1c0       ??_ECMachineSetup2@@UAEPAXI@Z 004701c0 f i * CIL library *:* CIL module *
 0001:0006f1c0       ??_GCMachineSetup2@@UAEPAXI@Z 004701c0 f i MachineSetup2.obj
 0001:0006f280       ?DoDataExchange@CMachineSetup2@@MAEXPAVCDataExchange@@@Z 00470280 f   MachineSetup2.obj
 0001:0006f2f0       ?OnInitDialog@CMachineSetup2@@MAEHXZ 004702f0 f   MachineSetup2.obj
 0001:0006f3a0       ?OnApply@CMachineSetup2@@UAEHXZ 004703a0 f   MachineSetup2.obj
 0001:0006f5a0       ?GetMessageMap@CMachineSetup3@@MBEPBUAFX_MSGMAP@@XZ 004705a0 f   MachineSetup3.obj
 0001:0006f5b0       ??_ECMachineSetup3@@UAEPAXI@Z 004705b0 f i * CIL library *:* CIL module *
 0001:0006f5b0       ??_GCMachineSetup3@@UAEPAXI@Z 004705b0 f i MachineSetup3.obj
 0001:0006f5f0       ?DoDataExchange@CMachineSetup3@@MAEXPAVCDataExchange@@@Z 004705f0 f   MachineSetup3.obj
 0001:0006f680       ?SetDetailData@CMachineSetup3@@AAEXPBVCMCTOOLINFO@@@Z 00470680 f   MachineSetup3.obj
 0001:0006f720       ?CheckData@CMachineSetup3@@AAEHXZ 00470720 f   MachineSetup3.obj
 0001:0006f810       ?SetHeaderMark@CMachineSetup3@@AAEXH@Z 00470810 f   MachineSetup3.obj
 0001:0006f8e0       ?OnInitDialog@CMachineSetup3@@MAEHXZ 004708e0 f   MachineSetup3.obj
 0001:0006fbf0       ?OnApply@CMachineSetup3@@UAEHXZ 00470bf0 f   MachineSetup3.obj
 0001:0006fce0       ?OnCancel@CMachineSetup3@@UAEXXZ 00470ce0 f   MachineSetup3.obj
 0001:0006fd10       ?OnItemChangedToolList@CMachineSetup3@@IAEXPAUtagNMHDR@@PAJ@Z 00470d10 f   MachineSetup3.obj
 0001:0006fdd0       ?OnGetDispInfoToolList@CMachineSetup3@@IAEXPAUtagNMHDR@@PAJ@Z 00470dd0 f   MachineSetup3.obj
 0001:0006ff50       ?OnColumnClickToolList@CMachineSetup3@@IAEXPAUtagNMHDR@@PAJ@Z 00470f50 f   MachineSetup3.obj
 0001:0006ffa0       ?CompareToolListFunc@CMachineSetup3@@KGHJJJ@Z 00470fa0 f   MachineSetup3.obj
 0001:00070060       ?OnKeyDownToolList@CMachineSetup3@@IAEXPAUtagNMHDR@@PAJ@Z 00471060 f   MachineSetup3.obj
 0001:00070080       ?OnAdd@CMachineSetup3@@IAEXXZ 00471080 f   MachineSetup3.obj
 0001:000703e0       ?OnMod@CMachineSetup3@@IAEXXZ 004713e0 f   MachineSetup3.obj
 0001:00070730       ?OnDel@CMachineSetup3@@IAEXXZ 00471730 f   MachineSetup3.obj
 0001:000707d0       ?GetMessageMap@CMachineSetup4@@MBEPBUAFX_MSGMAP@@XZ 004717d0 f   MachineSetup4.obj
 0001:000707e0       ??_ECMachineSetup4@@UAEPAXI@Z 004717e0 f i * CIL library *:* CIL module *
 0001:000707e0       ??_GCMachineSetup4@@UAEPAXI@Z 004717e0 f i MachineSetup4.obj
 0001:000708a0       ?DoDataExchange@CMachineSetup4@@MAEXPAVCDataExchange@@@Z 004718a0 f   MachineSetup4.obj
 0001:000708f0       ?OnFolder@CMachineSetup4@@IAEXXZ 004718f0 f   MachineSetup4.obj
 0001:000709c0       ?OnMacroIF@CMachineSetup4@@IAEXXZ 004719c0 f   MachineSetup4.obj
 0001:00070ad0       ?OnKillFocusMacroCode@CMachineSetup4@@IAEXXZ 00471ad0 f   MachineSetup4.obj
 0001:00070c30       ?OnApply@CMachineSetup4@@UAEHXZ 00471c30 f   MachineSetup4.obj
 0001:00070cc0       ?OnKillActive@CMachineSetup4@@UAEHXZ 00471cc0 f   MachineSetup4.obj
 0001:00070d30       ?GetMessageMap@CMachineSetup5@@MBEPBUAFX_MSGMAP@@XZ 00471d30 f   MachineSetup5.obj
 0001:00070d40       ??_ECMachineSetup5@@UAEPAXI@Z 00471d40 f i * CIL library *:* CIL module *
 0001:00070d40       ??_GCMachineSetup5@@UAEPAXI@Z 00471d40 f i MachineSetup5.obj
 0001:00070dc0       ?DoDataExchange@CMachineSetup5@@MAEXPAVCDataExchange@@@Z 00471dc0 f   MachineSetup5.obj
 0001:00070e70       ?EnableControl_ViewMode@CMachineSetup5@@AAEXXZ 00471e70 f   MachineSetup5.obj
 0001:00070ee0       ?OnInitDialog@CMachineSetup5@@MAEHXZ 00471ee0 f   MachineSetup5.obj
 0001:00070f20       ?OnApply@CMachineSetup5@@UAEHXZ 00471f20 f   MachineSetup5.obj
 0001:00071190       ?OnSelchangeViewMode@CMachineSetup5@@IAEXXZ 00472190 f   MachineSetup5.obj
 0001:000711b0       ?OnAllON@CMachineSetup5@@IAEXXZ 004721b0 f   MachineSetup5.obj
 0001:00071220       ?OnAllOFF@CMachineSetup5@@IAEXXZ 00472220 f   MachineSetup5.obj
 0001:00071290       ?GetRuntimeClass@CMakeLatheSetup@@UBEPAUCRuntimeClass@@XZ 00472290 f   MakeLatheSetup.obj
 0001:000712a0       ?GetMessageMap@CMakeLatheSetup@@MBEPBUAFX_MSGMAP@@XZ 004722a0 f   MakeLatheSetup.obj
 0001:000712b0       ??0CMakeLatheSetup@@QAE@PBD0@Z 004722b0 f   MakeLatheSetup.obj
 0001:00071b60       ??_ECMakeLatheSetup@@UAEPAXI@Z 00472b60 f i * CIL library *:* CIL module *
 0001:00071b60       ??_GCMakeLatheSetup@@UAEPAXI@Z 00472b60 f i MakeLatheSetup.obj
 0001:00071ba0       ??1CMakeLatheSetup0@@UAE@XZ 00472ba0 f i MakeLatheSetup.obj
 0001:00071c10       ??1CMakeLatheSetup4@@UAE@XZ 00472c10 f i MakeLatheSetup.obj
 0001:00071c90       ??1CMakeLatheSetup2@@UAE@XZ 00472c90 f i MakeLatheSetup.obj
 0001:00071d40       ??1CMakeLatheSetup1@@UAE@XZ 00472d40 f i MakeLatheSetup.obj
 0001:00071d40       ??1CMakeLatheSetup3@@UAE@XZ 00472d40 f i MakeLatheSetup.obj
 0001:00071dd0       ??1CMakeLatheSetup5@@UAE@XZ 00472dd0 f i MakeLatheSetup.obj
 0001:00071e50       ??1CMakeLatheSetup@@UAE@XZ 00472e50 f   MakeLatheSetup.obj
 0001:00071ed0       ?OnDestroy@CMakeLatheSetup@@IAEXXZ 00472ed0 f   MakeLatheSetup.obj
 0001:00071ef0       ?OnApplyNow@CMakeLatheSetup@@IAEXXZ 00472ef0 f   MakeLatheSetup.obj
 0001:00072100       ?GetMessageMap@CMakeLatheSetup0@@MBEPBUAFX_MSGMAP@@XZ 00473100 f   MakeLatheSetup0.obj
 0001:00072110       ??_ECMakeLatheSetup0@@UAEPAXI@Z 00473110 f i * CIL library *:* CIL module *
 0001:00072110       ??_GCMakeLatheSetup0@@UAEPAXI@Z 00473110 f i MakeLatheSetup0.obj
 0001:00072150       ?DoDataExchange@CMakeLatheSetup0@@MAEXPAVCDataExchange@@@Z 00473150 f   MakeLatheSetup0.obj
 0001:000721d0       ?OnInitDialog@CMakeLatheSetup0@@MAEHXZ 004731d0 f   MakeLatheSetup0.obj
 0001:000722b0       ?OnApply@CMakeLatheSetup0@@MAEHXZ 004732b0 f   MakeLatheSetup0.obj
 0001:000723e0       ?OnKillActive@CMakeLatheSetup0@@MAEHXZ 004733e0 f   MakeLatheSetup0.obj
 0001:000725d0       ?OnHeaderLoopup@CMakeLatheSetup0@@IAEXXZ 004735d0 f   MakeLatheSetup0.obj
 0001:000726e0       ?OnFooterLoopup@CMakeLatheSetup0@@IAEXXZ 004736e0 f   MakeLatheSetup0.obj
 0001:000727f0       ?OnHeaderEdit@CMakeLatheSetup0@@IAEXXZ 004737f0 f   MakeLatheSetup0.obj
 0001:00072980       ?OnFooterEdit@CMakeLatheSetup0@@IAEXXZ 00473980 f   MakeLatheSetup0.obj
 0001:00072b10       ?GetMessageMap@CMakeLatheSetup1@@MBEPBUAFX_MSGMAP@@XZ 00473b10 f   MakeLatheSetup1.obj
 0001:00072b20       ??_ECMakeLatheSetup1@@UAEPAXI@Z 00473b20 f i * CIL library *:* CIL module *
 0001:00072b20       ??_ECMakeLatheSetup3@@UAEPAXI@Z 00473b20 f i * CIL library *:* CIL module *
 0001:00072b20       ??_GCMakeLatheSetup1@@UAEPAXI@Z 00473b20 f i MakeLatheSetup1.obj
 0001:00072b20       ??_GCMakeLatheSetup3@@UAEPAXI@Z 00473b20 f i MakeLatheSetup3.obj
 0001:00072b60       ?DoDataExchange@CMakeLatheSetup1@@MAEXPAVCDataExchange@@@Z 00473b60 f   MakeLatheSetup1.obj
 0001:00072b60       ?DoDataExchange@CMakeLatheSetup3@@MAEXPAVCDataExchange@@@Z 00473b60 f   MakeLatheSetup3.obj
 0001:00072c00       ?OnInitDialog@CMakeLatheSetup1@@MAEHXZ 00473c00 f   MakeLatheSetup1.obj
 0001:00072d00       ?OnApply@CMakeLatheSetup1@@MAEHXZ 00473d00 f   MakeLatheSetup1.obj
 0001:00072ff0       ?OnKillActive@CMakeLatheSetup1@@MAEHXZ 00473ff0 f   MakeLatheSetup1.obj
 0001:00072ff0       ?OnKillActive@CMakeLatheSetup3@@MAEHXZ 00473ff0 f   MakeLatheSetup3.obj
 0001:000734c0       ?OnCopyFromIn@CMakeLatheSetup1@@IAEXXZ 004744c0 f   MakeLatheSetup1.obj
 0001:000738b0       ?GetMessageMap@CMakeLatheSetup2@@MBEPBUAFX_MSGMAP@@XZ 004748b0 f   MakeLatheSetup2.obj
 0001:000738c0       ??_ECMakeLatheSetup2@@UAEPAXI@Z 004748c0 f i * CIL library *:* CIL module *
 0001:000738c0       ??_GCMakeLatheSetup2@@UAEPAXI@Z 004748c0 f i MakeLatheSetup2.obj
 0001:00073900       ?DoDataExchange@CMakeLatheSetup2@@MAEXPAVCDataExchange@@@Z 00474900 f   MakeLatheSetup2.obj
 0001:000739e0       ?OnInitDialog@CMakeLatheSetup2@@MAEHXZ 004749e0 f   MakeLatheSetup2.obj
 0001:00073b40       ?OnApply@CMakeLatheSetup2@@MAEHXZ 00474b40 f   MakeLatheSetup2.obj
 0001:00073de0       ?OnKillActive@CMakeLatheSetup2@@MAEHXZ 00474de0 f   MakeLatheSetup2.obj
 0001:00074180       ?OnCycle@CMakeLatheSetup2@@IAEXXZ 00475180 f   MakeLatheSetup2.obj
 0001:000741c0       ?GetMessageMap@CMakeLatheSetup3@@MBEPBUAFX_MSGMAP@@XZ 004751c0 f   MakeLatheSetup3.obj
 0001:000741d0       ?OnInitDialog@CMakeLatheSetup3@@MAEHXZ 004751d0 f   MakeLatheSetup3.obj
 0001:000742d0       ?OnApply@CMakeLatheSetup3@@MAEHXZ 004752d0 f   MakeLatheSetup3.obj
 0001:000745c0       ?OnCopyFromOut@CMakeLatheSetup3@@IAEXXZ 004755c0 f   MakeLatheSetup3.obj
 0001:000749b0       ?GetMessageMap@CMakeLatheSetup4@@MBEPBUAFX_MSGMAP@@XZ 004759b0 f   MakeLatheSetup4.obj
 0001:000749c0       ??_ECMakeLatheSetup4@@UAEPAXI@Z 004759c0 f i * CIL library *:* CIL module *
 0001:000749c0       ??_GCMakeLatheSetup4@@UAEPAXI@Z 004759c0 f i MakeLatheSetup4.obj
 0001:00074a00       ?DoDataExchange@CMakeLatheSetup4@@MAEXPAVCDataExchange@@@Z 00475a00 f   MakeLatheSetup4.obj
 0001:00074ab0       ?EnableControl@CMakeLatheSetup4@@AAEXXZ 00475ab0 f   MakeLatheSetup4.obj
 0001:00074b20       ?OnInitDialog@CMakeLatheSetup4@@MAEHXZ 00475b20 f   MakeLatheSetup4.obj
 0001:00074c00       ?OnApply@CMakeLatheSetup4@@MAEHXZ 00475c00 f   MakeLatheSetup4.obj
 0001:00074e40       ?OnKillActive@CMakeLatheSetup4@@MAEHXZ 00475e40 f   MakeLatheSetup4.obj
 0001:000751e0       ?OnCheck@CMakeLatheSetup4@@IAEXXZ 004761e0 f   MakeLatheSetup4.obj
 0001:00075200       ??_ECMakeLatheSetup5@@UAEPAXI@Z 00476200 f i * CIL library *:* CIL module *
 0001:00075200       ??_GCMakeLatheSetup5@@UAEPAXI@Z 00476200 f i MakeLatheSetup5.obj
 0001:00075240       ?DoDataExchange@CMakeLatheSetup5@@MAEXPAVCDataExchange@@@Z 00476240 f   MakeLatheSetup5.obj
 0001:000752e0       ?OnInitDialog@CMakeLatheSetup5@@MAEHXZ 004762e0 f   MakeLatheSetup5.obj
 0001:000753c0       ?OnApply@CMakeLatheSetup5@@MAEHXZ 004763c0 f   MakeLatheSetup5.obj
 0001:00075610       ?OnKillActive@CMakeLatheSetup5@@MAEHXZ 00476610 f   MakeLatheSetup5.obj
 0001:00075850       ?GetRuntimeClass@CMakeNCSetup@@UBEPAUCRuntimeClass@@XZ 00476850 f   MakeNCSetup.obj
 0001:00075860       ?GetMessageMap@CMakeNCSetup@@MBEPBUAFX_MSGMAP@@XZ 00476860 f   MakeNCSetup.obj
 0001:00075870       ??0CMakeNCSetup@@QAE@PBD0@Z 00476870 f   MakeNCSetup.obj
 0001:00075bd0       ??_ECMakeNCSetup@@UAEPAXI@Z 00476bd0 f i * CIL library *:* CIL module *
 0001:00075bd0       ??_GCMakeNCSetup@@UAEPAXI@Z 00476bd0 f i MakeNCSetup.obj
 0001:00075c10       ??1CMakeNCSetup3@@UAE@XZ   00476c10 f i MakeNCSetup.obj
 0001:00075ce0       ??1CMakeNCSetup4@@UAE@XZ   00476ce0 f i MakeNCSetup.obj
 0001:00075d90       ??1CMakeNCSetup5@@UAE@XZ   00476d90 f i MakeNCSetup.obj
 0001:00075e00       ??1CMakeNCSetup8@@UAE@XZ   00476e00 f i MakeNCSetup.obj
 0001:00075e30       ??1CMakeNCSetup@@UAE@XZ    00476e30 f   MakeNCSetup.obj
 0001:00075ec0       ?OnDestroy@CMakeNCSetup@@IAEXXZ 00476ec0 f   MakeNCSetup.obj
 0001:00075ee0       ?GetMessageMap@CMakeNCSetup1@@MBEPBUAFX_MSGMAP@@XZ 00476ee0 f   MakeNCSetup1.obj
 0001:00075ef0       ??0CMakeNCSetup1@@QAE@XZ   00476ef0 f   MakeNCSetup1.obj
 0001:000760f0       ??_ECMakeNCSetup1@@UAEPAXI@Z 004770f0 f i * CIL library *:* CIL module *
 0001:000760f0       ??_GCMakeNCSetup1@@UAEPAXI@Z 004770f0 f i MakeNCSetup1.obj
 0001:00076130       ?DoDataExchange@CMakeNCSetup1@@MAEXPAVCDataExchange@@@Z 00477130 f   MakeNCSetup1.obj
 0001:00076260       ?OnInitDialog@CMakeNCSetup1@@MAEHXZ 00477260 f   MakeNCSetup1.obj
 0001:00076420       ?OnHeaderLoopup@CMakeNCSetup1@@IAEXXZ 00477420 f   MakeNCSetup1.obj
 0001:00076530       ?OnFooterLoopup@CMakeNCSetup1@@IAEXXZ 00477530 f   MakeNCSetup1.obj
 0001:00076640       ?OnHeaderEdit@CMakeNCSetup1@@IAEXXZ 00477640 f   MakeNCSetup1.obj
 0001:000767d0       ?OnFooterEdit@CMakeNCSetup1@@IAEXXZ 004777d0 f   MakeNCSetup1.obj
 0001:00076960       ?OnApply@CMakeNCSetup1@@UAEHXZ 00477960 f   MakeNCSetup1.obj
 0001:00076f90       ?OnKillActive@CMakeNCSetup1@@UAEHXZ 00477f90 f   MakeNCSetup1.obj
 0001:000773c0       ?GetMessageMap@CMakeNCSetup2@@MBEPBUAFX_MSGMAP@@XZ 004783c0 f   MakeNCSetup2.obj
 0001:000773d0       ??0CMakeNCSetup2@@QAE@XZ   004783d0 f   MakeNCSetup2.obj
 0001:00077550       ??_ECMakeNCSetup2@@UAEPAXI@Z 00478550 f i * CIL library *:* CIL module *
 0001:00077550       ??_GCMakeNCSetup2@@UAEPAXI@Z 00478550 f i MakeNCSetup2.obj
 0001:00077590       ?DoDataExchange@CMakeNCSetup2@@MAEXPAVCDataExchange@@@Z 00478590 f   MakeNCSetup2.obj
 0001:000776c0       ?OnInitDialog@CMakeNCSetup2@@MAEHXZ 004786c0 f   MakeNCSetup2.obj
 0001:00077940       ?OnProgNo@CMakeNCSetup2@@IAEXXZ 00478940 f   MakeNCSetup2.obj
 0001:00077990       ?OnLineAdd@CMakeNCSetup2@@IAEXXZ 00478990 f   MakeNCSetup2.obj
 0001:000779d0       ?OnApply@CMakeNCSetup2@@UAEHXZ 004789d0 f   MakeNCSetup2.obj
 0001:00077c90       ?OnKillActive@CMakeNCSetup2@@UAEHXZ 00478c90 f   MakeNCSetup2.obj
 0001:00077da0       ?GetMessageMap@CMakeNCSetup3@@MBEPBUAFX_MSGMAP@@XZ 00478da0 f   MakeNCSetup3.obj
 0001:00077db0       ??0CMakeNCSetup3@@QAE@XZ   00478db0 f   MakeNCSetup3.obj
 0001:00077ff0       ??_ECMakeNCSetup3@@UAEPAXI@Z 00478ff0 f i * CIL library *:* CIL module *
 0001:00077ff0       ??_GCMakeNCSetup3@@UAEPAXI@Z 00478ff0 f i MakeNCSetup3.obj
 0001:00078030       ?DoDataExchange@CMakeNCSetup3@@MAEXPAVCDataExchange@@@Z 00479030 f   MakeNCSetup3.obj
 0001:00078190       ?EnableControl_Deep@CMakeNCSetup3@@AAEXXZ 00479190 f   MakeNCSetup3.obj
 0001:00078250       ?OnInitDialog@CMakeNCSetup3@@MAEHXZ 00479250 f   MakeNCSetup3.obj
 0001:000784b0       ?OnSelchangeMakeEnd@CMakeNCSetup3@@IAEXXZ 004794b0 f   MakeNCSetup3.obj
 0001:00078510       ?OnSelchangeProcess@CMakeNCSetup3@@IAEXXZ 00479510 f   MakeNCSetup3.obj
 0001:00078560       ?OnDeep@CMakeNCSetup3@@IAEXXZ 00479560 f   MakeNCSetup3.obj
 0001:00078580       ?OnDeepFinish@CMakeNCSetup3@@IAEXXZ 00479580 f   MakeNCSetup3.obj
 0001:000785d0       ?OnSetActive@CMakeNCSetup3@@UAEHXZ 004795d0 f   MakeNCSetup3.obj
 0001:00078710       ?OnApply@CMakeNCSetup3@@UAEHXZ 00479710 f   MakeNCSetup3.obj
 0001:00078c30       ?OnKillActive@CMakeNCSetup3@@UAEHXZ 00479c30 f   MakeNCSetup3.obj
 0001:00079020       ?GetMessageMap@CMakeNCSetup4@@MBEPBUAFX_MSGMAP@@XZ 0047a020 f   MakeNCSetup4.obj
 0001:00079030       ??0CMakeNCSetup4@@QAE@XZ   0047a030 f   MakeNCSetup4.obj
 0001:00079240       ??_ECMakeNCSetup4@@UAEPAXI@Z 0047a240 f i * CIL library *:* CIL module *
 0001:00079240       ??_GCMakeNCSetup4@@UAEPAXI@Z 0047a240 f i MakeNCSetup4.obj
 0001:00079280       ?DoDataExchange@CMakeNCSetup4@@MAEXPAVCDataExchange@@@Z 0047a280 f   MakeNCSetup4.obj
 0001:000793d0       ?OnInitDialog@CMakeNCSetup4@@MAEHXZ 0047a3d0 f   MakeNCSetup4.obj
 0001:00079590       ?OnSelchangeDwellFormat@CMakeNCSetup4@@IAEXXZ 0047a590 f   MakeNCSetup4.obj
 0001:000795f0       ?OnSelchangeZProcess@CMakeNCSetup4@@IAEXXZ 0047a5f0 f   MakeNCSetup4.obj
 0001:00079620       ?OnCircle@CMakeNCSetup4@@IAEXXZ 0047a620 f   MakeNCSetup4.obj
 0001:00079670       ?OnApply@CMakeNCSetup4@@UAEHXZ 0047a670 f   MakeNCSetup4.obj
 0001:00079930       ?OnKillActive@CMakeNCSetup4@@UAEHXZ 0047a930 f   MakeNCSetup4.obj
 0001:00079d00       ?GetMessageMap@CMakeNCSetup5@@MBEPBUAFX_MSGMAP@@XZ 0047ad00 f   MakeNCSetup5.obj
 0001:00079d10       ??_ECMakeNCSetup5@@UAEPAXI@Z 0047ad10 f i * CIL library *:* CIL module *
 0001:00079d10       ??_GCMakeNCSetup5@@UAEPAXI@Z 0047ad10 f i MakeNCSetup5.obj
 0001:00079d50       ?DoDataExchange@CMakeNCSetup5@@MAEXPAVCDataExchange@@@Z 0047ad50 f   MakeNCSetup5.obj
 0001:00079df0       ?OnInitDialog@CMakeNCSetup5@@MAEHXZ 0047adf0 f   MakeNCSetup5.obj
 0001:00079ef0       ?OnSelchangeDrill@CMakeNCSetup5@@IAEXXZ 0047aef0 f   MakeNCSetup5.obj
 0001:00079f20       ?OnScriptLookup@CMakeNCSetup5@@IAEXXZ 0047af20 f   MakeNCSetup5.obj
 0001:0007a030       ?OnApply@CMakeNCSetup5@@UAEHXZ 0047b030 f   MakeNCSetup5.obj
 0001:0007a260       ?OnKillActive@CMakeNCSetup5@@UAEHXZ 0047b260 f   MakeNCSetup5.obj
 0001:0007a4c0       ?GetMessageMap@CMakeNCSetup6@@MBEPBUAFX_MSGMAP@@XZ 0047b4c0 f   MakeNCSetup6.obj
 0001:0007a4d0       ??0CMakeNCSetup6@@QAE@XZ   0047b4d0 f   MakeNCSetup6.obj
 0001:0007a630       ??_ECMakeNCSetup6@@UAEPAXI@Z 0047b630 f i * CIL library *:* CIL module *
 0001:0007a630       ??_GCMakeNCSetup6@@UAEPAXI@Z 0047b630 f i MakeNCSetup6.obj
 0001:0007a670       ?DoDataExchange@CMakeNCSetup6@@MAEXPAVCDataExchange@@@Z 0047b670 f   MakeNCSetup6.obj
 0001:0007a770       ?OnInitDialog@CMakeNCSetup6@@MAEHXZ 0047b770 f   MakeNCSetup6.obj
 0001:0007a960       ?OnCircleR@CMakeNCSetup6@@IAEXXZ 0047b960 f   MakeNCSetup6.obj
 0001:0007a990       ?OnCircleIJ@CMakeNCSetup6@@IAEXXZ 0047b990 f   MakeNCSetup6.obj
 0001:0007a9c0       ?OnApply@CMakeNCSetup6@@UAEHXZ 0047b9c0 f   MakeNCSetup6.obj
 0001:0007aca0       ?OnKillActive@CMakeNCSetup6@@UAEHXZ 0047bca0 f   MakeNCSetup6.obj
 0001:0007ada0       ??_ECMakeNCSetup8@@UAEPAXI@Z 0047bda0 f i * CIL library *:* CIL module *
 0001:0007ada0       ??_GCMakeNCSetup8@@UAEPAXI@Z 0047bda0 f i MakeNCSetup8.obj
 0001:0007ae00       ?DoDataExchange@CMakeNCSetup8@@MAEXPAVCDataExchange@@@Z 0047be00 f   MakeNCSetup8.obj
 0001:0007ae70       ?OnInitDialog@CMakeNCSetup8@@MAEHXZ 0047be70 f   MakeNCSetup8.obj
 0001:0007af00       ?OnApply@CMakeNCSetup8@@UAEHXZ 0047bf00 f   MakeNCSetup8.obj
 0001:0007af80       ?GetRuntimeClass@CMakeWireSetup@@UBEPAUCRuntimeClass@@XZ 0047bf80 f   MakeWireSetup.obj
 0001:0007af90       ?GetMessageMap@CMakeWireSetup@@MBEPBUAFX_MSGMAP@@XZ 0047bf90 f   MakeWireSetup.obj
 0001:0007afa0       ??0CMakeWireSetup@@QAE@PBD0@Z 0047bfa0 f   MakeWireSetup.obj
 0001:0007b1c0       ??_ECMakeWireSetup@@UAEPAXI@Z 0047c1c0 f i * CIL library *:* CIL module *
 0001:0007b1c0       ??_GCMakeWireSetup@@UAEPAXI@Z 0047c1c0 f i MakeWireSetup.obj
 0001:0007b200       ??1CMakeWireSetup1@@UAE@XZ 0047c200 f i MakeWireSetup.obj
 0001:0007b2c0       ??1CMakeWireSetup2@@UAE@XZ 0047c2c0 f i MakeWireSetup.obj
 0001:0007b310       ??1CMakeWireSetup@@UAE@XZ  0047c310 f   MakeWireSetup.obj
 0001:0007b3a0       ?OnDestroy@CMakeWireSetup@@IAEXXZ 0047c3a0 f   MakeWireSetup.obj
 0001:0007b3c0       ?OnApplyNow@CMakeWireSetup@@IAEXXZ 0047c3c0 f   MakeWireSetup.obj
 0001:0007b5d0       ?GetMessageMap@CMakeWireSetup1@@MBEPBUAFX_MSGMAP@@XZ 0047c5d0 f   MakeWireSetup1.obj
 0001:0007b5e0       ??0CMakeWireSetup1@@QAE@XZ 0047c5e0 f   MakeWireSetup1.obj
 0001:0007b790       ??_ECMakeWireSetup1@@UAEPAXI@Z 0047c790 f i * CIL library *:* CIL module *
 0001:0007b790       ??_GCMakeWireSetup1@@UAEPAXI@Z 0047c790 f i MakeWireSetup1.obj
 0001:0007b7d0       ?DoDataExchange@CMakeWireSetup1@@MAEXPAVCDataExchange@@@Z 0047c7d0 f   MakeWireSetup1.obj
 0001:0007b8a0       ?OnInitDialog@CMakeWireSetup1@@MAEHXZ 0047c8a0 f   MakeWireSetup1.obj
 0001:0007ba00       ?OnHeaderLoopup@CMakeWireSetup1@@IAEXXZ 0047ca00 f   MakeWireSetup1.obj
 0001:0007bb10       ?OnFooterLoopup@CMakeWireSetup1@@IAEXXZ 0047cb10 f   MakeWireSetup1.obj
 0001:0007bc20       ?OnHeaderEdit@CMakeWireSetup1@@IAEXXZ 0047cc20 f   MakeWireSetup1.obj
 0001:0007bdb0       ?OnFooterEdit@CMakeWireSetup1@@IAEXXZ 0047cdb0 f   MakeWireSetup1.obj
 0001:0007bf40       ?OnApply@CMakeWireSetup1@@MAEHXZ 0047cf40 f   MakeWireSetup1.obj
 0001:0007c210       ?OnKillActive@CMakeWireSetup1@@MAEHXZ 0047d210 f   MakeWireSetup1.obj
 0001:0007c600       ??_ECMakeWireSetup2@@UAEPAXI@Z 0047d600 f i * CIL library *:* CIL module *
 0001:0007c600       ??_GCMakeWireSetup2@@UAEPAXI@Z 0047d600 f i MakeWireSetup2.obj
 0001:0007c680       ?DoDataExchange@CMakeWireSetup2@@MAEXPAVCDataExchange@@@Z 0047d680 f   MakeWireSetup2.obj
 0001:0007c700       ?OnInitDialog@CMakeWireSetup2@@MAEHXZ 0047d700 f   MakeWireSetup2.obj
 0001:0007c7b0       ?OnApply@CMakeWireSetup2@@MAEHXZ 0047d7b0 f   MakeWireSetup2.obj
 0001:0007c8f0       ?OnKillActive@CMakeWireSetup2@@MAEHXZ 0047d8f0 f   MakeWireSetup2.obj
 0001:0007ca40       ?CreateObject@CNCChild@@SGPAVCObject@@XZ 0047da40 f   NCChild.obj
 0001:0007cb90       ?GetRuntimeClass@CNCChild@@UBEPAUCRuntimeClass@@XZ 0047db90 f   NCChild.obj
 0001:0007cba0       ?GetMessageMap@CNCChild@@MBEPBUAFX_MSGMAP@@XZ 0047dba0 f   NCChild.obj
 0001:0007cbb0       ?GetMessageMap@CNCFrameSplit@@MBEPBUAFX_MSGMAP@@XZ 0047dbb0 f   NCChild.obj
 0001:0007cbc0       ??_ECNCChild@@UAEPAXI@Z    0047dbc0 f i * CIL library *:* CIL module *
 0001:0007cbc0       ??_GCNCChild@@UAEPAXI@Z    0047dbc0 f i NCChild.obj
 0001:0007cc30       ?OnCreateClient@CNCChild@@MAEHPAUtagCREATESTRUCTA@@PAUCCreateContext@@@Z 0047dc30 f   NCChild.obj
 0001:0007cd10       ?OnCmdMsg@CNCChild@@UAEHIHPAXPAUAFX_CMDHANDLERINFO@@@Z 0047dd10 f   NCChild.obj
 0001:0007ce10       ?SetJumpList@CNCChild@@QAEXH@Z 0047de10 f   NCChild.obj
 0001:0007ce70       ?SetFactorInfo@CNCChild@@QAEXMABV?$CStringT@DV?$StrTraitMFC_DLL@DV?$ChTraitsCRT@D@ATL@@@@@ATL@@H@Z 0047de70 f   NCChild.obj
 0001:0007cf30       ?OnCreate@CNCChild@@IAEHPAUtagCREATESTRUCTA@@@Z 0047df30 f   NCChild.obj
 0001:0007cfa0       ?OnSize@CNCChild@@IAEXIHH@Z 0047dfa0 f   NCChild.obj
 0001:0007d030       ?OnMDIActivate@CNCChild@@IAEXHPAVCWnd@@0@Z 0047e030 f   NCChild.obj
 0001:0007d0b0       ?OnUpdateStatusLineNo@CNCChild@@IAEJIJ@Z 0047e0b0 f   NCChild.obj
 0001:0007d380       ?OnUserInitialUpdate@CNCFrameSplit@@IAEJIJ@Z 0047e380 f   NCChild.obj
 0001:0007d540       ?OnDestroy@CNCFrameSplit@@IAEXXZ 0047e540 f   NCChild.obj
 0001:0007d630       ?OnLButtonDblClk@CNCFrameSplit@@IAEXIVCPoint@@@Z 0047e630 f   NCChild.obj
 0001:0007d680       ??0CNCline@@IAE@W4ENNCDTYPE@@PBVCNCdata@@PAUtagNCARGV@@ABV?$CPoint3T@M@@@Z 0047e680 f i NCdata.obj
 0001:0007d760       ??_ECNCline@@UAEPAXI@Z     0047e760 f i * CIL library *:* CIL module *
 0001:0007d760       ??_GCNCline@@UAEPAXI@Z     0047e760 f i NCdata.obj
 0001:0007d790       ??1CNCline@@UAE@XZ         0047e790 f i NCdata.obj
 0001:0007d7a0       ?Constracter@CNCdata@@AAEXPAUtagNCARGV@@@Z 0047e7a0 f i NCdata.obj
 0001:0007d9a0       ??_ECNCread@@UAEPAXI@Z     0047e9a0 f i * CIL library *:* CIL module *
 0001:0007d9a0       ??_GCNCread@@UAEPAXI@Z     0047e9a0 f i NCdata.obj
 0001:0007d9f0       ?GetMaxCutRect@CNCdata@@UBE?AV?$CRect3T@M@@XZ 0047e9f0 f i NCdata.obj
 0001:0007d9f0       ?GetMaxRect@CNCdata@@UBE?AV?$CRect3T@M@@XZ 0047e9f0 f i NCdata.obj
 0001:0007da20       ?CalcRoundPoint@CNCcycle@@UBE?AV?$tuple@HV?$CPointT@M@@MMUnull_type@tuples@boost@@U234@U234@U234@U234@U234@@tuples@boost@@PBVCNCdata@@M@Z 0047ea20 f i NCdata.obj
 0001:0007da20       ?CalcRoundPoint@CNCdata@@UBE?AV?$tuple@HV?$CPointT@M@@MMUnull_type@tuples@boost@@U234@U234@U234@U234@U234@@tuples@boost@@PBV1@M@Z 0047ea20 f i NCdata.obj
 0001:0007da60       ?SetChamferingPoint@CNCcycle@@UAE?AV?$optional@V?$CPointT@M@@@boost@@HM@Z 0047ea60 f i NCdata.obj
 0001:0007da60       ?SetChamferingPoint@CNCdata@@UAE?AV?$optional@V?$CPointT@M@@@boost@@HM@Z 0047ea60 f i NCdata.obj
 0001:0007da70       ?CalcBetweenAngle@CNCcycle@@UBEMPBVCNCdata@@@Z 0047ea70 f i NCdata.obj
 0001:0007da70       ?CalcBetweenAngle@CNCdata@@UBEMPBV1@@Z 0047ea70 f i NCdata.obj
 0001:0007da80       ?CalcOffsetIntersectionPoint@CNCcycle@@UBE?AV?$optional@V?$CPointT@M@@@boost@@PBVCNCdata@@MMH@Z 0047ea80 f i NCdata.obj
 0001:0007da80       ?CalcOffsetIntersectionPoint@CNCdata@@UBE?AV?$optional@V?$CPointT@M@@@boost@@PBV1@MMH@Z 0047ea80 f i NCdata.obj
 0001:0007da90       ?SetCalcLength@CNCdata@@UAEMXZ 0047ea90 f i NCdata.obj
 0001:0007dac0       ?GetMaxRect@CNCline@@UBE?AV?$CRect3T@M@@XZ 0047eac0 f i NCdata.obj
 0001:0007dbb0       ?GetMaxCutRect@CNCline@@UBE?AV?$CRect3T@M@@XZ 0047ebb0 f i NCdata.obj
 0001:0007dc20       ?GetDrawStartPoint@CNCline@@UBE?AVCPoint@@I@Z 0047ec20 f i NCdata.obj
 0001:0007dc40       ?GetDrawEndPoint@CNCline@@UBE?AVCPoint@@I@Z 0047ec40 f i NCdata.obj
 0001:0007dc60       ?DrawTuning@PTCYCLE@@QAEXM@Z 0047ec60 f i NCdata.obj
 0001:0007ddc0       ?GetMaxRect@CNCcycle@@UBE?AV?$CRect3T@M@@XZ 0047edc0 f i NCdata.obj
 0001:0007ded0       ?GetMaxCutRect@CNCcycle@@UBE?AV?$CRect3T@M@@XZ 0047eed0 f i NCdata.obj
 0001:0007e000       ?SetCalcLength@CNCcycle@@UAEMXZ 0047f000 f i NCdata.obj
 0001:0007e010       ?GetMaxCutRect@CNCcircle@@UBE?AV?$CRect3T@M@@XZ 0047f010 f i NCdata.obj
 0001:0007e020       ??0CNCdata@@QAE@PAUtagNCARGV@@@Z 0047f020 f   NCdata.obj
 0001:0007e280       ??_ECNCdata@@UAEPAXI@Z     0047f280 f i * CIL library *:* CIL module *
 0001:0007e280       ??_GCNCdata@@UAEPAXI@Z     0047f280 f i NCdata.obj
 0001:0007e2b0       ??0CNCdata@@QAE@PBV0@PAUtagNCARGV@@ABV?$CPoint3T@M@@@Z 0047f2b0 f   NCdata.obj
 0001:0007e6e0       ??0CNCdata@@IAE@W4ENNCDTYPE@@PBV0@PAUtagNCARGV@@ABV?$CPoint3T@M@@@Z 0047f6e0 f   NCdata.obj
 0001:0007e8b0       ??0CNCdata@@IAE@PBV0@@Z    0047f8b0 f   NCdata.obj
 0001:0007eba0       ??1CNCdata@@UAE@XZ         0047fba0 f   NCdata.obj
 0001:0007ec50       ?DeleteReadData@CNCdata@@QAEXXZ 0047fc50 f   NCdata.obj
 0001:0007ecb0       ?GetPlaneValueOrg@CNCdata@@QBE?AV?$CPointT@M@@ABV?$CPoint3T@M@@0@Z 0047fcb0 f   NCdata.obj
 0001:0007ee00       ?CalcG68Round@CNCdata@@IBEXPAUtagG68ROUND@@AAV?$CPoint3T@M@@@Z 0047fe00 f   NCdata.obj
 0001:0007ef20       ?NC_CopyObject@CNCdata@@QAEPAV1@XZ 0047ff20 f   NCdata.obj
 0001:0007f110       ?DrawTuning@CNCdata@@UAEXM@Z 00480110 f   NCdata.obj
 0001:0007f180       ?DrawTuningXY@CNCdata@@UAEXM@Z 00480180 f   NCdata.obj
 0001:0007f1f0       ?DrawTuningXZ@CNCdata@@UAEXM@Z 004801f0 f   NCdata.obj
 0001:0007f260       ?DrawTuningYZ@CNCdata@@UAEXM@Z 00480260 f   NCdata.obj
 0001:0007f2d0       ?Draw@CNCdata@@UBEXPAVCDC@@H@Z 004802d0 f   NCdata.obj
 0001:0007f320       ?DrawXY@CNCdata@@UBEXPAVCDC@@H@Z 00480320 f   NCdata.obj
 0001:0007f370       ?DrawXZ@CNCdata@@UBEXPAVCDC@@H@Z 00480370 f   NCdata.obj
 0001:0007f3c0       ?DrawYZ@CNCdata@@UBEXPAVCDC@@H@Z 004803c0 f   NCdata.obj
 0001:0007f410       ?GetDrawEndPoint@CNCdata@@UBE?AVCPoint@@I@Z 00480410 f   NCdata.obj
 0001:0007f410       ?GetDrawStartPoint@CNCdata@@UBE?AVCPoint@@I@Z 00480410 f   NCdata.obj
 0001:0007f430       ??0CNCline@@QAE@PBVCNCdata@@PAUtagNCARGV@@ABV?$CPoint3T@M@@@Z 00480430 f   NCdata.obj
 0001:0007f680       ??0CNCline@@QAE@PBVCNCdata@@@Z 00480680 f   NCdata.obj
 0001:0007f8b0       ?SetCalcLength@CNCline@@UAEMXZ 004808b0 f   NCdata.obj
 0001:0007fac0       ?DrawTuning@CNCline@@UAEXM@Z 00480ac0 f   NCdata.obj
 0001:0007fb60       ?DrawTuningXY@CNCline@@UAEXM@Z 00480b60 f   NCdata.obj
 0001:0007fbe0       ?DrawTuningXZ@CNCline@@UAEXM@Z 00480be0 f   NCdata.obj
 0001:0007fc60       ?DrawTuningYZ@CNCline@@UAEXM@Z 00480c60 f   NCdata.obj
 0001:0007fce0       ?Draw@CNCline@@UBEXPAVCDC@@H@Z 00480ce0 f   NCdata.obj
 0001:0007fd30       ?DrawXY@CNCline@@UBEXPAVCDC@@H@Z 00480d30 f   NCdata.obj
 0001:0007fd80       ?DrawXZ@CNCline@@UBEXPAVCDC@@H@Z 00480d80 f   NCdata.obj
 0001:0007fdd0       ?DrawYZ@CNCline@@UBEXPAVCDC@@H@Z 00480dd0 f   NCdata.obj
 0001:0007fe20       ?DrawWire@CNCcircle@@UBEXPAVCDC@@H@Z 00480e20 f   NCdata.obj
 0001:0007fe20       ?DrawWire@CNCline@@UBEXPAVCDC@@H@Z 00480e20 f   NCdata.obj
 0001:0007fe40       ?DrawWireXY@CNCcircle@@UBEXPAVCDC@@H@Z 00480e40 f   NCdata.obj
 0001:0007fe40       ?DrawWireXY@CNCline@@UBEXPAVCDC@@H@Z 00480e40 f   NCdata.obj
 0001:0007fe60       ?DrawWireXZ@CNCcircle@@UBEXPAVCDC@@H@Z 00480e60 f   NCdata.obj
 0001:0007fe60       ?DrawWireXZ@CNCline@@UBEXPAVCDC@@H@Z 00480e60 f   NCdata.obj
 0001:0007fe80       ?DrawWireYZ@CNCcircle@@UBEXPAVCDC@@H@Z 00480e80 f   NCdata.obj
 0001:0007fe80       ?DrawWireYZ@CNCline@@UBEXPAVCDC@@H@Z 00480e80 f   NCdata.obj
 0001:0007fea0       ?DrawLine@CNCline@@ABEXW4ENNCDRAWVIEW@@PAVCDC@@H@Z 00480ea0 f   NCdata.obj
 0001:0007ff90       ?DrawWireLine@CNCline@@UBEXW4ENNCDRAWVIEW@@PAVCDC@@H@Z 00480f90 f   NCdata.obj
 0001:00080110       ?CalcRoundPoint@CNCline@@UBE?AV?$tuple@HV?$CPointT@M@@MMUnull_type@tuples@boost@@U234@U234@U234@U234@U234@@tuples@boost@@PBVCNCdata@@M@Z 00481110 f   NCdata.obj
 0001:00080620       ?SetChamferingPoint@CNCline@@UAE?AV?$optional@V?$CPointT@M@@@boost@@HM@Z 00481620 f   NCdata.obj
 0001:00080bf0       ?CalcBetweenAngle@CNCline@@UBEMPBVCNCdata@@@Z 00481bf0 f   NCdata.obj
 0001:00080d40       ?CalcOffsetSign@CNCline@@UBEHXZ 00481d40 f   NCdata.obj
 0001:00080e20       ?CalcPerpendicularPoint@CNCline@@UBE?AV?$optional@V?$CPointT@M@@@boost@@W4ENPOINTORDER@@MH@Z 00481e20 f   NCdata.obj
 0001:00080f70       ?CalcOffsetIntersectionPoint@CNCline@@UBE?AV?$optional@V?$CPointT@M@@@boost@@PBVCNCdata@@MMH@Z 00481f70 f   NCdata.obj
 0001:00081140       ?CalcOffsetIntersectionPoint2@CNCline@@UBE?AV?$optional@V?$CPointT@M@@@boost@@PBVCNCdata@@MH@Z 00482140 f   NCdata.obj
 0001:00081320       ?SetCorrectPoint@CNCline@@UAEXW4ENPOINTORDER@@ABV?$CPointT@M@@M@Z 00482320 f   NCdata.obj
 0001:00081430       ??0CNCcycle@@QAE@PBVCNCdata@@PAUtagNCARGV@@ABV?$CPoint3T@M@@HW4NCMAKETYPE@@@Z 00482430 f   NCdata.obj
 0001:00082600       ??_ECNCcycle@@UAEPAXI@Z    00483600 f i * CIL library *:* CIL module *
 0001:00082600       ??_GCNCcycle@@UAEPAXI@Z    00483600 f i NCdata.obj
 0001:00082670       ?DrawTuning@CNCcycle@@UAEXM@Z 00483670 f   NCdata.obj
 0001:00082890       ?DrawTuningXY@CNCcycle@@UAEXM@Z 00483890 f   NCdata.obj
 0001:000829a0       ?DrawTuningXZ@CNCcycle@@UAEXM@Z 004839a0 f   NCdata.obj
 0001:00082ab0       ?DrawTuningYZ@CNCcycle@@UAEXM@Z 00483ab0 f   NCdata.obj
 0001:00082bc0       ?Draw@CNCcycle@@UBEXPAVCDC@@H@Z 00483bc0 f   NCdata.obj
 0001:00082be0       ?DrawXY@CNCcycle@@UBEXPAVCDC@@H@Z 00483be0 f   NCdata.obj
 0001:00082c50       ?DrawXZ@CNCcycle@@UBEXPAVCDC@@H@Z 00483c50 f   NCdata.obj
 0001:00082cd0       ?DrawYZ@CNCcycle@@UBEXPAVCDC@@H@Z 00483cd0 f   NCdata.obj
 0001:00082d40       ?DrawCyclePlane@CNCcycle@@ABEXW4ENNCDRAWVIEW@@PAVCDC@@H@Z 00483d40 f   NCdata.obj
 0001:00082e50       ?DrawCycle@CNCcycle@@ABEXW4ENNCDRAWVIEW@@PAVCDC@@H@Z 00483e50 f   NCdata.obj
 0001:00083030       ??0CNCcircle@@QAE@PBVCNCdata@@PAUtagNCARGV@@ABV?$CPoint3T@M@@W4NCMAKETYPE@@@Z 00484030 f   NCdata.obj
 0001:00083580       ??_ECNCcircle@@UAEPAXI@Z   00484580 f i * CIL library *:* CIL module *
 0001:00083580       ??_GCNCcircle@@UAEPAXI@Z   00484580 f i NCdata.obj
 0001:000835b0       ?Constracter@CNCcircle@@AAEXXZ 004845b0 f   NCdata.obj
 0001:00083660       ?CalcCenter@CNCcircle@@AAEHABV?$CPointT@M@@0@Z 00484660 f   NCdata.obj
 0001:00083900       ?SetCenter@CNCcircle@@AAEXABV?$CPointT@M@@@Z 00484900 f   NCdata.obj
 0001:00083980       ?CalcAngle@CNCcircle@@ABE?AV?$tuple@MMUnull_type@tuples@boost@@U123@U123@U123@U123@U123@U123@U123@@tuples@boost@@HABV?$CPointT@M@@0@Z 00484980 f   NCdata.obj
 0001:00083b90       ?AngleTuning@CNCcircle@@AAEXABV?$CPointT@M@@0@Z 00484b90 f   NCdata.obj
 0001:00083bd0       ?SetCalcLength@CNCcircle@@UAEMXZ 00484bd0 f   NCdata.obj
 0001:00083ca0       ?DrawTuning@CNCcircle@@UAEXM@Z 00484ca0 f   NCdata.obj
 0001:00083ef0       ?DrawTuningXY@CNCcircle@@UAEXM@Z 00484ef0 f   NCdata.obj
 0001:00084020       ?DrawTuningXZ@CNCcircle@@UAEXM@Z 00485020 f   NCdata.obj
 0001:00084130       ?DrawTuningYZ@CNCcircle@@UAEXM@Z 00485130 f   NCdata.obj
 0001:00084240       ?Draw@CNCcircle@@UBEXPAVCDC@@H@Z 00485240 f   NCdata.obj
 0001:000843f0       ?DrawXY@CNCcircle@@UBEXPAVCDC@@H@Z 004853f0 f   NCdata.obj
 0001:00084510       ?DrawXZ@CNCcircle@@UBEXPAVCDC@@H@Z 00485510 f   NCdata.obj
 0001:00084630       ?DrawYZ@CNCcircle@@UBEXPAVCDC@@H@Z 00485630 f   NCdata.obj
 0001:00084750       ?DrawWireLine@CNCcircle@@UBEXW4ENNCDRAWVIEW@@PAVCDC@@H@Z 00485750 f   NCdata.obj
 0001:000848a0       ?DrawG17@CNCcircle@@ABEXW4ENNCDRAWVIEW@@PAVCDC@@@Z 004858a0 f   NCdata.obj
 0001:000852b0       ?DrawG18@CNCcircle@@ABEXW4ENNCDRAWVIEW@@PAVCDC@@@Z 004862b0 f   NCdata.obj
 0001:00085cc0       ?DrawG19@CNCcircle@@ABEXW4ENNCDRAWVIEW@@PAVCDC@@@Z 00486cc0 f   NCdata.obj
 0001:000866e0       ?GetMaxRect@CNCcircle@@UBE?AV?$CRect3T@M@@XZ 004876e0 f   NCdata.obj
 0001:00086b40       ?CalcRoundPoint@CNCcircle@@UBE?AV?$tuple@HV?$CPointT@M@@MMUnull_type@tuples@boost@@U234@U234@U234@U234@U234@@tuples@boost@@PBVCNCdata@@M@Z 00487b40 f   NCdata.obj
 0001:00087320       ?SetChamferingPoint@CNCcircle@@UAE?AV?$optional@V?$CPointT@M@@@boost@@HM@Z 00488320 f   NCdata.obj
 0001:00087bb0       ?CalcBetweenAngle@CNCcircle@@UBEMPBVCNCdata@@@Z 00488bb0 f   NCdata.obj
 0001:00087d40       ?CalcOffsetSign@CNCcircle@@UBEHXZ 00488d40 f   NCdata.obj
 0001:00087d60       ?CalcPerpendicularPoint@CNCcircle@@UBE?AV?$optional@V?$CPointT@M@@@boost@@W4ENPOINTORDER@@MH@Z 00488d60 f   NCdata.obj
 0001:00087ea0       ?CalcOffsetIntersectionPoint@CNCcircle@@UBE?AV?$optional@V?$CPointT@M@@@boost@@PBVCNCdata@@MMH@Z 00488ea0 f   NCdata.obj
 0001:000882f0       ?CalcOffsetIntersectionPoint2@CNCcircle@@UBE?AV?$optional@V?$CPointT@M@@@boost@@PBVCNCdata@@MH@Z 004892f0 f   NCdata.obj
 0001:00088510       ?SetCorrectPoint@CNCcircle@@UAEXW4ENPOINTORDER@@ABV?$CPointT@M@@M@Z 00489510 f   NCdata.obj
 0001:00088a00       ?Draw@CVBtmDraw@@QAEXXZ    00489a00 f   NCdataGL.obj
 0001:00088be0       ?DrawGLWirePass@CNCdata@@UBEXW4RENDERMODE@@H@Z 00489be0 f   NCdataGL.obj
 0001:00088c30       ?DrawGLWireWirePass@CNCdata@@UBEXW4RENDERMODE@@H@Z 00489c30 f   NCdataGL.obj
 0001:00088df0       ??1WIRELINE@@QAE@XZ        00489df0 f i NCdataGL.obj
 0001:00088e00       ?AddGLBottomFaceVertex@CNCdata@@UBEHAAVCVBtmDraw@@H@Z 00489e00 f   NCdataGL.obj
 0001:00088e60       ?AddGLWireVertex@CNCdata@@UBEHAAV?$vector@MV?$allocator@M@std@@@std@@0AAV?$vector@IV?$allocator@I@std@@@3@AAUWIRELINE@@H@Z 00489e60 f   NCdataGL.obj
 0001:00088fb0       ?AddGLWireTexture@CNCcycle@@UBEHIAAMMPAM@Z 00489fb0 f   NCdataGL.obj
 0001:00088fb0       ?AddGLWireTexture@CNCdata@@UBEHIAAMMPAM@Z 00489fb0 f   NCdataGL.obj
 0001:00088fc0       ?SetChamfermillOrg@CNCdata@@QBEXABV?$CPoint3T@M@@AAV?$vector@MV?$allocator@M@std@@@std@@@Z 00489fc0 f   NCdataGL.obj
 0001:00089020       ?SetDrillOrg@CNCdata@@QBEXABV?$CPoint3T@M@@AAV?$vector@MV?$allocator@M@std@@@std@@@Z 0048a020 f   NCdataGL.obj
 0001:00089090       ?AddEndmillSphere@CNCdata@@QBEXABV?$CPoint3T@M@@AAUBOTTOMDRAW@@AAVCVBtmDraw@@@Z 0048a090 f   NCdataGL.obj
 0001:00089200       ?DrawGLWirePass@CNCline@@UBEXW4RENDERMODE@@H@Z 0048a200 f   NCdataGL.obj
 0001:00089370       ?DrawGLLatheDepth@CNCline@@UBEXXZ 0048a370 f   NCdataGL.obj
 0001:00089c80       ?AddGLBottomFaceVertex@CNCline@@UBEHAAVCVBtmDraw@@H@Z 0048ac80 f   NCdataGL.obj
 0001:0008a520       ??1BOTTOMDRAW@@QAE@XZ      0048b520 f i NCdataGL.obj
 0001:0008a540       ?AddGLWireVertex@CNCline@@UBEHAAV?$vector@MV?$allocator@M@std@@@std@@0AAV?$vector@IV?$allocator@I@std@@@3@AAUWIRELINE@@H@Z 0048b540 f   NCdataGL.obj
 0001:0008a860       ?AddGLWireTexture@CNCline@@UBEHIAAMMPAM@Z 0048b860 f   NCdataGL.obj
 0001:0008a8c0       ?DrawGLWirePass@CNCcycle@@UBEXW4RENDERMODE@@H@Z 0048b8c0 f   NCdataGL.obj
 0001:0008aad0       ?DrawGLLatheDepth@CNCcycle@@UBEXXZ 0048bad0 f   NCdataGL.obj
 0001:0008ad20       ?AddGLBottomFaceVertex@CNCcycle@@UBEHAAVCVBtmDraw@@H@Z 0048bd20 f   NCdataGL.obj
 0001:0008af80       ?AddGLWireVertex@CNCcycle@@UBEHAAV?$vector@MV?$allocator@M@std@@@std@@0AAV?$vector@IV?$allocator@I@std@@@3@AAUWIRELINE@@H@Z 0048bf80 f   NCdataGL.obj
 0001:0008af90       ?DrawGLWirePass@CNCcircle@@UBEXW4RENDERMODE@@H@Z 0048bf90 f   NCdataGL.obj
 0001:0008b0d0       ?DrawGLLatheDepth@CNCcircle@@UBEXXZ 0048c0d0 f   NCdataGL.obj
 0001:0008b290       ?DrawGLWirePassCircle@CNCcircle@@ABEXABV?$CPoint3T@M@@0@Z 0048c290 f   NCdataGL.obj
 0001:0008b310       ?DrawGLWirePassCircle@CNCcircle@@ABEXPAUDRAWGLWIRECIRCLE@@@Z 0048c310 f   NCdataGL.obj
 0001:0008b830       ?AddGLBottomFaceVertex@CNCcircle@@UBEHAAVCVBtmDraw@@H@Z 0048c830 f   NCdataGL.obj
 0001:0008bbd0       ?SetEndmillXYPath@CNCcircle@@ABEXAAV?$vector@MV?$allocator@M@std@@@std@@@Z 0048cbd0 f   NCdataGL.obj
 0001:0008bf30       ?SetEndmillSquare@CNCcircle@@ABEXAAUBOTTOMDRAW@@AAVCVBtmDraw@@@Z 0048cf30 f   NCdataGL.obj
 0001:0008c490       ?SetEndmillBall@CNCcircle@@ABEXAAUBOTTOMDRAW@@AAVCVBtmDraw@@@Z 0048d490 f   NCdataGL.obj
 0001:0008ce90       ?SetEndmillChamferAndDrill@CNCcircle@@ABEXAAUBOTTOMDRAW@@AAVCVBtmDraw@@@Z 0048de90 f   NCdataGL.obj
 0001:0008d240       ?SetEndmillSpherePathCircle@CNCcircle@@ABEXMABV?$CPoint3T@M@@AAV?$vector@MV?$allocator@M@std@@@std@@@Z 0048e240 f   NCdataGL.obj
 0001:0008d350       ?SetEndmillPathXZ_Sphere@CNCcircle@@ABEXMABV?$CPoint3T@M@@AAV?$vector@MV?$allocator@M@std@@@std@@@Z 0048e350 f   NCdataGL.obj
 0001:0008d410       ?SetEndmillPathYZ_Sphere@CNCcircle@@ABEXMABV?$CPoint3T@M@@AAV?$vector@MV?$allocator@M@std@@@std@@@Z 0048e410 f   NCdataGL.obj
 0001:0008d4d0       ?AddEndmillPipe@CNCcircle@@ABEXIAAUBOTTOMDRAW@@AAVCVBtmDraw@@@Z 0048e4d0 f   NCdataGL.obj
 0001:0008d700       ?AddEndmillChamferAndDrill@CNCcircle@@ABEXAAUBOTTOMDRAW@@AAVCVBtmDraw@@@Z 0048e700 f   NCdataGL.obj
 0001:0008d8a0       ?AddGLWireVertex@CNCcircle@@UBEHAAV?$vector@MV?$allocator@M@std@@@std@@0AAV?$vector@IV?$allocator@I@std@@@3@AAUWIRELINE@@H@Z 0048e8a0 f   NCdataGL.obj
 0001:0008e160       ?AddGLWireTexture@CNCcircle@@UBEHIAAMMPAM@Z 0048f160 f   NCdataGL.obj
 0001:0008e240       ??1?$vector@ULATHEDRILLINFO@@V?$allocator@ULATHEDRILLINFO@@@std@@@std@@QAE@XZ 0048f240 f i NCMakeLathe.obj
 0001:0008e240       ??1?$vector@V?$CPoint3T@M@@V?$allocator@V?$CPoint3T@M@@@std@@@std@@QAE@XZ 0048f240 f i NCdataGL.obj
 0001:0008e240       ?_Tidy@?$vector@U?$sub_match@PBD@boost@@V?$allocator@U?$sub_match@PBD@boost@@@std@@@std@@AAEXXZ 0048f240 f i NCDoc.obj
 0001:0008e240       ?_Tidy@?$vector@U?$sub_match@V?$_String_const_iterator@V?$_String_val@U?$_Simple_types@D@std@@@std@@@std@@@boost@@V?$allocator@U?$sub_match@V?$_String_const_iterator@V?$_String_val@U?$_Simple_types@D@std@@@std@@@std@@@boost@@@std@@@std@@AAEXXZ 0048f240 f i NCDoc.obj
 0001:0008e2b0       ?insert@?$vector@MV?$allocator@M@std@@@std@@QAE?AV?$_Vector_iterator@V?$_Vector_val@U?$_Simple_types@M@std@@@std@@@2@V?$_Vector_const_iterator@V?$_Vector_val@U?$_Simple_types@M@std@@@std@@@2@IABM@Z 0048f2b0 f i NCdataGL.obj
 0001:0008e440       ?_Reallocate_exactly@?$vector@MV?$allocator@M@std@@@std@@AAEXI@Z 0048f440 f i NCdataGL.obj
 0001:0008e480       ??$_Uninitialized_fill_n@V?$allocator@M@std@@@std@@YAPAMPAMIABMAAV?$allocator@M@0@@Z 0048f480 f i NCdataGL.obj
 0001:0008e500       ??$fill@PAMM@std@@YAXQAM0ABM@Z 0048f500 f i NCdataGL.obj
 0001:0008e5c0       ??$_Insert_range@PAM@?$vector@MV?$allocator@M@std@@@std@@AAEXV?$_Vector_const_iterator@V?$_Vector_val@U?$_Simple_types@M@std@@@std@@@1@PAM1Uforward_iterator_tag@1@@Z 0048f5c0 f i NCdataGL.obj
 0001:0008e5c0       ??$_Insert_range@PBM@?$vector@MV?$allocator@M@std@@@std@@AAEXV?$_Vector_const_iterator@V?$_Vector_val@U?$_Simple_types@M@std@@@std@@@1@PBM1Uforward_iterator_tag@1@@Z 0048f5c0 f i NCdataGL.obj
 0001:0008e790       ??$_Assign_range@PBI@?$vector@IV?$allocator@I@std@@@std@@AAEXPBI0Uforward_iterator_tag@1@@Z 0048f790 f i NCdataGL.obj
 0001:0008e8d0       ??$_Emplace_reallocate@ABULATHEDRILLINFO@@@?$vector@ULATHEDRILLINFO@@V?$allocator@ULATHEDRILLINFO@@@std@@@std@@AAEPAULATHEDRILLINFO@@QAU2@ABU2@@Z 0048f8d0 f i NCMakeLatheOpt.obj
 0001:0008e8d0       ??$_Emplace_reallocate@ABV?$CPoint3T@M@@@?$vector@V?$CPoint3T@M@@V?$allocator@V?$CPoint3T@M@@@std@@@std@@AAEPAV?$CPoint3T@M@@QAV2@ABV2@@Z 0048f8d0 f i NCdataGL.obj
 0001:0008ea80       ??$_Emplace_reallocate@ABUBOTTOMDRAW@@@?$vector@UBOTTOMDRAW@@V?$allocator@UBOTTOMDRAW@@@std@@@std@@AAEPAUBOTTOMDRAW@@QAU2@ABU2@@Z 0048fa80 f i NCdataGL.obj
 0001:0008eca0       ?deallocate@?$allocator@UBOTTOMDRAW@@@std@@QAEXQAUBOTTOMDRAW@@I@Z 0048fca0 f i NCdataGL.obj
 0001:0008ece0       ??$construct@UBOTTOMDRAW@@ABU1@@?$_Default_allocator_traits@V?$allocator@UBOTTOMDRAW@@@std@@@std@@SAXAAV?$allocator@UBOTTOMDRAW@@@1@QAUBOTTOMDRAW@@ABU3@@Z 0048fce0 f i NCdataGL.obj
 0001:0008edb0       ??$_Uninitialized_move@PAUBOTTOMDRAW@@V?$allocator@UBOTTOMDRAW@@@std@@@std@@YAPAUBOTTOMDRAW@@QAU1@0PAU1@AAV?$allocator@UBOTTOMDRAW@@@0@@Z 0048fdb0 f i NCdataGL.obj
 0001:0008ee50       ??$_Destroy_range@V?$allocator@UBOTTOMDRAW@@@std@@@std@@YAXPAUBOTTOMDRAW@@QAU1@AAV?$allocator@UBOTTOMDRAW@@@0@@Z 0048fe50 f i NCdataGL.obj
 0001:0008ee80       ??0?$vector@IV?$allocator@I@std@@@std@@QAE@ABV01@@Z 0048fe80 f i NCdataGL.obj
 0001:0008ef00       ??0CNCblock@@QAE@ABV?$CStringT@DV?$StrTraitMFC_DLL@DV?$ChTraitsCRT@D@ATL@@@@@ATL@@K@Z 0048ff00 f i NCDoc.obj
 0001:0008efd0       ?SetNCBlkErrorCode@CNCblock@@QAEXI@Z 0048ffd0 f i NCDoc.obj
 0001:0008eff0       ?SetMaxRect@CNCDoc@@AAEXPBVCNCdata@@@Z 0048fff0 f i NCDoc.obj
 0001:0008f140       ?CreateObject@CNCDoc@@SGPAVCObject@@XZ 00490140 f   NCDoc.obj
 0001:0008f1b0       ?GetRuntimeClass@CNCDoc@@UBEPAUCRuntimeClass@@XZ 004901b0 f   NCDoc.obj
 0001:0008f1c0       ?GetMessageMap@CNCDoc@@MBEPBUAFX_MSGMAP@@XZ 004901c0 f   NCDoc.obj
 0001:0008f1d0       ??0CNCDoc@@IAE@XZ          004901d0 f   NCDoc.obj
 0001:0008f660       ??_ECNCDoc@@UAEPAXI@Z      00490660 f i * CIL library *:* CIL module *
 0001:0008f660       ??_GCNCDoc@@UAEPAXI@Z      00490660 f i NCDoc.obj
 0001:0008f6a0       ??1CNCDoc@@UAE@XZ          004906a0 f   NCDoc.obj
 0001:0008f870       ?CalcWorkFileRect@CNCDoc@@AAEXXZ 00490870 f   NCDoc.obj
 0001:0008fa20       ?ReadMCFile@CNCDoc@@QAEHPBD@Z 00490a20 f   NCDoc.obj
 0001:0008fc70       ?DataOperation@CNCDoc@@QAEPAVCNCdata@@PBV2@PAUtagNCARGV@@HW4ENNCOPERATION@@@Z 00490c70 f   NCDoc.obj
 0001:00090550       ?StrOperation@CNCDoc@@QAEXPBDHW4ENNCOPERATION@@@Z 00491550 f   NCDoc.obj
 0001:000906b0       ?RemoveObj@CNCDoc@@QAEXHH@Z 004916b0 f   NCDoc.obj
 0001:00090790       ?ClearBlockData@CNCDoc@@AAEXXZ 00491790 f   NCDoc.obj
 0001:00090800       ?SetCommentStr@CNCDoc@@QAEXABV?$CStringT@DV?$StrTraitMFC_DLL@DV?$ChTraitsCRT@D@ATL@@@@@ATL@@@Z 00491800 f   NCDoc.obj
 0001:00090ee0       ?CreateCutcalcThread@CNCDoc@@QAEXXZ 00491ee0 f   NCDoc.obj
 0001:00090fe0       ?SearchBlockRegex@CNCDoc@@QAEHAAV?$basic_regex@DU?$regex_traits@DV?$w32_regex_traits@D@boost@@@boost@@@boost@@HHH@Z 00491fe0 f   NCDoc.obj
 0001:00091410       ?IncrementTrace@CNCDoc@@QAEHAAH@Z 00492410 f   NCDoc.obj
 0001:000915a0       ?SetLineToTrace@CNCDoc@@QAEHHH@Z 004925a0 f   NCDoc.obj
 0001:00091690       ?InsertBlock@CNCDoc@@QAEXHABV?$CStringT@DV?$StrTraitMFC_DLL@DV?$ChTraitsCRT@D@ATL@@@@@ATL@@@Z 00492690 f   NCDoc.obj
 0001:000917e0       ?MakeDXF@CNCDoc@@AAEXPBVCDXFMakeOption@@@Z 004927e0 f   NCDoc.obj
 0001:00091d70       ?AddMacroFile@CNCDoc@@QAEXABV?$CStringT@DV?$StrTraitMFC_DLL@DV?$ChTraitsCRT@D@ATL@@@@@ATL@@@Z 00492d70 f   NCDoc.obj
 0001:00091df0       ?ReadThumbnail@CNCDoc@@QAEXPBD@Z 00492df0 f   NCDoc.obj
 0001:00092010       ?OnOpenDocument@CNCDoc@@UAEHPBD@Z 00493010 f   NCDoc.obj
 0001:000920f0       ?OnSaveDocument@CNCDoc@@UAEHPBD@Z 004930f0 f   NCDoc.obj
 0001:000921c0       ?OnCloseDocument@CNCDoc@@UAEXXZ 004931c0 f   NCDoc.obj
 0001:00092270       ?SetPathName@CNCDoc@@UAEXPBDH@Z 00493270 f   NCDoc.obj
 0001:00092330       ?OnChangedViewList@CNCDoc@@UAEXXZ 00493330 f   NCDoc.obj
 0001:00092350       ?Serialize@CNCDoc@@UAEXAAVCArchive@@@Z 00493350 f   NCDoc.obj
 0001:00092570       ?SerializeBlock@CNCDoc@@AAEXAAVCArchive@@AAV?$CTypedPtrArrayEx@VCPtrArray@@PAVCNCblock@@@@K@Z 00493570 f   NCDoc.obj
 0001:000927b0       ?SerializeAfterCheck@CNCDoc@@AAEHXZ 004937b0 f   NCDoc.obj
 0001:00092c50       ?SerializeInsertBlock@CNCDoc@@QAEHPBDHK@Z 00493c50 f   NCDoc.obj
 0001:00092de0       ?OnUpdateFileSave@CNCDoc@@IAEXPAVCCmdUI@@@Z 00493de0 f   NCDoc.obj
 0001:00092e00       ?OnFileNCD2DXF@CNCDoc@@IAEXXZ 00493e00 f   NCDoc.obj
 0001:000930c0       ?OnUpdateWorkRect@CNCDoc@@IAEXPAVCCmdUI@@@Z 004940c0 f   NCDoc.obj
 0001:00093100       ?OnWorkRect@CNCDoc@@IAEXXZ 00494100 f   NCDoc.obj
 0001:00093250       ?OnUpdateMaxRect@CNCDoc@@IAEXPAVCCmdUI@@@Z 00494250 f   NCDoc.obj
 0001:00093290       ?OnMaxRect@CNCDoc@@IAEXXZ  00494290 f   NCDoc.obj
 0001:000932b0       ??$regex_search@U?$char_traits@D@std@@V?$allocator@D@2@DU?$regex_traits@DV?$w32_regex_traits@D@boost@@@boost@@@boost@@YA_NABV?$basic_string@DU?$char_traits@D@std@@V?$allocator@D@2@@std@@ABV?$basic_regex@DU?$regex_traits@DV?$w32_regex_traits@D@boost@@@boost@@@0@W4_match_flags@regex_constants@0@@Z 004942b0 f i NCDoc.obj
 0001:000933d0       ??$regex_search@PBDDU?$regex_traits@DV?$w32_regex_traits@D@boost@@@boost@@@boost@@YA_NPBD0ABV?$basic_regex@DU?$regex_traits@DV?$w32_regex_traits@D@boost@@@boost@@@0@W4_match_flags@regex_constants@0@@Z 004943d0 f i NCDoc.obj
 0001:00093600       ??$regex_replace@V?$string_out_iterator@V?$basic_string@DU?$char_traits@D@std@@V?$allocator@D@2@@std@@@re_detail_500@boost@@V?$_String_const_iterator@V?$_String_val@U?$_Simple_types@D@std@@@std@@@std@@U?$regex_traits@DV?$w32_regex_traits@D@boost@@@3@DPBD@boost@@YA?AV?$string_out_iterator@V?$basic_string@DU?$char_traits@D@std@@V?$allocator@D@2@@std@@@re_detail_500@0@V120@V?$_String_const_iterator@V?$_String_val@U?$_Simple_types@D@std@@@std@@@std@@1ABV?$basic_regex@DU?$regex_traits@DV?$w32_regex_traits@D@boost@@@boost@@@0@PBDW4_match_flags@regex_constants@0@@Z 00494600 f i NCDoc.obj
 0001:00093810       ??1?$perl_matcher@PBDV?$allocator@U?$sub_match@PBD@boost@@@std@@U?$regex_traits@DV?$w32_regex_traits@D@boost@@@boost@@@re_detail_500@boost@@QAE@XZ 00494810 f i NCDoc.obj
 0001:00093810       ??1?$perl_matcher@V?$_String_const_iterator@V?$_String_val@U?$_Simple_types@D@std@@@std@@@std@@V?$allocator@U?$sub_match@V?$_String_const_iterator@V?$_String_val@U?$_Simple_types@D@std@@@std@@@std@@@boost@@@2@U?$regex_traits@DV?$w32_regex_traits@D@boost@@@boost@@@re_detail_500@boost@@QAE@XZ 00494810 f i NCDoc.obj
 0001:00093870       ??1?$vector@U?$recursion_info@V?$match_results@PBDV?$allocator@U?$sub_match@PBD@boost@@@std@@@boost@@@re_detail_500@boost@@V?$allocator@U?$recursion_info@V?$match_results@PBDV?$allocator@U?$sub_match@PBD@boost@@@std@@@boost@@@re_detail_500@boost@@@std@@@std@@QAE@XZ 00494870 f i NCDoc.obj
 0001:00093870       ??1?$vector@U?$recursion_info@V?$match_results@V?$_String_const_iterator@V?$_String_val@U?$_Simple_types@D@std@@@std@@@std@@V?$allocator@U?$sub_match@V?$_String_const_iterator@V?$_String_val@U?$_Simple_types@D@std@@@std@@@std@@@boost@@@2@@boost@@@re_detail_500@boost@@V?$allocator@U?$recursion_info@V?$match_results@V?$_String_const_iterator@V?$_String_val@U?$_Simple_types@D@std@@@std@@@std@@V?$allocator@U?$sub_match@V?$_String_const_iterator@V?$_String_val@U?$_Simple_types@D@std@@@std@@@std@@@boost@@@2@@boost@@@re_detail_500@boost@@@std@@@std@@QAE@XZ 00494870 f i NCDoc.obj
 0001:000938f0       ??1?$repeater_count@PBD@re_detail_500@boost@@QAE@XZ 004948f0 f i NCDoc.obj
 0001:000938f0       ??1?$repeater_count@V?$_String_const_iterator@V?$_String_val@U?$_Simple_types@D@std@@@std@@@std@@@re_detail_500@boost@@QAE@XZ 004948f0 f i NCDoc.obj
 0001:00093900       ??1?$unique_ptr@V?$match_results@PBDV?$allocator@U?$sub_match@PBD@boost@@@std@@@boost@@U?$default_delete@V?$match_results@PBDV?$allocator@U?$sub_match@PBD@boost@@@std@@@boost@@@std@@@std@@QAE@XZ 00494900 f i NCDoc.obj
 0001:00093900       ??1?$unique_ptr@V?$match_results@V?$_String_const_iterator@V?$_String_val@U?$_Simple_types@D@std@@@std@@@std@@V?$allocator@U?$sub_match@V?$_String_const_iterator@V?$_String_val@U?$_Simple_types@D@std@@@std@@@std@@@boost@@@2@@boost@@U?$default_delete@V?$match_results@V?$_String_const_iterator@V?$_String_val@U?$_Simple_types@D@std@@@std@@@std@@V?$allocator@U?$sub_match@V?$_String_const_iterator@V?$_String_val@U?$_Simple_types@D@std@@@std@@@std@@@boost@@@2@@boost@@@std@@@std@@QAE@XZ 00494900 f i NCDoc.obj
 0001:00093950       ??0?$perl_matcher@V?$_String_const_iterator@V?$_String_val@U?$_Simple_types@D@std@@@std@@@std@@V?$allocator@U?$sub_match@V?$_String_const_iterator@V?$_String_val@U?$_Simple_types@D@std@@@std@@@std@@@boost@@@2@U?$regex_traits@DV?$w32_regex_traits@D@boost@@@boost@@@re_detail_500@boost@@QAE@V?$_String_const_iterator@V?$_String_val@U?$_Simple_types@D@std@@@std@@@std@@0AAV?$match_results@V?$_String_const_iterator@V?$_String_val@U?$_Simple_types@D@std@@@std@@@std@@V?$allocator@U?$sub_match@V?$_String_const_iterator@V?$_String_val@U?$_Simple_types@D@std@@@std@@@std@@@boost@@@2@@2@ABV?$basic_regex@DU?$regex_traits@DV?$w32_regex_traits@D@boost@@@boost@@@2@W4_match_flags@regex_constants@2@0@Z 00494950 f i NCDoc.obj
 0001:00093a30       ??A?$match_results@PBDV?$allocator@U?$sub_match@PBD@boost@@@std@@@boost@@QBEABU?$sub_match@PBD@1@H@Z 00494a30 f i NCDoc.obj
 0001:00093a30       ??A?$match_results@V?$_String_const_iterator@V?$_String_val@U?$_Simple_types@D@std@@@std@@@std@@V?$allocator@U?$sub_match@V?$_String_const_iterator@V?$_String_val@U?$_Simple_types@D@std@@@std@@@std@@@boost@@@2@@boost@@QBEABU?$sub_match@V?$_String_const_iterator@V?$_String_val@U?$_Simple_types@D@std@@@std@@@std@@@1@H@Z 00494a30 f i NCDoc.obj
 0001:00093a90       ??1?$match_results@PBDV?$allocator@U?$sub_match@PBD@boost@@@std@@@boost@@QAE@XZ 00494a90 f i NCDoc.obj
 0001:00093a90       ??1?$match_results@V?$_String_const_iterator@V?$_String_val@U?$_Simple_types@D@std@@@std@@@std@@V?$allocator@U?$sub_match@V?$_String_const_iterator@V?$_String_val@U?$_Simple_types@D@std@@@std@@@std@@@boost@@@2@@boost@@QAE@XZ 00494a90 f i NCDoc.obj
 0001:00093ad0       ??E?$regex_iterator@V?$_String_const_iterator@V?$_String_val@U?$_Simple_types@D@std@@@std@@@std@@DU?$regex_traits@DV?$w32_regex_traits@D@boost@@@boost@@@boost@@QAEAAV01@XZ 00494ad0 f i NCDoc.obj
 0001:00093cd0       ??8?$regex_iterator@V?$_String_const_iterator@V?$_String_val@U?$_Simple_types@D@std@@@std@@@std@@DU?$regex_traits@DV?$w32_regex_traits@D@boost@@@boost@@@boost@@QBE_NABV01@@Z 00494cd0 f i NCDoc.obj
 0001:00093e10       ??0?$regex_iterator@V?$_String_const_iterator@V?$_String_val@U?$_Simple_types@D@std@@@std@@@std@@DU?$regex_traits@DV?$w32_regex_traits@D@boost@@@boost@@@boost@@QAE@V?$_String_const_iterator@V?$_String_val@U?$_Simple_types@D@std@@@std@@@std@@0ABV?$basic_regex@DU?$regex_traits@DV?$w32_regex_traits@D@boost@@@boost@@@1@W4_match_flags@regex_constants@1@@Z 00494e10 f i NCDoc.obj
 0001:00093fb0       ?raise_logic_error@?$match_results@PBDV?$allocator@U?$sub_match@PBD@boost@@@std@@@boost@@CAXXZ 00494fb0 f i NCDoc.obj
 0001:00093fb0       ?raise_logic_error@?$match_results@V?$_String_const_iterator@V?$_String_val@U?$_Simple_types@D@std@@@std@@@std@@V?$allocator@U?$sub_match@V?$_String_const_iterator@V?$_String_val@U?$_Simple_types@D@std@@@std@@@std@@@boost@@@2@@boost@@CAXXZ 00494fb0 f i NCDoc.obj
 0001:00094000       ?deallocate@?$allocator@U?$recursion_info@V?$match_results@PBDV?$allocator@U?$sub_match@PBD@boost@@@std@@@boost@@@re_detail_500@boost@@@std@@QAEXQAU?$recursion_info@V?$match_results@PBDV?$allocator@U?$sub_match@PBD@boost@@@std@@@boost@@@re_detail_500@boost@@I@Z 00495000 f i NCDoc.obj
 0001:00094000       ?deallocate@?$allocator@U?$recursion_info@V?$match_results@V?$_String_const_iterator@V?$_String_val@U?$_Simple_types@D@std@@@std@@@std@@V?$allocator@U?$sub_match@V?$_String_const_iterator@V?$_String_val@U?$_Simple_types@D@std@@@std@@@std@@@boost@@@2@@boost@@@re_detail_500@boost@@@std@@QAEXQAU?$recursion_info@V?$match_results@V?$_String_const_iterator@V?$_String_val@U?$_Simple_types@D@std@@@std@@@std@@V?$allocator@U?$sub_match@V?$_String_const_iterator@V?$_String_val@U?$_Simple_types@D@std@@@std@@@std@@@boost@@@2@@boost@@@re_detail_500@boost@@I@Z 00495000 f i NCDoc.obj
 0001:00094040       ??0?$match_results@PBDV?$allocator@U?$sub_match@PBD@boost@@@std@@@boost@@QAE@ABV01@@Z 00495040 f i NCDoc.obj
 0001:00094040       ??0?$match_results@V?$_String_const_iterator@V?$_String_val@U?$_Simple_types@D@std@@@std@@@std@@V?$allocator@U?$sub_match@V?$_String_const_iterator@V?$_String_val@U?$_Simple_types@D@std@@@std@@@std@@@boost@@@2@@boost@@QAE@ABV01@@Z 00495040 f i NCDoc.obj
 0001:00094150       ?construct_init@?$perl_matcher@PBDV?$allocator@U?$sub_match@PBD@boost@@@std@@U?$regex_traits@DV?$w32_regex_traits@D@boost@@@boost@@@re_detail_500@boost@@AAEXABV?$basic_regex@DU?$regex_traits@DV?$w32_regex_traits@D@boost@@@boost@@@3@W4_match_flags@regex_constants@3@@Z 00495150 f i NCDoc.obj
 0001:00094150       ?construct_init@?$perl_matcher@V?$_String_const_iterator@V?$_String_val@U?$_Simple_types@D@std@@@std@@@std@@V?$allocator@U?$sub_match@V?$_String_const_iterator@V?$_String_val@U?$_Simple_types@D@std@@@std@@@std@@@boost@@@2@U?$regex_traits@DV?$w32_regex_traits@D@boost@@@boost@@@re_detail_500@boost@@AAEXABV?$basic_regex@DU?$regex_traits@DV?$w32_regex_traits@D@boost@@@boost@@@3@W4_match_flags@regex_constants@3@@Z 00495150 f i NCDoc.obj
 0001:000943d0       ??$?0V?$regex_iterator_implementation@V?$_String_const_iterator@V?$_String_val@U?$_Simple_types@D@std@@@std@@@std@@DU?$regex_traits@DV?$w32_regex_traits@D@boost@@@boost@@@boost@@$0A@@?$shared_ptr@V?$regex_iterator_implementation@V?$_String_const_iterator@V?$_String_val@U?$_Simple_types@D@std@@@std@@@std@@DU?$regex_traits@DV?$w32_regex_traits@D@boost@@@boost@@@boost@@@std@@QAE@PAV?$regex_iterator_implementation@V?$_String_const_iterator@V?$_String_val@U?$_Simple_types@D@std@@@std@@@std@@DU?$regex_traits@DV?$w32_regex_traits@D@boost@@@boost@@@boost@@@Z 004953d0 f i NCDoc.obj
 0001:00094470       ??$regex_search@V?$_String_const_iterator@V?$_String_val@U?$_Simple_types@D@std@@@std@@@std@@V?$allocator@U?$sub_match@V?$_String_const_iterator@V?$_String_val@U?$_Simple_types@D@std@@@std@@@std@@@boost@@@2@DU?$regex_traits@DV?$w32_regex_traits@D@boost@@@boost@@@boost@@YA_NV?$_String_const_iterator@V?$_String_val@U?$_Simple_types@D@std@@@std@@@std@@0AAV?$match_results@V?$_String_const_iterator@V?$_String_val@U?$_Simple_types@D@std@@@std@@@std@@V?$allocator@U?$sub_match@V?$_String_const_iterator@V?$_String_val@U?$_Simple_types@D@std@@@std@@@std@@@boost@@@2@@0@ABV?$basic_regex@DU?$regex_traits@DV?$w32_regex_traits@D@boost@@@boost@@@0@W4_match_flags@regex_constants@0@0@Z 00495470 f i NCDoc.obj
 0001:00094510       ??$_Destroy_range@V?$allocator@U?$recursion_info@V?$match_results@PBDV?$allocator@U?$sub_match@PBD@boost@@@std@@@boost@@@re_detail_500@boost@@@std@@@std@@YAXPAU?$recursion_info@V?$match_results@PBDV?$allocator@U?$sub_match@PBD@boost@@@std@@@boost@@@re_detail_500@boost@@QAU123@AAV?$allocator@U?$recursion_info@V?$match_results@PBDV?$allocator@U?$sub_match@PBD@boost@@@std@@@boost@@@re_detail_500@boost@@@0@@Z 00495510 f i NCDoc.obj
 0001:00094510       ??$_Destroy_range@V?$allocator@U?$recursion_info@V?$match_results@V?$_String_const_iterator@V?$_String_val@U?$_Simple_types@D@std@@@std@@@std@@V?$allocator@U?$sub_match@V?$_String_const_iterator@V?$_String_val@U?$_Simple_types@D@std@@@std@@@std@@@boost@@@2@@boost@@@re_detail_500@boost@@@std@@@std@@YAXPAU?$recursion_info@V?$match_results@V?$_String_const_iterator@V?$_String_val@U?$_Simple_types@D@std@@@std@@@std@@V?$allocator@U?$sub_match@V?$_String_const_iterator@V?$_String_val@U?$_Simple_types@D@std@@@std@@@std@@@boost@@@2@@boost@@@re_detail_500@boost@@QAU123@AAV?$allocator@U?$recursion_info@V?$match_results@V?$_String_const_iterator@V?$_String_val@U?$_Simple_types@D@std@@@std@@@std@@V?$allocator@U?$sub_match@V?$_String_const_iterator@V?$_String_val@U?$_Simple_types@D@std@@@std@@@std@@@boost@@@2@@boost@@@re_detail_500@boost@@@0@@Z 00495510 f i NCDoc.obj
 0001:00094560       ?_Destroy@?$_Ref_count@V?$regex_iterator_implementation@V?$_String_const_iterator@V?$_String_val@U?$_Simple_types@D@std@@@std@@@std@@DU?$regex_traits@DV?$w32_regex_traits@D@boost@@@boost@@@boost@@@std@@EAEXXZ 00495560 f i NCDoc.obj
 0001:00094570       ??1?$_Temporary_owner@V?$regex_iterator_implementation@V?$_String_const_iterator@V?$_String_val@U?$_Simple_types@D@std@@@std@@@std@@DU?$regex_traits@DV?$w32_regex_traits@D@boost@@@boost@@@boost@@@std@@QAE@XZ 00495570 f i NCDoc.obj
 0001:00094580       ??_G?$regex_iterator_implementation@V?$_String_const_iterator@V?$_String_val@U?$_Simple_types@D@std@@@std@@@std@@DU?$regex_traits@DV?$w32_regex_traits@D@boost@@@boost@@@boost@@QAEPAXI@Z 00495580 f i NCDoc.obj
 0001:000945f0       ?find_imp@?$perl_matcher@PBDV?$allocator@U?$sub_match@PBD@boost@@@std@@U?$regex_traits@DV?$w32_regex_traits@D@boost@@@boost@@@re_detail_500@boost@@AAE_NXZ 004955f0 f i NCDoc.obj
 0001:000948f0       ?find_imp@?$perl_matcher@V?$_String_const_iterator@V?$_String_val@U?$_Simple_types@D@std@@@std@@@std@@V?$allocator@U?$sub_match@V?$_String_const_iterator@V?$_String_val@U?$_Simple_types@D@std@@@std@@@std@@@boost@@@2@U?$regex_traits@DV?$w32_regex_traits@D@boost@@@boost@@@re_detail_500@boost@@AAE_NXZ 004958f0 f i NCDoc.obj
 0001:00094bf0       ??$throw_exception@Vinvalid_argument@std@@@boost@@YAXABVinvalid_argument@std@@@Z 00495bf0 f i NCDoc.obj
 0001:00094c20       ??0?$wrapexcept@Vinvalid_argument@std@@@boost@@QAE@ABU01@@Z 00495c20 f i NCDoc.obj
 0001:00094cf0       ??0invalid_argument@std@@QAE@ABV01@@Z 00495cf0 f i NCDoc.obj
 0001:00094d30       ??1?$recursion_info@V?$match_results@PBDV?$allocator@U?$sub_match@PBD@boost@@@std@@@boost@@@re_detail_500@boost@@QAE@XZ 00495d30 f i NCDoc.obj
 0001:00094d30       ??1?$recursion_info@V?$match_results@V?$_String_const_iterator@V?$_String_val@U?$_Simple_types@D@std@@@std@@@std@@V?$allocator@U?$sub_match@V?$_String_const_iterator@V?$_String_val@U?$_Simple_types@D@std@@@std@@@std@@@boost@@@2@@boost@@@re_detail_500@boost@@QAE@XZ 00495d30 f i NCDoc.obj
 0001:00094d70       ?rethrow@?$wrapexcept@Vinvalid_argument@std@@@boost@@UBEXXZ 00495d70 f i NCDoc.obj
 0001:00094da0       ?clone@?$wrapexcept@Vinvalid_argument@std@@@boost@@UBEPBVclone_base@exception_detail@2@XZ 00495da0 f i NCDoc.obj
 0001:00094e30       ??0?$wrapexcept@Vinvalid_argument@std@@@boost@@QAE@ABVinvalid_argument@std@@@Z 00495e30 f i NCDoc.obj
 0001:00094ea0       ?set_size@?$match_results@V?$_String_const_iterator@V?$_String_val@U?$_Simple_types@D@std@@@std@@@std@@V?$allocator@U?$sub_match@V?$_String_const_iterator@V?$_String_val@U?$_Simple_types@D@std@@@std@@@std@@@boost@@@2@@boost@@QAEXIV?$_String_const_iterator@V?$_String_val@U?$_Simple_types@D@std@@@std@@@std@@0@Z 00495ea0 f i NCDoc.obj
 0001:00094f50       ?set_size@?$match_results@PBDV?$allocator@U?$sub_match@PBD@boost@@@std@@@boost@@QAEXIPBD0@Z 00495f50 f i NCDoc.obj
 0001:00095010       ?insert@?$vector@U?$sub_match@PBD@boost@@V?$allocator@U?$sub_match@PBD@boost@@@std@@@std@@QAE?AV?$_Vector_iterator@V?$_Vector_val@U?$_Simple_types@U?$sub_match@PBD@boost@@@std@@@std@@@2@V?$_Vector_const_iterator@V?$_Vector_val@U?$_Simple_types@U?$sub_match@PBD@boost@@@std@@@std@@@2@IABU?$sub_match@PBD@boost@@@Z 00496010 f i NCDoc.obj
 0001:00095010       ?insert@?$vector@U?$sub_match@V?$_String_const_iterator@V?$_String_val@U?$_Simple_types@D@std@@@std@@@std@@@boost@@V?$allocator@U?$sub_match@V?$_String_const_iterator@V?$_String_val@U?$_Simple_types@D@std@@@std@@@std@@@boost@@@std@@@std@@QAE?AV?$_Vector_iterator@V?$_Vector_val@U?$_Simple_types@U?$sub_match@V?$_String_const_iterator@V?$_String_val@U?$_Simple_types@D@std@@@std@@@std@@@boost@@@std@@@std@@@2@V?$_Vector_const_iterator@V?$_Vector_val@U?$_Simple_types@U?$sub_match@V?$_String_const_iterator@V?$_String_val@U?$_Simple_types@D@std@@@std@@@std@@@boost@@@std@@@std@@@2@IABU?$sub_match@V?$_String_const_iterator@V?$_String_val@U?$_Simple_types@D@std@@@std@@@std@@@boost@@@Z 00496010 f i NCDoc.obj
 0001:000953e0       ?match_prefix@?$perl_matcher@PBDV?$allocator@U?$sub_match@PBD@boost@@@std@@U?$regex_traits@DV?$w32_regex_traits@D@boost@@@boost@@@re_detail_500@boost@@AAE_NXZ 004963e0 f i NCDoc.obj
 0001:00095490       ?find_restart_any@?$perl_matcher@PBDV?$allocator@U?$sub_match@PBD@boost@@@std@@U?$regex_traits@DV?$w32_regex_traits@D@boost@@@boost@@@re_detail_500@boost@@AAE_NXZ 00496490 f i NCDoc.obj
 0001:00095500       ?find_restart_word@?$perl_matcher@PBDV?$allocator@U?$sub_match@PBD@boost@@@std@@U?$regex_traits@DV?$w32_regex_traits@D@boost@@@boost@@@re_detail_500@boost@@AAE_NXZ 00496500 f i NCDoc.obj
 0001:00095610       ?find_restart_line@?$perl_matcher@PBDV?$allocator@U?$sub_match@PBD@boost@@@std@@U?$regex_traits@DV?$w32_regex_traits@D@boost@@@boost@@@re_detail_500@boost@@AAE_NXZ 00496610 f i NCDoc.obj
 0001:000956b0       ?find_restart_buf@?$perl_matcher@PBDV?$allocator@U?$sub_match@PBD@boost@@@std@@U?$regex_traits@DV?$w32_regex_traits@D@boost@@@boost@@@re_detail_500@boost@@AAE_NXZ 004966b0 f i NCDoc.obj
 0001:000956d0       ?unwind@?$perl_matcher@PBDV?$allocator@U?$sub_match@PBD@boost@@@std@@U?$regex_traits@DV?$w32_regex_traits@D@boost@@@boost@@@re_detail_500@boost@@AAE_N_N@Z 004966d0 f i NCDoc.obj
 0001:00095710       ?match_prefix@?$perl_matcher@V?$_String_const_iterator@V?$_String_val@U?$_Simple_types@D@std@@@std@@@std@@V?$allocator@U?$sub_match@V?$_String_const_iterator@V?$_String_val@U?$_Simple_types@D@std@@@std@@@std@@@boost@@@2@U?$regex_traits@DV?$w32_regex_traits@D@boost@@@boost@@@re_detail_500@boost@@AAE_NXZ 00496710 f i NCDoc.obj
 0001:000957c0       ?find_restart_any@?$perl_matcher@V?$_String_const_iterator@V?$_String_val@U?$_Simple_types@D@std@@@std@@@std@@V?$allocator@U?$sub_match@V?$_String_const_iterator@V?$_String_val@U?$_Simple_types@D@std@@@std@@@std@@@boost@@@2@U?$regex_traits@DV?$w32_regex_traits@D@boost@@@boost@@@re_detail_500@boost@@AAE_NXZ 004967c0 f i NCDoc.obj
 0001:00095830       ?find_restart_word@?$perl_matcher@V?$_String_const_iterator@V?$_String_val@U?$_Simple_types@D@std@@@std@@@std@@V?$allocator@U?$sub_match@V?$_String_const_iterator@V?$_String_val@U?$_Simple_types@D@std@@@std@@@std@@@boost@@@2@U?$regex_traits@DV?$w32_regex_traits@D@boost@@@boost@@@re_detail_500@boost@@AAE_NXZ 00496830 f i NCDoc.obj
 0001:00095920       ?find_restart_line@?$perl_matcher@V?$_String_const_iterator@V?$_String_val@U?$_Simple_types@D@std@@@std@@@std@@V?$allocator@U?$sub_match@V?$_String_const_iterator@V?$_String_val@U?$_Simple_types@D@std@@@std@@@std@@@boost@@@2@U?$regex_traits@DV?$w32_regex_traits@D@boost@@@boost@@@re_detail_500@boost@@AAE_NXZ 00496920 f i NCDoc.obj
 0001:000959c0       ?find_restart_buf@?$perl_matcher@V?$_String_const_iterator@V?$_String_val@U?$_Simple_types@D@std@@@std@@@std@@V?$allocator@U?$sub_match@V?$_String_const_iterator@V?$_String_val@U?$_Simple_types@D@std@@@std@@@std@@@boost@@@2@U?$regex_traits@DV?$w32_regex_traits@D@boost@@@boost@@@re_detail_500@boost@@AAE_NXZ 004969c0 f i NCDoc.obj
 0001:000959e0       ?unwind@?$perl_matcher@V?$_String_const_iterator@V?$_String_val@U?$_Simple_types@D@std@@@std@@@std@@V?$allocator@U?$sub_match@V?$_String_const_iterator@V?$_String_val@U?$_Simple_types@D@std@@@std@@@std@@@boost@@@2@U?$regex_traits@DV?$w32_regex_traits@D@boost@@@boost@@@re_detail_500@boost@@AAE_N_N@Z 004969e0 f i NCDoc.obj
 0001:00095a20       ?set_first@?$match_results@V?$_String_const_iterator@V?$_String_val@U?$_Simple_types@D@std@@@std@@@std@@V?$allocator@U?$sub_match@V?$_String_const_iterator@V?$_String_val@U?$_Simple_types@D@std@@@std@@@std@@@boost@@@2@@boost@@QAEXV?$_String_const_iterator@V?$_String_val@U?$_Simple_types@D@std@@@std@@@std@@@Z 00496a20 f i NCDoc.obj
 0001:00095ab0       ?set_first@?$match_results@PBDV?$allocator@U?$sub_match@PBD@boost@@@std@@@boost@@QAEXPBD@Z 00496ab0 f i NCDoc.obj
 0001:00095b30       ?maybe_assign@?$match_results@PBDV?$allocator@U?$sub_match@PBD@boost@@@std@@@boost@@QAEXABV12@@Z 00496b30 f i NCDoc.obj
 0001:00095d00       ?maybe_assign@?$match_results@V?$_String_const_iterator@V?$_String_val@U?$_Simple_types@D@std@@@std@@@std@@V?$allocator@U?$sub_match@V?$_String_const_iterator@V?$_String_val@U?$_Simple_types@D@std@@@std@@@std@@@boost@@@2@@boost@@QAEXABV12@@Z 00496d00 f i NCDoc.obj
 0001:00095ed0       ?match_all_states@?$perl_matcher@PBDV?$allocator@U?$sub_match@PBD@boost@@@std@@U?$regex_traits@DV?$w32_regex_traits@D@boost@@@boost@@@re_detail_500@boost@@AAE_NXZ 00496ed0 f i NCDoc.obj
 0001:00096060       ?unwind_end@?$perl_matcher@PBDV?$allocator@U?$sub_match@PBD@boost@@@std@@U?$regex_traits@DV?$w32_regex_traits@D@boost@@@boost@@@re_detail_500@boost@@AAE_N_N@Z 00497060 f i NCDoc.obj
 0001:00096060       ?unwind_end@?$perl_matcher@V?$_String_const_iterator@V?$_String_val@U?$_Simple_types@D@std@@@std@@@std@@V?$allocator@U?$sub_match@V?$_String_const_iterator@V?$_String_val@U?$_Simple_types@D@std@@@std@@@std@@@boost@@@2@U?$regex_traits@DV?$w32_regex_traits@D@boost@@@boost@@@re_detail_500@boost@@AAE_N_N@Z 00497060 f i NCDoc.obj
 0001:00096070       ?unwind_paren@?$perl_matcher@PBDV?$allocator@U?$sub_match@PBD@boost@@@std@@U?$regex_traits@DV?$w32_regex_traits@D@boost@@@boost@@@re_detail_500@boost@@AAE_N_N@Z 00497070 f i NCDoc.obj
 0001:00096130       ?unwind_recursion_stopper@?$perl_matcher@PBDV?$allocator@U?$sub_match@PBD@boost@@@std@@U?$regex_traits@DV?$w32_regex_traits@D@boost@@@boost@@@re_detail_500@boost@@AAE_N_N@Z 00497130 f i NCDoc.obj
 0001:00096130       ?unwind_recursion_stopper@?$perl_matcher@V?$_String_const_iterator@V?$_String_val@U?$_Simple_types@D@std@@@std@@@std@@V?$allocator@U?$sub_match@V?$_String_const_iterator@V?$_String_val@U?$_Simple_types@D@std@@@std@@@std@@@boost@@@2@U?$regex_traits@DV?$w32_regex_traits@D@boost@@@boost@@@re_detail_500@boost@@AAE_N_N@Z 00497130 f i NCDoc.obj
 0001:00096140       ?unwind_assertion@?$perl_matcher@PBDV?$allocator@U?$sub_match@PBD@boost@@@std@@U?$regex_traits@DV?$w32_regex_traits@D@boost@@@boost@@@re_detail_500@boost@@AAE_N_N@Z 00497140 f i NCDoc.obj
 0001:00096140       ?unwind_assertion@?$perl_matcher@V?$_String_const_iterator@V?$_String_val@U?$_Simple_types@D@std@@@std@@@std@@V?$allocator@U?$sub_match@V?$_String_const_iterator@V?$_String_val@U?$_Simple_types@D@std@@@std@@@std@@@boost@@@2@U?$regex_traits@DV?$w32_regex_traits@D@boost@@@boost@@@re_detail_500@boost@@AAE_N_N@Z 00497140 f i NCDoc.obj
 0001:00096190       ?unwind_alt@?$perl_matcher@PBDV?$allocator@U?$sub_match@PBD@boost@@@std@@U?$regex_traits@DV?$w32_regex_traits@D@boost@@@boost@@@re_detail_500@boost@@AAE_N_N@Z 00497190 f i NCDoc.obj
 0001:00096190       ?unwind_alt@?$perl_matcher@V?$_String_const_iterator@V?$_String_val@U?$_Simple_types@D@std@@@std@@@std@@V?$allocator@U?$sub_match@V?$_String_const_iterator@V?$_String_val@U?$_Simple_types@D@std@@@std@@@std@@@boost@@@2@U?$regex_traits@DV?$w32_regex_traits@D@boost@@@boost@@@re_detail_500@boost@@AAE_N_N@Z 00497190 f i NCDoc.obj
 0001:000961c0       ?unwind_repeater_counter@?$perl_matcher@PBDV?$allocator@U?$sub_match@PBD@boost@@@std@@U?$regex_traits@DV?$w32_regex_traits@D@boost@@@boost@@@re_detail_500@boost@@AAE_N_N@Z 004971c0 f i NCDoc.obj
 0001:000961c0       ?unwind_repeater_counter@?$perl_matcher@V?$_String_const_iterator@V?$_String_val@U?$_Simple_types@D@std@@@std@@@std@@V?$allocator@U?$sub_match@V?$_String_const_iterator@V?$_String_val@U?$_Simple_types@D@std@@@std@@@std@@@boost@@@2@U?$regex_traits@DV?$w32_regex_traits@D@boost@@@boost@@@re_detail_500@boost@@AAE_N_N@Z 004971c0 f i NCDoc.obj
 0001:000961e0       ?unwind_extra_block@?$perl_matcher@PBDV?$allocator@U?$sub_match@PBD@boost@@@std@@U?$regex_traits@DV?$w32_regex_traits@D@boost@@@boost@@@re_detail_500@boost@@AAE_N_N@Z 004971e0 f i NCDoc.obj
 0001:000961e0       ?unwind_extra_block@?$perl_matcher@V?$_String_const_iterator@V?$_String_val@U?$_Simple_types@D@std@@@std@@@std@@V?$allocator@U?$sub_match@V?$_String_const_iterator@V?$_String_val@U?$_Simple_types@D@std@@@std@@@std@@@boost@@@2@U?$regex_traits@DV?$w32_regex_traits@D@boost@@@boost@@@re_detail_500@boost@@AAE_N_N@Z 004971e0 f i NCDoc.obj
 0001:00096210       ?unwind_greedy_single_repeat@?$perl_matcher@PBDV?$allocator@U?$sub_match@PBD@boost@@@std@@U?$regex_traits@DV?$w32_regex_traits@D@boost@@@boost@@@re_detail_500@boost@@AAE_N_N@Z 00497210 f i NCDoc.obj
 0001:000962a0       ?unwind_slow_dot_repeat@?$perl_matcher@PBDV?$allocator@U?$sub_match@PBD@boost@@@std@@U?$regex_traits@DV?$w32_regex_traits@D@boost@@@boost@@@re_detail_500@boost@@AAE_N_N@Z 004972a0 f i NCDoc.obj
 0001:000963e0       ?unwind_fast_dot_repeat@?$perl_matcher@PBDV?$allocator@U?$sub_match@PBD@boost@@@std@@U?$regex_traits@DV?$w32_regex_traits@D@boost@@@boost@@@re_detail_500@boost@@AAE_N_N@Z 004973e0 f i NCDoc.obj
 0001:000964d0       ?unwind_char_repeat@?$perl_matcher@PBDV?$allocator@U?$sub_match@PBD@boost@@@std@@U?$regex_traits@DV?$w32_regex_traits@D@boost@@@boost@@@re_detail_500@boost@@AAE_N_N@Z 004974d0 f i NCDoc.obj
 0001:000964d0       ?unwind_char_repeat@?$perl_matcher@V?$_String_const_iterator@V?$_String_val@U?$_Simple_types@D@std@@@std@@@std@@V?$allocator@U?$sub_match@V?$_String_const_iterator@V?$_String_val@U?$_Simple_types@D@std@@@std@@@std@@@boost@@@2@U?$regex_traits@DV?$w32_regex_traits@D@boost@@@boost@@@re_detail_500@boost@@AAE_N_N@Z 004974d0 f i NCDoc.obj
 0001:000965f0       ?unwind_short_set_repeat@?$perl_matcher@PBDV?$allocator@U?$sub_match@PBD@boost@@@std@@U?$regex_traits@DV?$w32_regex_traits@D@boost@@@boost@@@re_detail_500@boost@@AAE_N_N@Z 004975f0 f i NCDoc.obj
 0001:00096720       ?unwind_long_set_repeat@?$perl_matcher@PBDV?$allocator@U?$sub_match@PBD@boost@@@std@@U?$regex_traits@DV?$w32_regex_traits@D@boost@@@boost@@@re_detail_500@boost@@AAE_N_N@Z 00497720 f i NCDoc.obj
 0001:00096860       ?unwind_non_greedy_repeat@?$perl_matcher@PBDV?$allocator@U?$sub_match@PBD@boost@@@std@@U?$regex_traits@DV?$w32_regex_traits@D@boost@@@boost@@@re_detail_500@boost@@AAE_N_N@Z 00497860 f i NCDoc.obj
 0001:00096860       ?unwind_non_greedy_repeat@?$perl_matcher@V?$_String_const_iterator@V?$_String_val@U?$_Simple_types@D@std@@@std@@@std@@V?$allocator@U?$sub_match@V?$_String_const_iterator@V?$_String_val@U?$_Simple_types@D@std@@@std@@@std@@@boost@@@2@U?$regex_traits@DV?$w32_regex_traits@D@boost@@@boost@@@re_detail_500@boost@@AAE_N_N@Z 00497860 f i NCDoc.obj
 0001:00096890       ?unwind_recursion@?$perl_matcher@PBDV?$allocator@U?$sub_match@PBD@boost@@@std@@U?$regex_traits@DV?$w32_regex_traits@D@boost@@@boost@@@re_detail_500@boost@@AAE_N_N@Z 00497890 f i NCDoc.obj
 0001:00096a60       ?unwind_recursion_pop@?$perl_matcher@PBDV?$allocator@U?$sub_match@PBD@boost@@@std@@U?$regex_traits@DV?$w32_regex_traits@D@boost@@@boost@@@re_detail_500@boost@@AAE_N_N@Z 00497a60 f i NCDoc.obj
 0001:00096a60       ?unwind_recursion_pop@?$perl_matcher@V?$_String_const_iterator@V?$_String_val@U?$_Simple_types@D@std@@@std@@@std@@V?$allocator@U?$sub_match@V?$_String_const_iterator@V?$_String_val@U?$_Simple_types@D@std@@@std@@@std@@@boost@@@2@U?$regex_traits@DV?$w32_regex_traits@D@boost@@@boost@@@re_detail_500@boost@@AAE_N_N@Z 00497a60 f i NCDoc.obj
 0001:00096ae0       ?unwind_commit@?$perl_matcher@PBDV?$allocator@U?$sub_match@PBD@boost@@@std@@U?$regex_traits@DV?$w32_regex_traits@D@boost@@@boost@@@re_detail_500@boost@@AAE_N_N@Z 00497ae0 f i NCDoc.obj
 0001:00096b80       ?unwind_then@?$perl_matcher@PBDV?$allocator@U?$sub_match@PBD@boost@@@std@@U?$regex_traits@DV?$w32_regex_traits@D@boost@@@boost@@@re_detail_500@boost@@AAE_N_N@Z 00497b80 f i NCDoc.obj
 0001:00096bc0       ?unwind_case@?$perl_matcher@PBDV?$allocator@U?$sub_match@PBD@boost@@@std@@U?$regex_traits@DV?$w32_regex_traits@D@boost@@@boost@@@re_detail_500@boost@@AAE_N_N@Z 00497bc0 f i NCDoc.obj
 0001:00096bc0       ?unwind_case@?$perl_matcher@V?$_String_const_iterator@V?$_String_val@U?$_Simple_types@D@std@@@std@@@std@@V?$allocator@U?$sub_match@V?$_String_const_iterator@V?$_String_val@U?$_Simple_types@D@std@@@std@@@std@@@boost@@@2@U?$regex_traits@DV?$w32_regex_traits@D@boost@@@boost@@@re_detail_500@boost@@AAE_N_N@Z 00497bc0 f i NCDoc.obj
 0001:00096be0       ?match_all_states@?$perl_matcher@V?$_String_const_iterator@V?$_String_val@U?$_Simple_types@D@std@@@std@@@std@@V?$allocator@U?$sub_match@V?$_String_const_iterator@V?$_String_val@U?$_Simple_types@D@std@@@std@@@std@@@boost@@@2@U?$regex_traits@DV?$w32_regex_traits@D@boost@@@boost@@@re_detail_500@boost@@AAE_NXZ 00497be0 f i NCDoc.obj
 0001:00096d70       ?unwind_paren@?$perl_matcher@V?$_String_const_iterator@V?$_String_val@U?$_Simple_types@D@std@@@std@@@std@@V?$allocator@U?$sub_match@V?$_String_const_iterator@V?$_String_val@U?$_Simple_types@D@std@@@std@@@std@@@boost@@@2@U?$regex_traits@DV?$w32_regex_traits@D@boost@@@boost@@@re_detail_500@boost@@AAE_N_N@Z 00497d70 f i NCDoc.obj
 0001:00096e30       ?unwind_greedy_single_repeat@?$perl_matcher@V?$_String_const_iterator@V?$_String_val@U?$_Simple_types@D@std@@@std@@@std@@V?$allocator@U?$sub_match@V?$_String_const_iterator@V?$_String_val@U?$_Simple_types@D@std@@@std@@@std@@@boost@@@2@U?$regex_traits@DV?$w32_regex_traits@D@boost@@@boost@@@re_detail_500@boost@@AAE_N_N@Z 00497e30 f i NCDoc.obj
 0001:00096ec0       ?unwind_slow_dot_repeat@?$perl_matcher@V?$_String_const_iterator@V?$_String_val@U?$_Simple_types@D@std@@@std@@@std@@V?$allocator@U?$sub_match@V?$_String_const_iterator@V?$_String_val@U?$_Simple_types@D@std@@@std@@@std@@@boost@@@2@U?$regex_traits@DV?$w32_regex_traits@D@boost@@@boost@@@re_detail_500@boost@@AAE_N_N@Z 00497ec0 f i NCDoc.obj
 0001:00097000       ?unwind_fast_dot_repeat@?$perl_matcher@V?$_String_const_iterator@V?$_String_val@U?$_Simple_types@D@std@@@std@@@std@@V?$allocator@U?$sub_match@V?$_String_const_iterator@V?$_String_val@U?$_Simple_types@D@std@@@std@@@std@@@boost@@@2@U?$regex_traits@DV?$w32_regex_traits@D@boost@@@boost@@@re_detail_500@boost@@AAE_N_N@Z 00498000 f i NCDoc.obj
 0001:00097100       ?unwind_short_set_repeat@?$perl_matcher@V?$_String_const_iterator@V?$_String_val@U?$_Simple_types@D@std@@@std@@@std@@V?$allocator@U?$sub_match@V?$_String_const_iterator@V?$_String_val@U?$_Simple_types@D@std@@@std@@@std@@@boost@@@2@U?$regex_traits@DV?$w32_regex_traits@D@boost@@@boost@@@re_detail_500@boost@@AAE_N_N@Z 00498100 f i NCDoc.obj
 0001:00097230       ?unwind_long_set_repeat@?$perl_matcher@V?$_String_const_iterator@V?$_String_val@U?$_Simple_types@D@std@@@std@@@std@@V?$allocator@U?$sub_match@V?$_String_const_iterator@V?$_String_val@U?$_Simple_types@D@std@@@std@@@std@@@boost@@@2@U?$regex_traits@DV?$w32_regex_traits@D@boost@@@boost@@@re_detail_500@boost@@AAE_N_N@Z 00498230 f i NCDoc.obj
 0001:00097350       ?unwind_recursion@?$perl_matcher@V?$_String_const_iterator@V?$_String_val@U?$_Simple_types@D@std@@@std@@@std@@V?$allocator@U?$sub_match@V?$_String_const_iterator@V?$_String_val@U?$_Simple_types@D@std@@@std@@@std@@@boost@@@2@U?$regex_traits@DV?$w32_regex_traits@D@boost@@@boost@@@re_detail_500@boost@@AAE_N_N@Z 00498350 f i NCDoc.obj
 0001:00097520       ?unwind_commit@?$perl_matcher@V?$_String_const_iterator@V?$_String_val@U?$_Simple_types@D@std@@@std@@@std@@V?$allocator@U?$sub_match@V?$_String_const_iterator@V?$_String_val@U?$_Simple_types@D@std@@@std@@@std@@@boost@@@2@U?$regex_traits@DV?$w32_regex_traits@D@boost@@@boost@@@re_detail_500@boost@@AAE_N_N@Z 00498520 f i NCDoc.obj
 0001:000975c0       ?unwind_then@?$perl_matcher@V?$_String_const_iterator@V?$_String_val@U?$_Simple_types@D@std@@@std@@@std@@V?$allocator@U?$sub_match@V?$_String_const_iterator@V?$_String_val@U?$_Simple_types@D@std@@@std@@@std@@@boost@@@2@U?$regex_traits@DV?$w32_regex_traits@D@boost@@@boost@@@re_detail_500@boost@@AAE_N_N@Z 004985c0 f i NCDoc.obj
 0001:00097600       ?match_dot_repeat_dispatch@?$perl_matcher@V?$_String_const_iterator@V?$_String_val@U?$_Simple_types@D@std@@@std@@@std@@V?$allocator@U?$sub_match@V?$_String_const_iterator@V?$_String_val@U?$_Simple_types@D@std@@@std@@@std@@@boost@@@2@U?$regex_traits@DV?$w32_regex_traits@D@boost@@@boost@@@re_detail_500@boost@@AAE_NXZ 00498600 f i NCDoc.obj
 0001:00097710       ??4?$match_results@PBDV?$allocator@U?$sub_match@PBD@boost@@@std@@@boost@@QAEAAV01@ABV01@@Z 00498710 f i NCDoc.obj
 0001:00097710       ??4?$match_results@V?$_String_const_iterator@V?$_String_val@U?$_Simple_types@D@std@@@std@@@std@@V?$allocator@U?$sub_match@V?$_String_const_iterator@V?$_String_val@U?$_Simple_types@D@std@@@std@@@std@@@boost@@@2@@boost@@QAEAAV01@ABV01@@Z 00498710 f i NCDoc.obj
 0001:000977a0       ?match_dot_repeat_dispatch@?$perl_matcher@PBDV?$allocator@U?$sub_match@PBD@boost@@@std@@U?$regex_traits@DV?$w32_regex_traits@D@boost@@@boost@@@re_detail_500@boost@@AAE_NXZ 004987a0 f i NCDoc.obj
 0001:000978b0       ?match_startmark@?$perl_matcher@PBDV?$allocator@U?$sub_match@PBD@boost@@@std@@U?$regex_traits@DV?$w32_regex_traits@D@boost@@@boost@@@re_detail_500@boost@@AAE_NXZ 004988b0 f i NCDoc.obj
 0001:00097bd0       ?match_endmark@?$perl_matcher@PBDV?$allocator@U?$sub_match@PBD@boost@@@std@@U?$regex_traits@DV?$w32_regex_traits@D@boost@@@boost@@@re_detail_500@boost@@AAE_NXZ 00498bd0 f i NCDoc.obj
 0001:00097cf0       ?match_literal@?$perl_matcher@PBDV?$allocator@U?$sub_match@PBD@boost@@@std@@U?$regex_traits@DV?$w32_regex_traits@D@boost@@@boost@@@re_detail_500@boost@@AAE_NXZ 00498cf0 f i NCDoc.obj
 0001:00097d50       ?match_start_line@?$perl_matcher@PBDV?$allocator@U?$sub_match@PBD@boost@@@std@@U?$regex_traits@DV?$w32_regex_traits@D@boost@@@boost@@@re_detail_500@boost@@AAE_NXZ 00498d50 f i NCDoc.obj
 0001:00097d50       ?match_start_line@?$perl_matcher@V?$_String_const_iterator@V?$_String_val@U?$_Simple_types@D@std@@@std@@@std@@V?$allocator@U?$sub_match@V?$_String_const_iterator@V?$_String_val@U?$_Simple_types@D@std@@@std@@@std@@@boost@@@2@U?$regex_traits@DV?$w32_regex_traits@D@boost@@@boost@@@re_detail_500@boost@@AAE_NXZ 00498d50 f i NCDoc.obj
 0001:00097db0       ?match_end_line@?$perl_matcher@PBDV?$allocator@U?$sub_match@PBD@boost@@@std@@U?$regex_traits@DV?$w32_regex_traits@D@boost@@@boost@@@re_detail_500@boost@@AAE_NXZ 00498db0 f i NCDoc.obj
 0001:00097db0       ?match_end_line@?$perl_matcher@V?$_String_const_iterator@V?$_String_val@U?$_Simple_types@D@std@@@std@@@std@@V?$allocator@U?$sub_match@V?$_String_const_iterator@V?$_String_val@U?$_Simple_types@D@std@@@std@@@std@@@boost@@@2@U?$regex_traits@DV?$w32_regex_traits@D@boost@@@boost@@@re_detail_500@boost@@AAE_NXZ 00498db0 f i NCDoc.obj
 0001:00097e10       ?match_wild@?$perl_matcher@PBDV?$allocator@U?$sub_match@PBD@boost@@@std@@U?$regex_traits@DV?$w32_regex_traits@D@boost@@@boost@@@re_detail_500@boost@@AAE_NXZ 00498e10 f i NCDoc.obj
 0001:00097e10       ?match_wild@?$perl_matcher@V?$_String_const_iterator@V?$_String_val@U?$_Simple_types@D@std@@@std@@@std@@V?$allocator@U?$sub_match@V?$_String_const_iterator@V?$_String_val@U?$_Simple_types@D@std@@@std@@@std@@@boost@@@2@U?$regex_traits@DV?$w32_regex_traits@D@boost@@@boost@@@re_detail_500@boost@@AAE_NXZ 00498e10 f i NCDoc.obj
 0001:00097e60       ?match_match@?$perl_matcher@PBDV?$allocator@U?$sub_match@PBD@boost@@@std@@U?$regex_traits@DV?$w32_regex_traits@D@boost@@@boost@@@re_detail_500@boost@@AAE_NXZ 00498e60 f i NCDoc.obj
 0001:00097fb0       ?match_word_boundary@?$perl_matcher@PBDV?$allocator@U?$sub_match@PBD@boost@@@std@@U?$regex_traits@DV?$w32_regex_traits@D@boost@@@boost@@@re_detail_500@boost@@AAE_NXZ 00498fb0 f i NCDoc.obj
 0001:00098030       ?match_within_word@?$perl_matcher@PBDV?$allocator@U?$sub_match@PBD@boost@@@std@@U?$regex_traits@DV?$w32_regex_traits@D@boost@@@boost@@@re_detail_500@boost@@AAE_NXZ 00499030 f i NCDoc.obj
 0001:00098050       ?match_word_start@?$perl_matcher@PBDV?$allocator@U?$sub_match@PBD@boost@@@std@@U?$regex_traits@DV?$w32_regex_traits@D@boost@@@boost@@@re_detail_500@boost@@AAE_NXZ 00499050 f i NCDoc.obj
 0001:00098050       ?match_word_start@?$perl_matcher@V?$_String_const_iterator@V?$_String_val@U?$_Simple_types@D@std@@@std@@@std@@V?$allocator@U?$sub_match@V?$_String_const_iterator@V?$_String_val@U?$_Simple_types@D@std@@@std@@@std@@@boost@@@2@U?$regex_traits@DV?$w32_regex_traits@D@boost@@@boost@@@re_detail_500@boost@@AAE_NXZ 00499050 f i NCDoc.obj
 0001:000980b0       ?match_word_end@?$perl_matcher@PBDV?$allocator@U?$sub_match@PBD@boost@@@std@@U?$regex_traits@DV?$w32_regex_traits@D@boost@@@boost@@@re_detail_500@boost@@AAE_NXZ 004990b0 f i NCDoc.obj
 0001:000980b0       ?match_word_end@?$perl_matcher@V?$_String_const_iterator@V?$_String_val@U?$_Simple_types@D@std@@@std@@@std@@V?$allocator@U?$sub_match@V?$_String_const_iterator@V?$_String_val@U?$_Simple_types@D@std@@@std@@@std@@@boost@@@2@U?$regex_traits@DV?$w32_regex_traits@D@boost@@@boost@@@re_detail_500@boost@@AAE_NXZ 004990b0 f i NCDoc.obj
 0001:00098110       ?match_buffer_start@?$perl_matcher@PBDV?$allocator@U?$sub_match@PBD@boost@@@std@@U?$regex_traits@DV?$w32_regex_traits@D@boost@@@boost@@@re_detail_500@boost@@AAE_NXZ 00499110 f i NCDoc.obj
 0001:00098110       ?match_buffer_start@?$perl_matcher@V?$_String_const_iterator@V?$_String_val@U?$_Simple_types@D@std@@@std@@@std@@V?$allocator@U?$sub_match@V?$_String_const_iterator@V?$_String_val@U?$_Simple_types@D@std@@@std@@@std@@@boost@@@2@U?$regex_traits@DV?$w32_regex_traits@D@boost@@@boost@@@re_detail_500@boost@@AAE_NXZ 00499110 f i NCDoc.obj
 0001:00098130       ?match_buffer_end@?$perl_matcher@PBDV?$allocator@U?$sub_match@PBD@boost@@@std@@U?$regex_traits@DV?$w32_regex_traits@D@boost@@@boost@@@re_detail_500@boost@@AAE_NXZ 00499130 f i NCDoc.obj
 0001:00098130       ?match_buffer_end@?$perl_matcher@V?$_String_const_iterator@V?$_String_val@U?$_Simple_types@D@std@@@std@@@std@@V?$allocator@U?$sub_match@V?$_String_const_iterator@V?$_String_val@U?$_Simple_types@D@std@@@std@@@std@@@boost@@@2@U?$regex_traits@DV?$w32_regex_traits@D@boost@@@boost@@@re_detail_500@boost@@AAE_NXZ 00499130 f i NCDoc.obj
 0001:00098150       ?match_backref@?$perl_matcher@PBDV?$allocator@U?$sub_match@PBD@boost@@@std@@U?$regex_traits@DV?$w32_regex_traits@D@boost@@@boost@@@re_detail_500@boost@@AAE_NXZ 00499150 f i NCDoc.obj
 0001:000982a0       ?match_long_set@?$perl_matcher@PBDV?$allocator@U?$sub_match@PBD@boost@@@std@@U?$regex_traits@DV?$w32_regex_traits@D@boost@@@boost@@@re_detail_500@boost@@AAE_NXZ 004992a0 f i NCDoc.obj
 0001:000982e0       ?match_set@?$perl_matcher@PBDV?$allocator@U?$sub_match@PBD@boost@@@std@@U?$regex_traits@DV?$w32_regex_traits@D@boost@@@boost@@@re_detail_500@boost@@AAE_NXZ 004992e0 f i NCDoc.obj
 0001:000982e0       ?match_set@?$perl_matcher@V?$_String_const_iterator@V?$_String_val@U?$_Simple_types@D@std@@@std@@@std@@V?$allocator@U?$sub_match@V?$_String_const_iterator@V?$_String_val@U?$_Simple_types@D@std@@@std@@@std@@@boost@@@2@U?$regex_traits@DV?$w32_regex_traits@D@boost@@@boost@@@re_detail_500@boost@@AAE_NXZ 004992e0 f i NCDoc.obj
 0001:00098330       ?match_jump@?$perl_matcher@PBDV?$allocator@U?$sub_match@PBD@boost@@@std@@U?$regex_traits@DV?$w32_regex_traits@D@boost@@@boost@@@re_detail_500@boost@@AAE_NXZ 00499330 f i NCDoc.obj
 0001:00098330       ?match_jump@?$perl_matcher@V?$_String_const_iterator@V?$_String_val@U?$_Simple_types@D@std@@@std@@@std@@V?$allocator@U?$sub_match@V?$_String_const_iterator@V?$_String_val@U?$_Simple_types@D@std@@@std@@@std@@@boost@@@2@U?$regex_traits@DV?$w32_regex_traits@D@boost@@@boost@@@re_detail_500@boost@@AAE_NXZ 00499330 f i NCDoc.obj
 0001:00098340       ?match_alt@?$perl_matcher@PBDV?$allocator@U?$sub_match@PBD@boost@@@std@@U?$regex_traits@DV?$w32_regex_traits@D@boost@@@boost@@@re_detail_500@boost@@AAE_NXZ 00499340 f i NCDoc.obj
 0001:000983a0       ?match_rep@?$perl_matcher@PBDV?$allocator@U?$sub_match@PBD@boost@@@std@@U?$regex_traits@DV?$w32_regex_traits@D@boost@@@boost@@@re_detail_500@boost@@AAE_NXZ 004993a0 f i NCDoc.obj
 0001:00098570       ?match_combining@?$perl_matcher@PBDV?$allocator@U?$sub_match@PBD@boost@@@std@@U?$regex_traits@DV?$w32_regex_traits@D@boost@@@boost@@@re_detail_500@boost@@AAE_NXZ 00499570 f i NCDoc.obj
 0001:00098570       ?match_combining@?$perl_matcher@V?$_String_const_iterator@V?$_String_val@U?$_Simple_types@D@std@@@std@@@std@@V?$allocator@U?$sub_match@V?$_String_const_iterator@V?$_String_val@U?$_Simple_types@D@std@@@std@@@std@@@boost@@@2@U?$regex_traits@DV?$w32_regex_traits@D@boost@@@boost@@@re_detail_500@boost@@AAE_NXZ 00499570 f i NCDoc.obj
 0001:00098590       ?match_soft_buffer_end@?$perl_matcher@PBDV?$allocator@U?$sub_match@PBD@boost@@@std@@U?$regex_traits@DV?$w32_regex_traits@D@boost@@@boost@@@re_detail_500@boost@@AAE_NXZ 00499590 f i NCDoc.obj
 0001:000985f0       ?match_restart_continue@?$perl_matcher@PBDV?$allocator@U?$sub_match@PBD@boost@@@std@@U?$regex_traits@DV?$w32_regex_traits@D@boost@@@boost@@@re_detail_500@boost@@AAE_NXZ 004995f0 f i NCDoc.obj
 0001:000985f0       ?match_restart_continue@?$perl_matcher@V?$_String_const_iterator@V?$_String_val@U?$_Simple_types@D@std@@@std@@@std@@V?$allocator@U?$sub_match@V?$_String_const_iterator@V?$_String_val@U?$_Simple_types@D@std@@@std@@@std@@@boost@@@2@U?$regex_traits@DV?$w32_regex_traits@D@boost@@@boost@@@re_detail_500@boost@@AAE_NXZ 004995f0 f i NCDoc.obj
 0001:00098610       ?match_long_set_repeat@?$perl_matcher@PBDV?$allocator@U?$sub_match@PBD@boost@@@std@@U?$regex_traits@DV?$w32_regex_traits@D@boost@@@boost@@@re_detail_500@boost@@AAE_NXZ 00499610 f i NCDoc.obj
 0001:00098760       ?match_set_repeat@?$perl_matcher@PBDV?$allocator@U?$sub_match@PBD@boost@@@std@@U?$regex_traits@DV?$w32_regex_traits@D@boost@@@boost@@@re_detail_500@boost@@AAE_NXZ 00499760 f i NCDoc.obj
 0001:000988c0       ?match_char_repeat@?$perl_matcher@PBDV?$allocator@U?$sub_match@PBD@boost@@@std@@U?$regex_traits@DV?$w32_regex_traits@D@boost@@@boost@@@re_detail_500@boost@@AAE_NXZ 004998c0 f i NCDoc.obj
 0001:00098a20       ?match_dot_repeat_slow@?$perl_matcher@PBDV?$allocator@U?$sub_match@PBD@boost@@@std@@U?$regex_traits@DV?$w32_regex_traits@D@boost@@@boost@@@re_detail_500@boost@@AAE_NXZ 00499a20 f i NCDoc.obj
 0001:00098be0       ?match_backstep@?$perl_matcher@PBDV?$allocator@U?$sub_match@PBD@boost@@@std@@U?$regex_traits@DV?$w32_regex_traits@D@boost@@@boost@@@re_detail_500@boost@@AAE_NXZ 00499be0 f i NCDoc.obj
 0001:00098be0       ?match_backstep@?$perl_matcher@V?$_String_const_iterator@V?$_String_val@U?$_Simple_types@D@std@@@std@@@std@@V?$allocator@U?$sub_match@V?$_String_const_iterator@V?$_String_val@U?$_Simple_types@D@std@@@std@@@std@@@boost@@@2@U?$regex_traits@DV?$w32_regex_traits@D@boost@@@boost@@@re_detail_500@boost@@AAE_NXZ 00499be0 f i NCDoc.obj
 0001:00098c10       ?match_assert_backref@?$perl_matcher@PBDV?$allocator@U?$sub_match@PBD@boost@@@std@@U?$regex_traits@DV?$w32_regex_traits@D@boost@@@boost@@@re_detail_500@boost@@AAE_NXZ 00499c10 f i NCDoc.obj
 0001:00098c10       ?match_assert_backref@?$perl_matcher@V?$_String_const_iterator@V?$_String_val@U?$_Simple_types@D@std@@@std@@@std@@V?$allocator@U?$sub_match@V?$_String_const_iterator@V?$_String_val@U?$_Simple_types@D@std@@@std@@@std@@@boost@@@2@U?$regex_traits@DV?$w32_regex_traits@D@boost@@@boost@@@re_detail_500@boost@@AAE_NXZ 00499c10 f i NCDoc.obj
 0001:00098dd0       ?match_toggle_case@?$perl_matcher@PBDV?$allocator@U?$sub_match@PBD@boost@@@std@@U?$regex_traits@DV?$w32_regex_traits@D@boost@@@boost@@@re_detail_500@boost@@AAE_NXZ 00499dd0 f i NCDoc.obj
 0001:00098dd0       ?match_toggle_case@?$perl_matcher@V?$_String_const_iterator@V?$_String_val@U?$_Simple_types@D@std@@@std@@@std@@V?$allocator@U?$sub_match@V?$_String_const_iterator@V?$_String_val@U?$_Simple_types@D@std@@@std@@@std@@@boost@@@2@U?$regex_traits@DV?$w32_regex_traits@D@boost@@@boost@@@re_detail_500@boost@@AAE_NXZ 00499dd0 f i NCDoc.obj
 0001:00098e50       ?match_recursion@?$perl_matcher@PBDV?$allocator@U?$sub_match@PBD@boost@@@std@@U?$regex_traits@DV?$w32_regex_traits@D@boost@@@boost@@@re_detail_500@boost@@AAE_NXZ 00499e50 f i NCDoc.obj
 0001:00099060       ?match_accept@?$perl_matcher@PBDV?$allocator@U?$sub_match@PBD@boost@@@std@@U?$regex_traits@DV?$w32_regex_traits@D@boost@@@boost@@@re_detail_500@boost@@AAE_NXZ 0049a060 f i NCDoc.obj
 0001:00099090       ?match_commit@?$perl_matcher@PBDV?$allocator@U?$sub_match@PBD@boost@@@std@@U?$regex_traits@DV?$w32_regex_traits@D@boost@@@boost@@@re_detail_500@boost@@AAE_NXZ 0049a090 f i NCDoc.obj
 0001:00099090       ?match_commit@?$perl_matcher@V?$_String_const_iterator@V?$_String_val@U?$_Simple_types@D@std@@@std@@@std@@V?$allocator@U?$sub_match@V?$_String_const_iterator@V?$_String_val@U?$_Simple_types@D@std@@@std@@@std@@@boost@@@2@U?$regex_traits@DV?$w32_regex_traits@D@boost@@@boost@@@re_detail_500@boost@@AAE_NXZ 0049a090 f i NCDoc.obj
 0001:00099120       ?match_then@?$perl_matcher@PBDV?$allocator@U?$sub_match@PBD@boost@@@std@@U?$regex_traits@DV?$w32_regex_traits@D@boost@@@boost@@@re_detail_500@boost@@AAE_NXZ 0049a120 f i NCDoc.obj
 0001:00099120       ?match_then@?$perl_matcher@V?$_String_const_iterator@V?$_String_val@U?$_Simple_types@D@std@@@std@@@std@@V?$allocator@U?$sub_match@V?$_String_const_iterator@V?$_String_val@U?$_Simple_types@D@std@@@std@@@std@@@boost@@@2@U?$regex_traits@DV?$w32_regex_traits@D@boost@@@boost@@@re_detail_500@boost@@AAE_NXZ 0049a120 f i NCDoc.obj
 0001:00099190       ?match_startmark@?$perl_matcher@V?$_String_const_iterator@V?$_String_val@U?$_Simple_types@D@std@@@std@@@std@@V?$allocator@U?$sub_match@V?$_String_const_iterator@V?$_String_val@U?$_Simple_types@D@std@@@std@@@std@@@boost@@@2@U?$regex_traits@DV?$w32_regex_traits@D@boost@@@boost@@@re_detail_500@boost@@AAE_NXZ 0049a190 f i NCDoc.obj
 0001:000994a0       ?match_endmark@?$perl_matcher@V?$_String_const_iterator@V?$_String_val@U?$_Simple_types@D@std@@@std@@@std@@V?$allocator@U?$sub_match@V?$_String_const_iterator@V?$_String_val@U?$_Simple_types@D@std@@@std@@@std@@@boost@@@2@U?$regex_traits@DV?$w32_regex_traits@D@boost@@@boost@@@re_detail_500@boost@@AAE_NXZ 0049a4a0 f i NCDoc.obj
 0001:000995c0       ?match_literal@?$perl_matcher@V?$_String_const_iterator@V?$_String_val@U?$_Simple_types@D@std@@@std@@@std@@V?$allocator@U?$sub_match@V?$_String_const_iterator@V?$_String_val@U?$_Simple_types@D@std@@@std@@@std@@@boost@@@2@U?$regex_traits@DV?$w32_regex_traits@D@boost@@@boost@@@re_detail_500@boost@@AAE_NXZ 0049a5c0 f i NCDoc.obj
 0001:00099620       ?match_match@?$perl_matcher@V?$_String_const_iterator@V?$_String_val@U?$_Simple_types@D@std@@@std@@@std@@V?$allocator@U?$sub_match@V?$_String_const_iterator@V?$_String_val@U?$_Simple_types@D@std@@@std@@@std@@@boost@@@2@U?$regex_traits@DV?$w32_regex_traits@D@boost@@@boost@@@re_detail_500@boost@@AAE_NXZ 0049a620 f i NCDoc.obj
 0001:00099770       ?match_word_boundary@?$perl_matcher@V?$_String_const_iterator@V?$_String_val@U?$_Simple_types@D@std@@@std@@@std@@V?$allocator@U?$sub_match@V?$_String_const_iterator@V?$_String_val@U?$_Simple_types@D@std@@@std@@@std@@@boost@@@2@U?$regex_traits@DV?$w32_regex_traits@D@boost@@@boost@@@re_detail_500@boost@@AAE_NXZ 0049a770 f i NCDoc.obj
 0001:000997f0       ?match_within_word@?$perl_matcher@V?$_String_const_iterator@V?$_String_val@U?$_Simple_types@D@std@@@std@@@std@@V?$allocator@U?$sub_match@V?$_String_const_iterator@V?$_String_val@U?$_Simple_types@D@std@@@std@@@std@@@boost@@@2@U?$regex_traits@DV?$w32_regex_traits@D@boost@@@boost@@@re_detail_500@boost@@AAE_NXZ 0049a7f0 f i NCDoc.obj
 0001:00099810       ?match_backref@?$perl_matcher@V?$_String_const_iterator@V?$_String_val@U?$_Simple_types@D@std@@@std@@@std@@V?$allocator@U?$sub_match@V?$_String_const_iterator@V?$_String_val@U?$_Simple_types@D@std@@@std@@@std@@@boost@@@2@U?$regex_traits@DV?$w32_regex_traits@D@boost@@@boost@@@re_detail_500@boost@@AAE_NXZ 0049a810 f i NCDoc.obj
 0001:00099970       ?match_long_set@?$perl_matcher@V?$_String_const_iterator@V?$_String_val@U?$_Simple_types@D@std@@@std@@@std@@V?$allocator@U?$sub_match@V?$_String_const_iterator@V?$_String_val@U?$_Simple_types@D@std@@@std@@@std@@@boost@@@2@U?$regex_traits@DV?$w32_regex_traits@D@boost@@@boost@@@re_detail_500@boost@@AAE_NXZ 0049a970 f i NCDoc.obj
 0001:000999c0       ?match_alt@?$perl_matcher@V?$_String_const_iterator@V?$_String_val@U?$_Simple_types@D@std@@@std@@@std@@V?$allocator@U?$sub_match@V?$_String_const_iterator@V?$_String_val@U?$_Simple_types@D@std@@@std@@@std@@@boost@@@2@U?$regex_traits@DV?$w32_regex_traits@D@boost@@@boost@@@re_detail_500@boost@@AAE_NXZ 0049a9c0 f i NCDoc.obj
 0001:00099a20       ?match_rep@?$perl_matcher@V?$_String_const_iterator@V?$_String_val@U?$_Simple_types@D@std@@@std@@@std@@V?$allocator@U?$sub_match@V?$_String_const_iterator@V?$_String_val@U?$_Simple_types@D@std@@@std@@@std@@@boost@@@2@U?$regex_traits@DV?$w32_regex_traits@D@boost@@@boost@@@re_detail_500@boost@@AAE_NXZ 0049aa20 f i NCDoc.obj
 0001:00099bf0       ?match_soft_buffer_end@?$perl_matcher@V?$_String_const_iterator@V?$_String_val@U?$_Simple_types@D@std@@@std@@@std@@V?$allocator@U?$sub_match@V?$_String_const_iterator@V?$_String_val@U?$_Simple_types@D@std@@@std@@@std@@@boost@@@2@U?$regex_traits@DV?$w32_regex_traits@D@boost@@@boost@@@re_detail_500@boost@@AAE_NXZ 0049abf0 f i NCDoc.obj
 0001:00099c60       ?match_long_set_repeat@?$perl_matcher@V?$_String_const_iterator@V?$_String_val@U?$_Simple_types@D@std@@@std@@@std@@V?$allocator@U?$sub_match@V?$_String_const_iterator@V?$_String_val@U?$_Simple_types@D@std@@@std@@@std@@@boost@@@2@U?$regex_traits@DV?$w32_regex_traits@D@boost@@@boost@@@re_detail_500@boost@@AAE_NXZ 0049ac60 f i NCDoc.obj
 0001:00099dd0       ?match_set_repeat@?$perl_matcher@V?$_String_const_iterator@V?$_String_val@U?$_Simple_types@D@std@@@std@@@std@@V?$allocator@U?$sub_match@V?$_String_const_iterator@V?$_String_val@U?$_Simple_types@D@std@@@std@@@std@@@boost@@@2@U?$regex_traits@DV?$w32_regex_traits@D@boost@@@boost@@@re_detail_500@boost@@AAE_NXZ 0049add0 f i NCDoc.obj
 0001:00099f50       ?match_char_repeat@?$perl_matcher@V?$_String_const_iterator@V?$_String_val@U?$_Simple_types@D@std@@@std@@@std@@V?$allocator@U?$sub_match@V?$_String_const_iterator@V?$_String_val@U?$_Simple_types@D@std@@@std@@@std@@@boost@@@2@U?$regex_traits@DV?$w32_regex_traits@D@boost@@@boost@@@re_detail_500@boost@@AAE_NXZ 0049af50 f i NCDoc.obj
 0001:0009a0c0       ?match_dot_repeat_slow@?$perl_matcher@V?$_String_const_iterator@V?$_String_val@U?$_Simple_types@D@std@@@std@@@std@@V?$allocator@U?$sub_match@V?$_String_const_iterator@V?$_String_val@U?$_Simple_types@D@std@@@std@@@std@@@boost@@@2@U?$regex_traits@DV?$w32_regex_traits@D@boost@@@boost@@@re_detail_500@boost@@AAE_NXZ 0049b0c0 f i NCDoc.obj
 0001:0009a240       ?match_recursion@?$perl_matcher@V?$_String_const_iterator@V?$_String_val@U?$_Simple_types@D@std@@@std@@@std@@V?$allocator@U?$sub_match@V?$_String_const_iterator@V?$_String_val@U?$_Simple_types@D@std@@@std@@@std@@@boost@@@2@U?$regex_traits@DV?$w32_regex_traits@D@boost@@@boost@@@re_detail_500@boost@@AAE_NXZ 0049b240 f i NCDoc.obj
 0001:0009a460       ?match_accept@?$perl_matcher@V?$_String_const_iterator@V?$_String_val@U?$_Simple_types@D@std@@@std@@@std@@V?$allocator@U?$sub_match@V?$_String_const_iterator@V?$_String_val@U?$_Simple_types@D@std@@@std@@@std@@@boost@@@2@U?$regex_traits@DV?$w32_regex_traits@D@boost@@@boost@@@re_detail_500@boost@@AAE_NXZ 0049b460 f i NCDoc.obj
 0001:0009a490       ?format_all@?$basic_regex_formatter@V?$string_out_iterator@V?$basic_string@DU?$char_traits@D@std@@V?$allocator@D@2@@std@@@re_detail_500@boost@@V?$match_results@V?$_String_const_iterator@V?$_String_val@U?$_Simple_types@D@std@@@std@@@std@@V?$allocator@U?$sub_match@V?$_String_const_iterator@V?$_String_val@U?$_Simple_types@D@std@@@std@@@std@@@boost@@@2@@3@U?$regex_traits_wrapper@U?$regex_traits@DV?$w32_regex_traits@D@boost@@@boost@@@3@PBD@re_detail_500@boost@@AAEXXZ 0049b490 f i NCDoc.obj
 0001:0009a670       ??$raise_error@U?$regex_traits_wrapper@U?$regex_traits@DV?$w32_regex_traits@D@boost@@@boost@@@boost@@@re_detail_500@boost@@YAXABU?$regex_traits_wrapper@U?$regex_traits@DV?$w32_regex_traits@D@boost@@@boost@@@1@W4error_type@regex_constants@1@@Z 0049b670 f i NCDoc.obj
 0001:0009a6d0       ??$re_is_set_member@V?$_String_const_iterator@V?$_String_val@U?$_Simple_types@D@std@@@std@@@std@@DU?$regex_traits@DV?$w32_regex_traits@D@boost@@@boost@@I@re_detail_500@boost@@YA?AV?$_String_const_iterator@V?$_String_val@U?$_Simple_types@D@std@@@std@@@std@@V23@0PBU?$re_set_long@I@01@ABU?$regex_data@DU?$regex_traits@DV?$w32_regex_traits@D@boost@@@boost@@@01@_N@Z 0049b6d0 f i NCDoc.obj
 0001:0009ac00       ?_Reallocate_exactly@?$vector@U?$recursion_info@V?$match_results@PBDV?$allocator@U?$sub_match@PBD@boost@@@std@@@boost@@@re_detail_500@boost@@V?$allocator@U?$recursion_info@V?$match_results@PBDV?$allocator@U?$sub_match@PBD@boost@@@std@@@boost@@@re_detail_500@boost@@@std@@@std@@AAEXI@Z 0049bc00 f i NCDoc.obj
 0001:0009ac00       ?_Reallocate_exactly@?$vector@U?$recursion_info@V?$match_results@V?$_String_const_iterator@V?$_String_val@U?$_Simple_types@D@std@@@std@@@std@@V?$allocator@U?$sub_match@V?$_String_const_iterator@V?$_String_val@U?$_Simple_types@D@std@@@std@@@std@@@boost@@@2@@boost@@@re_detail_500@boost@@V?$allocator@U?$recursion_info@V?$match_results@V?$_String_const_iterator@V?$_String_val@U?$_Simple_types@D@std@@@std@@@std@@V?$allocator@U?$sub_match@V?$_String_const_iterator@V?$_String_val@U?$_Simple_types@D@std@@@std@@@std@@@boost@@@2@@boost@@@re_detail_500@boost@@@std@@@std@@AAEXI@Z 0049bc00 f i NCDoc.obj
 0001:0009aca0       ?_Change_array@?$vector@U?$recursion_info@V?$match_results@PBDV?$allocator@U?$sub_match@PBD@boost@@@std@@@boost@@@re_detail_500@boost@@V?$allocator@U?$recursion_info@V?$match_results@PBDV?$allocator@U?$sub_match@PBD@boost@@@std@@@boost@@@re_detail_500@boost@@@std@@@std@@AAEXQAU?$recursion_info@V?$match_results@PBDV?$allocator@U?$sub_match@PBD@boost@@@std@@@boost@@@re_detail_500@boost@@II@Z 0049bca0 f i NCDoc.obj
 0001:0009aca0       ?_Change_array@?$vector@U?$recursion_info@V?$match_results@V?$_String_const_iterator@V?$_String_val@U?$_Simple_types@D@std@@@std@@@std@@V?$allocator@U?$sub_match@V?$_String_const_iterator@V?$_String_val@U?$_Simple_types@D@std@@@std@@@std@@@boost@@@2@@boost@@@re_detail_500@boost@@V?$allocator@U?$recursion_info@V?$match_results@V?$_String_const_iterator@V?$_String_val@U?$_Simple_types@D@std@@@std@@@std@@V?$allocator@U?$sub_match@V?$_String_const_iterator@V?$_String_val@U?$_Simple_types@D@std@@@std@@@std@@@boost@@@2@@boost@@@re_detail_500@boost@@@std@@@std@@AAEXQAU?$recursion_info@V?$match_results@V?$_String_const_iterator@V?$_String_val@U?$_Simple_types@D@std@@@std@@@std@@V?$allocator@U?$sub_match@V?$_String_const_iterator@V?$_String_val@U?$_Simple_types@D@std@@@std@@@std@@@boost@@@2@@boost@@@re_detail_500@boost@@II@Z 0049bca0 f i NCDoc.obj
 0001:0009ad40       ?allocate@?$allocator@U?$recursion_info@V?$match_results@PBDV?$allocator@U?$sub_match@PBD@boost@@@std@@@boost@@@re_detail_500@boost@@@std@@QAEPAU?$recursion_info@V?$match_results@PBDV?$allocator@U?$sub_match@PBD@boost@@@std@@@boost@@@re_detail_500@boost@@I@Z 0049bd40 f i NCDoc.obj
 0001:0009ad40       ?allocate@?$allocator@U?$recursion_info@V?$match_results@V?$_String_const_iterator@V?$_String_val@U?$_Simple_types@D@std@@@std@@@std@@V?$allocator@U?$sub_match@V?$_String_const_iterator@V?$_String_val@U?$_Simple_types@D@std@@@std@@@std@@@boost@@@2@@boost@@@re_detail_500@boost@@@std@@QAEPAU?$recursion_info@V?$match_results@V?$_String_const_iterator@V?$_String_val@U?$_Simple_types@D@std@@@std@@@std@@V?$allocator@U?$sub_match@V?$_String_const_iterator@V?$_String_val@U?$_Simple_types@D@std@@@std@@@std@@@boost@@@2@@boost@@@re_detail_500@boost@@I@Z 0049bd40 f i NCDoc.obj
 0001:0009adb0       ?skip_until_paren@?$perl_matcher@PBDV?$allocator@U?$sub_match@PBD@boost@@@std@@U?$regex_traits@DV?$w32_regex_traits@D@boost@@@boost@@@re_detail_500@boost@@AAE_NH_N@Z 0049bdb0 f i NCDoc.obj
 0001:0009ae70       ?push_matched_paren@?$perl_matcher@PBDV?$allocator@U?$sub_match@PBD@boost@@@std@@U?$regex_traits@DV?$w32_regex_traits@D@boost@@@boost@@@re_detail_500@boost@@AAEXHABU?$sub_match@PBD@3@@Z 0049be70 f i NCDoc.obj
 0001:0009ae70       ?push_matched_paren@?$perl_matcher@V?$_String_const_iterator@V?$_String_val@U?$_Simple_types@D@std@@@std@@@std@@V?$allocator@U?$sub_match@V?$_String_const_iterator@V?$_String_val@U?$_Simple_types@D@std@@@std@@@std@@@boost@@@2@U?$regex_traits@DV?$w32_regex_traits@D@boost@@@boost@@@re_detail_500@boost@@AAEXHABU?$sub_match@V?$_String_const_iterator@V?$_String_val@U?$_Simple_types@D@std@@@std@@@std@@@3@@Z 0049be70 f i NCDoc.obj
 0001:0009aef0       ?push_alt@?$perl_matcher@PBDV?$allocator@U?$sub_match@PBD@boost@@@std@@U?$regex_traits@DV?$w32_regex_traits@D@boost@@@boost@@@re_detail_500@boost@@AAEXPBUre_syntax_base@23@@Z 0049bef0 f i NCDoc.obj
 0001:0009af60       ?push_repeater_count@?$perl_matcher@PBDV?$allocator@U?$sub_match@PBD@boost@@@std@@U?$regex_traits@DV?$w32_regex_traits@D@boost@@@boost@@@re_detail_500@boost@@AAEXHPAPAV?$repeater_count@PBD@23@@Z 0049bf60 f i NCDoc.obj
 0001:0009af60       ?push_repeater_count@?$perl_matcher@V?$_String_const_iterator@V?$_String_val@U?$_Simple_types@D@std@@@std@@@std@@V?$allocator@U?$sub_match@V?$_String_const_iterator@V?$_String_val@U?$_Simple_types@D@std@@@std@@@std@@@boost@@@2@U?$regex_traits@DV?$w32_regex_traits@D@boost@@@boost@@@re_detail_500@boost@@AAEXHPAPAV?$repeater_count@V?$_String_const_iterator@V?$_String_val@U?$_Simple_types@D@std@@@std@@@std@@@23@@Z 0049bf60 f i NCDoc.obj
 0001:0009b040       ?push_single_repeat@?$perl_matcher@PBDV?$allocator@U?$sub_match@PBD@boost@@@std@@U?$regex_traits@DV?$w32_regex_traits@D@boost@@@boost@@@re_detail_500@boost@@AAEXIPBUre_repeat@23@PBDH@Z 0049c040 f i NCDoc.obj
 0001:0009b040       ?push_single_repeat@?$perl_matcher@V?$_String_const_iterator@V?$_String_val@U?$_Simple_types@D@std@@@std@@@std@@V?$allocator@U?$sub_match@V?$_String_const_iterator@V?$_String_val@U?$_Simple_types@D@std@@@std@@@std@@@boost@@@2@U?$regex_traits@DV?$w32_regex_traits@D@boost@@@boost@@@re_detail_500@boost@@AAEXIPBUre_repeat@23@V?$_String_const_iterator@V?$_String_val@U?$_Simple_types@D@std@@@std@@@std@@H@Z 0049c040 f i NCDoc.obj
 0001:0009b0c0       ?push_recursion@?$perl_matcher@PBDV?$allocator@U?$sub_match@PBD@boost@@@std@@U?$regex_traits@DV?$w32_regex_traits@D@boost@@@boost@@@re_detail_500@boost@@AAEXHPBUre_syntax_base@23@PAV?$match_results@PBDV?$allocator@U?$sub_match@PBD@boost@@@std@@@3@1@Z 0049c0c0 f i NCDoc.obj
 0001:0009b0c0       ?push_recursion@?$perl_matcher@V?$_String_const_iterator@V?$_String_val@U?$_Simple_types@D@std@@@std@@@std@@V?$allocator@U?$sub_match@V?$_String_const_iterator@V?$_String_val@U?$_Simple_types@D@std@@@std@@@std@@@boost@@@2@U?$regex_traits@DV?$w32_regex_traits@D@boost@@@boost@@@re_detail_500@boost@@AAEXHPBUre_syntax_base@23@PAV?$match_results@V?$_String_const_iterator@V?$_String_val@U?$_Simple_types@D@std@@@std@@@std@@V?$allocator@U?$sub_match@V?$_String_const_iterator@V?$_String_val@U?$_Simple_types@D@std@@@std@@@std@@@boost@@@2@@3@1@Z 0049c0c0 f i NCDoc.obj
 0001:0009b180       ?skip_until_paren@?$perl_matcher@V?$_String_const_iterator@V?$_String_val@U?$_Simple_types@D@std@@@std@@@std@@V?$allocator@U?$sub_match@V?$_String_const_iterator@V?$_String_val@U?$_Simple_types@D@std@@@std@@@std@@@boost@@@2@U?$regex_traits@DV?$w32_regex_traits@D@boost@@@boost@@@re_detail_500@boost@@AAE_NH_N@Z 0049c180 f i NCDoc.obj
 0001:0009b240       ?push_alt@?$perl_matcher@V?$_String_const_iterator@V?$_String_val@U?$_Simple_types@D@std@@@std@@@std@@V?$allocator@U?$sub_match@V?$_String_const_iterator@V?$_String_val@U?$_Simple_types@D@std@@@std@@@std@@@boost@@@2@U?$regex_traits@DV?$w32_regex_traits@D@boost@@@boost@@@re_detail_500@boost@@AAEXPBUre_syntax_base@23@@Z 0049c240 f i NCDoc.obj
 0001:0009b2b0       ?put@?$basic_regex_formatter@V?$string_out_iterator@V?$basic_string@DU?$char_traits@D@std@@V?$allocator@D@2@@std@@@re_detail_500@boost@@V?$match_results@V?$_String_const_iterator@V?$_String_val@U?$_Simple_types@D@std@@@std@@@std@@V?$allocator@U?$sub_match@V?$_String_const_iterator@V?$_String_val@U?$_Simple_types@D@std@@@std@@@std@@@boost@@@2@@3@U?$regex_traits_wrapper@U?$regex_traits@DV?$w32_regex_traits@D@boost@@@boost@@@3@PBD@re_detail_500@boost@@AAEXD@Z 0049c2b0 f i NCDoc.obj
 0001:0009b3c0       ?format_perl@?$basic_regex_formatter@V?$string_out_iterator@V?$basic_string@DU?$char_traits@D@std@@V?$allocator@D@2@@std@@@re_detail_500@boost@@V?$match_results@V?$_String_const_iterator@V?$_String_val@U?$_Simple_types@D@std@@@std@@@std@@V?$allocator@U?$sub_match@V?$_String_const_iterator@V?$_String_val@U?$_Simple_types@D@std@@@std@@@std@@@boost@@@2@@3@U?$regex_traits_wrapper@U?$regex_traits@DV?$w32_regex_traits@D@boost@@@boost@@@3@PBD@re_detail_500@boost@@AAEXXZ 0049c3c0 f i NCDoc.obj
 0001:0009b7b0       ?format_escape@?$basic_regex_formatter@V?$string_out_iterator@V?$basic_string@DU?$char_traits@D@std@@V?$allocator@D@2@@std@@@re_detail_500@boost@@V?$match_results@V?$_String_const_iterator@V?$_String_val@U?$_Simple_types@D@std@@@std@@@std@@V?$allocator@U?$sub_match@V?$_String_const_iterator@V?$_String_val@U?$_Simple_types@D@std@@@std@@@std@@@boost@@@2@@3@U?$regex_traits_wrapper@U?$regex_traits@DV?$w32_regex_traits@D@boost@@@boost@@@3@PBD@re_detail_500@boost@@AAEXXZ 0049c7b0 f i NCDoc.obj
 0001:0009bae0       ?format_conditional@?$basic_regex_formatter@V?$string_out_iterator@V?$basic_string@DU?$char_traits@D@std@@V?$allocator@D@2@@std@@@re_detail_500@boost@@V?$match_results@V?$_String_const_iterator@V?$_String_val@U?$_Simple_types@D@std@@@std@@@std@@V?$allocator@U?$sub_match@V?$_String_const_iterator@V?$_String_val@U?$_Simple_types@D@std@@@std@@@std@@@boost@@@2@@3@U?$regex_traits_wrapper@U?$regex_traits@DV?$w32_regex_traits@D@boost@@@boost@@@3@PBD@re_detail_500@boost@@AAEXXZ 0049cae0 f i NCDoc.obj
 0001:0009bd10       ??$_Emplace_reallocate@U?$recursion_info@V?$match_results@PBDV?$allocator@U?$sub_match@PBD@boost@@@std@@@boost@@@re_detail_500@boost@@@?$vector@U?$recursion_info@V?$match_results@PBDV?$allocator@U?$sub_match@PBD@boost@@@std@@@boost@@@re_detail_500@boost@@V?$allocator@U?$recursion_info@V?$match_results@PBDV?$allocator@U?$sub_match@PBD@boost@@@std@@@boost@@@re_detail_500@boost@@@std@@@std@@AAEPAU?$recursion_info@V?$match_results@PBDV?$allocator@U?$sub_match@PBD@boost@@@std@@@boost@@@re_detail_500@boost@@QAU234@$$QAU234@@Z 0049cd10 f i NCDoc.obj
 0001:0009bd10       ??$_Emplace_reallocate@U?$recursion_info@V?$match_results@V?$_String_const_iterator@V?$_String_val@U?$_Simple_types@D@std@@@std@@@std@@V?$allocator@U?$sub_match@V?$_String_const_iterator@V?$_String_val@U?$_Simple_types@D@std@@@std@@@std@@@boost@@@2@@boost@@@re_detail_500@boost@@@?$vector@U?$recursion_info@V?$match_results@V?$_String_const_iterator@V?$_String_val@U?$_Simple_types@D@std@@@std@@@std@@V?$allocator@U?$sub_match@V?$_String_const_iterator@V?$_String_val@U?$_Simple_types@D@std@@@std@@@std@@@boost@@@2@@boost@@@re_detail_500@boost@@V?$allocator@U?$recursion_info@V?$match_results@V?$_String_const_iterator@V?$_String_val@U?$_Simple_types@D@std@@@std@@@std@@V?$allocator@U?$sub_match@V?$_String_const_iterator@V?$_String_val@U?$_Simple_types@D@std@@@std@@@std@@@boost@@@2@@boost@@@re_detail_500@boost@@@std@@@std@@AAEPAU?$recursion_info@V?$match_results@V?$_String_const_iterator@V?$_String_val@U?$_Simple_types@D@std@@@std@@@std@@V?$allocator@U?$sub_match@V?$_String_const_iterator@V?$_String_val@U?$_Simple_types@D@std@@@std@@@std@@@boost@@@2@@boost@@@re_detail_500@boost@@QAU234@$$QAU234@@Z 0049cd10 f i NCDoc.obj
 0001:0009bea0       ??$_Assign_range@PAU?$sub_match@PBD@boost@@@?$vector@U?$sub_match@PBD@boost@@V?$allocator@U?$sub_match@PBD@boost@@@std@@@std@@AAEXPAU?$sub_match@PBD@boost@@0Uforward_iterator_tag@1@@Z 0049cea0 f i NCDoc.obj
 0001:0009bea0       ??$_Assign_range@PAU?$sub_match@V?$_String_const_iterator@V?$_String_val@U?$_Simple_types@D@std@@@std@@@std@@@boost@@@?$vector@U?$sub_match@V?$_String_const_iterator@V?$_String_val@U?$_Simple_types@D@std@@@std@@@std@@@boost@@V?$allocator@U?$sub_match@V?$_String_const_iterator@V?$_String_val@U?$_Simple_types@D@std@@@std@@@std@@@boost@@@std@@@std@@AAEXPAU?$sub_match@V?$_String_const_iterator@V?$_String_val@U?$_Simple_types@D@std@@@std@@@std@@@boost@@0Uforward_iterator_tag@1@@Z 0049cea0 f i NCDoc.obj
 0001:0009c050       ??$_Uninitialized_copy@PAU?$recursion_info@V?$match_results@PBDV?$allocator@U?$sub_match@PBD@boost@@@std@@@boost@@@re_detail_500@boost@@V?$allocator@U?$recursion_info@V?$match_results@PBDV?$allocator@U?$sub_match@PBD@boost@@@std@@@boost@@@re_detail_500@boost@@@std@@@std@@YAPAU?$recursion_info@V?$match_results@PBDV?$allocator@U?$sub_match@PBD@boost@@@std@@@boost@@@re_detail_500@boost@@QAU123@0PAU123@AAV?$allocator@U?$recursion_info@V?$match_results@PBDV?$allocator@U?$sub_match@PBD@boost@@@std@@@boost@@@re_detail_500@boost@@@0@@Z 0049d050 f i NCDoc.obj
 0001:0009c050       ??$_Uninitialized_copy@PAU?$recursion_info@V?$match_results@V?$_String_const_iterator@V?$_String_val@U?$_Simple_types@D@std@@@std@@@std@@V?$allocator@U?$sub_match@V?$_String_const_iterator@V?$_String_val@U?$_Simple_types@D@std@@@std@@@std@@@boost@@@2@@boost@@@re_detail_500@boost@@V?$allocator@U?$recursion_info@V?$match_results@V?$_String_const_iterator@V?$_String_val@U?$_Simple_types@D@std@@@std@@@std@@V?$allocator@U?$sub_match@V?$_String_const_iterator@V?$_String_val@U?$_Simple_types@D@std@@@std@@@std@@@boost@@@2@@boost@@@re_detail_500@boost@@@std@@@std@@YAPAU?$recursion_info@V?$match_results@V?$_String_const_iterator@V?$_String_val@U?$_Simple_types@D@std@@@std@@@std@@V?$allocator@U?$sub_match@V?$_String_const_iterator@V?$_String_val@U?$_Simple_types@D@std@@@std@@@std@@@boost@@@2@@boost@@@re_detail_500@boost@@QAU123@0PAU123@AAV?$allocator@U?$recursion_info@V?$match_results@V?$_String_const_iterator@V?$_String_val@U?$_Simple_types@D@std@@@std@@@std@@V?$allocator@U?$sub_match@V?$_String_const_iterator@V?$_String_val@U?$_Simple_types@D@std@@@std@@@std@@@boost@@@2@@boost@@@re_detail_500@boost@@@0@@Z 0049d050 f i NCDoc.obj
 0001:0009c050       ??$_Uninitialized_move@PAU?$recursion_info@V?$match_results@PBDV?$allocator@U?$sub_match@PBD@boost@@@std@@@boost@@@re_detail_500@boost@@V?$allocator@U?$recursion_info@V?$match_results@PBDV?$allocator@U?$sub_match@PBD@boost@@@std@@@boost@@@re_detail_500@boost@@@std@@@std@@YAPAU?$recursion_info@V?$match_results@PBDV?$allocator@U?$sub_match@PBD@boost@@@std@@@boost@@@re_detail_500@boost@@QAU123@0PAU123@AAV?$allocator@U?$recursion_info@V?$match_results@PBDV?$allocator@U?$sub_match@PBD@boost@@@std@@@boost@@@re_detail_500@boost@@@0@@Z 0049d050 f i NCDoc.obj
 0001:0009c050       ??$_Uninitialized_move@PAU?$recursion_info@V?$match_results@V?$_String_const_iterator@V?$_String_val@U?$_Simple_types@D@std@@@std@@@std@@V?$allocator@U?$sub_match@V?$_String_const_iterator@V?$_String_val@U?$_Simple_types@D@std@@@std@@@std@@@boost@@@2@@boost@@@re_detail_500@boost@@V?$allocator@U?$recursion_info@V?$match_results@V?$_String_const_iterator@V?$_String_val@U?$_Simple_types@D@std@@@std@@@std@@V?$allocator@U?$sub_match@V?$_String_const_iterator@V?$_String_val@U?$_Simple_types@D@std@@@std@@@std@@@boost@@@2@@boost@@@re_detail_500@boost@@@std@@@std@@YAPAU?$recursion_info@V?$match_results@V?$_String_const_iterator@V?$_String_val@U?$_Simple_types@D@std@@@std@@@std@@V?$allocator@U?$sub_match@V?$_String_const_iterator@V?$_String_val@U?$_Simple_types@D@std@@@std@@@std@@@boost@@@2@@boost@@@re_detail_500@boost@@QAU123@0PAU123@AAV?$allocator@U?$recursion_info@V?$match_results@V?$_String_const_iterator@V?$_String_val@U?$_Simple_types@D@std@@@std@@@std@@V?$allocator@U?$sub_match@V?$_String_const_iterator@V?$_String_val@U?$_Simple_types@D@std@@@std@@@std@@@boost@@@2@@boost@@@re_detail_500@boost@@@0@@Z 0049d050 f i NCDoc.obj
 0001:0009c0f0       ??1?$_Uninitialized_backout_al@V?$allocator@U?$recursion_info@V?$match_results@PBDV?$allocator@U?$sub_match@PBD@boost@@@std@@@boost@@@re_detail_500@boost@@@std@@@std@@QAE@XZ 0049d0f0 f i NCDoc.obj
 0001:0009c0f0       ??1?$_Uninitialized_backout_al@V?$allocator@U?$recursion_info@V?$match_results@V?$_String_const_iterator@V?$_String_val@U?$_Simple_types@D@std@@@std@@@std@@V?$allocator@U?$sub_match@V?$_String_const_iterator@V?$_String_val@U?$_Simple_types@D@std@@@std@@@std@@@boost@@@2@@boost@@@re_detail_500@boost@@@std@@@std@@QAE@XZ 0049d0f0 f i NCDoc.obj
 0001:0009c100       ?toi@?$basic_regex_formatter@V?$string_out_iterator@V?$basic_string@DU?$char_traits@D@std@@V?$allocator@D@2@@std@@@re_detail_500@boost@@V?$match_results@V?$_String_const_iterator@V?$_String_val@U?$_Simple_types@D@std@@@std@@@std@@V?$allocator@U?$sub_match@V?$_String_const_iterator@V?$_String_val@U?$_Simple_types@D@std@@@std@@@std@@@boost@@@2@@3@U?$regex_traits_wrapper@U?$regex_traits@DV?$w32_regex_traits@D@boost@@@boost@@@3@PBD@re_detail_500@boost@@AAEHAAPBDPBDH@Z 0049d100 f i NCDoc.obj
 0001:0009c1c0       ?unwind_until@?$repeater_count@PBD@re_detail_500@boost@@AAEPAV123@HPAV123@H@Z 0049d1c0 f i NCDoc.obj
 0001:0009c1c0       ?unwind_until@?$repeater_count@V?$_String_const_iterator@V?$_String_val@U?$_Simple_types@D@std@@@std@@@std@@@re_detail_500@boost@@AAEPAV123@HPAV123@H@Z 0049d1c0 f i NCDoc.obj
 0001:0009c220       ?handle_perl_verb@?$basic_regex_formatter@V?$string_out_iterator@V?$basic_string@DU?$char_traits@D@std@@V?$allocator@D@2@@std@@@re_detail_500@boost@@V?$match_results@V?$_String_const_iterator@V?$_String_val@U?$_Simple_types@D@std@@@std@@@std@@V?$allocator@U?$sub_match@V?$_String_const_iterator@V?$_String_val@U?$_Simple_types@D@std@@@std@@@std@@@boost@@@2@@3@U?$regex_traits_wrapper@U?$regex_traits@DV?$w32_regex_traits@D@boost@@@boost@@@3@PBD@re_detail_500@boost@@AAE_N_N@Z 0049d220 f i NCDoc.obj
 0001:0009c5f0       ??$_Copy_unchecked@PAU?$sub_match@PBD@boost@@PAU12@@std@@YAPAU?$sub_match@PBD@boost@@PAU12@00@Z 0049d5f0 f i NCDoc.obj
 0001:0009c5f0       ??$_Copy_unchecked@PAU?$sub_match@V?$_String_const_iterator@V?$_String_val@U?$_Simple_types@D@std@@@std@@@std@@@boost@@PAU12@@std@@YAPAU?$sub_match@V?$_String_const_iterator@V?$_String_val@U?$_Simple_types@D@std@@@std@@@std@@@boost@@PAU12@00@Z 0049d5f0 f i NCDoc.obj
 0001:0009c625       ??_9CNCdata@@$BBA@AE       0049d625 f i NCDoc.obj
 0001:0009c62a       ??_9CNCdata@@$B3AE         0049d62a f i NCDoc.obj
 0001:0009c62f       ??_9CNCdata@@$B7AE         0049d62f f i NCDoc.obj
 0001:0009c634       ??_9CNCdata@@$BM@AE        0049d634 f i NCDoc.obj
 0001:0009c640       ??$equal_range@V?$_Vector_const_iterator@V?$_Vector_val@U?$_Simple_types@Uname@named_subexpressions@re_detail_500@boost@@@std@@@std@@@std@@Uname@named_subexpressions@re_detail_500@boost@@@std@@YA?AU?$pair@V?$_Vector_const_iterator@V?$_Vector_val@U?$_Simple_types@Uname@named_subexpressions@re_detail_500@boost@@@std@@@std@@@std@@V12@@0@V?$_Vector_const_iterator@V?$_Vector_val@U?$_Simple_types@Uname@named_subexpressions@re_detail_500@boost@@@std@@@std@@@0@0ABUname@named_subexpressions@re_detail_500@boost@@@Z 0049d640 f i NCDoc.obj
 0001:0009c710       ??1incrementer@re_detail_500@boost@@QAE@XZ 0049d710 f i NCDoc.obj
 0001:0009c720       ?put_mem_block@re_detail_500@boost@@YAXPAX@Z 0049d720 f i NCDoc.obj
 0001:0009c760       ??1save_state_init@re_detail_500@boost@@QAE@XZ 0049d760 f i NCDoc.obj
 0001:0009c780       ?instance@mem_block_cache@re_detail_500@boost@@SAAAU123@XZ 0049d780 f i NCDoc.obj
 0001:0009c7e0       ?get_mem_block@re_detail_500@boost@@YAPAXXZ 0049d7e0 f i NCDoc.obj
 0001:0009c830       ??0invalid_argument@std@@QAE@PBD@Z 0049d830 f i NCDoc.obj
 0001:0009c880       ??0?$wrapexcept@Vlogic_error@std@@@boost@@QAE@ABVlogic_error@std@@@Z 0049d880 f i NCDoc.obj
 0001:0009c8f0       ?clone@?$wrapexcept@Vlogic_error@std@@@boost@@UBEPBVclone_base@exception_detail@2@XZ 0049d8f0 f i NCDoc.obj
 0001:0009c980       ?rethrow@?$wrapexcept@Vlogic_error@std@@@boost@@UBEXXZ 0049d980 f i NCDoc.obj
 0001:0009c9b0       ??0?$wrapexcept@Vlogic_error@std@@@boost@@QAE@ABU01@@Z 0049d9b0 f i NCDoc.obj
 0001:0009ca80       ??0logic_error@std@@QAE@ABV01@@Z 0049da80 f i NCDoc.obj
 0001:0009cac0       ??$throw_exception@Vlogic_error@std@@@boost@@YAXABVlogic_error@std@@@Z 0049dac0 f i NCDoc.obj
 0001:0009caf0       ??0logic_error@std@@QAE@PBD@Z 0049daf0 f i NCDoc.obj
 0001:0009cb40       ??1CFileException@@UAE@XZ  0049db40 f i NCDoc.obj
 0001:0009cb50       ??_ECFileException@@UAEPAXI@Z 0049db50 f i * CIL library *:* CIL module *
 0001:0009cb50       ??_GCFileException@@UAEPAXI@Z 0049db50 f i NCDoc.obj
 0001:0009cb90       ?GetMessageMap@CNCFindDlg@@MBEPBUAFX_MSGMAP@@XZ 0049db90 f   NCFindDlg.obj
 0001:0009cba0       ??_ECNCFindDlg@@UAEPAXI@Z  0049dba0 f i * CIL library *:* CIL module *
 0001:0009cba0       ??_GCNCFindDlg@@UAEPAXI@Z  0049dba0 f i NCFindDlg.obj
 0001:0009cc20       ?DoDataExchange@CNCFindDlg@@MAEXPAVCDataExchange@@@Z 0049dc20 f   NCFindDlg.obj
 0001:0009cca0       ?PreTranslateMessage@CNCFindDlg@@MAEHPAUtagMSG@@@Z 0049dca0 f   NCFindDlg.obj
 0001:0009cca0       ?PreTranslateMessage@COBSdlg@@MAEHPAUtagMSG@@@Z 0049dca0 f   OBSdlg.obj
 0001:0009ccf0       ?OnInitDialog@CNCFindDlg@@MAEHXZ 0049dcf0 f   NCFindDlg.obj
 0001:0009cd60       ?OnOK@CNCFindDlg@@MAEXXZ   0049dd60 f   NCFindDlg.obj
 0001:0009cea0       ?OnCancel@CNCFindDlg@@MAEXXZ 0049dea0 f   NCFindDlg.obj
 0001:0009cec0       ?PostNcDestroy@CNCFindDlg@@MAEXXZ 0049dec0 f   NCFindDlg.obj
 0001:0009cf00       ?OnUserSwitchDocument@CNCFindDlg@@IAEJIJ@Z 0049df00 f   NCFindDlg.obj
 0001:0009cf80       ?OnActivatePage@CTabViewBase@@MAEXH@Z 0049df80 f i NCInfoTab.obj
 0001:0009cfb0       ??_ECNCInfoTab@@UAEPAXI@Z  0049dfb0 f i * CIL library *:* CIL module *
 0001:0009cfb0       ??_ECTabViewBase@@UAEPAXI@Z 0049dfb0 f i * CIL library *:* CIL module *
 0001:0009cfb0       ??_GCNCInfoTab@@UAEPAXI@Z  0049dfb0 f i NCInfoTab.obj
 0001:0009cfb0       ??_GCTabViewBase@@UAEPAXI@Z 0049dfb0 f i NCInfoTab.obj
 0001:0009d000       ??1CTabViewBase@@UAE@XZ    0049e000 f i NCInfoTab.obj
 0001:0009d020       ?CreateObject@CNCInfoTab@@SGPAVCObject@@XZ 0049e020 f   NCInfoTab.obj
 0001:0009d0d0       ?GetRuntimeClass@CTabViewBase@@UBEPAUCRuntimeClass@@XZ 0049e0d0 f   TabViewBase.obj
 0001:0009d0d0       ?_GetBaseClass@CNCInfoTab@@KGPAUCRuntimeClass@@XZ 0049e0d0 f   NCInfoTab.obj
 0001:0009d0d0       ?_GetBaseClass@CNCViewTab@@KGPAUCRuntimeClass@@XZ 0049e0d0 f   NCViewTab.obj
 0001:0009d0e0       ?GetRuntimeClass@CNCInfoTab@@UBEPAUCRuntimeClass@@XZ 0049e0e0 f   NCInfoTab.obj
 0001:0009d0f0       ?GetMessageMap@CNCInfoTab@@MBEPBUAFX_MSGMAP@@XZ 0049e0f0 f   NCInfoTab.obj
 0001:0009d100       ?OnInitialUpdate@CNCInfoTab@@UAEXXZ 0049e100 f   NCInfoTab.obj
 0001:0009d1d0       ?OnUpdate@CNCInfoTab@@MAEXPAVCView@@JPAVCObject@@@Z 0049e1d0 f   NCInfoTab.obj
 0001:0009d1d0       ?OnUpdate@CNCViewTab@@MAEXPAVCView@@JPAVCObject@@@Z 0049e1d0 f   NCViewTab.obj
 0001:0009d2a0       ?OnCmdMsg@CNCInfoTab@@UAEHIHPAXPAUAFX_CMDHANDLERINFO@@@Z 0049e2a0 f   NCInfoTab.obj
 0001:0009d3e0       ?OnActivatePage@CNCInfoTab@@MAEXH@Z 0049e3e0 f   NCInfoTab.obj
 0001:0009d440       ?OnCreate@CNCInfoTab@@IAEHPAUtagCREATESTRUCTA@@@Z 0049e440 f   NCInfoTab.obj
 0001:0009d580       ?OnDestroy@CNCInfoTab@@IAEXXZ 0049e580 f   NCInfoTab.obj
 0001:0009d650       ?OnMoveTab@CNCInfoTab@@IAEXI@Z 0049e650 f   NCInfoTab.obj
 0001:0009d650       ?OnMoveTab@CNCViewTab@@IAEXI@Z 0049e650 f   NCViewTab.obj
 0001:0009d6e0       ?destroy@sp_counted_base@detail@boost@@UAEXXZ 0049e6e0 f i NCInfoView.obj
 0001:0009d6f0       ??_Esp_counted_base@detail@boost@@UAEPAXI@Z 0049e6f0 f i * CIL library *:* CIL module *
 0001:0009d6f0       ??_Gsp_counted_base@detail@boost@@UAEPAXI@Z 0049e6f0 f i NCInfoView.obj
 0001:0009d720       ?what@format_error@io@boost@@UBEPBDXZ 0049e720 f i NCInfoView.obj
 0001:0009d730       ??0bad_format_string@io@boost@@QAE@II@Z 0049e730 f i NCInfoView.obj
 0001:0009d760       ?what@bad_format_string@io@boost@@UBEPBDXZ 0049e760 f i NCInfoView.obj
 0001:0009d770       ??0too_few_args@io@boost@@QAE@II@Z 0049e770 f i NCInfoView.obj
 0001:0009d7a0       ?what@too_few_args@io@boost@@UBEPBDXZ 0049e7a0 f i NCInfoView.obj
 0001:0009d7b0       ??0too_many_args@io@boost@@QAE@II@Z 0049e7b0 f i NCInfoView.obj
 0001:0009d7e0       ?what@too_many_args@io@boost@@UBEPBDXZ 0049e7e0 f i NCInfoView.obj
 0001:0009d7f0       ?_GetBaseClass@CNCInfoBase@@KGPAUCRuntimeClass@@XZ 0049e7f0 f   NCInfoView.obj
 0001:0009d7f0       ?_GetBaseClass@CViewBase@@KGPAUCRuntimeClass@@XZ 0049e7f0 f   ViewBase.obj
 0001:0009d7f0       ?_GetBaseClass@CViewBaseGL@@KGPAUCRuntimeClass@@XZ 0049e7f0 f   ViewBaseGL.obj
 0001:0009d800       ?GetThisMessageMap@CNCInfoBase@@KGPBUAFX_MSGMAP@@XZ 0049e800 f   NCInfoView.obj
 0001:0009d810       ?PreCreateWindow@CNCInfoBase@@UAEHAAUtagCREATESTRUCTA@@@Z 0049e810 f   NCInfoView.obj
 0001:0009d850       ?OnCmdMsg@CNCInfoBase@@UAEHIHPAXPAUAFX_CMDHANDLERINFO@@@Z 0049e850 f   NCInfoView.obj
 0001:0009d850       ?OnCmdMsg@CNCListView@@UAEHIHPAXPAUAFX_CMDHANDLERINFO@@@Z 0049e850 f   NCListView.obj
 0001:0009d850       ?OnCmdMsg@CNCViewBase@@UAEHIHPAXPAUAFX_CMDHANDLERINFO@@@Z 0049e850 f   NCViewBase.obj
 0001:0009d850       ?OnCmdMsg@CNCViewGL@@UAEHIHPAXPAUAFX_CMDHANDLERINFO@@@Z 0049e850 f   NCViewGL.obj
 0001:0009d860       ?OnUpdate@CNCInfoBase@@UAEXPAVCView@@JPAVCObject@@@Z 0049e860 f   NCInfoView.obj
 0001:0009d980       ?OnUpdateEditCopy@CNCInfoBase@@QAEXPAVCCmdUI@@@Z 0049e980 f   NCInfoView.obj
 0001:0009d9b0       ?OnEditCopy@CNCInfoBase@@QAEXXZ 0049e9b0 f   NCInfoView.obj
 0001:0009d9c0       ?OnContextMenu@CNCInfoBase@@QAEXPAVCWnd@@VCPoint@@@Z 0049e9c0 f   NCInfoView.obj
 0001:0009d9e0       ?OnKeyDown@CNCInfoBase@@QAEXIII@Z 0049e9e0 f   NCInfoView.obj
 0001:0009da40       ?OnEraseBkgnd@CNCInfoBase@@QAEHPAVCDC@@@Z 0049ea40 f   NCInfoView.obj
 0001:0009da70       ?CreateObject@CNCInfoView1@@SGPAVCObject@@XZ 0049ea70 f   NCInfoView.obj
 0001:0009daf0       ?_GetBaseClass@CNCInfoView1@@KGPAUCRuntimeClass@@XZ 0049eaf0 f   NCInfoView.obj
 0001:0009daf0       ?_GetBaseClass@CNCInfoView2@@KGPAUCRuntimeClass@@XZ 0049eaf0 f   NCInfoView.obj
 0001:0009db00       ?GetRuntimeClass@CNCInfoView1@@UBEPAUCRuntimeClass@@XZ 0049eb00 f   NCInfoView.obj
 0001:0009db10       ??_ECNCInfoView1@@UAEPAXI@Z 0049eb10 f i * CIL library *:* CIL module *
 0001:0009db10       ??_ECNCInfoView2@@UAEPAXI@Z 0049eb10 f i * CIL library *:* CIL module *
 0001:0009db10       ??_ECViewBase@@UAEPAXI@Z   0049eb10 f i * CIL library *:* CIL module *
 0001:0009db10       ??_GCNCInfoView1@@UAEPAXI@Z 0049eb10 f i NCInfoView.obj
 0001:0009db10       ??_GCNCInfoView2@@UAEPAXI@Z 0049eb10 f i NCInfoView.obj
 0001:0009db10       ??_GCViewBase@@UAEPAXI@Z   0049eb10 f i ViewBase.obj
 0001:0009db50       ?GetMessageMap@CNCInfoView1@@MBEPBUAFX_MSGMAP@@XZ 0049eb50 f   NCInfoView.obj
 0001:0009db60       ?OnUserCalcMsg@CNCInfoView1@@IAEJIJ@Z 0049eb60 f   NCInfoView.obj
 0001:0009dbc0       ?CreateObject@CNCInfoView2@@SGPAVCObject@@XZ 0049ebc0 f   NCInfoView.obj
 0001:0009dc40       ?GetRuntimeClass@CNCInfoView2@@UBEPAUCRuntimeClass@@XZ 0049ec40 f   NCInfoView.obj
 0001:0009dc50       ?GetMessageMap@CNCInfoView2@@MBEPBUAFX_MSGMAP@@XZ 0049ec50 f   NCInfoView.obj
 0001:0009dc60       ?OnDraw@CNCInfoView1@@MAEXPAVCDC@@@Z 0049ec60 f   NCInfoView.obj
 0001:0009e790       ??1?$basic_format@DU?$char_traits@D@std@@V?$allocator@D@2@@boost@@QAE@XZ 0049f790 f i NCInfoView.obj
 0001:0009e820       ??1?$optional@Vlocale@std@@@boost@@QAE@XZ 0049f820 f i NCInfoView.obj
 0001:0009e850       ?OnDraw@CNCInfoView2@@MAEXPAVCDC@@@Z 0049f850 f   NCInfoView.obj
 0001:000a1900       ??1?$basic_altstringbuf@DU?$char_traits@D@std@@V?$allocator@D@2@@io@boost@@UAE@XZ 004a2900 f i NCInfoView.obj
 0001:000a19b0       ??1?$vector@U?$format_item@DU?$char_traits@D@std@@V?$allocator@D@2@@detail@io@boost@@V?$allocator@U?$format_item@DU?$char_traits@D@std@@V?$allocator@D@2@@detail@io@boost@@@std@@@std@@QAE@XZ 004a29b0 f i NCInfoView.obj
 0001:000a1a40       ??_E?$basic_altstringbuf@DU?$char_traits@D@std@@V?$allocator@D@2@@io@boost@@UAEPAXI@Z 004a2a40 f i * CIL library *:* CIL module *
 0001:000a1a40       ??_G?$basic_altstringbuf@DU?$char_traits@D@std@@V?$allocator@D@2@@io@boost@@UAEPAXI@Z 004a2a40 f i NCInfoView.obj
 0001:000a1a60       ?deallocate@?$allocator@U?$format_item@DU?$char_traits@D@std@@V?$allocator@D@2@@detail@io@boost@@@std@@QAEXQAU?$format_item@DU?$char_traits@D@std@@V?$allocator@D@2@@detail@io@boost@@I@Z 004a2a60 f i NCInfoView.obj
 0001:000a1aa0       ??0?$basic_format@DU?$char_traits@D@std@@V?$allocator@D@2@@boost@@QAE@PBD@Z 004a2aa0 f i NCInfoView.obj
 0001:000a1c10       ??$throw_exception@Vbad_format_string@io@boost@@@boost@@YAXABVbad_format_string@io@0@@Z 004a2c10 f i NCInfoView.obj
 0001:000a1c40       ?seekoff@?$basic_altstringbuf@DU?$char_traits@D@std@@V?$allocator@D@2@@io@boost@@MAE?AV?$fpos@U_Mbstatet@@@std@@_JHH@Z 004a2c40 f i NCInfoView.obj
 0001:000a1da0       ?seekpos@?$basic_altstringbuf@DU?$char_traits@D@std@@V?$allocator@D@2@@io@boost@@MAE?AV?$fpos@U_Mbstatet@@@std@@V45@H@Z 004a2da0 f i NCInfoView.obj
 0001:000a1ee0       ?underflow@?$basic_altstringbuf@DU?$char_traits@D@std@@V?$allocator@D@2@@io@boost@@MAEHXZ 004a2ee0 f i NCInfoView.obj
 0001:000a1f50       ?pbackfail@?$basic_altstringbuf@DU?$char_traits@D@std@@V?$allocator@D@2@@io@boost@@MAEHH@Z 004a2f50 f i NCInfoView.obj
 0001:000a1fa0       ?overflow@?$basic_altstringbuf@DU?$char_traits@D@std@@V?$allocator@D@2@@io@boost@@MAEHH@Z 004a2fa0 f i NCInfoView.obj
 0001:000a21a0       ??$lexical_cast@V?$basic_string@DU?$char_traits@D@std@@V?$allocator@D@2@@std@@_K@boost@@YA?AV?$basic_string@DU?$char_traits@D@std@@V?$allocator@D@2@@std@@AB_K@Z 004a31a0 f i NCInfoView.obj
 0001:000a2230       ??$_Destroy_range@V?$allocator@U?$format_item@DU?$char_traits@D@std@@V?$allocator@D@2@@detail@io@boost@@@std@@@std@@YAXPAU?$format_item@DU?$char_traits@D@std@@V?$allocator@D@2@@detail@io@boost@@QAU1234@AAV?$allocator@U?$format_item@DU?$char_traits@D@std@@V?$allocator@D@2@@detail@io@boost@@@0@@Z 004a3230 f i NCInfoView.obj
 0001:000a2260       ??0?$wrapexcept@Vbad_format_string@io@boost@@@boost@@QAE@ABU01@@Z 004a3260 f i NCInfoView.obj
 0001:000a2330       ??0bad_format_string@io@boost@@QAE@ABV012@@Z 004a3330 f i NCInfoView.obj
 0001:000a2370       ??0format_error@io@boost@@QAE@ABV012@@Z 004a3370 f i NCInfoView.obj
 0001:000a23b0       ?rethrow@?$wrapexcept@Vbad_format_string@io@boost@@@boost@@UBEXXZ 004a33b0 f i NCInfoView.obj
 0001:000a23e0       ?clone@?$wrapexcept@Vbad_format_string@io@boost@@@boost@@UBEPBVclone_base@exception_detail@2@XZ 004a33e0 f i NCInfoView.obj
 0001:000a2470       ??0?$wrapexcept@Vbad_format_string@io@boost@@@boost@@QAE@ABVbad_format_string@io@1@@Z 004a3470 f i NCInfoView.obj
 0001:000a24f0       ?parse@?$basic_format@DU?$char_traits@D@std@@V?$allocator@D@2@@boost@@QAEAAV12@ABV?$basic_string@DU?$char_traits@D@std@@V?$allocator@D@2@@std@@@Z 004a34f0 f i NCInfoView.obj
 0001:000a28e0       ?str@?$basic_format@DU?$char_traits@D@std@@V?$allocator@D@2@@boost@@QBE?AV?$basic_string@DU?$char_traits@D@std@@V?$allocator@D@2@@std@@XZ 004a38e0 f i NCInfoView.obj
 0001:000a2af0       ??$throw_bad_cast@_KV?$basic_string@DU?$char_traits@D@std@@V?$allocator@D@2@@std@@@detail@conversion@boost@@YAXXZ 004a3af0 f i NCInfoView.obj
 0001:000a2b40       ??1?$format_item@DU?$char_traits@D@std@@V?$allocator@D@2@@detail@io@boost@@QAE@XZ 004a3b40 f i NCInfoView.obj
 0001:000a2c00       ?try_convert@?$lexical_converter_impl@V?$basic_string@DU?$char_traits@D@std@@V?$allocator@D@2@@std@@_K@detail@boost@@SA_NAB_KAAV?$basic_string@DU?$char_traits@D@std@@V?$allocator@D@2@@std@@@Z 004a3c00 f i NCInfoView.obj
 0001:000a2c80       ??0?$format_item@DU?$char_traits@D@std@@V?$allocator@D@2@@detail@io@boost@@QAE@D@Z 004a3c80 f i NCInfoView.obj
 0001:000a2d10       ?resize@?$vector@U?$format_item@DU?$char_traits@D@std@@V?$allocator@D@2@@detail@io@boost@@V?$allocator@U?$format_item@DU?$char_traits@D@std@@V?$allocator@D@2@@detail@io@boost@@@std@@@std@@QAEXIABU?$format_item@DU?$char_traits@D@std@@V?$allocator@D@2@@detail@io@boost@@@Z 004a3d10 f i NCInfoView.obj
 0001:000a2dc0       ?reserve@?$basic_string@DU?$char_traits@D@std@@V?$allocator@D@2@@std@@QAEXI@Z 004a3dc0 f i NCInfoView.obj
 0001:000a2f10       ?make_or_reuse_data@?$basic_format@DU?$char_traits@D@std@@V?$allocator@D@2@@boost@@AAEXI@Z 004a3f10 f i NCInfoView.obj
 0001:000a3130       ??$upper_bound_from_fstring@V?$basic_string@DU?$char_traits@D@std@@V?$allocator@D@2@@std@@V?$ctype@D@2@@detail@io@boost@@YAHABV?$basic_string@DU?$char_traits@D@std@@V?$allocator@D@2@@std@@DABV?$ctype@D@4@E@Z 004a4130 f i NCInfoView.obj
 0001:000a3290       ??$parse_printf_directive@DU?$char_traits@D@std@@V?$allocator@D@2@V?$_String_const_iterator@V?$_String_val@U?$_Simple_types@D@std@@@std@@@2@V?$ctype@D@2@@detail@io@boost@@YA_NAAV?$_String_const_iterator@V?$_String_val@U?$_Simple_types@D@std@@@std@@@std@@ABV34@PAU?$format_item@DU?$char_traits@D@std@@V?$allocator@D@2@@012@ABV?$ctype@D@4@IE@Z 004a4290 f i NCInfoView.obj
 0001:000a3b60       ??$throw_exception@Vtoo_few_args@io@boost@@@boost@@YAXABVtoo_few_args@io@0@@Z 004a4b60 f i NCInfoView.obj
 0001:000a3b90       ??$feed_impl@DU?$char_traits@D@std@@V?$allocator@D@2@ABU?$put_holder@DU?$char_traits@D@std@@@detail@io@boost@@@detail@io@boost@@YAAAV?$basic_format@DU?$char_traits@D@std@@V?$allocator@D@2@@2@AAV32@ABU?$put_holder@DU?$char_traits@D@std@@@012@@Z 004a4b90 f i NCInfoView.obj
 0001:000a3cd0       ??0?$wrapexcept@Vtoo_few_args@io@boost@@@boost@@QAE@ABU01@@Z 004a4cd0 f i NCInfoView.obj
 0001:000a3da0       ??0too_few_args@io@boost@@QAE@ABV012@@Z 004a4da0 f i NCInfoView.obj
 0001:000a3de0       ?convert@?$lcast_put_unsigned@U?$char_traits@D@std@@_KD@detail@boost@@QAEPADXZ 004a4de0 f i NCInfoView.obj
 0001:000a3f80       ?rethrow@?$wrapexcept@Vtoo_few_args@io@boost@@@boost@@UBEXXZ 004a4f80 f i NCInfoView.obj
 0001:000a3fb0       ?clone@?$wrapexcept@Vtoo_few_args@io@boost@@@boost@@UBEPBVclone_base@exception_detail@2@XZ 004a4fb0 f i NCInfoView.obj
 0001:000a4040       ??0?$wrapexcept@Vtoo_few_args@io@boost@@@boost@@QAE@ABVtoo_few_args@io@1@@Z 004a5040 f i NCInfoView.obj
 0001:000a40c0       ?assign@?$vector@U?$format_item@DU?$char_traits@D@std@@V?$allocator@D@2@@detail@io@boost@@V?$allocator@U?$format_item@DU?$char_traits@D@std@@V?$allocator@D@2@@detail@io@boost@@@std@@@std@@QAEXIABU?$format_item@DU?$char_traits@D@std@@V?$allocator@D@2@@detail@io@boost@@@Z 004a50c0 f i NCInfoView.obj
 0001:000a4260       ?resize@?$vector@_NV?$allocator@_N@std@@@std@@QAEXI_N@Z 004a5260 f i NCInfoView.obj
 0001:000a42d0       ?main_convert_iteration@?$lcast_put_unsigned@U?$char_traits@D@std@@_KD@detail@boost@@AAE_NXZ 004a52d0 f i NCInfoView.obj
 0001:000a4370       ?erase@?$vector@_NV?$allocator@_N@std@@@std@@QAE?AV?$_Vb_iterator@U?$_Wrap_alloc@V?$allocator@I@std@@@std@@@2@V?$_Vb_const_iterator@U?$_Wrap_alloc@V?$allocator@I@std@@@std@@@2@0@Z 004a5370 f i NCInfoView.obj
 0001:000a4510       ??Y?$_Vb_iterator@U?$_Wrap_alloc@V?$allocator@I@std@@@std@@@std@@QAEAAV01@H@Z 004a5510 f i NCInfoView.obj
 0001:000a4570       ?allocate@?$allocator@U?$format_item@DU?$char_traits@D@std@@V?$allocator@D@2@@detail@io@boost@@@std@@QAEPAU?$format_item@DU?$char_traits@D@std@@V?$allocator@D@2@@detail@io@boost@@I@Z 004a5570 f i NCInfoView.obj
 0001:000a45e0       ?_Xlen@?$vector@_NV?$allocator@_N@std@@@std@@QBEXXZ 004a55e0 f i NCInfoView.obj
 0001:000a45f0       ?clear@?$basic_format@DU?$char_traits@D@std@@V?$allocator@D@2@@boost@@QAEAAV12@XZ 004a55f0 f i NCInfoView.obj
 0001:000a46d0       ??$str2int@_JV?$_String_const_iterator@V?$_String_val@U?$_Simple_types@D@std@@@std@@@std@@V?$ctype@D@2@@detail@io@boost@@YA?AV?$_String_const_iterator@V?$_String_val@U?$_Simple_types@D@std@@@std@@@std@@ABV34@0AA_JABV?$ctype@D@4@@Z 004a56d0 f i NCInfoView.obj
 0001:000a4770       ??$call_put_last@DU?$char_traits@D@std@@$$CBH@detail@io@boost@@YAXAAV?$basic_ostream@DU?$char_traits@D@std@@@std@@PBX@Z 004a5770 f i NCInfoView.obj
 0001:000a4790       ??$_Resize_reallocate@U?$format_item@DU?$char_traits@D@std@@V?$allocator@D@2@@detail@io@boost@@@?$vector@U?$format_item@DU?$char_traits@D@std@@V?$allocator@D@2@@detail@io@boost@@V?$allocator@U?$format_item@DU?$char_traits@D@std@@V?$allocator@D@2@@detail@io@boost@@@std@@@std@@AAEXIABU?$format_item@DU?$char_traits@D@std@@V?$allocator@D@2@@detail@io@boost@@@Z 004a5790 f i NCInfoView.obj
 0001:000a4a50       ??$_Uninitialized_fill_n@V?$allocator@U?$format_item@DU?$char_traits@D@std@@V?$allocator@D@2@@detail@io@boost@@@std@@@std@@YAPAU?$format_item@DU?$char_traits@D@std@@V?$allocator@D@2@@detail@io@boost@@PAU1234@IABU1234@AAV?$allocator@U?$format_item@DU?$char_traits@D@std@@V?$allocator@D@2@@detail@io@boost@@@0@@Z 004a5a50 f i NCInfoView.obj
 0001:000a4b50       ??$fill@PAU?$format_item@DU?$char_traits@D@std@@V?$allocator@D@2@@detail@io@boost@@U1234@@std@@YAXQAU?$format_item@DU?$char_traits@D@std@@V?$allocator@D@2@@detail@io@boost@@0ABU1234@@Z 004a5b50 f i NCInfoView.obj
 0001:000a4c70       ??1?$_Uninitialized_backout_al@V?$allocator@U?$format_item@DU?$char_traits@D@std@@V?$allocator@D@2@@detail@io@boost@@@std@@@std@@QAE@XZ 004a5c70 f i NCInfoView.obj
 0001:000a4ca0       ??$throw_exception@Vtoo_many_args@io@boost@@@boost@@YAXABVtoo_many_args@io@0@@Z 004a5ca0 f i NCInfoView.obj
 0001:000a4cc0       ??$put@DU?$char_traits@D@std@@V?$allocator@D@2@ABU?$put_holder@DU?$char_traits@D@std@@@detail@io@boost@@@detail@io@boost@@YAXABU?$put_holder@DU?$char_traits@D@std@@@012@ABU?$format_item@DU?$char_traits@D@std@@V?$allocator@D@2@@012@AAV?$basic_string@DU?$char_traits@D@std@@V?$allocator@D@2@@std@@AAV?$basic_altstringbuf@DU?$char_traits@D@std@@V?$allocator@D@2@@12@PAVlocale@6@@Z 004a5cc0 f i NCInfoView.obj
 0001:000a53d0       ??0?$wrapexcept@Vtoo_many_args@io@boost@@@boost@@QAE@ABU01@@Z 004a63d0 f i NCInfoView.obj
 0001:000a54a0       ??0too_many_args@io@boost@@QAE@ABV012@@Z 004a64a0 f i NCInfoView.obj
 0001:000a54e0       ??_D?$basic_oaltstringstream@DU?$char_traits@D@std@@V?$allocator@D@2@@io@boost@@QAEXXZ 004a64e0 f i NCInfoView.obj
 0001:000a5530       ??1?$base_from_member@V?$shared_ptr@V?$basic_altstringbuf@DU?$char_traits@D@std@@V?$allocator@D@2@@io@boost@@@boost@@$0A@@boost@@QAE@XZ 004a6530 f i NCInfoView.obj
 0001:000a5570       ??0?$basic_oaltstringstream@DU?$char_traits@D@std@@V?$allocator@D@2@@io@boost@@QAE@PAV?$basic_altstringbuf@DU?$char_traits@D@std@@V?$allocator@D@2@@12@@Z 004a6570 f i NCInfoView.obj
 0001:000a5630       ?rethrow@?$wrapexcept@Vtoo_many_args@io@boost@@@boost@@UBEXXZ 004a6630 f i NCInfoView.obj
 0001:000a5660       ?clone@?$wrapexcept@Vtoo_many_args@io@boost@@@boost@@UBEPBVclone_base@exception_detail@2@XZ 004a6660 f i NCInfoView.obj
 0001:000a56f0       ??0?$wrapexcept@Vtoo_many_args@io@boost@@@boost@@QAE@ABVtoo_many_args@io@1@@Z 004a66f0 f i NCInfoView.obj
 0001:000a5770       ??_E?$basic_oaltstringstream@DU?$char_traits@D@std@@V?$allocator@D@2@@io@boost@@UAEPAXI@Z 004a6770 f i * CIL library *:* CIL module *
 0001:000a5770       ??_G?$basic_oaltstringstream@DU?$char_traits@D@std@@V?$allocator@D@2@@io@boost@@UAEPAXI@Z 004a6770 f i NCInfoView.obj
 0001:000a57e0       ??1sentry@?$basic_ostream@DU?$char_traits@D@std@@@std@@QAE@XZ 004a67e0 f i NCInfoView.obj
 0001:000a5850       ??1_Sentry_base@?$basic_ostream@DU?$char_traits@D@std@@@std@@QAE@XZ 004a6850 f i NCInfoView.obj
 0001:000a58a0       ?clear_buffer@?$basic_altstringbuf@DU?$char_traits@D@std@@V?$allocator@D@2@@io@boost@@QAEXXZ 004a68a0 f i NCInfoView.obj
 0001:000a5940       ??$?6U?$char_traits@D@std@@@std@@YAAAV?$basic_ostream@DU?$char_traits@D@std@@@0@AAV10@D@Z 004a6940 f i NCInfoView.obj
 0001:000a5b50       ??$?0PAV?$basic_altstringbuf@DU?$char_traits@D@std@@V?$allocator@D@2@@io@boost@@VNo_Op@?$basic_oaltstringstream@DU?$char_traits@D@std@@V?$allocator@D@2@@12@@shared_count@detail@boost@@QAE@PAV?$basic_altstringbuf@DU?$char_traits@D@std@@V?$allocator@D@2@@io@2@VNo_Op@?$basic_oaltstringstream@DU?$char_traits@D@std@@V?$allocator@D@2@@42@@Z 004a6b50 f i NCInfoView.obj
 0001:000a5be0       ?get_untyped_deleter@?$sp_counted_impl_pd@PAV?$basic_altstringbuf@DU?$char_traits@D@std@@V?$allocator@D@2@@io@boost@@VNo_Op@?$basic_oaltstringstream@DU?$char_traits@D@std@@V?$allocator@D@2@@23@@detail@boost@@UAEPAXXZ 004a6be0 f i NCInfoView.obj
 0001:000a5bf0       ?get_local_deleter@?$sp_counted_impl_pd@PAV?$basic_altstringbuf@DU?$char_traits@D@std@@V?$allocator@D@2@@io@boost@@VNo_Op@?$basic_oaltstringstream@DU?$char_traits@D@std@@V?$allocator@D@2@@23@@detail@boost@@UAEPAXABVtype_info@@@Z 004a6bf0 f i NCInfoView.obj
 0001:000a5c10       ?get_deleter@?$sp_counted_impl_pd@PAV?$basic_altstringbuf@DU?$char_traits@D@std@@V?$allocator@D@2@@io@boost@@VNo_Op@?$basic_oaltstringstream@DU?$char_traits@D@std@@V?$allocator@D@2@@23@@detail@boost@@UAEPAXABVtype_info@@@Z 004a6c10 f i NCInfoView.obj
 0001:000a5c40       ??_E?$sp_counted_impl_pd@PAV?$basic_altstringbuf@DU?$char_traits@D@std@@V?$allocator@D@2@@io@boost@@VNo_Op@?$basic_oaltstringstream@DU?$char_traits@D@std@@V?$allocator@D@2@@23@@detail@boost@@UAEPAXI@Z 004a6c40 f i * CIL library *:* CIL module *
 0001:000a5c40       ??_G?$sp_counted_impl_pd@PAV?$basic_altstringbuf@DU?$char_traits@D@std@@V?$allocator@D@2@@io@boost@@VNo_Op@?$basic_oaltstringstream@DU?$char_traits@D@std@@V?$allocator@D@2@@23@@detail@boost@@UAEPAXI@Z 004a6c40 f i NCInfoView.obj
 0001:000a5c61       ??_E?$basic_oaltstringstream@DU?$char_traits@D@std@@V?$allocator@D@2@@io@boost@@$4PPPPPPPM@A@AEPAXI@Z 004a6c61 f i NCInfoView.obj
 0001:000a5c70       ?GetMessageMap@CNCJumpDlg@@MBEPBUAFX_MSGMAP@@XZ 004a6c70 f   NCJumpDlg.obj
 0001:000a5c80       ??_ECNCJumpDlg@@UAEPAXI@Z  004a6c80 f i * CIL library *:* CIL module *
 0001:000a5c80       ??_GCNCJumpDlg@@UAEPAXI@Z  004a6c80 f i NCJumpDlg.obj
 0001:000a5ce0       ?DoDataExchange@CNCJumpDlg@@MAEXPAVCDataExchange@@@Z 004a6ce0 f   NCJumpDlg.obj
 0001:000a5d10       ?OnInitDialog@CNCJumpDlg@@MAEHXZ 004a6d10 f   NCJumpDlg.obj
 0001:000a5e50       ?OnOK@CNCJumpDlg@@MAEXXZ   004a6e50 f   NCJumpDlg.obj
 0001:000a5f20       ?OnCancel@CNCJumpDlg@@MAEXXZ 004a6f20 f   NCJumpDlg.obj
 0001:000a5f40       ?PostNcDestroy@CNCJumpDlg@@MAEXXZ 004a6f40 f   NCJumpDlg.obj
 0001:000a5f80       ?OnUserSwitchDocument@CNCJumpDlg@@IAEJIJ@Z 004a6f80 f   NCJumpDlg.obj
 0001:000a5ff0       ??_ECNCListView@@UAEPAXI@Z 004a6ff0 f i * CIL library *:* CIL module *
 0001:000a5ff0       ??_GCNCListView@@UAEPAXI@Z 004a6ff0 f i NCListView.obj
 0001:000a6060       ?CreateObject@CNCListView@@SGPAVCObject@@XZ 004a7060 f   NCListView.obj
 0001:000a6100       ?_GetBaseClass@CNCListView@@KGPAUCRuntimeClass@@XZ 004a7100 f   NCListView.obj
 0001:000a6110       ?GetRuntimeClass@CNCListView@@UBEPAUCRuntimeClass@@XZ 004a7110 f   NCListView.obj
 0001:000a6120       ?GetMessageMap@CNCListView@@MBEPBUAFX_MSGMAP@@XZ 004a7120 f   NCListView.obj
 0001:000a6130       ?PreCreateWindow@CNCListView@@MAEHAAUtagCREATESTRUCTA@@@Z 004a7130 f   NCListView.obj
 0001:000a6150       ?OnInitialUpdate@CNCListView@@UAEXXZ 004a7150 f   NCListView.obj
 0001:000a6220       ?OnUpdate@CNCListView@@MAEXPAVCView@@JPAVCObject@@@Z 004a7220 f   NCListView.obj
 0001:000a6390       ?PreTranslateMessage@CNCListView@@UAEHPAUtagMSG@@@Z 004a7390 f   NCListView.obj
 0001:000a6470       ?SetFindList@CNCListView@@QAEXHABV?$CStringT@DV?$StrTraitMFC_DLL@DV?$ChTraitsCRT@D@ATL@@@@@ATL@@@Z 004a7470 f   NCListView.obj
 0001:000a6620       ?OnUpdateViewJump@CNCListView@@IAEXPAVCCmdUI@@@Z 004a7620 f   NCListView.obj
 0001:000a6660       ?OnViewJump@CNCListView@@IAEXXZ 004a7660 f   NCListView.obj
 0001:000a6790       ?OnUpdateViewFind@CNCListView@@IAEXPAVCCmdUI@@@Z 004a7790 f   NCListView.obj
 0001:000a67d0       ?OnViewFind@CNCListView@@IAEXXZ 004a77d0 f   NCListView.obj
 0001:000a69e0       ?OnUpdateFileInsert@CNCListView@@IAEXPAVCCmdUI@@@Z 004a79e0 f   NCListView.obj
 0001:000a69e0       ?OnUpdateTraceBreak@CNCListView@@IAEXPAVCCmdUI@@@Z 004a79e0 f   NCListView.obj
 0001:000a6a10       ?OnTraceBreak@CNCListView@@IAEXXZ 004a7a10 f   NCListView.obj
 0001:000a6a80       ?OnTraceBreakOFF@CNCListView@@IAEXXZ 004a7a80 f   NCListView.obj
 0001:000a6ad0       ?OnFileInsert@CNCListView@@IAEXXZ 004a7ad0 f   NCListView.obj
 0001:000a6bd0       ?OnCreate@CNCListView@@IAEHPAUtagCREATESTRUCTA@@@Z 004a7bd0 f   NCListView.obj
 0001:000a6cc0       ?OnContextMenu@CNCListView@@IAEXPAVCWnd@@VCPoint@@@Z 004a7cc0 f   NCListView.obj
 0001:000a6d90       ?OnGetDispInfo@CNCListView@@IAEXPAUtagNMHDR@@PAJ@Z 004a7d90 f   NCListView.obj
 0001:000a6e80       ?OnItemChanged@CNCListView@@IAEXPAUtagNMHDR@@PAJ@Z 004a7e80 f   NCListView.obj
 0001:000a6f80       ?OnSelectTrace@CNCListView@@IAEJIJ@Z 004a7f80 f   NCListView.obj
 0001:000a7050       ?OnKeyDown@CNCListView@@IAEXPAUtagNMHDR@@PAJ@Z 004a8050 f   NCListView.obj
 0001:000a70b0       ?str@?$basic_regex@DU?$regex_traits@DV?$w32_regex_traits@D@boost@@@boost@@@boost@@QBE?AV?$basic_string@DU?$char_traits@D@std@@V?$allocator@D@2@@std@@XZ 004a80b0 f i NCListView.obj
 0001:000a71d0       ?str@?$basic_regex_implementation@DU?$regex_traits@DV?$w32_regex_traits@D@boost@@@boost@@@re_detail_500@boost@@QBE?AV?$basic_string@DU?$char_traits@D@std@@V?$allocator@D@2@@std@@XZ 004a81d0 f i NCListView.obj
 0001:000a7340       ?MakeStrBlock@CNCMakeBase@@KA?AV?$CStringT@DV?$StrTraitMFC_DLL@DV?$ChTraitsCRT@D@ATL@@@@@ATL@@ABV23@@Z 004a8340 f i NCMakeBase.obj
 0001:000a73f0       ?MakeEllipse@CNCMakeBase@@IAEXPBVCDXFellipse@@M@Z 004a83f0 f   NCMakeBase.obj
 0001:000a7750       ?MakeEllipse_Tolerance@CNCMakeBase@@IAE?AV?$CStringT@DV?$StrTraitMFC_DLL@DV?$ChTraitsCRT@D@ATL@@@@@ATL@@PBVCDXFellipse@@M@Z 004a8750 f   NCMakeBase.obj
 0001:000a7910       ?MakePolylineCut@CNCMakeBase@@IAEXPBVCDXFpolyline@@M@Z 004a8910 f   NCMakeBase.obj
 0001:000a7c70       ?MakeCustomString@CNCMakeBase@@SA?AV?$CStringT@DV?$StrTraitMFC_DLL@DV?$ChTraitsCRT@D@ATL@@@@@ATL@@HKPAMH@Z 004a8c70 f   NCMakeBase.obj
 0001:000a7ec0       ?GetChangeEnter@CNCMakeBase@@KA?AV?$CStringT@DV?$StrTraitMFC_DLL@DV?$ChTraitsCRT@D@ATL@@@@@ATL@@ABV23@@Z 004a8ec0 f   NCMakeBase.obj
 0001:000a7ff0       ?GetSpindleString@CNCMakeBase@@KA?AV?$CStringT@DV?$StrTraitMFC_DLL@DV?$ChTraitsCRT@D@ATL@@@@@ATL@@H@Z 004a8ff0 f   NCMakeBase.obj
 0001:000a8180       ?GetLineNoString_Clip@CNCMakeBase@@KA?AV?$CStringT@DV?$StrTraitMFC_DLL@DV?$ChTraitsCRT@D@ATL@@@@@ATL@@XZ 004a9180 f   NCMakeBase.obj
 0001:000a8180       ?GetSpindleString_Clip@CNCMakeBase@@KA?AV?$CStringT@DV?$StrTraitMFC_DLL@DV?$ChTraitsCRT@D@ATL@@@@@ATL@@H@Z 004a9180 f   NCMakeBase.obj
 0001:000a8190       ?GetFeedString@CNCMakeBase@@KA?AV?$CStringT@DV?$StrTraitMFC_DLL@DV?$ChTraitsCRT@D@ATL@@@@@ATL@@M@Z 004a9190 f   NCMakeBase.obj
 0001:000a82a0       ?GetFeedString_Integer@CNCMakeBase@@KA?AV?$CStringT@DV?$StrTraitMFC_DLL@DV?$ChTraitsCRT@D@ATL@@@@@ATL@@M@Z 004a92a0 f   NCMakeBase.obj
 0001:000a8370       ?GetLineNoString@CNCMakeBase@@KA?AV?$CStringT@DV?$StrTraitMFC_DLL@DV?$ChTraitsCRT@D@ATL@@@@@ATL@@XZ 004a9370 f   NCMakeBase.obj
 0001:000a8410       ?GetGString@CNCMakeBase@@KA?AV?$CStringT@DV?$StrTraitMFC_DLL@DV?$ChTraitsCRT@D@ATL@@@@@ATL@@H@Z 004a9410 f   NCMakeBase.obj
 0001:000a8480       ?GetGString_Clip@CNCMakeBase@@KA?AV?$CStringT@DV?$StrTraitMFC_DLL@DV?$ChTraitsCRT@D@ATL@@@@@ATL@@H@Z 004a9480 f   NCMakeBase.obj
 0001:000a8590       ?GetValString_Normal@CNCMakeBase@@KA?AV?$CStringT@DV?$StrTraitMFC_DLL@DV?$ChTraitsCRT@D@ATL@@@@@ATL@@M@Z 004a9590 f   NCMakeBase.obj
 0001:000a8610       ?GetValString_UZeroCut@CNCMakeBase@@KA?AV?$CStringT@DV?$StrTraitMFC_DLL@DV?$ChTraitsCRT@D@ATL@@@@@ATL@@M@Z 004a9610 f   NCMakeBase.obj
 0001:000a8750       ?GetValString_Multi1000@CNCMakeBase@@KA?AV?$CStringT@DV?$StrTraitMFC_DLL@DV?$ChTraitsCRT@D@ATL@@@@@ATL@@M@Z 004a9750 f   NCMakeBase.obj
 0001:000a8850       ?MakeCircleSub_R@CNCMakeBase@@KA?AV?$CStringT@DV?$StrTraitMFC_DLL@DV?$ChTraitsCRT@D@ATL@@@@@ATL@@HABV?$CPointT@M@@0M@Z 004a9850 f   NCMakeBase.obj
 0001:000a89a0       ?MakeCircleSub_IJ@CNCMakeBase@@KA?AV?$CStringT@DV?$StrTraitMFC_DLL@DV?$ChTraitsCRT@D@ATL@@@@@ATL@@HABV?$CPointT@M@@0M@Z 004a99a0 f   NCMakeBase.obj
 0001:000a8b50       ?MakeCircleSub_Helical@CNCMakeBase@@KA?AV?$CStringT@DV?$StrTraitMFC_DLL@DV?$ChTraitsCRT@D@ATL@@@@@ATL@@HABV?$CPoint3T@M@@@Z 004a9b50 f   NCMakeBase.obj
 0001:000a8cb0       ?MakeCircle_R@CNCMakeBase@@KA?AV?$CStringT@DV?$StrTraitMFC_DLL@DV?$ChTraitsCRT@D@ATL@@@@@ATL@@PBVCDXFcircle@@M@Z 004a9cb0 f   NCMakeBase.obj
 0001:000a8ec0       ?MakeCircle_IJ@CNCMakeBase@@KA?AV?$CStringT@DV?$StrTraitMFC_DLL@DV?$ChTraitsCRT@D@ATL@@@@@ATL@@PBVCDXFcircle@@M@Z 004a9ec0 f   NCMakeBase.obj
 0001:000a90b0       ?MakeCircle_IJHALF@CNCMakeBase@@KA?AV?$CStringT@DV?$StrTraitMFC_DLL@DV?$ChTraitsCRT@D@ATL@@@@@ATL@@PBVCDXFcircle@@M@Z 004aa0b0 f   NCMakeBase.obj
 0001:000a93c0       ?MakeCircle_R_Helical@CNCMakeBase@@KA?AV?$CStringT@DV?$StrTraitMFC_DLL@DV?$ChTraitsCRT@D@ATL@@@@@ATL@@PBVCDXFcircle@@MM@Z 004aa3c0 f   NCMakeBase.obj
 0001:000a9690       ?MakeCircle_IJ_Helical@CNCMakeBase@@KA?AV?$CStringT@DV?$StrTraitMFC_DLL@DV?$ChTraitsCRT@D@ATL@@@@@ATL@@PBVCDXFcircle@@MM@Z 004aa690 f   NCMakeBase.obj
 0001:000a98d0       ?MakeCircle_IJHALF_Helical@CNCMakeBase@@KA?AV?$CStringT@DV?$StrTraitMFC_DLL@DV?$ChTraitsCRT@D@ATL@@@@@ATL@@PBVCDXFcircle@@MM@Z 004aa8d0 f   NCMakeBase.obj
 0001:000a9d30       ?MakeArc_R@CNCMakeBase@@KA?AV?$CStringT@DV?$StrTraitMFC_DLL@DV?$ChTraitsCRT@D@ATL@@@@@ATL@@PBVCDXFarc@@M@Z 004aad30 f   NCMakeBase.obj
 0001:000a9e60       ?MakeArc_IJ@CNCMakeBase@@KA?AV?$CStringT@DV?$StrTraitMFC_DLL@DV?$ChTraitsCRT@D@ATL@@@@@ATL@@PBVCDXFarc@@M@Z 004aae60 f   NCMakeBase.obj
 0001:000aa050       ??1CNCMakeBase@@QAE@XZ     004ab050 f i NCMakeLathe.obj
 0001:000aa050       ??1CNCMakeMill@@QAE@XZ     004ab050 f i NCMakeWire.obj
 0001:000aa070       ??0CNCMakeLathe@@QAE@PBVCDXFdata@@M@Z 004ab070 f   NCMakeLathe.obj
 0001:000aa320       ??0CNCMakeLathe@@QAE@HABV?$CPointT@M@@M@Z 004ab320 f   NCMakeLathe.obj
 0001:000aa4c0       ??0CNCMakeLathe@@QAE@W4TWOMOVEMODE@@ABV?$CPointT@M@@M@Z 004ab4c0 f   NCMakeLathe.obj
 0001:000aa910       ??0CNCMakeLathe@@QAE@HHMM@Z 004ab910 f   NCMakeLathe.obj
 0001:000aaa90       ?CreateEndFace@CNCMakeLathe@@QAEXABV?$CPointT@M@@@Z 004aba90 f   NCMakeLathe.obj
 0001:000ab490       ?CreatePilotHole@CNCMakeLathe@@QAEXXZ 004ac490 f   NCMakeLathe.obj
 0001:000ac2d0       ?CreateGroove@CNCMakeLathe@@QAEXABV?$CPointT@M@@M@Z 004ad2d0 f   NCMakeLathe.obj
 0001:000ac7c0       ?CreateGroove@CNCMakeLathe@@QAEXABV?$CPointT@M@@0M@Z 004ad7c0 f   NCMakeLathe.obj
 0001:000acf10       ?GetValString@CNCMakeLathe@@CA?AV?$CStringT@DV?$StrTraitMFC_DLL@DV?$ChTraitsCRT@D@ATL@@@@@ATL@@HMH@Z 004adf10 f   NCMakeLathe.obj
 0001:000ad260       ?SetStaticOption@CNCMakeLathe@@SAXPBVCNCMakeLatheOpt@@@Z 004ae260 f   NCMakeLathe.obj
 0001:000ad510       ??_ECNCMakeLatheOpt@@UAEPAXI@Z 004ae510 f i * CIL library *:* CIL module *
 0001:000ad510       ??_ECNCMakeMillOpt@@UAEPAXI@Z 004ae510 f i * CIL library *:* CIL module *
 0001:000ad510       ??_ECNCMakeOption@@UAEPAXI@Z 004ae510 f i * CIL library *:* CIL module *
 0001:000ad510       ??_ECNCMakeWireOpt@@UAEPAXI@Z 004ae510 f i * CIL library *:* CIL module *
 0001:000ad510       ??_GCNCMakeLatheOpt@@UAEPAXI@Z 004ae510 f i NCMakeLatheOpt.obj
 0001:000ad510       ??_GCNCMakeMillOpt@@UAEPAXI@Z 004ae510 f i NCMakeMillOpt.obj
 0001:000ad510       ??_GCNCMakeOption@@UAEPAXI@Z 004ae510 f i NCMakeOption.obj
 0001:000ad510       ??_GCNCMakeWireOpt@@UAEPAXI@Z 004ae510 f i NCMakeWireOpt.obj
 0001:000ad560       ?InitialDefault@CNCMakeLatheOpt@@MAEXXZ 004ae560 f   NCMakeLatheOpt.obj
 0001:000ad6f0       ?IsPathID@CNCMakeLatheOpt@@MAEHH@Z 004ae6f0 f   NCMakeLatheOpt.obj
 0001:000ad6f0       ?IsPathID@CNCMakeWireOpt@@MAEHH@Z 004ae6f0 f   NCMakeWireOpt.obj
 0001:000ad710       ?GetLineNoForm@CNCMakeLatheOpt@@UBE?AV?$CStringT@DV?$StrTraitMFC_DLL@DV?$ChTraitsCRT@D@ATL@@@@@ATL@@XZ 004ae710 f   NCMakeLatheOpt.obj
 0001:000ad710       ?GetLineNoForm@CNCMakeMillOpt@@UBE?AV?$CStringT@DV?$StrTraitMFC_DLL@DV?$ChTraitsCRT@D@ATL@@@@@ATL@@XZ 004ae710 f   NCMakeMillOpt.obj
 0001:000ad710       ?GetLineNoForm@CNCMakeWireOpt@@UBE?AV?$CStringT@DV?$StrTraitMFC_DLL@DV?$ChTraitsCRT@D@ATL@@@@@ATL@@XZ 004ae710 f   NCMakeWireOpt.obj
 0001:000ad740       ?GetDrillInfo@CNCMakeLatheOpt@@QBEHAAV?$vector@ULATHEDRILLINFO@@V?$allocator@ULATHEDRILLINFO@@@std@@@std@@@Z 004ae740 f   NCMakeLatheOpt.obj
 0001:000ae370       ??$?EV?$token_iterator@V?$char_separator@DU?$char_traits@D@std@@@boost@@V?$_String_const_iterator@V?$_String_val@U?$_Simple_types@D@std@@@std@@@std@@V?$basic_string@DU?$char_traits@D@std@@V?$allocator@D@2@@4@@boost@@V?$basic_string@DU?$char_traits@D@std@@V?$allocator@D@2@@std@@Uforward_traversal_tag@iterators@1@ABV23@H@iterators@boost@@YA?AV?$token_iterator@V?$char_separator@DU?$char_traits@D@std@@@boost@@V?$_String_const_iterator@V?$_String_val@U?$_Simple_types@D@std@@@std@@@std@@V?$basic_string@DU?$char_traits@D@std@@V?$allocator@D@2@@4@@1@AAV?$iterator_facade@V?$token_iterator@V?$char_separator@DU?$char_traits@D@std@@@boost@@V?$_String_const_iterator@V?$_String_val@U?$_Simple_types@D@std@@@std@@@std@@V?$basic_string@DU?$char_traits@D@std@@V?$allocator@D@2@@4@@boost@@V?$basic_string@DU?$char_traits@D@std@@V?$allocator@D@2@@std@@Uforward_traversal_tag@iterators@2@ABV34@H@01@H@Z 004af370 f i NCMakeLatheOpt.obj
 0001:000ae440       ??0CNCMakeMill@@QAE@PBVCDXFdata@@MPBM@Z 004af440 f   NCMakeMill.obj
 0001:000aec00       ??0CNCMakeMill@@QAE@PBVCDXFdata@@H@Z 004afc00 f   NCMakeMill.obj
 0001:000af0d0       ??0CNCMakeMill@@QAE@HMM@Z  004b00d0 f   NCMakeMill.obj
 0001:000af260       ??0CNCMakeMill@@QAE@HABV?$CPointT@M@@M@Z 004b0260 f   NCMakeMill.obj
 0001:000af420       ??0CNCMakeMill@@QAE@ABV?$CPoint3T@M@@M@Z 004b0420 f   NCMakeMill.obj
 0001:000af680       ?MakePolylineMov@CNCMakeMill@@IAEXPBVCDXFpolyline@@H@Z 004b0680 f   NCMakeMill.obj
 0001:000afa30       ?MakeSpindle@CNCMakeMill@@SA?AV?$CStringT@DV?$StrTraitMFC_DLL@DV?$ChTraitsCRT@D@ATL@@@@@ATL@@W4ENDXFTYPE@@H@Z 004b0a30 f   NCMakeMill.obj
 0001:000afb90       ?GetValString@CNCMakeMill@@KA?AV?$CStringT@DV?$StrTraitMFC_DLL@DV?$ChTraitsCRT@D@ATL@@@@@ATL@@HMH@Z 004b0b90 f   NCMakeMill.obj
 0001:000b0090       ?SetStaticOption@CNCMakeMill@@SAXPBVCNCMakeMillOpt@@@Z 004b1090 f   NCMakeMill.obj
 0001:000b03a0       ?GetCycleString@CNCMakeMill@@CA?AV?$CStringT@DV?$StrTraitMFC_DLL@DV?$ChTraitsCRT@D@ATL@@@@@ATL@@XZ 004b13a0 f   NCMakeMill.obj
 0001:000b0460       ?GetCycleString_Clip@CNCMakeMill@@CA?AV?$CStringT@DV?$StrTraitMFC_DLL@DV?$ChTraitsCRT@D@ATL@@@@@ATL@@XZ 004b1460 f   NCMakeMill.obj
 0001:000b04f0       ?InitialDefault@CNCMakeMillOpt@@MAEXXZ 004b14f0 f   NCMakeMillOpt.obj
 0001:000b0670       ?IsPathID@CNCMakeMillOpt@@MAEHH@Z 004b1670 f   NCMakeMillOpt.obj
 0001:000b0690       ?Convert@CNCMakeMillOpt@@AAEHXZ 004b1690 f   NCMakeMillOpt.obj
 0001:000b0980       ??0CNCMakeOption@@IAE@QAUNCMAKEOPTION@@HPAPBDHPAUSAVEORDER@@@Z 004b1980 f   NCMakeOption.obj
 0001:000b0ae0       ??1CNCMakeOption@@UAE@XZ   004b1ae0 f   NCMakeOption.obj
 0001:000b0b20       ?ReadMakeOption@CNCMakeOption@@QAEHPBD@Z 004b1b20 f   NCMakeOption.obj
 0001:000b19b0       ??1?$escaped_list_separator@DU?$char_traits@D@std@@@boost@@QAE@XZ 004b29b0 f i NCMakeOption.obj
 0001:000b1a90       ??1?$tokenizer@V?$escaped_list_separator@DU?$char_traits@D@std@@@boost@@V?$_String_const_iterator@V?$_String_val@U?$_Simple_types@D@std@@@std@@@std@@V?$basic_string@DU?$char_traits@D@std@@V?$allocator@D@2@@4@@boost@@QAE@XZ 004b2a90 f i NCMakeOption.obj
 0001:000b1aa0       ??1?$token_iterator@V?$escaped_list_separator@DU?$char_traits@D@std@@@boost@@V?$_String_const_iterator@V?$_String_val@U?$_Simple_types@D@std@@@std@@@std@@V?$basic_string@DU?$char_traits@D@std@@V?$allocator@D@2@@4@@boost@@QAE@XZ 004b2aa0 f i NCMakeOption.obj
 0001:000b1b00       ?SaveMakeOption@CNCMakeOption@@QAEHPBD@Z 004b2b00 f   NCMakeOption.obj
 0001:000b1f70       ??$?RV?$_String_const_iterator@V?$_String_val@U?$_Simple_types@D@std@@@std@@@std@@V?$basic_string@DU?$char_traits@D@std@@V?$allocator@D@2@@1@@?$escaped_list_separator@DU?$char_traits@D@std@@@boost@@QAE_NAAV?$_String_const_iterator@V?$_String_val@U?$_Simple_types@D@std@@@std@@@std@@V23@AAV?$basic_string@DU?$char_traits@D@std@@V?$allocator@D@2@@3@@Z 004b2f70 f i NCMakeOption.obj
 0001:000b2180       ??$do_escape@V?$_String_const_iterator@V?$_String_val@U?$_Simple_types@D@std@@@std@@@std@@V?$basic_string@DU?$char_traits@D@std@@V?$allocator@D@2@@2@@?$escaped_list_separator@DU?$char_traits@D@std@@@boost@@AAEXAAV?$_String_const_iterator@V?$_String_val@U?$_Simple_types@D@std@@@std@@@std@@V23@AAV?$basic_string@DU?$char_traits@D@std@@V?$allocator@D@2@@3@@Z 004b3180 f i NCMakeOption.obj
 0001:000b2330       ??$throw_exception@Uescaped_list_error@boost@@@boost@@YAXABUescaped_list_error@0@ABUsource_location@0@@Z 004b3330 f i NCMakeOption.obj
 0001:000b2350       ??0?$wrapexcept@Uescaped_list_error@boost@@@boost@@QAE@ABU01@@Z 004b3350 f i NCMakeOption.obj
 0001:000b2420       ??0escaped_list_error@boost@@QAE@ABU01@@Z 004b3420 f i NCMakeOption.obj
 0001:000b2460       ?rethrow@?$wrapexcept@Uescaped_list_error@boost@@@boost@@UBEXXZ 004b3460 f i NCMakeOption.obj
 0001:000b2490       ?clone@?$wrapexcept@Uescaped_list_error@boost@@@boost@@UBEPBVclone_base@exception_detail@2@XZ 004b3490 f i NCMakeOption.obj
 0001:000b2520       ??0?$wrapexcept@Uescaped_list_error@boost@@@boost@@QAE@ABUescaped_list_error@1@ABUsource_location@1@@Z 004b3520 f i NCMakeOption.obj
 0001:000b25b0       ??0escaped_list_error@boost@@QAE@ABV?$basic_string@DU?$char_traits@D@std@@V?$allocator@D@2@@std@@@Z 004b35b0 f i NCMakeOption.obj
 0001:000b2600       ??0source_location@boost@@QAE@PBDI0I@Z 004b3600 f i NCMakeOption.obj
 0001:000b2620       ??Y?$basic_string@DU?$char_traits@D@std@@V?$allocator@D@2@@std@@QAEAAV01@D@Z 004b3620 f i NCMakeOption.obj
 0001:000b2730       ??0CNCMakeWire@@QAE@PBVCDXFdata@@0M@Z 004b3730 f   NCMakeWire.obj
 0001:000b32b0       ??0CNCMakeWire@@QAE@ABV?$vector@V?$CPointT@M@@V?$allocator@V?$CPointT@M@@@std@@@std@@0M@Z 004b42b0 f   NCMakeWire.obj
 0001:000b39a0       ??0CNCMakeWire@@QAE@HABV?$CPointT@M@@MM@Z 004b49a0 f   NCMakeWire.obj
 0001:000b3d20       ??0CNCMakeWire@@QAE@ABV?$CPointT@M@@0M@Z 004b4d20 f   NCMakeWire.obj
 0001:000b4090       ?SetStaticOption@CNCMakeWire@@SAXPBVCNCMakeWireOpt@@@Z 004b5090 f   NCMakeWire.obj
 0001:000b42f0       ?InitialDefault@CNCMakeWireOpt@@MAEXXZ 004b52f0 f   NCMakeWireOpt.obj
 0001:000b44f0       ?GetMessageMap@CNCVCApp@@MBEPBUAFX_MSGMAP@@XZ 004b54f0 f   NCVC.obj
 0001:000b4500       ??0CNCVCApp@@QAE@XZ        004b5500 f   NCVC.obj
 0001:000b4760       ??_ECNCVCApp@@UAEPAXI@Z    004b5760 f i * CIL library *:* CIL module *
 0001:000b4760       ??_GCNCVCApp@@UAEPAXI@Z    004b5760 f i NCVC.obj
 0001:000b47a0       ??1?$CTypedPtrMap@VCMapWordToPtr@@GPAVCExecOption@@@@UAE@XZ 004b57a0 f i NCVC.obj
 0001:000b47a0       ??1?$CTypedPtrMap@VCMapWordToPtr@@GPAVCNCVCaddinMap@@@@UAE@XZ 004b57a0 f i NCVC.obj
 0001:000b47b0       ??1CNCVCApp@@UAE@XZ        004b57b0 f   NCVC.obj
 0001:000b4830       ?InitInstance@CNCVCApp@@UAEHXZ 004b5830 f   NCVC.obj
 0001:000b4de0       ?ExitInstance@CNCVCApp@@UAEHXZ 004b5de0 f   NCVC.obj
 0001:000b51c0       ?AddToRecentFileList@CNCVCApp@@UAEXPBD@Z 004b61c0 f   NCVC.obj
 0001:000b5300       ?NCVCRegInit@CNCVCApp@@AAEHXZ 004b6300 f   NCVC.obj
 0001:000b55d0       ?NCVCRegInit_OldExec@CNCVCApp@@AAEHAAV?$CStringT@DV?$StrTraitMFC_DLL@DV?$ChTraitsCRT@D@ATL@@@@@ATL@@@Z 004b65d0 f   NCVC.obj
 0001:000b58d0       ?NCVCRegInit_NewExec@CNCVCApp@@AAEHAAV?$CStringT@DV?$StrTraitMFC_DLL@DV?$ChTraitsCRT@D@ATL@@@@@ATL@@H@Z 004b68d0 f   NCVC.obj
 0001:000b5a90       ?NCVCRegOld@CNCVCApp@@AAEXXZ 004b6a90 f   NCVC.obj
 0001:000b5d50       ?SaveExecData@CNCVCApp@@AAEXXZ 004b6d50 f   NCVC.obj
 0001:000b5e70       ?CreateExecMap@CNCVCApp@@AAEHXZ 004b6e70 f   NCVC.obj
 0001:000b5f50       ?NCVCAddinInit@CNCVCApp@@AAEHH@Z 004b6f50 f   NCVC.obj
 0001:000b6300       ?NCVCAddinMenu@CNCVCApp@@AAEHXZ 004b7300 f   NCVC.obj
 0001:000b6760       ?SaveWindowState@CNCVCApp@@QAEXABV?$CStringT@DV?$StrTraitMFC_DLL@DV?$ChTraitsCRT@D@ATL@@@@@ATL@@ABUtagWINDOWPLACEMENT@@@Z 004b7760 f   NCVC.obj
 0001:000b6880       ?GetWindowState@CNCVCApp@@QAEHABV?$CStringT@DV?$StrTraitMFC_DLL@DV?$ChTraitsCRT@D@ATL@@@@@ATL@@PAUtagWINDOWPLACEMENT@@@Z 004b7880 f   NCVC.obj
 0001:000b6a10       ?SaveDlgWindow@CNCVCApp@@QAEXHPBVCWnd@@@Z 004b7a10 f   NCVC.obj
 0001:000b6af0       ?GetDlgWindow@CNCVCApp@@QAEHHPAVCPoint@@@Z 004b7af0 f   NCVC.obj
 0001:000b6c00       ?GetDXFOpenDocumentCount@CNCVCApp@@QAEHXZ 004b7c00 f   NCVC.obj
 0001:000b6c40       ?ReloadDXFDocument@CNCVCApp@@QAEXXZ 004b7c40 f   NCVC.obj
 0001:000b6d70       ?ChangeViewOption@CNCVCApp@@QAEXXZ 004b7d70 f   NCVC.obj
 0001:000b6de0       ?ChangeMachine@CNCVCApp@@QAEHPBD@Z 004b7de0 f   NCVC.obj
 0001:000b6e60       ?DoPromptFileNameEx@CNCVCApp@@QAEHAAVCStringArray@@H@Z 004b7e60 f   NCVC.obj
 0001:000b7240       ?OnFileOpen@CNCVCApp@@QAEXXZ 004b8240 f   NCVC.obj
 0001:000b7320       ?OnFileThumbnail@CNCVCApp@@QAEXXZ 004b8320 f   NCVC.obj
 0001:000b7550       ?OnFileCADbind@CNCVCApp@@QAEXXZ 004b8550 f   NCVC.obj
 0001:000b7a70       ?OnFileCloseAndOpen@CNCVCApp@@QAEXXZ 004b8a70 f   NCVC.obj
 0001:000b7b90       ?OnViewSetup@CNCVCApp@@QAEXXZ 004b8b90 f   NCVC.obj
 0001:000b7c80       ??1CViewSetup@@UAE@XZ      004b8c80 f i NCVC.obj
 0001:000b7cd0       ??1CViewSetup6@@UAE@XZ     004b8cd0 f i NCVC.obj
 0001:000b7ce0       ?OnViewSetupInport@CNCVCApp@@QAEXXZ 004b8ce0 f   NCVC.obj
 0001:000b7dc0       ?OnViewSetupExport@CNCVCApp@@QAEXXZ 004b8dc0 f   NCVC.obj
 0001:000b7ec0       ?OnWindowAllClose@CNCVCApp@@QAEXXZ 004b8ec0 f   NCVC.obj
 0001:000b7f30       ?OnOptionMC@CNCVCApp@@QAEXXZ 004b8f30 f   NCVC.obj
 0001:000b8260       ?OnOptionEditMC@CNCVCApp@@QAEXXZ 004b9260 f   NCVC.obj
 0001:000b8410       ?OnUpdateViewOBS@CNCVCApp@@QAEXPAVCCmdUI@@@Z 004b9410 f   NCVC.obj
 0001:000b8450       ?OnViewOBS@CNCVCApp@@QAEXXZ 004b9450 f   NCVC.obj
 0001:000b8580       ?OnOptionDXF@CNCVCApp@@QAEXXZ 004b9580 f   NCVC.obj
 0001:000b8610       ?OnOptionMakeNC@CNCVCApp@@QAEXXZ 004b9610 f   NCVC.obj
 0001:000b8a40       ?OnUpdateOptionEdit@CNCVCApp@@QAEXPAVCCmdUI@@@Z 004b9a40 f   NCVC.obj
 0001:000b8a60       ?OnOptionEditNC@CNCVCApp@@QAEXXZ 004b9a60 f   NCVC.obj
 0001:000b8c10       ?OnOptionExec@CNCVCApp@@QAEXXZ 004b9c10 f   NCVC.obj
 0001:000b90b0       ?OnOptionExt@CNCVCApp@@QAEXXZ 004ba0b0 f   NCVC.obj
 0001:000b9230       ?OnHelp@CNCVCApp@@QAEXXZ   004ba230 f   NCVC.obj
 0001:000b92b0       ?OnHelpUsing@CNCVCApp@@QAEXI@Z 004ba2b0 f   NCVC.obj
 0001:000b9360       ?OnHelpAddin@CNCVCApp@@QAEXXZ 004ba360 f   NCVC.obj
 0001:000b9470       ?OnAppAbout@CNCVCApp@@QAEXXZ 004ba470 f   NCVC.obj
 0001:000b9540       ?NCVC_CriticalErrorMsg@@YAXPBDH@Z 004ba540 f   NCVC.obj
 0001:000b95e0       ?NCVC_ControlErrorMsg@@YAXPBDH@Z 004ba5e0 f   NCVC.obj
 0001:000b9690       ?NCVC_FileDlgCommon@@YAHHABV?$CStringT@DV?$StrTraitMFC_DLL@DV?$ChTraitsCRT@D@ATL@@@@@ATL@@HAAV12@PBDHK@Z 004ba690 f   NCVC.obj
 0001:000b9910       ??0CRecentViewInfo@@QAE@PBD@Z 004ba910 f   NCVC.obj
 0001:000b99f0       ?SetViewInfo@CRecentViewInfo@@QAEXQAY03$$CBNABV?$CRect3T@M@@ABV?$CPointT@M@@@Z 004ba9f0 f   NCVC.obj
 0001:000b9a90       ?GetViewInfo@CRecentViewInfo@@QBEHQAY03NAAV?$CRect3T@M@@AAV?$CPointT@M@@@Z 004baa90 f   NCVC.obj
 0001:000b9b30       ??0CNCVCDocTemplate@@QAE@IPAUCRuntimeClass@@00@Z 004bab30 f   NCVC.obj
 0001:000ba180       ??_ECNCVCDocTemplate@@UAEPAXI@Z 004bb180 f i * CIL library *:* CIL module *
 0001:000ba180       ??_GCNCVCDocTemplate@@UAEPAXI@Z 004bb180 f i NCVC.obj
 0001:000ba230       ??_FCMapStringToPtr@@QAEXXZ 004bb230 f i NCVC.obj
 0001:000ba240       ?AddExtensionFunc@CNCVCDocTemplate@@QAEHPBDPAX@Z 004bb240 f   NCVC.obj
 0001:000ba330       ?MatchDocType@CNCVCDocTemplate@@UAE?AW4Confidence@CDocTemplate@@PBDAAPAVCDocument@@@Z 004bb330 f   NCVC.obj
 0001:000ba440       ?IsExtension@CNCVCDocTemplate@@QAEHPBDPAPAX@Z 004bb440 f   NCVC.obj
 0001:000ba580       ?SaveExt@CNCVCDocTemplate@@QAEHXZ 004bb580 f   NCVC.obj
 0001:000ba770       ?GetFilterString@CNCVCDocTemplate@@QAE?AV?$CStringT@DV?$StrTraitMFC_DLL@DV?$ChTraitsCRT@D@ATL@@@@@ATL@@XZ 004bb770 f   NCVC.obj
 0001:000ba920       ?_GetBaseClass@CNCVCDocTemplate@@KGPAUCRuntimeClass@@XZ 004bb920 f   NCVC.obj
 0001:000ba930       ?GetRuntimeClass@CNCVCDocTemplate@@UBEPAUCRuntimeClass@@XZ 004bb930 f   NCVC.obj
 0001:000ba940       ?GetApplicationRecoveryPingInterval@CWinApp@@UAEKXZ 004bb940 f i NCVC.obj
 0001:000ba950       ?RestoreAutosavedFilesAtRestart@CWinApp@@UBEHXZ 004bb950 f i NCVC.obj
 0001:000ba960       ?ReopenPreviousFilesAtRestart@CWinApp@@UBEHXZ 004bb960 f i NCVC.obj
 0001:000ba970       ?SupportsAutosaveAtInterval@CWinApp@@UBEHXZ 004bb970 f i NCVC.obj
 0001:000ba980       ?SupportsAutosaveAtRestart@CWinApp@@UBEHXZ 004bb980 f i NCVC.obj
 0001:000ba990       ?SupportsApplicationRecovery@CWinApp@@UBEHXZ 004bb990 f i NCVC.obj
 0001:000ba9a0       ?SupportsRestartManager@CWinApp@@UBEHXZ 004bb9a0 f i NCVC.obj
 0001:000ba9b0       _NCVC_GetDXFLayerSize@4    004bb9b0 f   NCVCaddinDXF.obj
 0001:000ba9e0       _NCVC_GetDXFLayerData@16   004bb9e0 f   NCVCaddinDXF.obj
 0001:000baa70       _NCVC_GetDXFDataSize@8     004bba70 f   NCVCaddinDXF.obj
 0001:000baad0       _NCVC_GetDXFTextDataSize@8 004bbad0 f   NCVCaddinDXF.obj
 0001:000bab30       _NCVC_GetDXFData@12        004bbb30 f   NCVCaddinDXF.obj
 0001:000bae00       _NCVC_GetDXFTextData@12    004bbe00 f   NCVCaddinDXF.obj
 0001:000bb570       _NCVC_AddDXFData@8         004bc570 f   NCVCaddinDXF.obj
 0001:000bb590       _NCVC_InsDXFData@12        004bc590 f   NCVCaddinDXF.obj
 0001:000bb5c0       _NCVC_ModDXFData@12        004bc5c0 f   NCVCaddinDXF.obj
 0001:000bb5f0       _NCVC_DelDXFData@16        004bc5f0 f   NCVCaddinDXF.obj
 0001:000bb660       _NCVC_DelDXFTextData@16    004bc660 f   NCVCaddinDXF.obj
 0001:000bb6d0       _NCVC_GetDXFCutterOrigin@8 004bc6d0 f   NCVCaddinDXF.obj
 0001:000bb750       _NCVC_SetDXFCutterOrigin@20 004bc750 f   NCVCaddinDXF.obj
 0001:000bb7c0       _NCVC_SetDXFLatheLine@12   004bc7c0 f   NCVCaddinDXF.obj
 0001:000bb840       _NCVC_SetDXFReady@8        004bc840 f   NCVCaddinDXF.obj
 0001:000bb890       _NCVC_GetDXFoption@4       004bc890 f   NCVCaddinDXF.obj
 0001:000bb970       _NCVC_IsOriginLayer@4      004bc970 f   NCVCaddinDXF.obj
 0001:000bb990       _NCVC_IsCutterLayer@4      004bc990 f   NCVCaddinDXF.obj
 0001:000bb9d0       _NCVC_IsStartLayer@4       004bc9d0 f   NCVCaddinDXF.obj
 0001:000bba00       _NCVC_IsMoveLayer@4        004bca00 f   NCVCaddinDXF.obj
 0001:000bba30       _NCVC_IsCommentLayer@4     004bca30 f   NCVCaddinDXF.obj
 0001:000bba60       ??0CNCVCaddinIF@@QAE@PAUHINSTANCE__@@PAUtagNCVCINITIALIZE@@PBD@Z 004bca60 f   NCVCaddinIF.obj
 0001:000bbc90       ??_ECNCVCaddinIF@@UAEPAXI@Z 004bcc90 f i * CIL library *:* CIL module *
 0001:000bbc90       ??_GCNCVCaddinIF@@UAEPAXI@Z 004bcc90 f i NCVCaddinIF.obj
 0001:000bbd60       _NCVC_GetMainWnd@0         004bcd60 f   NCVCaddinIF.obj
 0001:000bbd80       _NCVC_GetMainInstance@0    004bcd80 f   NCVCaddinIF.obj
 0001:000bbd90       _NCVC_CreateRegKey@8       004bcd90 f   NCVCaddinIF.obj
 0001:000bbe60       _NCVC_GetDocument@4        004bce60 f   NCVCaddinIF.obj
 0001:000bbf30       _NCVC_GetDocumentFileName@12 004bcf30 f   NCVCaddinIF.obj
 0001:000bbfb0       _NCVC_LockDocument@8       004bcfb0 f   NCVCaddinIF.obj
 0001:000bc000       _NCVC_UnlockDocument@4     004bd000 f   NCVCaddinIF.obj
 0001:000bc050       _NCVC_MainfrmProgressRange@8 004bd050 f   NCVCaddinIF.obj
 0001:000bc0b0       _NCVC_MainfrmProgressPos@4 004bd0b0 f   NCVCaddinIF.obj
 0001:000bc0e0       _NCVC_GetSelectMachineFileName@8 004bd0e0 f   NCVCaddinIF.obj
 0001:000bc160       _NCVC_SetMachineFile@4     004bd160 f   NCVCaddinIF.obj
 0001:000bc170       _NCVC_CreateNCDocument@8   004bd170 f   NCVCaddinIF.obj
 0001:000bc1c0       _NCVC_CreateDXFDocument@8  004bd1c0 f   NCVCaddinIF.obj
 0001:000bc210       _NCVC_AddNCDExtensionFunc@12 004bd210 f   NCVCaddinIF.obj
 0001:000bc250       _NCVC_AddDXFExtensionFunc@12 004bd250 f   NCVCaddinIF.obj
 0001:000bc290       _NCVC_CloseDocument@4      004bd290 f   NCVCaddinIF.obj
 0001:000bc2d0       _NCVC_ReDraw@4             004bd2d0 f   NCVCaddinIF.obj
 0001:000bc310       _NCVC_GetObjectSize@8      004bd310 f   NCVCaddinIF.obj
 0001:000bc3e0       _NCVC_GetNCBlockDataSize@4 004bd3e0 f   NCVCaddinNC.obj
 0001:000bc410       _NCVC_GetNCBlockData@16    004bd410 f   NCVCaddinNC.obj
 0001:000bc4d0       _NCVC_GetNCBlockFlag@8     004bd4d0 f   NCVCaddinNC.obj
 0001:000bc520       _NCVC_GetNCDataSize@4      004bd520 f   NCVCaddinNC.obj
 0001:000bc550       _NCVC_GetNCData@12         004bd550 f   NCVCaddinNC.obj
 0001:000bc660       _NCVC_AddNCStrData@8       004bd660 f   NCVCaddinNC.obj
 0001:000bc6a0       _NCVC_InsNCStrData@12      004bd6a0 f   NCVCaddinNC.obj
 0001:000bc6e0       _NCVC_ModNCStrData@12      004bd6e0 f   NCVCaddinNC.obj
 0001:000bc720       _NCVC_DelNCStrData@12      004bd720 f   NCVCaddinNC.obj
 0001:000bc9f0       _NCVC_AddNCData@8          004bd9f0 f   NCVCaddinNC.obj
 0001:000bca10       _NCVC_InsNCData@12         004bda10 f   NCVCaddinNC.obj
 0001:000bca40       _NCVC_ModNCData@12         004bda40 f   NCVCaddinNC.obj
 0001:000bca70       _NCVC_DelNCData@12         004bda70 f   NCVCaddinNC.obj
 0001:000bcaa0       _NCVC_TraceStart@4         004bdaa0 f   NCVCaddinNC.obj
 0001:000bcb20       _NCVC_TracePause@4         004bdb20 f   NCVCaddinNC.obj
 0001:000bcba0       _NCVC_TraceStop@4          004bdba0 f   NCVCaddinNC.obj
 0001:000bcc20       _NCVC_TraceNextDraw@4      004bdc20 f   NCVCaddinNC.obj
 0001:000bcc70       ?ConvertRect@CNCViewBase@@EAE?AV?$CRectT@M@@ABV?$CRect3T@M@@@Z 004bdc70 f i NCView.obj
 0001:000bcc90       ?GetPlaneAxis@CNCViewBase@@EAE?AV?$tuple@IIUnull_type@tuples@boost@@U123@U123@U123@U123@U123@U123@U123@@tuples@boost@@XZ 004bdc90 f i NCView.obj
 0001:000bccb0       ??0CNCViewBase@@IAE@W4ENNCDRAWVIEW@@@Z 004bdcb0 f i NCView.obj
 0001:000bce10       ?ConvertMaxRect@CNCViewBase@@UAEXXZ 004bde10 f i NCView.obj
 0001:000bcea0       ?ConvertWorkRect@CNCViewBase@@UAEXXZ 004bdea0 f i NCView.obj
 0001:000bcf70       ?ConvertWorkCylinder@CNCViewBase@@UAEXXZ 004bdf70 f i NCView.obj
 0001:000bd040       ?DrawMaxRect@CNCViewBase@@UAEXPAVCDC@@@Z 004be040 f i NCView.obj
 0001:000bd0b0       ?DrawWorkRect@CNCViewBase@@UAEXPAVCDC@@@Z 004be0b0 f i NCView.obj
 0001:000bd120       ?DrawWorkCylinder@CNCViewBase@@UAEXPAVCDC@@@Z 004be120 f i NCView.obj
 0001:000bd190       ??_ECNCViewBase@@UAEPAXI@Z 004be190 f i * CIL library *:* CIL module *
 0001:000bd190       ??_ECNCViewXZ@@UAEPAXI@Z   004be190 f i * CIL library *:* CIL module *
 0001:000bd190       ??_ECNCViewYZ@@UAEPAXI@Z   004be190 f i * CIL library *:* CIL module *
 0001:000bd190       ??_GCNCViewBase@@UAEPAXI@Z 004be190 f i NCView.obj
 0001:000bd190       ??_GCNCViewXZ@@UAEPAXI@Z   004be190 f i NCViewXZ.obj
 0001:000bd190       ??_GCNCViewYZ@@UAEPAXI@Z   004be190 f i NCViewYZ.obj
 0001:000bd1e0       ?CreateObject@CNCView@@SGPAVCObject@@XZ 004be1e0 f   NCView.obj
 0001:000bd530       ?GetRuntimeClass@CNCViewBase@@UBEPAUCRuntimeClass@@XZ 004be530 f   NCViewBase.obj
 0001:000bd530       ?_GetBaseClass@CNCView@@KGPAUCRuntimeClass@@XZ 004be530 f   NCView.obj
 0001:000bd530       ?_GetBaseClass@CNCViewXY@@KGPAUCRuntimeClass@@XZ 004be530 f   NCViewXY.obj
 0001:000bd530       ?_GetBaseClass@CNCViewXZ@@KGPAUCRuntimeClass@@XZ 004be530 f   NCViewXZ.obj
 0001:000bd530       ?_GetBaseClass@CNCViewYZ@@KGPAUCRuntimeClass@@XZ 004be530 f   NCViewYZ.obj
 0001:000bd540       ?GetRuntimeClass@CNCView@@UBEPAUCRuntimeClass@@XZ 004be540 f   NCView.obj
 0001:000bd550       ?GetMessageMap@CNCView@@MBEPBUAFX_MSGMAP@@XZ 004be550 f   NCView.obj
 0001:000bd550       ?GetMessageMap@CNCViewXY@@MBEPBUAFX_MSGMAP@@XZ 004be550 f   NCViewXY.obj
 0001:000bd550       ?GetMessageMap@CNCViewXZ@@MBEPBUAFX_MSGMAP@@XZ 004be550 f   NCViewXZ.obj
 0001:000bd550       ?GetMessageMap@CNCViewYZ@@MBEPBUAFX_MSGMAP@@XZ 004be550 f   NCViewYZ.obj
 0001:000bd560       ??_ECNCView@@UAEPAXI@Z     004be560 f i * CIL library *:* CIL module *
 0001:000bd560       ??_GCNCView@@UAEPAXI@Z     004be560 f i NCView.obj
 0001:000bd5b0       ?OnInitialUpdate@CNCView@@UAEXXZ 004be5b0 f   NCView.obj
 0001:000bd660       ?SetGuideData@CNCView@@UAEXXZ 004be660 f   NCView.obj
 0001:000bd980       ?SetDataMaxRect@CNCView@@UAEXXZ 004be980 f   NCView.obj
 0001:000bdee0       ?SetWorkRect@CNCView@@UAEXXZ 004beee0 f   NCView.obj
 0001:000be260       ?SetWorkCylinder@CNCView@@UAEXXZ 004bf260 f   NCView.obj
 0001:000be450       ?ConvertMaxRect@CNCView@@UAEXXZ 004bf450 f   NCView.obj
 0001:000be4d0       ?ConvertWorkRect@CNCView@@UAEXXZ 004bf4d0 f   NCView.obj
 0001:000be550       ?ConvertWorkCylinder@CNCView@@UAEXXZ 004bf550 f   NCView.obj
 0001:000be5c0       ?OnDraw@CNCView@@UAEXPAVCDC@@@Z 004bf5c0 f   NCView.obj
 0001:000be760       ?DrawMaxRect@CNCView@@UAEXPAVCDC@@@Z 004bf760 f   NCView.obj
 0001:000be810       ?DrawWorkRect@CNCView@@UAEXPAVCDC@@@Z 004bf810 f   NCView.obj
 0001:000be8c0       ?DrawWorkCylinder@CNCView@@UAEXPAVCDC@@@Z 004bf8c0 f   NCView.obj
 0001:000be9c8       ??_9CNCdata@@$BBE@AE       004bf9c8 f i NCView.obj
 0001:000be9cd       ??_9CNCdata@@$BCE@AE       004bf9cd f i NCView.obj
 0001:000be9e0       ?GetMessageMap@CNCViewBase@@MBEPBUAFX_MSGMAP@@XZ 004bf9e0 f   NCViewBase.obj
 0001:000be9e0       ?GetThisMessageMap@CNCViewBase@@KGPBUAFX_MSGMAP@@XZ 004bf9e0 f   NCViewBase.obj
 0001:000be9f0       ?OnInitialUpdate@CNCViewBase@@UAEXXZ 004bf9f0 f   NCViewBase.obj
 0001:000beb30       ?OnUpdate@CNCViewBase@@UAEXPAVCView@@JPAVCObject@@@Z 004bfb30 f   NCViewBase.obj
 0001:000bedb0       ?OnDraw@CNCViewBase@@UAEXPAVCDC@@@Z 004bfdb0 f   NCViewBase.obj
 0001:000befd0       ?DrawGuideDivi@CNCViewBase@@QAEXPAVCDC@@II@Z 004bffd0 f   NCViewBase.obj
 0001:000bf2b0       ?DrawInfo@CNCViewBase@@QAEXPAVCDC@@@Z 004c02b0 f   NCViewBase.obj
 0001:000bf390       ?DrawNCdata@CNCViewBase@@QAEXPAVCDC@@@Z 004c0390 f   NCViewBase.obj
 0001:000bf460       ?DrawSupportRect@CNCViewBase@@QAEXPAVCDC@@@Z 004c0460 f   NCViewBase.obj
 0001:000bf4e0       ?OnActivateView@CNCViewBase@@UAEXHPAVCView@@0@Z 004c04e0 f   NCViewBase.obj
 0001:000bf610       ?SetDataMaxRect@CNCViewBase@@UAEXXZ 004c0610 f   NCViewBase.obj
 0001:000bf770       ?OnViewLensComm@CNCViewBase@@UAEXXZ 004c0770 f   NCViewBase.obj
 0001:000bf970       ?OnContextMenu@CNCViewBase@@QAEXPAVCWnd@@VCPoint@@@Z 004c0970 f   NCViewBase.obj
 0001:000bf990       ?OnKeyDown@CNCViewBase@@QAEXIII@Z 004c0990 f   NCViewBase.obj
 0001:000bf9f0       ?OnLButtonUp@CNCViewBase@@QAEXIVCPoint@@@Z 004c09f0 f   NCViewBase.obj
 0001:000bfa30       ?OnRButtonUp@CNCViewBase@@QAEXIVCPoint@@@Z 004c0a30 f   NCViewBase.obj
 0001:000bfad0       ?OnLButtonDblClk@CNCViewBase@@QAEXIVCPoint@@@Z 004c0ad0 f   NCViewBase.obj
 0001:000bfbc0       ?OnMouseMove@CNCViewBase@@QAEXIVCPoint@@@Z 004c0bc0 f   NCViewBase.obj
 0001:000bfbe0       ?OnMouseActivate@CNCViewBase@@QAEHPAVCWnd@@II@Z 004c0be0 f   NCViewBase.obj
 0001:000bfc10       ?OnUpdateEditCopy@CNCViewBase@@QAEXPAVCCmdUI@@@Z 004c0c10 f   NCViewBase.obj
 0001:000bfc10       ?OnUpdateMoveKey@CNCViewBase@@QAEXPAVCCmdUI@@@Z 004c0c10 f   NCViewBase.obj
 0001:000bfc10       ?OnUpdateMoveKey@CNCViewTab@@IAEXPAVCCmdUI@@@Z 004c0c10 f   NCViewTab.obj
 0001:000bfc10       ?OnUpdateMoveRoundKey@CNCViewGL@@IAEXPAVCCmdUI@@@Z 004c0c10 f   NCViewGL.obj
 0001:000bfc20       ?OnUpdatePathView@CNCViewBase@@QAEXPAVCCmdUI@@@Z 004c0c20 f   NCViewBase.obj
 0001:000bfc40       ?OnUpdateSolidView@CNCViewBase@@QAEXPAVCCmdUI@@@Z 004c0c40 f   NCViewBase.obj
 0001:000bfc60       ?OnMoveKey@CNCViewBase@@QAEXI@Z 004c0c60 f   NCViewBase.obj
 0001:000bfc70       ?OnLensKey@CNCViewBase@@QAEXI@Z 004c0c70 f   NCViewBase.obj
 0001:000bfce0       ?OnUserViewFitMsg@CNCViewBase@@QAEJIJ@Z 004c0ce0 f   NCViewBase.obj
 0001:000bfd10       ?OnUserActivatePage@CNCViewBase@@QAEJIJ@Z 004c0d10 f   NCViewBase.obj
 0001:000bfd70       ?OnEraseBkgnd@CNCViewBase@@QAEHPAVCDC@@@Z 004c0d70 f   NCViewBase.obj
 0001:000bfda0       ??1CVBtmDraw@@QAE@XZ       004c0da0 f i NCViewGL.obj
 0001:000bfdb0       ?CreateObject@CNCViewGL@@SGPAVCObject@@XZ 004c0db0 f   NCViewGL.obj
 0001:000bfe20       ?GetRuntimeClass@CNCViewGL@@UBEPAUCRuntimeClass@@XZ 004c0e20 f   NCViewGL.obj
 0001:000bfe30       ?GetMessageMap@CNCViewGL@@MBEPBUAFX_MSGMAP@@XZ 004c0e30 f   NCViewGL.obj
 0001:000bfe40       ??0CNCViewGL@@IAE@XZ       004c0e40 f   NCViewGL.obj
 0001:000c0100       ??_ECNCViewGL@@UAEPAXI@Z   004c1100 f i * CIL library *:* CIL module *
 0001:000c0100       ??_GCNCViewGL@@UAEPAXI@Z   004c1100 f i NCViewGL.obj
 0001:000c0220       ??1WIREDRAW@@QAE@XZ        004c1220 f i NCViewGL.obj
 0001:000c0250       ?DeleteDepthMemory@CNCViewGL@@AAEXXZ 004c1250 f   NCViewGL.obj
 0001:000c0320       ?OnInitialUpdate@CNCViewGL@@UAEXXZ 004c1320 f   NCViewGL.obj
 0001:000c03a0       ?OnUpdate@CNCViewGL@@MAEXPAVCView@@JPAVCObject@@@Z 004c13a0 f   NCViewGL.obj
 0001:000c0630       ?UpdateViewOption@CNCViewGL@@AAEXXZ 004c1630 f   NCViewGL.obj
 0001:000c0d80       ?InitialObjectForm@CNCViewGL@@AAEXXZ 004c1d80 f   NCViewGL.obj
 0001:000c0e40       ?CreateTexture@CNCViewGL@@AAEXHPBM@Z 004c1e40 f   NCViewGL.obj
 0001:000c0f60       ?ClearVBO@CNCViewGL@@AAEXXZ 004c1f60 f   NCViewGL.obj
 0001:000c1060       ?ClearTexture@CNCViewGL@@AAEXXZ 004c2060 f   NCViewGL.obj
 0001:000c10a0       ?InitialBoxel@CNCViewGL@@AAEXXZ 004c20a0 f   NCViewGL.obj
 0001:000c11c0       ?FinalBoxel@CNCViewGL@@AAEXXZ 004c21c0 f   NCViewGL.obj
 0001:000c12e0       ?RenderCode@CNCViewGL@@AAEXW4RENDERMODE@@@Z 004c22e0 f   NCViewGL.obj
 0001:000c1360       ?RenderMill@CNCViewGL@@AAEXPBVCNCdata@@@Z 004c2360 f   NCViewGL.obj
 0001:000c17d0       ?DoSelect@CNCViewGL@@AAEXABVCPoint@@@Z 004c27d0 f   NCViewGL.obj
 0001:000c19f0       ?DoScale@CNCViewGL@@MAEXH@Z 004c29f0 f   NCViewGL.obj
 0001:000c1c30       ?OnDraw@CNCViewGL@@UAEXPAVCDC@@@Z 004c2c30 f   NCViewGL.obj
 0001:000c2450       ?OnCreate@CNCViewGL@@IAEHPAUtagCREATESTRUCTA@@@Z 004c3450 f   NCViewGL.obj
 0001:000c2580       ?OnDestroy@CNCViewGL@@IAEXXZ 004c3580 f   NCViewGL.obj
 0001:000c26f0       ?OnSize@CNCViewGL@@IAEXIHH@Z 004c36f0 f   NCViewGL.obj
 0001:000c2720       ?OnActivateView@CNCViewGL@@MAEXHPAVCView@@0@Z 004c3720 f   NCViewGL.obj
 0001:000c27a0       ?OnUserActivatePage@CNCViewGL@@IAEJIJ@Z 004c37a0 f   NCViewGL.obj
 0001:000c2950       ?OnUserViewFitMsg@CNCViewGL@@IAEJIJ@Z 004c3950 f   NCViewGL.obj
 0001:000c2ae0       ?OnSelectTrace@CNCViewGL@@IAEJIJ@Z 004c3ae0 f   NCViewGL.obj
 0001:000c3070       ??_GCFrameBuffer@@QAEPAXI@Z 004c4070 f i NCViewGL.obj
 0001:000c3150       ?OnLensKey@CNCViewGL@@IAEXI@Z 004c4150 f   NCViewGL.obj
 0001:000c3380       ?OnDefViewInfo@CNCViewGL@@IAEXXZ 004c4380 f   NCViewGL.obj
 0001:000c3460       ?OnUpdateViewMode@CNCViewGL@@IAEXPAVCCmdUI@@@Z 004c4460 f   NCViewGL.obj
 0001:000c3540       ?OnViewMode@CNCViewGL@@IAEXI@Z 004c4540 f   NCViewGL.obj
 0001:000c3630       ?OnContextMenu@CNCViewGL@@IAEXPAVCWnd@@VCPoint@@@Z 004c4630 f   NCViewGL.obj
 0001:000c3700       ?OnLButtonUp@CNCViewGL@@IAEXIVCPoint@@@Z 004c4700 f   NCViewGL.obj
 0001:000c3780       ?OnKeyDown@CNCViewGL@@IAEXIII@Z 004c4780 f   NCViewGL.obj
 0001:000c37e0       ?InitialMillNormal@@YAXXZ  004c47e0 f   NCViewGL.obj
 0001:000c3a10       ??1?$vector@UWIRELINE@@V?$allocator@UWIRELINE@@@std@@@std@@QAE@XZ 004c4a10 f i NCViewGL.obj
 0001:000c3aa0       ??1?$vector@V?$vector@IV?$allocator@I@std@@@std@@V?$allocator@V?$vector@IV?$allocator@I@std@@@std@@@2@@std@@QAE@XZ 004c4aa0 f i NCViewGL.obj
 0001:000c3b20       ??1?$vector@UBOTTOMDRAW@@V?$allocator@UBOTTOMDRAW@@@std@@@std@@QAE@XZ 004c4b20 f i NCViewGL.obj
 0001:000c3bb0       ?deallocate@?$allocator@UWIRELINE@@@std@@QAEXQAUWIRELINE@@I@Z 004c4bb0 f i NCViewGL.obj
 0001:000c3bf0       ??$_Destroy_range@V?$allocator@UWIRELINE@@@std@@@std@@YAXPAUWIRELINE@@QAU1@AAV?$allocator@UWIRELINE@@@0@@Z 004c4bf0 f i NCViewGL.obj
 0001:000c3c20       ??$_Destroy_range@V?$allocator@V?$vector@IV?$allocator@I@std@@@std@@@std@@@std@@YAXPAV?$vector@IV?$allocator@I@std@@@0@QAV10@AAV?$allocator@V?$vector@IV?$allocator@I@std@@@std@@@0@@Z 004c4c20 f i NCViewGL.obj
 0001:000c3c50       ?variant_assign@?$variant@PAVCNCdata@@URANGEPARAM@@@boost@@AAEX$$QAV12@@Z 004c4c50 f i NCViewGL.obj
 0001:000c3f70       ??$apply_visitor@V?$direct_mover@URANGEPARAM@@@variant@detail@boost@@@?$variant@PAVCNCdata@@URANGEPARAM@@@boost@@QGAE_NAAV?$direct_mover@URANGEPARAM@@@variant@detail@1@@Z 004c4f70 f i NCViewGL.obj
 0001:000c4100       ??1Bitmap@Gdiplus@@UAE@XZ  004c5100 f i NCViewGL.obj
 0001:000c4110       ??_EBitmap@Gdiplus@@UAEPAXI@Z 004c5110 f i * CIL library *:* CIL module *
 0001:000c4110       ??_EImage@Gdiplus@@UAEPAXI@Z 004c5110 f i * CIL library *:* CIL module *
 0001:000c4110       ??_GBitmap@Gdiplus@@UAEPAXI@Z 004c5110 f i NCViewGL.obj
 0001:000c4110       ??_GImage@Gdiplus@@UAEPAXI@Z 004c5110 f i NCViewGL.obj
 0001:000c4150       ?Clone@Image@Gdiplus@@UAEPAV12@XZ 004c5150 f i NCViewGL.obj
 0001:000c41a0       ?CreateLathe@CNCViewGL@@AAEHH@Z 004c51a0 f   NCViewGL_Lathe.obj
 0001:000c4410       ?GetClipDepthLathe@CNCViewGL@@AAEHXZ 004c5410 f   NCViewGL_Lathe.obj
 0001:000c5120       ?CreateVBOLathe@CNCViewGL@@AAEHXZ 004c6120 f   NCViewGL_Lathe.obj
 0001:000c6100       ?CreateTextureLathe@CNCViewGL@@AAEXXZ 004c7100 f   NCViewGL_Lathe.obj
 0001:000c6220       ?_Reallocate_exactly@?$vector@V?$vector@IV?$allocator@I@std@@@std@@V?$allocator@V?$vector@IV?$allocator@I@std@@@std@@@2@@std@@AAEXI@Z 004c7220 f i NCViewGL_Lathe.obj
 0001:000c62c0       ?_Reallocate_exactly@?$vector@IV?$allocator@I@std@@@std@@AAEXI@Z 004c72c0 f i NCViewGL_Lathe.obj
 0001:000c6300       ?_Change_array@?$vector@V?$vector@IV?$allocator@I@std@@@std@@V?$allocator@V?$vector@IV?$allocator@I@std@@@std@@@2@@std@@AAEXQAV?$vector@IV?$allocator@I@std@@@2@II@Z 004c7300 f i NCViewGL_Lathe.obj
 0001:000c6390       ??$_Emplace_reallocate@ABV?$vector@IV?$allocator@I@std@@@std@@@?$vector@V?$vector@IV?$allocator@I@std@@@std@@V?$allocator@V?$vector@IV?$allocator@I@std@@@std@@@2@@std@@AAEPAV?$vector@IV?$allocator@I@std@@@1@QAV21@ABV21@@Z 004c7390 f i NCViewGL_Lathe.obj
 0001:000c6540       ??0CREATEELEMENTPARAM@@QAE@XZ 004c7540 f i NCViewGL_Mill.obj
 0001:000c65e0       ?CreateBoxel@CNCViewGL@@AAEHH@Z 004c75e0 f   NCViewGL_Mill.obj
 0001:000c67d0       ?CreateBoxel_fromIGES@CNCViewGL@@AAEHPAV?$variant@PAVCNCdata@@URANGEPARAM@@@boost@@@Z 004c77d0 f   NCViewGL_Mill.obj
 0001:000c6bf0       ?CreateBottomFaceThread@CNCViewGL@@AAEHHH@Z 004c7bf0 f   NCViewGL_Mill.obj
 0001:000c7160       ?GetClipDepthMill@CNCViewGL@@AAEHW4ENCLIPDEPTH@@@Z 004c8160 f   NCViewGL_Mill.obj
 0001:000c7660       ?GetClipDepthMill_All@CNCViewGL@@AAEXABUARGVCLIPDEPTH@@@Z 004c8660 f   NCViewGL_Mill.obj
 0001:000c7750       ?GetClipDepthMill_Zonly@CNCViewGL@@AAEXABUARGVCLIPDEPTH@@@Z 004c8750 f   NCViewGL_Mill.obj
 0001:000c7780       ?GetClipDepthMill_BottomStencil@CNCViewGL@@AAEXABUARGVCLIPDEPTH@@@Z 004c8780 f   NCViewGL_Mill.obj
 0001:000c7810       ?GetClipDepthMill_TopStencil@CNCViewGL@@AAEXABUARGVCLIPDEPTH@@@Z 004c8810 f   NCViewGL_Mill.obj
 0001:000c78a0       ?GetClipDepthCylinder@CNCViewGL@@AAEHXZ 004c88a0 f   NCViewGL_Mill.obj
 0001:000c8200       ?CreateVBOMill@CNCViewGL@@AAEHXZ 004c9200 f   NCViewGL_Mill.obj
 0001:000c8b50       ??1CREATEELEMENTPARAM@@QAE@XZ 004c9b50 f i NCViewGL_Mill.obj
 0001:000c8b80       ?EndOfCreateElementThread@CNCViewGL@@AAEXXZ 004c9b80 f   NCViewGL_Mill.obj
 0001:000c8c90       ?CreateTextureMill@CNCViewGL@@AAEXXZ 004c9c90 f   NCViewGL_Mill.obj
 0001:000ca710       ??$get@URANGEPARAM@@PAVCNCdata@@U1@@boost@@YAPAURANGEPARAM@@PAV?$variant@PAVCNCdata@@URANGEPARAM@@@0@@Z 004cb710 f i NCViewGL_Mill.obj
 0001:000ca720       ?CreateWire@CNCViewGL@@AAEHXZ 004cb720 f   NCViewGL_Wire.obj
 0001:000cb200       ?CreateTextureWire@CNCViewGL@@AAEXXZ 004cc200 f   NCViewGL_Wire.obj
 0001:000cb420       ??$_Emplace_reallocate@ABUWIRELINE@@@?$vector@UWIRELINE@@V?$allocator@UWIRELINE@@@std@@@std@@AAEPAUWIRELINE@@QAU2@ABU2@@Z 004cc420 f i NCViewGL_Wire.obj
 0001:000cb650       ??$_Uninitialized_move@PAUWIRELINE@@V?$allocator@UWIRELINE@@@std@@@std@@YAPAUWIRELINE@@QAU1@0PAU1@AAV?$allocator@UWIRELINE@@@0@@Z 004cc650 f i NCViewGL_Wire.obj
 0001:000cb6b0       ?GetMessageMap@CNCViewSplit@@MBEPBUAFX_MSGMAP@@XZ 004cc6b0 f   NCViewSplit.obj
 0001:000cb6c0       ??_ECNCViewSplit@@UAEPAXI@Z 004cc6c0 f i * CIL library *:* CIL module *
 0001:000cb6c0       ??_GCNCViewSplit@@UAEPAXI@Z 004cc6c0 f i NCViewSplit.obj
 0001:000cb700       ?DrawData@CNCViewSplit@@QAEXPAVCNCdata@@HQAP82@BEXPAVCDC@@H@Z@Z 004cc700 f   NCViewSplit.obj
 0001:000cb7a0       ?AllPane_PostMessage@CNCViewSplit@@AAEXIIIJ@Z 004cc7a0 f   NCViewSplit.obj
 0001:000cb870       ?CalcPane@CNCViewSplit@@AAEXIH@Z 004cc870 f   NCViewSplit.obj
 0001:000cbaf0       ?OnUserInitialUpdate@CNCViewSplit@@IAEJIJ@Z 004ccaf0 f   NCViewSplit.obj
 0001:000cbd30       ?OnUserActivatePage@CNCViewSplit@@IAEJIJ@Z 004ccd30 f   NCViewSplit.obj
 0001:000cbd50       ?OnDestroy@CNCViewSplit@@IAEXXZ 004ccd50 f   NCViewSplit.obj
 0001:000cbf40       ?OnLButtonDblClk@CNCViewSplit@@IAEXIVCPoint@@@Z 004ccf40 f   NCViewSplit.obj
 0001:000cbfb0       ?OnAllFitCmd@CNCViewSplit@@IAEXXZ 004ccfb0 f   NCViewSplit.obj
 0001:000cc020       ?OnUserViewFitMsg@CNCViewSplit@@IAEJIJ@Z 004cd020 f   NCViewSplit.obj
 0001:000cc050       ??_ECTraceThread@@UAEPAXI@Z 004cd050 f i * CIL library *:* CIL module *
 0001:000cc050       ??_GCTraceThread@@UAEPAXI@Z 004cd050 f i NCViewTab.obj
 0001:000cc090       ?CreateObject@CNCViewTab@@SGPAVCObject@@XZ 004cd090 f   NCViewTab.obj
 0001:000cc200       ?GetRuntimeClass@CNCViewTab@@UBEPAUCRuntimeClass@@XZ 004cd200 f   NCViewTab.obj
 0001:000cc210       ?GetMessageMap@CNCViewTab@@MBEPBUAFX_MSGMAP@@XZ 004cd210 f   NCViewTab.obj
 0001:000cc220       ??_ECNCViewTab@@UAEPAXI@Z  004cd220 f i * CIL library *:* CIL module *
 0001:000cc220       ??_GCNCViewTab@@UAEPAXI@Z  004cd220 f i NCViewTab.obj
 0001:000cc2a0       ?OnInitialUpdate@CNCViewTab@@UAEXXZ 004cd2a0 f   NCViewTab.obj
 0001:000cc4a0       ?OnCmdMsg@CNCViewTab@@UAEHIHPAXPAUAFX_CMDHANDLERINFO@@@Z 004cd4a0 f   NCViewTab.obj
 0001:000cc600       ?OnActivatePage@CNCViewTab@@MAEXH@Z 004cd600 f   NCViewTab.obj
 0001:000cc6d0       ?OnCreate@CNCViewTab@@IAEHPAUtagCREATESTRUCTA@@@Z 004cd6d0 f   NCViewTab.obj
 0001:000ccd10       ?OnDestroy@CNCViewTab@@IAEXXZ 004cdd10 f   NCViewTab.obj
 0001:000ccdc0       ?OnUpdateTraceSpeed@CNCViewTab@@IAEXPAVCCmdUI@@@Z 004cddc0 f   NCViewTab.obj
 0001:000ccdf0       ?OnTraceSpeed@CNCViewTab@@IAEXI@Z 004cddf0 f   NCViewTab.obj
 0001:000cce20       ?OnUpdateTraceRun@CNCViewTab@@IAEXPAVCCmdUI@@@Z 004cde20 f   NCViewTab.obj
 0001:000cce70       ?OnTraceRun@CNCViewTab@@IAEXXZ 004cde70 f   NCViewTab.obj
 0001:000ccf00       ?OnUpdateTracePause@CNCViewTab@@IAEXPAVCCmdUI@@@Z 004cdf00 f   NCViewTab.obj
 0001:000ccf50       ?OnTracePause@CNCViewTab@@IAEXXZ 004cdf50 f   NCViewTab.obj
 0001:000cd010       ?OnTraceStop@CNCViewTab@@IAEXXZ 004ce010 f   NCViewTab.obj
 0001:000cd090       ?OnUpdateTraceCursor@CNCViewTab@@IAEXPAVCCmdUI@@@Z 004ce090 f   NCViewTab.obj
 0001:000cd0d0       ?OnTraceCursor@CNCViewTab@@IAEXI@Z 004ce0d0 f   NCViewTab.obj
 0001:000cd260       ?OnUpdateAllFitCmd@CNCViewTab@@IAEXPAVCCmdUI@@@Z 004ce260 f   NCViewTab.obj
 0001:000cd290       ?OnUpdateDefViewInfo@CNCViewTab@@IAEXPAVCCmdUI@@@Z 004ce290 f   NCViewTab.obj
 0001:000cd290       ?OnUpdateRoundKey@CNCViewTab@@IAEXPAVCCmdUI@@@Z 004ce290 f   NCViewTab.obj
 0001:000cd2c0       ?OnUpdateEditCopy@CNCViewTab@@IAEXPAVCCmdUI@@@Z 004ce2c0 f   NCViewTab.obj
 0001:000cd2f0       ?InitInstance@CTraceThread@@UAEHXZ 004ce2f0 f   NCViewTab.obj
 0001:000cd860       ?ExitInstance@CTraceThread@@UAEHXZ 004ce860 f   NCViewTab.obj
 0001:000cd869       ??_9CNCdata@@$BCA@AE       004ce869 f i NCViewTab.obj
 0001:000cd86e       ??_9CNCdata@@$BDA@AE       004ce86e f i NCViewTab.obj
 0001:000cd873       ??_9CNCdata@@$BBI@AE       004ce873 f i NCViewTab.obj
 0001:000cd878       ??_9CNCdata@@$BCI@AE       004ce878 f i NCViewTab.obj
 0001:000cd87d       ??_9CNCdata@@$BBM@AE       004ce87d f i NCViewTab.obj
 0001:000cd882       ??_9CNCdata@@$BCM@AE       004ce882 f i NCViewTab.obj
 0001:000cd890       ?CreateObject@CNCViewXY@@SGPAVCObject@@XZ 004ce890 f   NCViewXY.obj
 0001:000cd960       ?GetRuntimeClass@CNCViewXY@@UBEPAUCRuntimeClass@@XZ 004ce960 f   NCViewXY.obj
 0001:000cd970       ??_ECNCViewXY@@UAEPAXI@Z   004ce970 f i * CIL library *:* CIL module *
 0001:000cd970       ??_GCNCViewXY@@UAEPAXI@Z   004ce970 f i NCViewXY.obj
 0001:000cd9c0       ?OnInitialUpdate@CNCViewXY@@UAEXXZ 004ce9c0 f   NCViewXY.obj
 0001:000cda60       ?SetGuideData@CNCViewXY@@UAEXXZ 004cea60 f   NCViewXY.obj
 0001:000cdb20       ?SetWorkCylinder@CNCViewXY@@UAEXXZ 004ceb20 f   NCViewXY.obj
 0001:000cdc00       ?ConvertWorkCylinder@CNCViewXY@@UAEXXZ 004cec00 f   NCViewXY.obj
 0001:000cdc60       ?DrawWorkCylinder@CNCViewXY@@UAEXPAVCDC@@@Z 004cec60 f   NCViewXY.obj
 0001:000cdd10       ?ConvertRect@CNCViewXZ@@UAE?AV?$CRectT@M@@ABV?$CRect3T@M@@@Z 004ced10 f i NCViewXZ.obj
 0001:000cdd40       ?GetPlaneAxis@CNCViewXZ@@UAE?AV?$tuple@IIUnull_type@tuples@boost@@U123@U123@U123@U123@U123@U123@U123@@tuples@boost@@XZ 004ced40 f i NCViewXZ.obj
 0001:000cdd60       ?CreateObject@CNCViewXZ@@SGPAVCObject@@XZ 004ced60 f   NCViewXZ.obj
 0001:000cdde0       ?GetRuntimeClass@CNCViewXZ@@UBEPAUCRuntimeClass@@XZ 004cede0 f   NCViewXZ.obj
 0001:000cddf0       ?OnInitialUpdate@CNCViewXZ@@UAEXXZ 004cedf0 f   NCViewXZ.obj
 0001:000cde80       ?SetGuideData@CNCViewXZ@@UAEXXZ 004cee80 f   NCViewXZ.obj
 0001:000cdf40       ?ConvertRect@CNCViewYZ@@UAE?AV?$CRectT@M@@ABV?$CRect3T@M@@@Z 004cef40 f i NCViewYZ.obj
 0001:000cdf70       ?GetPlaneAxis@CNCViewYZ@@UAE?AV?$tuple@IIUnull_type@tuples@boost@@U123@U123@U123@U123@U123@U123@U123@@tuples@boost@@XZ 004cef70 f i NCViewYZ.obj
 0001:000cdf90       ?CreateObject@CNCViewYZ@@SGPAVCObject@@XZ 004cef90 f   NCViewYZ.obj
 0001:000ce010       ?GetRuntimeClass@CNCViewYZ@@UBEPAUCRuntimeClass@@XZ 004cf010 f   NCViewYZ.obj
 0001:000ce020       ?OnInitialUpdate@CNCViewYZ@@UAEXXZ 004cf020 f   NCViewYZ.obj
 0001:000ce0a0       ?SetGuideData@CNCViewYZ@@UAEXXZ 004cf0a0 f   NCViewYZ.obj
 0001:000ce160       ?GetMessageMap@CNCWorkDlg@@MBEPBUAFX_MSGMAP@@XZ 004cf160 f   NCWorkDlg.obj
 0001:000ce170       ?GetRuntimeClass@CNCWorkDlg@@UBEPAUCRuntimeClass@@XZ 004cf170 f   NCWorkDlg.obj
 0001:000ce180       ??0CNCWorkDlg@@QAE@II@Z    004cf180 f   NCWorkDlg.obj
 0001:000ce3e0       ??_ECNCWorkDlg@@UAEPAXI@Z  004cf3e0 f i * CIL library *:* CIL module *
 0001:000ce3e0       ??_GCNCWorkDlg@@UAEPAXI@Z  004cf3e0 f i NCWorkDlg.obj
 0001:000ce440       ??1CNCWorkDlg1@@UAE@XZ     004cf440 f i NCWorkDlg.obj
 0001:000ce4e0       ??1CNCWorkDlg2@@UAE@XZ     004cf4e0 f i NCWorkDlg.obj
 0001:000ce5b0       ?GetNCDocument@CNCWorkDlg@@QAEPAVCNCDoc@@XZ 004cf5b0 f   NCWorkDlg.obj
 0001:000ce620       ?OnInitDialog@CNCWorkDlg@@UAEHXZ 004cf620 f   NCWorkDlg.obj
 0001:000ce680       ?PostNcDestroy@CNCWorkDlg@@MAEXXZ 004cf680 f   NCWorkDlg.obj
 0001:000ce6c0       ?OnDestroy@CNCWorkDlg@@IAEXXZ 004cf6c0 f   NCWorkDlg.obj
 0001:000ce6e0       ?OnUserSwitchDocument@CNCWorkDlg@@IAEJIJ@Z 004cf6e0 f   NCWorkDlg.obj
 0001:000ce760       ?GetMessageMap@CNCWorkDlg1@@MBEPBUAFX_MSGMAP@@XZ 004cf760 f   NCWorkDlg1.obj
 0001:000ce770       ??_ECNCWorkDlg1@@UAEPAXI@Z 004cf770 f i * CIL library *:* CIL module *
 0001:000ce770       ??_GCNCWorkDlg1@@UAEPAXI@Z 004cf770 f i NCWorkDlg1.obj
 0001:000ce7b0       ?DoDataExchange@CNCWorkDlg1@@MAEXPAVCDataExchange@@@Z 004cf7b0 f   NCWorkDlg1.obj
 0001:000ce850       ?EnableButton@CNCWorkDlg1@@AAEXHH@Z 004cf850 f   NCWorkDlg1.obj
 0001:000ce910       ?SetValue@CNCWorkDlg1@@AAEXPBVCNCDoc@@ABV?$CRect3T@M@@@Z 004cf910 f   NCWorkDlg1.obj
 0001:000cea00       ?OnInitDialog@CNCWorkDlg1@@MAEHXZ 004cfa00 f   NCWorkDlg1.obj
 0001:000ceb40       ?PreTranslateMessage@CNCWorkDlg1@@MAEHPAUtagMSG@@@Z 004cfb40 f   NCWorkDlg1.obj
 0001:000ceb90       ?OnShow@CNCWorkDlg1@@IAEXXZ 004cfb90 f   NCWorkDlg1.obj
 0001:000cef20       ?OnHide@CNCWorkDlg1@@IAEXXZ 004cff20 f   NCWorkDlg1.obj
 0001:000cef50       ?OnComment@CNCWorkDlg1@@IAEXXZ 004cff50 f   NCWorkDlg1.obj
 0001:000cf2b0       ?OnRecover@CNCWorkDlg1@@IAEXXZ 004d02b0 f   NCWorkDlg1.obj
 0001:000cf300       ?OnUserSwitchDocument@CNCWorkDlg1@@IAEJIJ@Z 004d0300 f   NCWorkDlg1.obj
 0001:000cf390       ?GetMessageMap@CNCWorkDlg2@@MBEPBUAFX_MSGMAP@@XZ 004d0390 f   NCWorkDlg2.obj
 0001:000cf3a0       ??_ECNCWorkDlg2@@UAEPAXI@Z 004d03a0 f i * CIL library *:* CIL module *
 0001:000cf3a0       ??_GCNCWorkDlg2@@UAEPAXI@Z 004d03a0 f i NCWorkDlg2.obj
 0001:000cf3e0       ?DoDataExchange@CNCWorkDlg2@@MAEXPAVCDataExchange@@@Z 004d03e0 f   NCWorkDlg2.obj
 0001:000cf4b0       ?EnableButton@CNCWorkDlg2@@AAEXH@Z 004d04b0 f   NCWorkDlg2.obj
 0001:000cf560       ?SetValue@CNCWorkDlg2@@AAEXABV?$CRect3T@M@@@Z 004d0560 f   NCWorkDlg2.obj
 0001:000cf610       ?OnInitDialog@CNCWorkDlg2@@MAEHXZ 004d0610 f   NCWorkDlg2.obj
 0001:000cf630       ?PreTranslateMessage@CNCWorkDlg2@@MAEHPAUtagMSG@@@Z 004d0630 f   NCWorkDlg2.obj
 0001:000cf680       ?OnShow@CNCWorkDlg2@@IAEXXZ 004d0680 f   NCWorkDlg2.obj
 0001:000cf8e0       ?OnHide@CNCWorkDlg2@@IAEXXZ 004d08e0 f   NCWorkDlg2.obj
 0001:000cf910       ?OnComment@CNCWorkDlg2@@IAEXXZ 004d0910 f   NCWorkDlg2.obj
 0001:000cfb20       ?OnRecover@CNCWorkDlg2@@IAEXXZ 004d0b20 f   NCWorkDlg2.obj
 0001:000cfb70       ?OnUserSwitchDocument@CNCWorkDlg2@@IAEJIJ@Z 004d0b70 f   NCWorkDlg2.obj
 0001:000cfbf0       ?GetMessageMap@COBSdlg@@MBEPBUAFX_MSGMAP@@XZ 004d0bf0 f   OBSdlg.obj
 0001:000cfc00       ??_ECOBSdlg@@UAEPAXI@Z     004d0c00 f i * CIL library *:* CIL module *
 0001:000cfc00       ??_GCOBSdlg@@UAEPAXI@Z     004d0c00 f i OBSdlg.obj
 0001:000cfc60       ?DoDataExchange@COBSdlg@@MAEXPAVCDataExchange@@@Z 004d0c60 f   OBSdlg.obj
 0001:000cfcc0       ?GetOBSdata@COBSdlg@@AAEXXZ 004d0cc0 f   OBSdlg.obj
 0001:000cfdf0       ?SetOBSdata@COBSdlg@@AAEXXZ 004d0df0 f   OBSdlg.obj
 0001:000cfe80       ?OnInitDialog@COBSdlg@@MAEHXZ 004d0e80 f   OBSdlg.obj
 0001:000cfef0       ?OnObsWrite@COBSdlg@@IAEXXZ 004d0ef0 f   OBSdlg.obj
 0001:000cffc0       ?OnOK@COBSdlg@@MAEXXZ      004d0fc0 f   OBSdlg.obj
 0001:000d0010       ?OnCancel@COBSdlg@@MAEXXZ  004d1010 f   OBSdlg.obj
 0001:000d0030       ?PostNcDestroy@COBSdlg@@MAEXXZ 004d1030 f   OBSdlg.obj
 0001:000d0070       ?OnAllON@COBSdlg@@IAEXXZ   004d1070 f   OBSdlg.obj
 0001:000d00e0       ?OnAllOFF@COBSdlg@@IAEXXZ  004d10e0 f   OBSdlg.obj
 0001:000d0150       ?OnUserSwitchDocument@COBSdlg@@IAEJIJ@Z 004d1150 f   OBSdlg.obj
 0001:000d01c0       ?OnUserSwitchMachine@COBSdlg@@IAEJIJ@Z 004d11c0 f   OBSdlg.obj
 0001:000d01e0       ??_ECDXFBlockData@@UAEPAXI@Z 004d11e0 f i * CIL library *:* CIL module *
 0001:000d01e0       ??_GCDXFBlockData@@UAEPAXI@Z 004d11e0 f i ReadDXF.obj
 0001:000d2370       ?SetBlockData@@YAHXZ       004d3370 f   ReadDXF.obj
 0001:000d30d0       ?RecursiveSpline@@YAMHHM@Z 004d40d0 f   ReadDXF.obj
 0001:000d3610       ?ReadDXF@@YAHPAVCDXFDoc@@PBD@Z 004d4610 f   ReadDXF.obj
 0001:000d3d30       ??_E?$CTypedPtrMap@VCMapStringToPtr@@V?$CStringT@DV?$StrTraitMFC_DLL@DV?$ChTraitsCRT@D@ATL@@@@@ATL@@PAVCDXFBlockData@@@@UAEPAXI@Z 004d4d30 f i * CIL library *:* CIL module *
 0001:000d3d30       ??_G?$CTypedPtrMap@VCMapStringToPtr@@V?$CStringT@DV?$StrTraitMFC_DLL@DV?$ChTraitsCRT@D@ATL@@@@@ATL@@PAVCDXFBlockData@@@@UAEPAXI@Z 004d4d30 f i ReadDXF.obj
 0001:000d3d70       ??$_Emplace_reallocate@ABUPOLYVERTEX@@@?$vector@UPOLYVERTEX@@V?$allocator@UPOLYVERTEX@@@std@@@std@@AAEPAUPOLYVERTEX@@QAU2@ABU2@@Z 004d4d70 f i ReadDXF.obj
 0001:000d3f40       ??_ECShapePropDlg@@UAEPAXI@Z 004d4f40 f i * CIL library *:* CIL module *
 0001:000d3f40       ??_GCShapePropDlg@@UAEPAXI@Z 004d4f40 f i ShapePropDlg.obj
 0001:000d3fc0       ?DoDataExchange@CShapePropDlg@@MAEXPAVCDataExchange@@@Z 004d4fc0 f   ShapePropDlg.obj
 0001:000d4050       ?OnInitDialog@CShapePropDlg@@MAEHXZ 004d5050 f   ShapePropDlg.obj
 0001:000d41f0       ?OnOK@CShapePropDlg@@MAEXXZ 004d51f0 f   ShapePropDlg.obj
 0001:000d4390       ?GetMessageMap@CSplashWnd@@MBEPBUAFX_MSGMAP@@XZ 004d5390 f   SplashWnd.obj
 0001:000d43a0       ??_ECSplashWnd@@UAEPAXI@Z  004d53a0 f i * CIL library *:* CIL module *
 0001:000d43a0       ??_GCSplashWnd@@UAEPAXI@Z  004d53a0 f i SplashWnd.obj
 0001:000d43f0       ?PreTranslateMessage@CSplashWnd@@UAEHPAUtagMSG@@@Z 004d53f0 f   SplashWnd.obj
 0001:000d4480       ?PreCreateWindow@CSplashWnd@@MAEHAAUtagCREATESTRUCTA@@@Z 004d5480 f   SplashWnd.obj
 0001:000d44a0       ?OnCreate@CSplashWnd@@IAEHPAUtagCREATESTRUCTA@@@Z 004d54a0 f   SplashWnd.obj
 0001:000d44e0       ?OnPaint@CSplashWnd@@IAEXXZ 004d54e0 f   SplashWnd.obj
 0001:000d45d0       ?OnTimer@CSplashWnd@@IAEXI@Z 004d55d0 f   SplashWnd.obj
 0001:000d4610       ?PostNcDestroy@CSplashWnd@@MAEXXZ 004d5610 f   SplashWnd.obj
 0001:000d4620       ?Init@CComCriticalSection@ATL@@QAEJXZ 004d5620 f i stdafx.obj
 0001:000d4650       ?MySplitPath@@YAXPBDPADI1I1I1I@Z 004d5650 f   stdafx.obj
 0001:000d4790       ?Path_Name_From_FullPath@@YAXPBDAAV?$CStringT@DV?$StrTraitMFC_DLL@DV?$ChTraitsCRT@D@ATL@@@@@ATL@@1H@Z 004d5790 f   stdafx.obj
 0001:000d4880       ?RelativePath@@YA?AV?$CStringT@DV?$StrTraitMFC_DLL@DV?$ChTraitsCRT@D@ATL@@@@@ATL@@PBD0@Z 004d5880 f   stdafx.obj
 0001:000d49f0       ?GetScriptExec@@YA?AV?$CStringT@DV?$StrTraitMFC_DLL@DV?$ChTraitsCRT@D@ATL@@@@@ATL@@ABV12@@Z 004d59f0 f   stdafx.obj
 0001:000d4a90       ?CreateObject@CTabViewBase@@SGPAVCObject@@XZ 004d5a90 f   TabViewBase.obj
 0001:000d4b30       ?_GetBaseClass@CTabViewBase@@KGPAUCRuntimeClass@@XZ 004d5b30 f   TabViewBase.obj
 0001:000d4b40       ?GetMessageMap@CTabViewBase@@MBEPBUAFX_MSGMAP@@XZ 004d5b40 f   TabViewBase.obj
 0001:000d4b40       ?GetThisMessageMap@CTabViewBase@@KGPBUAFX_MSGMAP@@XZ 004d5b40 f   TabViewBase.obj
 0001:000d4b50       ?AddPage@CTabViewBase@@QAEHPBDPAUCRuntimeClass@@PAVCDocument@@PAVCFrameWnd@@@Z 004d5b50 f   TabViewBase.obj
 0001:000d4c00       ?AddPage@CTabViewBase@@QAEHPBDPAVCWnd@@@Z 004d5c00 f   TabViewBase.obj
 0001:000d4c80       ?ActivatePage@CTabViewBase@@QAEXH@Z 004d5c80 f   TabViewBase.obj
 0001:000d4d30       ?ResizePage@CTabViewBase@@IAEXPAVCWnd@@@Z 004d5d30 f   TabViewBase.obj
 0001:000d4db0       ?OnSize@CTabViewBase@@IAEXIHH@Z 004d5db0 f   TabViewBase.obj
 0001:000d4e90       ?OnDestroy@CTabViewBase@@IAEXXZ 004d5e90 f   TabViewBase.obj
 0001:000d4eb0       ?OnSetFocus@CTabViewBase@@IAEXPAVCWnd@@@Z 004d5eb0 f   TabViewBase.obj
 0001:000d4ee0       ?OnEraseBkgnd@CTabViewBase@@IAEHPAVCDC@@@Z 004d5ee0 f   TabViewBase.obj
 0001:000d4f40       ?OnSelChanging@CTabViewBase@@IAEXPAUtagNMHDR@@PAJ@Z 004d5f40 f   TabViewBase.obj
 0001:000d4fa0       ?OnSelChange@CTabViewBase@@IAEXPAUtagNMHDR@@PAJ@Z 004d5fa0 f   TabViewBase.obj
 0001:000d5080       ?AutoWorkingSet_Thread@@YAIPAX@Z 004d6080 f   TH_AutoWorkingSet.obj
 0001:000d5f00       ??1CHECKMAPTHREADPARAM@@QAE@XZ 004d6f00 f i TH_ShapeSearch.obj
 0001:000d5f00       ??1SEPARATEOUTLINETHREADPARAM@@QAE@XZ 004d6f00 f i TH_AutoWorkingSet.obj
 0001:000d8000       ??$?4P6AXPBVCLayerData@@PAX@Z@?$function@$$A6AXPBVCLayerData@@PAX@Z@boost@@QAEAAV01@P6AXPBVCLayerData@@PAX@Z@Z 004d9000 f i TH_AutoWorkingSet.obj
 0001:000d80f0       ??$?4P6APAVCDXFworkingOutline@@PAVCDXFshape@@H@Z@?$function@$$A6APAVCDXFworkingOutline@@PAVCDXFshape@@H@Z@boost@@QAEAAV01@P6APAVCDXFworkingOutline@@PAVCDXFshape@@H@Z@Z 004d90f0 f i TH_AutoWorkingSet.obj
 0001:000d8a40       ?invoke@?$function_invoker2@P6AHABV?$basic_string@DU?$char_traits@D@std@@V?$allocator@D@2@@std@@PAVCNCblock@@@ZHABV12@PAV3@@function@detail@boost@@SAHAATfunction_buffer@234@ABV?$basic_string@DU?$char_traits@D@std@@V?$allocator@D@2@@std@@PAVCNCblock@@@Z 004d9a40 f i TH_NCRead.obj
 0001:000d8a40       ?invoke@?$function_invoker2@P6APAVCDXFdata@@HH@ZPAV1@HH@function@detail@boost@@SAPAVCDXFdata@@AATfunction_buffer@234@HH@Z 004d9a40 f i TH_MakeNCD.obj
 0001:000d8a40       ?invoke@?$function_invoker2@P6APAVCDXFworkingOutline@@PAVCDXFshape@@H@ZPAV1@PAV2@H@function@detail@boost@@SAPAVCDXFworkingOutline@@AATfunction_buffer@234@PAVCDXFshape@@H@Z 004d9a40 f i TH_AutoWorkingSet.obj
 0001:000d8a40       ?invoke@?$void_function_invoker2@P6AXPBVCLayerData@@PAX@ZXPBV1@PAX@function@detail@boost@@SAXAATfunction_buffer@234@PBVCLayerData@@PAX@Z 004d9a40 f i TH_AutoWorkingSet.obj
 0001:000d8a60       ?manage@?$functor_manager@P6APAVCDXFworkingOutline@@PAVCDXFshape@@H@Z@function@detail@boost@@SAXABTfunction_buffer@234@AAT5234@W4functor_manager_operation_type@234@@Z 004d9a60 f i TH_AutoWorkingSet.obj
 0001:000d8ae0       ?manage@?$functor_manager@P6AXPBVCLayerData@@PAX@Z@function@detail@boost@@SAXABTfunction_buffer@234@AAT5234@W4functor_manager_operation_type@234@@Z 004d9ae0 f i TH_AutoWorkingSet.obj
 0001:000d8b60       ??$apply_visitor@U?$get_visitor@PAVCLayerData@@@variant@detail@boost@@@?$variant@KPAVCLayerData@@PAVCDXFshape@@PAVCDXFworking@@@boost@@QGAEPAPAVCLayerData@@AAU?$get_visitor@PAVCLayerData@@@variant@detail@1@@Z 004d9b60 f i TH_AutoWorkingSet.obj
 0001:000d92a0       ?CorrectCalc_Thread@@YAIPAX@Z 004da2a0 f   TH_Correct.obj
 0001:000dae00       ?CuttimeCalc_Thread@CNCDoc@@CAIPAX@Z 004dbe00 f   TH_Cuttime.obj
 0001:000db300       ?invoke@?$function_invoker1@P6AMABV?$basic_string@DU?$char_traits@D@std@@V?$allocator@D@2@@std@@@ZMABV12@@function@detail@boost@@SAMAATfunction_buffer@234@ABV?$basic_string@DU?$char_traits@D@std@@V?$allocator@D@2@@std@@@Z 004dc300 f i TH_NCRead.obj
 0001:000db300       ?invoke@?$function_invoker1@P6AMPBVCNCdata@@@ZMPBV1@@function@detail@boost@@SAMAATfunction_buffer@234@PBVCNCdata@@@Z 004dc300 f i TH_Cuttime.obj
 0001:000db320       ?manage@?$functor_manager@P6AMPBVCNCdata@@@Z@function@detail@boost@@SAXABTfunction_buffer@234@AAT5234@W4functor_manager_operation_type@234@@Z 004dc320 f i TH_Cuttime.obj
 0001:000db450       ?MakeLathe_Thread@@YAIPAX@Z 004dc450 f   TH_MakeLathe.obj
 0001:000dea10       ?ReplaceCustomCode@CMakeCustomLatheCode@@QAE?AV?$CStringT@DV?$StrTraitMFC_DLL@DV?$ChTraitsCRT@D@ATL@@@@@ATL@@ABV?$basic_string@DU?$char_traits@D@std@@V?$allocator@D@2@@std@@@Z 004dfa10 f i TH_MakeLathe.obj
 0001:000deea0       ??1CMakeCustomCode@@QAE@XZ 004dfea0 f i TH_MakeLathe.obj
 0001:000deea0       ??1CMakeCustomLatheCode@@QAE@XZ 004dfea0 f i TH_MakeLathe.obj
 0001:000deea0       ??1CMakeCustomMillCode@@QAE@XZ 004dfea0 f i TH_MakeNCD.obj
 0001:000deea0       ??1CMakeCustomNurbsCode@@QAE@XZ 004dfea0 f i TH_MakeNurbs.obj
 0001:000deea0       ??1CMakeCustomWireCode@@QAE@XZ 004dfea0 f i TH_MakeWire.obj
 0001:000df270       ??1?$auto_any@V?$token_iterator@Ucustom_separator@@V?$_String_const_iterator@V?$_String_val@U?$_Simple_types@D@std@@@std@@@std@@V?$basic_string@DU?$char_traits@D@std@@V?$allocator@D@2@@3@@boost@@@foreach_detail_@boost@@QAE@XZ 004e0270 f i TH_MakeLathe.obj
 0001:000df270       ??1?$token_iterator@Ucustom_separator@@V?$_String_const_iterator@V?$_String_val@U?$_Simple_types@D@std@@@std@@@std@@V?$basic_string@DU?$char_traits@D@std@@V?$allocator@D@2@@3@@boost@@QAE@XZ 004e0270 f i TH_MakeLathe.obj
 0001:000df4f0       ??$begin@V?$tokenizer@Ucustom_separator@@V?$_String_const_iterator@V?$_String_val@U?$_Simple_types@D@std@@@std@@@std@@V?$basic_string@DU?$char_traits@D@std@@V?$allocator@D@2@@3@@boost@@U?$bool_@$0A@@mpl@2@@foreach_detail_@boost@@YA?AU?$auto_any@V?$token_iterator@Ucustom_separator@@V?$_String_const_iterator@V?$_String_val@U?$_Simple_types@D@std@@@std@@@std@@V?$basic_string@DU?$char_traits@D@std@@V?$allocator@D@2@@3@@boost@@@01@ABUauto_any_base@01@PAU?$type2type@V?$tokenizer@Ucustom_separator@@V?$_String_const_iterator@V?$_String_val@U?$_Simple_types@D@std@@@std@@@std@@V?$basic_string@DU?$char_traits@D@std@@V?$allocator@D@2@@3@@boost@@U?$bool_@$0A@@mpl@2@@01@PAU?$bool_@$0A@@mpl@1@@Z 004e04f0 f i TH_MakeLathe.obj
 0001:000df5f0       ??$end@V?$tokenizer@Ucustom_separator@@V?$_String_const_iterator@V?$_String_val@U?$_Simple_types@D@std@@@std@@@std@@V?$basic_string@DU?$char_traits@D@std@@V?$allocator@D@2@@3@@boost@@U?$bool_@$0A@@mpl@2@@foreach_detail_@boost@@YA?AU?$auto_any@V?$token_iterator@Ucustom_separator@@V?$_String_const_iterator@V?$_String_val@U?$_Simple_types@D@std@@@std@@@std@@V?$basic_string@DU?$char_traits@D@std@@V?$allocator@D@2@@3@@boost@@@01@ABUauto_any_base@01@PAU?$type2type@V?$tokenizer@Ucustom_separator@@V?$_String_const_iterator@V?$_String_val@U?$_Simple_types@D@std@@@std@@@std@@V?$basic_string@DU?$char_traits@D@std@@V?$allocator@D@2@@3@@boost@@U?$bool_@$0A@@mpl@2@@01@PAU?$bool_@$0A@@mpl@1@@Z 004e05f0 f i TH_MakeLathe.obj
 0001:000df6c0       ??$?RV?$_String_const_iterator@V?$_String_val@U?$_Simple_types@D@std@@@std@@@std@@V?$basic_string@DU?$char_traits@D@std@@V?$allocator@D@2@@1@@custom_separator@@QAE_NAAV?$_String_const_iterator@V?$_String_val@U?$_Simple_types@D@std@@@std@@@std@@V12@AAV?$basic_string@DU?$char_traits@D@std@@V?$allocator@D@2@@2@@Z 004e06c0 f i TH_MakeLathe.obj
 0001:000dfd60       ?MakeNCD_Thread@@YAIPAX@Z  004e0d60 f   TH_MakeNCD.obj
 0001:000e9e30       ?ReplaceCustomCode@CMakeCustomMillCode@@QAE?AV?$CStringT@DV?$StrTraitMFC_DLL@DV?$ChTraitsCRT@D@ATL@@@@@ATL@@ABV?$basic_string@DU?$char_traits@D@std@@V?$allocator@D@2@@std@@@Z 004eae30 f i TH_MakeNCD.obj
 0001:000eb2a0       ?QSort@?$CSortArray@VCObArray@@PAVCDXFcircle@@@@AAEXP6AHPAVCDXFcircle@@0@ZHH@Z 004ec2a0 f i TH_MakeNCD.obj
 0001:000eb360       ?QSort@?$CSortArray@VCObArray@@PAVCDXFchain@@@@AAEXP6AHPAVCDXFchain@@0@ZHH@Z 004ec360 f i TH_MakeNCD.obj
 0001:000eb420       ??$?4P6AXXZ@?$function@$$A6AXXZ@boost@@QAEAAV01@P6AXXZ@Z 004ec420 f i TH_MakeNCD.obj
 0001:000eb510       ??$?4P6AXPBVCDXFdata@@@Z@?$function@$$A6AXPBVCDXFdata@@@Z@boost@@QAEAAV01@P6AXPBVCDXFdata@@@Z@Z 004ec510 f i TH_MakeNCD.obj
 0001:000eb610       ?invoke@?$void_function_invoker1@P6AXPBVCDXFdata@@@ZXPBV1@@function@detail@boost@@SAXAATfunction_buffer@234@PBVCDXFdata@@@Z 004ec610 f i TH_MakeNCD.obj
 0001:000eb620       ?manage@?$functor_manager@P6AXPBVCDXFdata@@@Z@function@detail@boost@@SAXABTfunction_buffer@234@AAT5234@W4functor_manager_operation_type@234@@Z 004ec620 f i TH_MakeNCD.obj
 0001:000eb6a0       ?manage@?$functor_manager@P6APAVCDXFdata@@HH@Z@function@detail@boost@@SAXABTfunction_buffer@234@AAT5234@W4functor_manager_operation_type@234@@Z 004ec6a0 f i TH_MakeNCD.obj
 0001:000eb720       ?invoke@?$function_invoker0@P6AHXZH@function@detail@boost@@SAHAATfunction_buffer@234@@Z 004ec720 f i TH_NCRead.obj
 0001:000eb720       ?invoke@?$void_function_invoker0@P6AXXZX@function@detail@boost@@SAXAATfunction_buffer@234@@Z 004ec720 f i TH_MakeNCD.obj
 0001:000eb730       ?manage@?$functor_manager@P6AXXZ@function@detail@boost@@SAXABTfunction_buffer@234@AAT5234@W4functor_manager_operation_type@234@@Z 004ec730 f i TH_MakeNCD.obj
 0001:000eb8d0       ?MakeNurbs_Thread@@YAIPAX@Z 004ec8d0 f   TH_MakeNurbs.obj
 0001:000ed040       ?ReplaceCustomCode@CMakeCustomNurbsCode@@QAE?AV?$CStringT@DV?$StrTraitMFC_DLL@DV?$ChTraitsCRT@D@ATL@@@@@ATL@@ABV?$basic_string@DU?$char_traits@D@std@@V?$allocator@D@2@@std@@@Z 004ee040 f i TH_MakeNurbs.obj
 0001:000edc10       ?MakeWire_Thread@@YAIPAX@Z 004eec10 f   TH_MakeWire.obj
 0001:000f0700       ?ReplaceCustomCode@CMakeCustomWireCode@@QAE?AV?$CStringT@DV?$StrTraitMFC_DLL@DV?$ChTraitsCRT@D@ATL@@@@@ATL@@ABV?$basic_string@DU?$char_traits@D@std@@V?$allocator@D@2@@std@@@Z 004f1700 f i TH_MakeWire.obj
 0001:000f1380       ?SetWorkCylinderComment@CNCDoc@@QAEXMMABV?$CPoint3T@M@@@Z 004f2380 f i TH_NCRead.obj
 0001:000f14c0       ?ChangeAbs@CYCLE_INTERPOLATE@@QAEXXZ 004f24c0 f i TH_NCRead.obj
 0001:000f1540       ?ChangeInc@CYCLE_INTERPOLATE@@QAEXXZ 004f2540 f i TH_NCRead.obj
 0001:000f16c0       ?NCDtoXYZ_Thread@@YAIPAX@Z 004f26c0 f   TH_NCRead.obj
 0001:000f38c0       ??1?$rule@V?$_String_iterator@V?$_String_val@U?$_Simple_types@D@std@@@std@@@std@@U?$rule@V?$_String_iterator@V?$_String_val@U?$_Simple_types@D@std@@@std@@@std@@Uunused_type@spirit@boost@@U345@U345@U345@@qi@spirit@boost@@$$A6A?AV?$basic_string@DU?$char_traits@D@std@@V?$allocator@D@2@@2@XZUunused_type@56@U856@@qi@spirit@boost@@QAE@XZ 004f48c0 f i TH_NCRead.obj
 0001:000f38c0       ??1?$rule@V?$_String_iterator@V?$_String_val@U?$_Simple_types@D@std@@@std@@@std@@U?$rule@V?$_String_iterator@V?$_String_val@U?$_Simple_types@D@std@@@std@@@std@@Uunused_type@spirit@boost@@U345@U345@U345@@qi@spirit@boost@@Uunused_type@56@U756@U756@@qi@spirit@boost@@QAE@XZ 004f48c0 f i TH_NCRead.obj
 0001:000f38c0       ??1?$rule@V?$_String_iterator@V?$_String_val@U?$_Simple_types@D@std@@@std@@@std@@Uunused_type@spirit@boost@@U345@U345@U345@@qi@spirit@boost@@QAE@XZ 004f48c0 f i TH_NCRead.obj
 0001:000f3980       ??1?$CCommentParser@V?$_String_iterator@V?$_String_val@U?$_Simple_types@D@std@@@std@@@std@@U?$rule@V?$_String_iterator@V?$_String_val@U?$_Simple_types@D@std@@@std@@@std@@Uunused_type@spirit@boost@@U345@U345@U345@@qi@spirit@boost@@@@QAE@XZ 004f4980 f i TH_NCRead.obj
 0001:000f3be0       ??1?$grammar@V?$_String_iterator@V?$_String_val@U?$_Simple_types@D@std@@@std@@@std@@U?$rule@V?$_String_iterator@V?$_String_val@U?$_Simple_types@D@std@@@std@@@std@@Uunused_type@spirit@boost@@U345@U345@U345@@qi@spirit@boost@@$$A6A?AV?$basic_string@DU?$char_traits@D@std@@V?$allocator@D@2@@2@XZUunused_type@56@U856@@qi@spirit@boost@@QAE@XZ 004f4be0 f i TH_NCRead.obj
 0001:000f3be0       ??1?$grammar@V?$_String_iterator@V?$_String_val@U?$_Simple_types@D@std@@@std@@@std@@U?$rule@V?$_String_iterator@V?$_String_val@U?$_Simple_types@D@std@@@std@@@std@@Uunused_type@spirit@boost@@U345@U345@U345@@qi@spirit@boost@@Uunused_type@56@U756@U756@@qi@spirit@boost@@QAE@XZ 004f4be0 f i TH_NCRead.obj
 0001:000f6dc0       ??0?$CCommentParser@V?$_String_iterator@V?$_String_val@U?$_Simple_types@D@std@@@std@@@std@@U?$rule@V?$_String_iterator@V?$_String_val@U?$_Simple_types@D@std@@@std@@@std@@Uunused_type@spirit@boost@@U345@U345@U345@@qi@spirit@boost@@@@QAE@XZ 004f7dc0 f i TH_NCRead.obj
 0001:000fa190       ??0?$CGcodeParser@V?$_String_iterator@V?$_String_val@U?$_Simple_types@D@std@@@std@@@std@@U?$rule@V?$_String_iterator@V?$_String_val@U?$_Simple_types@D@std@@@std@@@std@@Uunused_type@spirit@boost@@U345@U345@U345@@qi@spirit@boost@@@@QAE@XZ 004fb190 f i TH_NCRead.obj
 0001:000fa3d0       ??R?$function1@MABV?$basic_string@DU?$char_traits@D@std@@V?$allocator@D@2@@std@@@boost@@QBEMABV?$basic_string@DU?$char_traits@D@std@@V?$allocator@D@2@@std@@@Z 004fb3d0 f i TH_NCRead.obj
 0001:000fa440       ??R?$function1@HH@boost@@QBEHH@Z 004fb440 f i TH_NCRead.obj
 0001:000fa4b0       ??0?$rule@V?$_String_iterator@V?$_String_val@U?$_Simple_types@D@std@@@std@@@std@@U?$rule@V?$_String_iterator@V?$_String_val@U?$_Simple_types@D@std@@@std@@@std@@Uunused_type@spirit@boost@@U345@U345@U345@@qi@spirit@boost@@Uunused_type@56@U756@U756@@qi@spirit@boost@@QAE@ABV?$basic_string@DU?$char_traits@D@std@@V?$allocator@D@2@@std@@@Z 004fb4b0 f i TH_NCRead.obj
 0001:000fa4e0       ??$?4P6AHXZ@?$function@$$A6AHXZ@boost@@QAEAAV01@P6AHXZ@Z 004fb4e0 f i TH_NCRead.obj
 0001:000fa5d0       ??$?4P6AMABV?$basic_string@DU?$char_traits@D@std@@V?$allocator@D@2@@std@@@Z@?$function@$$A6AMABV?$basic_string@DU?$char_traits@D@std@@V?$allocator@D@2@@std@@@Z@boost@@QAEAAV01@P6AMABV?$basic_string@DU?$char_traits@D@std@@V?$allocator@D@2@@std@@@Z@Z 004fb5d0 f i TH_NCRead.obj
 0001:000fa6c0       ??$?4P6A?AW4ENGCODEOBJ@@H@Z@?$function@$$A6A?AW4ENGCODEOBJ@@H@Z@boost@@QAEAAV01@P6A?AW4ENGCODEOBJ@@H@Z@Z 004fb6c0 f i TH_NCRead.obj
 0001:000fa7c0       ??$?4P6AHH@Z@?$function@$$A6AHH@Z@boost@@QAEAAV01@P6AHH@Z@Z 004fb7c0 f i TH_NCRead.obj
 0001:000fa8c0       ??$?4P6AHABV?$basic_string@DU?$char_traits@D@std@@V?$allocator@D@2@@std@@PAVCNCblock@@@Z@?$function@$$A6AHABV?$basic_string@DU?$char_traits@D@std@@V?$allocator@D@2@@std@@PAVCNCblock@@@Z@boost@@QAEAAV01@P6AHABV?$basic_string@DU?$char_traits@D@std@@V?$allocator@D@2@@std@@PAVCNCblock@@@Z@Z 004fb8c0 f i TH_NCRead.obj
 0001:000fa9b0       ??@787eedc618213fde4d879bc70b58e12d@ 004fb9b0 f i TH_NCRead.obj
 0001:000fab30       ??@50bad1c6d93225c5d3babcce0945a289@ 004fbb30 f i TH_NCRead.obj
 0001:000fabc0       ??@f773b432d2bf672e2df79adb17f0d7f2@ 004fbbc0 f i TH_NCRead.obj
 0001:000fabe0       ??@886d6a34108fa2bd35653aadc9d7a345@ 004fbbe0 f i TH_NCRead.obj
 0001:000fac80       ??$?RPBD@?$terminal@U?$char_code@Ustring@tag@spirit@boost@@Ustandard_wide@char_encoding@34@@tag@spirit@boost@@@spirit@boost@@QBE?AU?$expr@Uterminal@tag@tagns_@proto@boost@@U?$term@U?$terminal_ex@U?$char_code@Ustring@tag@spirit@boost@@Ustandard_wide@char_encoding@34@@tag@spirit@boost@@U?$vector@PBD@fusion@4@@spirit@boost@@@argsns_@45@$0A@@exprns_@proto@2@ABQBDPAU?$bool_@$0A@@detail@12@@Z 004fbc80 f i TH_NCRead.obj
 0001:000faca0       ??$?4U?$expr@Ushift_right@tag@tagns_@proto@boost@@U?$list2@ABU?$expr@Usubscript@tag@tagns_@proto@boost@@U?$list2@ABU?$expr@Uterminal@tag@tagns_@proto@boost@@U?$term@U?$char_code@Uno_case@tag@spirit@boost@@Ustandard_wide@char_encoding@34@@tag@spirit@boost@@@argsns_@45@$0A@@exprns_@proto@boost@@ABU?$expr@Ubitwise_or@tag@tagns_@proto@boost@@U?$list2@ABU?$expr@Ubitwise_or@tag@tagns_@proto@boost@@U?$list2@ABU?$expr@Uterminal@tag@tagns_@proto@boost@@U?$term@U?$terminal_ex@U?$char_code@Ustring@tag@spirit@boost@@Ustandard_wide@char_encoding@34@@tag@spirit@boost@@U?$vector@PBD@fusion@4@@spirit@boost@@@argsns_@45@$0A@@exprns_@proto@boost@@U?$expr@Uterminal@tag@tagns_@proto@boost@@U?$term@AAPBD@argsns_@45@$0A@@234@@argsns_@45@$01@exprns_@proto@boost@@U?$expr@Uterminal@tag@tagns_@proto@boost@@U?$term@AAPBD@argsns_@45@$0A@@234@@argsns_@45@$01@234@@argsns_@45@$01@exprns_@proto@boost@@ABU?$expr@Uterminal@tag@tagns_@proto@boost@@U?$term@U?$terminal_ex@Ulit@tag@spirit@boost@@U?$vector@D@fusion@4@@spirit@boost@@@argsns_@45@$0A@@234@@argsns_@45@$01@exprns_@proto@boost@@@?$rule@V?$_String_iterator@V?$_String_val@U?$_Simple_types@D@std@@@std@@@std@@U?$rule@V?$_String_iterator@V?$_String_val@U?$_Simple_types@D@std@@@std@@@std@@Uunused_type@spirit@boost@@U345@U345@U345@@qi@spirit@boost@@Uunused_type@56@U756@U756@@qi@spirit@boost@@QAEAAU0123@ABU?$expr@Ushift_right@tag@tagns_@proto@boost@@U?$list2@ABU?$expr@Usubscript@tag@tagns_@proto@boost@@U?$list2@ABU?$expr@Uterminal@tag@tagns_@proto@boost@@U?$term@U?$char_code@Uno_case@tag@spirit@boost@@Ustandard_wide@char_encoding@34@@tag@spirit@boost@@@argsns_@45@$0A@@exprns_@proto@boost@@ABU?$expr@Ubitwise_or@tag@tagns_@proto@boost@@U?$list2@ABU?$expr@Ubitwise_or@tag@tagns_@proto@boost@@U?$list2@ABU?$expr@Uterminal@tag@tagns_@proto@boost@@U?$term@U?$terminal_ex@U?$char_code@Ustring@tag@spirit@boost@@Ustandard_wide@char_encoding@34@@tag@spirit@boost@@U?$vector@PBD@fusion@4@@spirit@boost@@@argsns_@45@$0A@@exprns_@proto@boost@@U?$expr@Uterminal@tag@tagns_@proto@boost@@U?$term@AAPBD@argsns_@45@$0A@@234@@argsns_@45@$01@exprns_@proto@boost@@U?$expr@Uterminal@tag@tagns_@proto@boost@@U?$term@AAPBD@argsns_@45@$0A@@234@@argsns_@45@$01@234@@argsns_@45@$01@exprns_@proto@boost@@ABU?$expr@Uterminal@tag@tagns_@proto@boost@@U?$term@U?$terminal_ex@Ulit@tag@spirit@boost@@U?$vector@D@fusion@4@@spirit@boost@@@argsns_@45@$0A@@234@@argsns_@45@$01@exprns_@proto@3@@Z 004fbca0 f i TH_NCRead.obj
 0001:000fae20       ??$?4U?$expr@Ushift_right@tag@tagns_@proto@boost@@U?$list2@ABU?$expr@Ubitwise_or@tag@tagns_@proto@boost@@U?$list2@ABU?$expr@Ubitwise_or@tag@tagns_@proto@boost@@U?$list2@AAU?$rule@V?$_String_iterator@V?$_String_val@U?$_Simple_types@D@std@@@std@@@std@@U?$rule@V?$_String_iterator@V?$_String_val@U?$_Simple_types@D@std@@@std@@@std@@Uunused_type@spirit@boost@@U345@U345@U345@@qi@spirit@boost@@Uunused_type@56@U756@U756@@qi@spirit@boost@@AAU1234@@argsns_@45@$01@exprns_@proto@boost@@AAU?$rule@V?$_String_iterator@V?$_String_val@U?$_Simple_types@D@std@@@std@@@std@@U?$rule@V?$_String_iterator@V?$_String_val@U?$_Simple_types@D@std@@@std@@@std@@Uunused_type@spirit@boost@@U345@U345@U345@@qi@spirit@boost@@Uunused_type@56@U756@U756@@qi@spirit@4@@argsns_@45@$01@exprns_@proto@boost@@AAU?$rule@V?$_String_iterator@V?$_String_val@U?$_Simple_types@D@std@@@std@@@std@@U?$rule@V?$_String_iterator@V?$_String_val@U?$_Simple_types@D@std@@@std@@@std@@Uunused_type@spirit@boost@@U345@U345@U345@@qi@spirit@boost@@Uunused_type@56@U756@U756@@qi@spirit@4@@argsns_@45@$01@exprns_@proto@boost@@@?$rule@V?$_String_iterator@V?$_String_val@U?$_Simple_types@D@std@@@std@@@std@@U?$rule@V?$_String_iterator@V?$_String_val@U?$_Simple_types@D@std@@@std@@@std@@Uunused_type@spirit@boost@@U345@U345@U345@@qi@spirit@boost@@Uunused_type@56@U756@U756@@qi@spirit@boost@@QAEAAU0123@ABU?$expr@Ushift_right@tag@tagns_@proto@boost@@U?$list2@ABU?$expr@Ubitwise_or@tag@tagns_@proto@boost@@U?$list2@ABU?$expr@Ubitwise_or@tag@tagns_@proto@boost@@U?$list2@AAU?$rule@V?$_String_iterator@V?$_String_val@U?$_Simple_types@D@std@@@std@@@std@@U?$rule@V?$_String_iterator@V?$_String_val@U?$_Simple_types@D@std@@@std@@@std@@Uunused_type@spirit@boost@@U345@U345@U345@@qi@spirit@boost@@Uunused_type@56@U756@U756@@qi@spirit@boost@@AAU1234@@argsns_@45@$01@exprns_@proto@boost@@AAU?$rule@V?$_String_iterator@V?$_String_val@U?$_Simple_types@D@std@@@std@@@std@@U?$rule@V?$_String_iterator@V?$_String_val@U?$_Simple_types@D@std@@@std@@@std@@Uunused_type@spirit@boost@@U345@U345@U345@@qi@spirit@boost@@Uunused_type@56@U756@U756@@qi@spirit@4@@argsns_@45@$01@exprns_@proto@boost@@AAU?$rule@V?$_String_iterator@V?$_String_val@U?$_Simple_types@D@std@@@std@@@std@@U?$rule@V?$_String_iterator@V?$_String_val@U?$_Simple_types@D@std@@@std@@@std@@Uunused_type@spirit@boost@@U345@U345@U345@@qi@spirit@boost@@Uunused_type@56@U756@U756@@qi@spirit@4@@argsns_@45@$01@exprns_@proto@3@@Z 004fbe20 f i TH_NCRead.obj
