 NCVC

 Timestamp is 62099986 (Mon Feb 14 08:51:34 2022)

 Preferred load address is 00400000

 Start         Length     Name                   Class
 0001:00000000 000009e0H .text$di                CODE
 0001:000009e0 001266c0H .text$mn                CODE
 0001:001270a0 00017a70H .text$x                 CODE
 0001:0013eb10 00001122H .text$yd                CODE
 0002:00000000 0000156cH .idata$5                DATA
 0002:0000156c 00000008H .00cfg                  DATA
 0002:00001574 00000004H .CRT$XCA                DATA
 0002:00001578 00000004H .CRT$XCAA               DATA
 0002:0000157c 0000000cH .CRT$XCL                DATA
 0002:00001588 000001acH .CRT$XCU                DATA
 0002:00001734 00000004H .CRT$XCZ                DATA
 0002:00001738 00000004H .CRT$XIA                DATA
 0002:0000173c 00000004H .CRT$XIAA               DATA
 0002:00001740 00000004H .CRT$XIAC               DATA
 0002:00001744 00000004H .CRT$XIC                DATA
 0002:00001748 00000004H .CRT$XIZ                DATA
 0002:0000174c 00000004H .CRT$XLA                DATA
 0002:00001750 00000004H .CRT$XLZ                DATA
 0002:00001754 00000004H .CRT$XPA                DATA
 0002:00001758 00000004H .CRT$XPZ                DATA
 0002:0000175c 00000004H .CRT$XTA                DATA
 0002:00001760 00000010H .CRT$XTZ                DATA
 0002:00001764 00000000H .gfids$y                DATA
 0002:00001770 0002f510H .rdata                  DATA
 0002:00030c80 00000000H .rdata$CastGuardVftablesA DATA
 0002:00030c80 00000000H .rdata$CastGuardVftablesC DATA
 0002:00030c80 00000018H .rdata$T                DATA
 0002:00030c98 00006710H .rdata$r                DATA
 0002:000373a8 00000d28H .rdata$sxdata           DATA
 0002:000380d0 00000018H .rdata$voltmd           DATA
 0002:000380e8 00000398H .rdata$zzzdbg           DATA
 0002:00038480 00000004H .rtc$IAA                DATA
 0002:00038484 00000004H .rtc$IZZ                DATA
 0002:00038488 00000004H .rtc$TAA                DATA
 0002:0003848c 00000004H .rtc$TZZ                DATA
 0002:00038490 00000004H .tls                    DATA
 0002:00038494 00000004H .tls$                   DATA
 0002:00038498 00000008H .tls$ZZZ                DATA
 0002:000384a0 00012830H .xdata$x                DATA
 0002:0004acd0 00000000H ATL$__a                 DATA
 0002:0004acd0 00000000H ATL$__z                 DATA
 0002:0004acd0 00000754H .edata                  DATA
 0002:0004b424 000001f4H .idata$2                DATA
 0002:0004b618 00000014H .idata$3                DATA
 0002:0004b62c 0000156cH .idata$4                DATA
 0002:0004cb98 0000257cH .idata$6                DATA
 0003:00000000 00002da8H .data                   DATA
 0003:00002da8 00007d58H .data$r                 DATA
 0003:0000ab00 00002e40H .data$rs                DATA
 0003:0000d940 0201a3a0H .bss                    DATA
 0004:00000000 00002c80H .rsrc$01                DATA
 0004:00002c80 00030b60H .rsrc$02                DATA

  Address         Publics by Value              Rva+Base       Lib:Object

 0000:00000000       ___arm64x_redirection_metadata 00000000     <absolute>
 0000:00000000       ___guard_longjmp_table     00000000     <absolute>
 0000:00000000       ___guard_eh_cont_count     00000000     <absolute>
 0000:00000000       ___arm64x_native_entrypoint 00000000     <absolute>
 0000:00000000       ___guard_fids_count        00000000     <absolute>
 0000:00000000       ___hybrid_code_map_count   00000000     <absolute>
 0000:00000000       ___x64_code_ranges_to_entry_points 00000000     <absolute>
 0000:00000000       ___guard_eh_cont_table     00000000     <absolute>
 0000:00000000       ___guard_iat_count         00000000     <absolute>
 0000:00000000       ___x64_code_ranges_to_entry_points_count 00000000     <absolute>
 0000:00000000       ___arm64x_extra_rfe_table  00000000     <absolute>
 0000:00000000       ___hybrid_code_map         00000000     <absolute>
 0000:00000000       ___guard_iat_table         00000000     <absolute>
 0000:00000000       ___arm64x_extra_rfe_table_size 00000000     <absolute>
 0000:00000000       ___guard_longjmp_count     00000000     <absolute>
 0000:00000000       ___hybrid_auxiliary_iat    00000000     <absolute>
 0000:00000000       ___guard_check_icall_a64n_fptr 00000000     <absolute>
 0000:00000000       ___dynamic_value_reloc_table 00000000     <absolute>
 0000:00000000       ___arm64x_redirection_metadata_count 00000000     <absolute>
 0000:00000000       ___AbsoluteZero            00000000     <absolute>
 0000:00000000       ___enclave_config          00000000     <absolute>
 0000:00000000       ___guard_fids_table        00000000     <absolute>
 0000:00000000       ___hybrid_auxiliary_iat_copy 00000000     <absolute>
 0000:0000002c       __tls_array                0000002c     <absolute>
 0000:00000100       ___guard_flags             00000100     <absolute>
 0000:0000034a       ___safe_se_handler_count   0000034a     <absolute>
 0000:00000000       ___ImageBase               00400000     <linker-defined>
 0001:000009e0       ?GetMessageMap@CDxfAutoPocketgDlg@@MBEPBUAFX_MSGMAP@@XZ 004019e0 f   DxfAutoPocketDlg.obj
 0001:000009e0       ?GetMessageMap@CDxfAutoOutlineDlg@@MBEPBUAFX_MSGMAP@@XZ 004019e0 f   DxfAutoOutlineDlg.obj
 0001:000009f0       ??_GCDxfAutoOutlineDlg@@UAEPAXI@Z 004019f0 f i DxfAutoOutlineDlg.obj
 0001:000009f0       ??_ECDxfAutoOutlineDlg@@UAEPAXI@Z 004019f0 f i * CIL library *:* CIL module *
 0001:00000a30       ??1CDxfAutoOutlineDlg@@UAE@XZ 00401a30 f i DxfAutoOutlineDlg.obj
 0001:00000aa0       ??1CDialogEx@@UAE@XZ       00401aa0 f i DxfAutoOutlineDlg.obj
 0001:00000ad0       ?DoDataExchange@CDxfAutoOutlineDlg@@MAEXPAVCDataExchange@@@Z 00401ad0 f   DxfAutoOutlineDlg.obj
 0001:00000b30       ?OnInitDialog@CDxfAutoOutlineDlg@@MAEHXZ 00401b30 f   DxfAutoOutlineDlg.obj
 0001:00000ba0       ?OnOK@CDxfAutoOutlineDlg@@MAEXXZ 00401ba0 f   DxfAutoOutlineDlg.obj
 0001:00000e60       ?DrawGLLatheDepth@CNCdata@@UBEXXZ 00401e60 f i NCdataGL.obj
 0001:00000e60       __initialize_invalid_parameter_handler 00401e60 f i msvcrt:invalid_parameter_handler.obj
 0001:00000e60       ?PreLoadState@CWinAppEx@@MAEXXZ 00401e60 f i NCVC.obj
 0001:00000e60       @_guard_check_icall_nop@4  00401e60 f i msvcrt:guard_support.obj
 0001:00000e60       ??1?$variant@KPAVCLayerData@@PAVCDXFshape@@PAVCDXFworking@@@boost@@QAE@XZ 00401e60 f i DXFShapeView.obj
 0001:00000e60       ?__empty_global_delete@@YAXPAXI@Z 00401e60 f i DxfAutoOutlineDlg.obj
 0001:00000e60       ?SetWorkRect@CNCViewBase@@UAEXXZ 00401e60 f i NCView.obj
 0001:00000e60       ?__global_delete@@YAXPAXI@Z 00401e60 f i * CIL library *:* CIL module *
 0001:00000e60       ?SaveCustomState@CWinAppEx@@MAEXXZ 00401e60 f i NCVC.obj
 0001:00000e60       ??$call_put_head@DU?$char_traits@D@std@@$$CBH@detail@io@boost@@YAXAAV?$basic_ostream@DU?$char_traits@D@std@@@std@@PBX@Z 00401e60 f i NCInfoView.obj
 0001:00000e60       ?OnRichPreviewFontChanged@CDocument@@UAEXXZ 00401e60 f i DXFDoc.obj
 0001:00000e60       ?OnBeforeRichPreviewFontChanged@CDocument@@UAEXXZ 00401e60 f i DXFDoc.obj
 0001:00000e60       ?OnRichPreviewBackColorChanged@CDocument@@UAEXXZ 00401e60 f i DXFDoc.obj
 0001:00000e60       ?PreSaveState@CWinAppEx@@MAEXXZ 00401e60 f i NCVC.obj
 0001:00000e60       ?OnRichPreviewTextColorChanged@CDocument@@UAEXXZ 00401e60 f i DXFDoc.obj
 0001:00000e60       ?SwapNativePt@CDXFcircle@@UAEXXZ 00401e60 f i DXFdata.obj
 0001:00000e60       ?InitializeSearchContent@CDocument@@UAEXXZ 00401e60 f i DXFDoc.obj
 0001:00000e60       ?OnRichPreviewSiteChanged@CDocument@@UAEXXZ 00401e60 f i DXFDoc.obj
 0001:00000e60       ?sp_enable_shared_from_this@detail@boost@@YAXZZ 00401e60 f i NCInfoView.obj
 0001:00000e60       ?dispose@?$sp_counted_impl_pd@PAV?$basic_altstringbuf@DU?$char_traits@D@std@@V?$allocator@D@2@@io@boost@@VNo_Op@?$basic_oaltstringstream@DU?$char_traits@D@std@@V?$allocator@D@2@@23@@detail@boost@@UAEXXZ 00401e60 f i NCInfoView.obj
 0001:00000e60       ?OnViewLensComm@CViewBase@@UAEXXZ 00401e60 f i NCInfoView.obj
 0001:00000e60       __initialize_denormal_control 00401e60 f i msvcrt:denormal_control.obj
 0001:00000e60       ?SetCirclePoint@CDXFcircleEx@@MAEXXZ 00401e60 f i DXFdata.obj
 0001:00000e60       ?AssertValid@CObject@@UBEXXZ 00401e60 f i DxfAutoOutlineDlg.obj
 0001:00000e60       ?LoadCustomState@CWinAppEx@@MAEXXZ 00401e60 f i NCVC.obj
 0001:00000e60       ?SetWorkCylinder@CNCViewBase@@UAEXXZ 00401e60 f i NCView.obj
 0001:00000e70       ?Create@CDialog@@UAEHIPAVCWnd@@@Z 00401e70 f i DxfAutoOutlineDlg.obj
 0001:00000e80       ?EndModalState@CWnd@@UAEXXZ 00401e80 f i DxfAutoOutlineDlg.obj
 0001:00000e90       ?BeginModalState@CWnd@@UAEXXZ 00401e90 f i DxfAutoOutlineDlg.obj
 0001:00000ea0       ?OnDestroyPage@CTabViewBase@@MAEXH@Z 00401ea0 f i NCInfoTab.obj
 0001:00000ea0       ?Dump@CObject@@UBEXAAVCDumpContext@@@Z 00401ea0 f i DxfAutoOutlineDlg.obj
 0001:00000ea0       ?OnActivatePage@CTabViewBase@@MAEXH@Z 00401ea0 f i NCInfoTab.obj
 0001:00000ea0       ?DoDataExchange@CWnd@@MAEXPAVCDataExchange@@@Z 00401ea0 f i DxfAutoOutlineDlg.obj
 0001:00000ea0       ?OnDeactivatePage@CTabViewBase@@MAEXH@Z 00401ea0 f i NCInfoTab.obj
 0001:00000ea0       ?DoDataExchange@CDxfSetupReload@@MAEXPAVCDataExchange@@@Z 00401ea0 f i DxfSetupReload.obj
 0001:00000ea0       ?Serialize@CObject@@UAEXAAVCArchive@@@Z 00401ea0 f i DxfAutoOutlineDlg.obj
 0001:00000eb0       ??_GCBrush@@UAEPAXI@Z      00401eb0 f i DxfAutoOutlineDlg.obj
 0001:00000eb0       ??_ECBrush@@UAEPAXI@Z      00401eb0 f i * CIL library *:* CIL module *
 0001:00000ef0       ??_GCGdiObject@@UAEPAXI@Z  00401ef0 f i DxfAutoOutlineDlg.obj
 0001:00000ef0       ??_ECGdiObject@@UAEPAXI@Z  00401ef0 f i * CIL library *:* CIL module *
 0001:00000f30       ??1CGdiObject@@UAE@XZ      00401f30 f i DxfAutoOutlineDlg.obj
 0001:00001030       ??1CBrush@@UAE@XZ          00402030 f i DxfAutoOutlineDlg.obj
 0001:00001040       ??3CObject@@SGXPAX@Z       00402040 f i DxfAutoOutlineDlg.obj
 0001:00001050       ?GetMessageMap@CDxfSetup3@@MBEPBUAFX_MSGMAP@@XZ 00402050 f   DxfSetup3.obj
 0001:00001060       ??_GCDxfSetup3@@UAEPAXI@Z  00402060 f i DxfSetup3.obj
 0001:00001060       ??_ECDxfSetup3@@UAEPAXI@Z  00402060 f i * CIL library *:* CIL module *
 0001:000010d0       ??1CDxfSetup3@@UAE@XZ      004020d0 f i DxfSetup3.obj
 0001:00001110       ?DoDataExchange@CDxfSetup3@@MAEXPAVCDataExchange@@@Z 00402110 f   DxfSetup3.obj
 0001:00001160       ?OnInitDialog@CDxfSetup3@@MAEHXZ 00402160 f   DxfSetup3.obj
 0001:00001220       ?OnSetActive@CDxfSetup3@@UAEHXZ 00402220 f   DxfSetup3.obj
 0001:00001250       ?OnApply@CDxfSetup3@@UAEHXZ 00402250 f   DxfSetup3.obj
 0001:00001300       ?OnKillActive@CDxfSetup3@@UAEHXZ 00402300 f   DxfSetup3.obj
 0001:000013f0       ?OnReload@CDxfSetup3@@IAEXXZ 004023f0 f   DxfSetup3.obj
 0001:00001480       ??_GCButton@@UAEPAXI@Z     00402480 f i DxfSetup3.obj
 0001:00001480       ??_ECButton@@UAEPAXI@Z     00402480 f i * CIL library *:* CIL module *
 0001:000014c0       ??0CButton@@QAE@XZ         004024c0 f i DxfSetup3.obj
 0001:000014e0       ??1?$function@$$A6AMABV?$basic_string@DU?$char_traits@D@std@@V?$allocator@D@2@@std@@@Z@boost@@QAE@XZ 004024e0 f i TH_NCRead.obj
 0001:000014e0       ??1?$function@$$A6AMPBVCNCdata@@@Z@boost@@QAE@XZ 004024e0 f i TH_Cuttime.obj
 0001:000014e0       ??1?$function@$$A6AHH@Z@boost@@QAE@XZ 004024e0 f i TH_NCRead.obj
 0001:000014e0       ??1?$function@$$A6AHABV?$basic_string@DU?$char_traits@D@std@@V?$allocator@D@2@@std@@PAVCNCblock@@@Z@boost@@QAE@XZ 004024e0 f i TH_NCRead.obj
 0001:000014e0       ??1?$function@$$A6A_NAAV?$_String_iterator@V?$_String_val@U?$_Simple_types@D@std@@@std@@@std@@ABV12@AAU?$context@U?$cons@AAUunused_type@spirit@boost@@Unil_@fusion@3@@fusion@boost@@U?$vector@$$V@23@@spirit@boost@@ABU?$reference@$$CBU?$rule@V?$_String_iterator@V?$_String_val@U?$_Simple_types@D@std@@@std@@@std@@Uunused_type@spirit@boost@@U345@U345@U345@@qi@spirit@boost@@@qi@45@@Z@boost@@QAE@XZ 004024e0 f i TH_NCRead.obj
 0001:000014e0       ??1?$function@$$A6AXPBVCDXFdata@@@Z@boost@@QAE@XZ 004024e0 f i TH_MakeNCD.obj
 0001:000014e0       ??1?$function@$$A6A?AW4ENGCODEOBJ@@H@Z@boost@@QAE@XZ 004024e0 f i TH_NCRead.obj
 0001:000014e0       ??1?$function@$$A6AXPBVCLayerData@@PAX@Z@boost@@QAE@XZ 004024e0 f i TH_AutoWorkingSet.obj
 0001:000014e0       ??1?$function@$$A6APAVCDXFdata@@HH@Z@boost@@QAE@XZ 004024e0 f i TH_MakeNCD.obj
 0001:000014e0       ??1?$function@$$A6A_NAAV?$_String_iterator@V?$_String_val@U?$_Simple_types@D@std@@@std@@@std@@ABV12@AAU?$context@U?$cons@AAUunused_type@spirit@boost@@Unil_@fusion@3@@fusion@boost@@U?$vector@$$V@23@@spirit@boost@@ABUunused_type@45@@Z@boost@@QAE@XZ 004024e0 f i TH_NCRead.obj
 0001:000014e0       ??1?$function@$$A6AHXZ@boost@@QAE@XZ 004024e0 f i TH_NCRead.obj
 0001:000014e0       ??1?$function@$$A6APAVCDXFworkingOutline@@PAVCDXFshape@@H@Z@boost@@QAE@XZ 004024e0 f i TH_AutoWorkingSet.obj
 0001:000014e0       ??1?$function@$$A6A_NAAV?$_String_iterator@V?$_String_val@U?$_Simple_types@D@std@@@std@@@std@@ABV12@AAU?$context@U?$cons@AAV?$basic_string@DU?$char_traits@D@std@@V?$allocator@D@2@@std@@Unil_@fusion@boost@@@fusion@boost@@U?$vector@$$V@23@@spirit@boost@@ABU?$reference@$$CBU?$rule@V?$_String_iterator@V?$_String_val@U?$_Simple_types@D@std@@@std@@@std@@Uunused_type@spirit@boost@@U345@U345@U345@@qi@spirit@boost@@@qi@45@@Z@boost@@QAE@XZ 004024e0 f i TH_NCRead.obj
 0001:000014e0       ??1?$function@$$A6AXXZ@boost@@QAE@XZ 004024e0 f i TH_MakeNCD.obj
 0001:000014e0       ??1?$function@$$A6AMM@Z@boost@@QAE@XZ 004024e0 f i MyTemplate.obj
 0001:00001550       ?SetDecimal3@DECIMALPOINT@@QAEXXZ 00402550 f   MyTemplate.obj
 0001:000015c0       ?SetDecimal4@DECIMALPOINT@@QAEXXZ 004025c0 f   MyTemplate.obj
 0001:00001630       ?CalcIntersectionPoint_LL@@YA?AV?$optional@V?$CPointT@M@@@boost@@ABV?$CPointT@M@@000H@Z 00402630 f   MyTemplate.obj
 0001:000024a0       ??1?$optional@V?$CPointT@M@@@boost@@QAE@XZ 004034a0 f i MyTemplate.obj
 0001:000024b0       ?CalcIntersectionPoint_LC@@YA?AV?$tuple@HV?$CPointT@M@@V1@Unull_type@tuples@boost@@U234@U234@U234@U234@U234@U234@@tuples@boost@@ABV?$CPointT@M@@00MH@Z 004034b0 f   MyTemplate.obj
 0001:00002880       ?CalcIntersectionPoint_CC@@YA?AV?$tuple@HV?$CPointT@M@@V1@Unull_type@tuples@boost@@U234@U234@U234@U234@U234@U234@@tuples@boost@@ABV?$CPointT@M@@0MM@Z 00403880 f   MyTemplate.obj
 0001:00002d30       ?CalcIntersectionPoint_LE@@YA?AV?$tuple@HV?$CPointT@M@@V1@Unull_type@tuples@boost@@U234@U234@U234@U234@U234@U234@@tuples@boost@@ABV?$CPointT@M@@00MMMH@Z 00403d30 f   MyTemplate.obj
 0001:00003510       ?CalcIntersectionPoint_TC@@YA?AV?$CPointT@M@@ABV1@M0@Z 00404510 f   MyTemplate.obj
 0001:00003680       ?CalcOffsetLine@@YA?AV?$tuple@V?$CPointT@M@@V1@Unull_type@tuples@boost@@U234@U234@U234@U234@U234@U234@U234@@tuples@boost@@ABV?$CPointT@M@@0MH@Z 00404680 f   MyTemplate.obj
 0001:00003780       ?CalcOffsetIntersectionPoint_LL@@YA?AV?$optional@V?$CPointT@M@@@boost@@ABV?$CPointT@M@@0MMH@Z 00404780 f   MyTemplate.obj
 0001:00003830       ?CalcOffsetIntersectionPoint_LC@@YA?AV?$optional@V?$CPointT@M@@@boost@@ABV?$CPointT@M@@0MMMHH@Z 00404830 f   MyTemplate.obj
 0001:00003990       ?CalcOffsetIntersectionPoint_LE@@YA?AV?$optional@V?$CPointT@M@@@boost@@ABV?$CPointT@M@@0MMMMHH@Z 00404990 f   MyTemplate.obj
 0001:00003b20       ??1?$function2@HABV?$basic_string@DU?$char_traits@D@std@@V?$allocator@D@2@@std@@PAVCNCblock@@@boost@@QAE@XZ 00404b20 f i TH_NCRead.obj
 0001:00003b20       ??1?$function1@MM@boost@@QAE@XZ 00404b20 f i MyTemplate.obj
 0001:00003b20       ??1?$function2@PAVCDXFdata@@HH@boost@@QAE@XZ 00404b20 f i TH_MakeNCD.obj
 0001:00003b20       ??1?$function1@XPBVCDXFdata@@@boost@@QAE@XZ 00404b20 f i TH_MakeNCD.obj
 0001:00003b20       ??1?$function1@HH@boost@@QAE@XZ 00404b20 f i TH_NCRead.obj
 0001:00003b20       ??1?$function2@XPBVCLayerData@@PAX@boost@@QAE@XZ 00404b20 f i TH_AutoWorkingSet.obj
 0001:00003b20       ??1?$function1@W4ENGCODEOBJ@@H@boost@@QAE@XZ 00404b20 f i TH_NCRead.obj
 0001:00003b20       ??1?$function2@PAVCDXFworkingOutline@@PAVCDXFshape@@H@boost@@QAE@XZ 00404b20 f i TH_AutoWorkingSet.obj
 0001:00003b20       ??1?$function4@_NAAV?$_String_iterator@V?$_String_val@U?$_Simple_types@D@std@@@std@@@std@@ABV12@AAU?$context@U?$cons@AAUunused_type@spirit@boost@@Unil_@fusion@3@@fusion@boost@@U?$vector@$$V@23@@spirit@boost@@ABU?$reference@$$CBU?$rule@V?$_String_iterator@V?$_String_val@U?$_Simple_types@D@std@@@std@@@std@@Uunused_type@spirit@boost@@U345@U345@U345@@qi@spirit@boost@@@qi@45@@boost@@QAE@XZ 00404b20 f i TH_NCRead.obj
 0001:00003b20       ??1?$function0@X@boost@@QAE@XZ 00404b20 f i TH_MakeNCD.obj
 0001:00003b20       ??1?$function0@H@boost@@QAE@XZ 00404b20 f i TH_NCRead.obj
 0001:00003b20       ??1?$function1@MABV?$basic_string@DU?$char_traits@D@std@@V?$allocator@D@2@@std@@@boost@@QAE@XZ 00404b20 f i TH_NCRead.obj
 0001:00003b20       ??1?$function4@_NAAV?$_String_iterator@V?$_String_val@U?$_Simple_types@D@std@@@std@@@std@@ABV12@AAU?$context@U?$cons@AAUunused_type@spirit@boost@@Unil_@fusion@3@@fusion@boost@@U?$vector@$$V@23@@spirit@boost@@ABUunused_type@45@@boost@@QAE@XZ 00404b20 f i TH_NCRead.obj
 0001:00003b20       ??1?$function4@_NAAV?$_String_iterator@V?$_String_val@U?$_Simple_types@D@std@@@std@@@std@@ABV12@AAU?$context@U?$cons@AAV?$basic_string@DU?$char_traits@D@std@@V?$allocator@D@2@@std@@Unil_@fusion@boost@@@fusion@boost@@U?$vector@$$V@23@@spirit@boost@@ABU?$reference@$$CBU?$rule@V?$_String_iterator@V?$_String_val@U?$_Simple_types@D@std@@@std@@@std@@Uunused_type@spirit@boost@@U345@U345@U345@@qi@spirit@boost@@@qi@45@@boost@@QAE@XZ 00404b20 f i TH_NCRead.obj
 0001:00003b80       ??$?4V?$bind_t@MV?$mf1@MVDECIMALPOINT@@M@_mfi@boost@@V?$list2@V?$value@VDECIMALPOINT@@@_bi@boost@@U?$arg@$00@3@@_bi@3@@_bi@boost@@@?$function@$$A6AMM@Z@boost@@QAEAAV01@V?$bind_t@MV?$mf1@MVDECIMALPOINT@@M@_mfi@boost@@V?$list2@V?$value@VDECIMALPOINT@@@_bi@boost@@U?$arg@$00@3@@_bi@3@@_bi@1@@Z 00404b80 f i MyTemplate.obj
 0001:00003c90       ?move_assign@?$function0@H@boost@@AAEXAAV12@@Z 00404c90 f i TH_NCRead.obj
 0001:00003c90       ?move_assign@?$function4@_NAAV?$_String_iterator@V?$_String_val@U?$_Simple_types@D@std@@@std@@@std@@ABV12@AAU?$context@U?$cons@AAUunused_type@spirit@boost@@Unil_@fusion@3@@fusion@boost@@U?$vector@$$V@23@@spirit@boost@@ABUunused_type@45@@boost@@AAEXAAV12@@Z 00404c90 f i TH_NCRead.obj
 0001:00003c90       ?move_assign@?$function4@_NAAV?$_String_iterator@V?$_String_val@U?$_Simple_types@D@std@@@std@@@std@@ABV12@AAU?$context@U?$cons@AAUunused_type@spirit@boost@@Unil_@fusion@3@@fusion@boost@@U?$vector@$$V@23@@spirit@boost@@ABU?$reference@$$CBU?$rule@V?$_String_iterator@V?$_String_val@U?$_Simple_types@D@std@@@std@@@std@@Uunused_type@spirit@boost@@U345@U345@U345@@qi@spirit@boost@@@qi@45@@boost@@AAEXAAV12@@Z 00404c90 f i TH_NCRead.obj
 0001:00003c90       ?move_assign@?$function2@PAVCDXFdata@@HH@boost@@AAEXAAV12@@Z 00404c90 f i TH_MakeNCD.obj
 0001:00003c90       ?move_assign@?$function1@W4ENGCODEOBJ@@H@boost@@AAEXAAV12@@Z 00404c90 f i TH_NCRead.obj
 0001:00003c90       ?move_assign@?$function1@HH@boost@@AAEXAAV12@@Z 00404c90 f i TH_NCRead.obj
 0001:00003c90       ?move_assign@?$function2@PAVCDXFworkingOutline@@PAVCDXFshape@@H@boost@@AAEXAAV12@@Z 00404c90 f i TH_AutoWorkingSet.obj
 0001:00003c90       ?move_assign@?$function1@XPBVCDXFdata@@@boost@@AAEXAAV12@@Z 00404c90 f i TH_MakeNCD.obj
 0001:00003c90       ?move_assign@?$function0@X@boost@@AAEXAAV12@@Z 00404c90 f i TH_MakeNCD.obj
 0001:00003c90       ?move_assign@?$function1@MM@boost@@AAEXAAV12@@Z 00404c90 f i MyTemplate.obj
 0001:00003c90       ?move_assign@?$function4@_NAAV?$_String_iterator@V?$_String_val@U?$_Simple_types@D@std@@@std@@@std@@ABV12@AAU?$context@U?$cons@AAV?$basic_string@DU?$char_traits@D@std@@V?$allocator@D@2@@std@@Unil_@fusion@boost@@@fusion@boost@@U?$vector@$$V@23@@spirit@boost@@ABU?$reference@$$CBU?$rule@V?$_String_iterator@V?$_String_val@U?$_Simple_types@D@std@@@std@@@std@@Uunused_type@spirit@boost@@U345@U345@U345@@qi@spirit@boost@@@qi@45@@boost@@AAEXAAV12@@Z 00404c90 f i TH_NCRead.obj
 0001:00003c90       ?move_assign@?$function2@HABV?$basic_string@DU?$char_traits@D@std@@V?$allocator@D@2@@std@@PAVCNCblock@@@boost@@AAEXAAV12@@Z 00404c90 f i TH_NCRead.obj
 0001:00003c90       ?move_assign@?$function2@XPBVCLayerData@@PAX@boost@@AAEXAAV12@@Z 00404c90 f i TH_AutoWorkingSet.obj
 0001:00003c90       ?move_assign@?$function1@MABV?$basic_string@DU?$char_traits@D@std@@V?$allocator@D@2@@std@@@boost@@AAEXAAV12@@Z 00404c90 f i TH_NCRead.obj
 0001:00003d90       ?invoke@?$function_obj_invoker1@V?$bind_t@MV?$mf1@MVDECIMALPOINT@@M@_mfi@boost@@V?$list2@V?$value@VDECIMALPOINT@@@_bi@boost@@U?$arg@$00@3@@_bi@3@@_bi@boost@@MM@function@detail@boost@@SAMAATfunction_buffer@234@M@Z 00404d90 f i MyTemplate.obj
 0001:00003db0       ?manage@?$functor_manager@V?$bind_t@MV?$mf1@MVDECIMALPOINT@@M@_mfi@boost@@V?$list2@V?$value@VDECIMALPOINT@@@_bi@boost@@U?$arg@$00@3@@_bi@3@@_bi@boost@@@function@detail@boost@@SAXABTfunction_buffer@234@AAT5234@W4functor_manager_operation_type@234@@Z 00404db0 f i MyTemplate.obj
 0001:00003e20       ?has_empty_target@function@detail@boost@@YA_NZZ 00404e20 f i MyTemplate.obj
 0001:00003e20       ?match_fail@?$perl_matcher@PBDV?$allocator@U?$sub_match@PBD@boost@@@std@@U?$regex_traits@DV?$w32_regex_traits@D@boost@@@boost@@@re_detail_500@boost@@AAE_NXZ 00404e20 f i NCDoc.obj
 0001:00003e20       ?match_fail@?$perl_matcher@V?$_String_const_iterator@V?$_String_val@U?$_Simple_types@D@std@@@std@@@std@@V?$allocator@U?$sub_match@V?$_String_const_iterator@V?$_String_val@U?$_Simple_types@D@std@@@std@@@std@@@boost@@@2@U?$regex_traits@DV?$w32_regex_traits@D@boost@@@boost@@@re_detail_500@boost@@AAE_NXZ 00404e20 f i NCDoc.obj
 0001:00003e20       ?find_restart_lit@?$perl_matcher@PBDV?$allocator@U?$sub_match@PBD@boost@@@std@@U?$regex_traits@DV?$w32_regex_traits@D@boost@@@boost@@@re_detail_500@boost@@AAE_NXZ 00404e20 f i NCDoc.obj
 0001:00003e20       ?find_restart_lit@?$perl_matcher@V?$_String_const_iterator@V?$_String_val@U?$_Simple_types@D@std@@@std@@@std@@V?$allocator@U?$sub_match@V?$_String_const_iterator@V?$_String_val@U?$_Simple_types@D@std@@@std@@@std@@@boost@@@2@U?$regex_traits@DV?$w32_regex_traits@D@boost@@@boost@@@re_detail_500@boost@@AAE_NXZ 00404e20 f i NCDoc.obj
 0001:00003e30       _sinf                      00404e30 f i MyTemplate.obj
 0001:00003e50       _cosf                      00404e50 f i MyTemplate.obj
 0001:00003e70       _atan2f                    00404e70 f i MyTemplate.obj
 0001:00003eb0       _sqrtf                     00404eb0 f i MyTemplate.obj
 0001:00003ee0       ??0?$wrapexcept@Vbad_function_call@boost@@@boost@@QAE@ABVbad_function_call@1@@Z 00404ee0 f i MyTemplate.obj
 0001:00003f50       ??1clone_base@exception_detail@boost@@UAE@XZ 00404f50 f i MyTemplate.obj
 0001:00003f60       ??1?$wrapexcept@Vbad_get@boost@@@boost@@UAE@XZ 00404f60 f i DXFshape.obj
 0001:00003f60       ??1?$wrapexcept@Vruntime_error@std@@@boost@@UAE@XZ 00404f60 f i DXFOption.obj
 0001:00003f60       ??1?$wrapexcept@Vinvalid_argument@std@@@boost@@UAE@XZ 00404f60 f i NCDoc.obj
 0001:00003f60       ??1?$wrapexcept@Vbad_function_call@boost@@@boost@@UAE@XZ 00404f60 f i MyTemplate.obj
 0001:00003f60       ??1?$wrapexcept@Uescaped_list_error@boost@@@boost@@UAE@XZ 00404f60 f i NCMakeOption.obj
 0001:00003f60       ??1?$wrapexcept@Vlogic_error@std@@@boost@@UAE@XZ 00404f60 f i NCDoc.obj
 0001:00003fe0       ??_G?$wrapexcept@Uescaped_list_error@boost@@@boost@@UAEPAXI@Z 00404fe0 f i NCMakeOption.obj
 0001:00003fe0       ??_G?$wrapexcept@Vbad_function_call@boost@@@boost@@UAEPAXI@Z 00404fe0 f i MyTemplate.obj
 0001:00003fe0       ??_G?$wrapexcept@Vruntime_error@std@@@boost@@UAEPAXI@Z 00404fe0 f i DXFOption.obj
 0001:00003fe0       ??_G?$wrapexcept@Vlogic_error@std@@@boost@@UAEPAXI@Z 00404fe0 f i NCDoc.obj
 0001:00003fe0       ??_G?$wrapexcept@Vinvalid_argument@std@@@boost@@UAEPAXI@Z 00404fe0 f i NCDoc.obj
 0001:00003fe0       ??_G?$wrapexcept@Vbad_get@boost@@@boost@@UAEPAXI@Z 00404fe0 f i DXFshape.obj
 0001:00003fe0       ??_E?$wrapexcept@Vlogic_error@std@@@boost@@UAEPAXI@Z 00404fe0 f i * CIL library *:* CIL module *
 0001:00003fe0       ??_E?$wrapexcept@Vbad_function_call@boost@@@boost@@UAEPAXI@Z 00404fe0 f i * CIL library *:* CIL module *
 0001:00003fe0       ??_E?$wrapexcept@Uescaped_list_error@boost@@@boost@@UAEPAXI@Z 00404fe0 f i * CIL library *:* CIL module *
 0001:00003fe0       ??_E?$wrapexcept@Vruntime_error@std@@@boost@@UAEPAXI@Z 00404fe0 f i * CIL library *:* CIL module *
 0001:00003fe0       ??_E?$wrapexcept@Vinvalid_argument@std@@@boost@@UAEPAXI@Z 00404fe0 f i * CIL library *:* CIL module *
 0001:00003fe0       ??_E?$wrapexcept@Vbad_get@boost@@@boost@@UAEPAXI@Z 00404fe0 f i * CIL library *:* CIL module *
 0001:00004070       ??1deleter@?$wrapexcept@Vbad_function_call@boost@@@boost@@QAE@XZ 00405070 f i MyTemplate.obj
 0001:00004070       ??1deleter@?$wrapexcept@Vruntime_error@std@@@boost@@QAE@XZ 00405070 f i DXFOption.obj
 0001:00004070       ??1deleter@?$wrapexcept@Vbad_get@boost@@@boost@@QAE@XZ 00405070 f i DXFshape.obj
 0001:00004070       ??1deleter@?$wrapexcept@Vtoo_many_args@io@boost@@@boost@@QAE@XZ 00405070 f i NCInfoView.obj
 0001:00004070       ??1deleter@?$wrapexcept@Vinvalid_argument@std@@@boost@@QAE@XZ 00405070 f i NCDoc.obj
 0001:00004070       ??1deleter@?$wrapexcept@Vregex_error@boost@@@boost@@QAE@XZ 00405070 f i DXFOption.obj
 0001:00004070       ??1deleter@?$wrapexcept@Vbad_format_string@io@boost@@@boost@@QAE@XZ 00405070 f i NCInfoView.obj
 0001:00004070       ??1deleter@?$wrapexcept@Vbad_lexical_cast@boost@@@boost@@QAE@XZ 00405070 f i CADbindDlg.obj
 0001:00004070       ??1deleter@?$wrapexcept@Vlogic_error@std@@@boost@@QAE@XZ 00405070 f i NCDoc.obj
 0001:00004070       ??1deleter@?$wrapexcept@Vtoo_few_args@io@boost@@@boost@@QAE@XZ 00405070 f i NCInfoView.obj
 0001:00004070       ??1deleter@?$wrapexcept@Uescaped_list_error@boost@@@boost@@QAE@XZ 00405070 f i NCMakeOption.obj
 0001:00004080       ?copy_boost_exception@exception_detail@boost@@YAXPAVexception@2@PBV32@@Z 00405080 f i MyTemplate.obj
 0001:00004140       ?clone@?$wrapexcept@Vbad_function_call@boost@@@boost@@UBEPBVclone_base@exception_detail@2@XZ 00405140 f i MyTemplate.obj
 0001:000041d0       ?rethrow@?$wrapexcept@Vbad_function_call@boost@@@boost@@UBEXXZ 004051d0 f i MyTemplate.obj
 0001:000041ed       ??_E?$wrapexcept@Vlogic_error@std@@@boost@@W3AEPAXI@Z 004051ed f i NCDoc.obj
 0001:000041ed       ??_E?$wrapexcept@Uescaped_list_error@boost@@@boost@@W3AEPAXI@Z 004051ed f i NCMakeOption.obj
 0001:000041ed       ??_E?$wrapexcept@Vbad_function_call@boost@@@boost@@W3AEPAXI@Z 004051ed f i MyTemplate.obj
 0001:000041ed       ??_E?$wrapexcept@Vinvalid_argument@std@@@boost@@W3AEPAXI@Z 004051ed f i NCDoc.obj
 0001:000041ed       ??_E?$wrapexcept@Vbad_get@boost@@@boost@@W3AEPAXI@Z 004051ed f i DXFshape.obj
 0001:000041ed       ??_E?$wrapexcept@Vruntime_error@std@@@boost@@W3AEPAXI@Z 004051ed f i DXFOption.obj
 0001:000041f5       ??_E?$wrapexcept@Uescaped_list_error@boost@@@boost@@WBA@AEPAXI@Z 004051f5 f i NCMakeOption.obj
 0001:000041f5       ??_E?$wrapexcept@Vinvalid_argument@std@@@boost@@WBA@AEPAXI@Z 004051f5 f i NCDoc.obj
 0001:000041f5       ??_E?$wrapexcept@Vbad_function_call@boost@@@boost@@WBA@AEPAXI@Z 004051f5 f i MyTemplate.obj
 0001:000041f5       ??_E?$wrapexcept@Vlogic_error@std@@@boost@@WBA@AEPAXI@Z 004051f5 f i NCDoc.obj
 0001:000041f5       ??_E?$wrapexcept@Vruntime_error@std@@@boost@@WBA@AEPAXI@Z 004051f5 f i DXFOption.obj
 0001:000041f5       ??_E?$wrapexcept@Vbad_get@boost@@@boost@@WBA@AEPAXI@Z 004051f5 f i DXFshape.obj
 0001:00004200       ??0?$wrapexcept@Vbad_function_call@boost@@@boost@@QAE@ABU01@@Z 00405200 f i MyTemplate.obj
 0001:000042c0       ??_Eclone_base@exception_detail@boost@@UAEPAXI@Z 004052c0 f i * CIL library *:* CIL module *
 0001:000042c0       ??_Gclone_base@exception_detail@boost@@UAEPAXI@Z 004052c0 f i MyTemplate.obj
 0001:000042f0       ??0clone_base@exception_detail@boost@@QAE@ABV012@@Z 004052f0 f i MyTemplate.obj
 0001:00004300       ??0bad_function_call@boost@@QAE@ABV01@@Z 00405300 f i MyTemplate.obj
 0001:00004340       ??0runtime_error@std@@QAE@ABV01@@Z 00405340 f i MyTemplate.obj
 0001:00004380       ??0exception@std@@QAE@ABV01@@Z 00405380 f i MyTemplate.obj
 0001:000043b0       ??1?$refcount_ptr@Uerror_info_container@exception_detail@boost@@@exception_detail@boost@@QAE@XZ 004053b0 f i MyTemplate.obj
 0001:00004410       ??0exception@boost@@QAE@ABV01@@Z 00405410 f i MyTemplate.obj
 0001:00004450       ??$throw_exception@Vbad_function_call@boost@@@boost@@YAXABVbad_function_call@0@@Z 00405450 f i MyTemplate.obj
 0001:00004470       ??_Ebad_alloc@std@@UAEPAXI@Z 00405470 f i * CIL library *:* CIL module *
 0001:00004470       ??_Ebad_cast@std@@UAEPAXI@Z 00405470 f i * CIL library *:* CIL module *
 0001:00004470       ??_Gexception@std@@UAEPAXI@Z 00405470 f i MyTemplate.obj
 0001:00004470       ??_Elogic_error@std@@UAEPAXI@Z 00405470 f i * CIL library *:* CIL module *
 0001:00004470       ??_Eformat_error@io@boost@@UAEPAXI@Z 00405470 f i * CIL library *:* CIL module *
 0001:00004470       ??_Glogic_error@std@@UAEPAXI@Z 00405470 f i NCDoc.obj
 0001:00004470       ??_Ebad_function_call@boost@@UAEPAXI@Z 00405470 f i * CIL library *:* CIL module *
 0001:00004470       ??_Ebad_array_new_length@std@@UAEPAXI@Z 00405470 f i * CIL library *:* CIL module *
 0001:00004470       ??_Gbad_alloc@std@@UAEPAXI@Z 00405470 f i CADbindDlg.obj
 0001:00004470       ??_Gbad_array_new_length@std@@UAEPAXI@Z 00405470 f i CADbindDlg.obj
 0001:00004470       ??_Ebad_get@boost@@UAEPAXI@Z 00405470 f i * CIL library *:* CIL module *
 0001:00004470       ??_Eexception@std@@UAEPAXI@Z 00405470 f i * CIL library *:* CIL module *
 0001:00004470       ??_Gbad_get@boost@@UAEPAXI@Z 00405470 f i DXFshape.obj
 0001:00004470       ??_Gformat_error@io@boost@@UAEPAXI@Z 00405470 f i NCInfoView.obj
 0001:00004470       ??_Gbad_cast@std@@UAEPAXI@Z 00405470 f i CADbindDlg.obj
 0001:00004470       ??_Einvalid_argument@std@@UAEPAXI@Z 00405470 f i * CIL library *:* CIL module *
 0001:00004470       ??_Gescaped_list_error@boost@@UAEPAXI@Z 00405470 f i NCMakeOption.obj
 0001:00004470       ??_Eescaped_list_error@boost@@UAEPAXI@Z 00405470 f i * CIL library *:* CIL module *
 0001:00004470       ??_Gbad_function_call@boost@@UAEPAXI@Z 00405470 f i MyTemplate.obj
 0001:00004470       ??_Eruntime_error@std@@UAEPAXI@Z 00405470 f i * CIL library *:* CIL module *
 0001:00004470       ??_Gruntime_error@std@@UAEPAXI@Z 00405470 f i MyTemplate.obj
 0001:00004470       ??_Ginvalid_argument@std@@UAEPAXI@Z 00405470 f i NCDoc.obj
 0001:000044a0       ??0bad_function_call@boost@@QAE@XZ 004054a0 f i MyTemplate.obj
 0001:000044e0       ?what@exception@std@@UBEPBDXZ 004054e0 f i MyTemplate.obj
 0001:000044f0       ??1too_many_args@io@boost@@UAE@XZ 004054f0 f i NCInfoView.obj
 0001:000044f0       ??1runtime_error@std@@UAE@XZ 004054f0 f i MyTemplate.obj
 0001:000044f0       ??1bad_function_call@boost@@UAE@XZ 004054f0 f i MyTemplate.obj
 0001:000044f0       ??1bad_get@boost@@UAE@XZ   004054f0 f i DXFshape.obj
 0001:000044f0       ??1bad_format_string@io@boost@@UAE@XZ 004054f0 f i NCInfoView.obj
 0001:000044f0       ??1bad_lexical_cast@boost@@UAE@XZ 004054f0 f i CADbindDlg.obj
 0001:000044f0       ??1bad_cast@std@@UAE@XZ    004054f0 f i CADbindDlg.obj
 0001:000044f0       ??1too_few_args@io@boost@@UAE@XZ 004054f0 f i NCInfoView.obj
 0001:000044f0       ??1bad_array_new_length@std@@UAE@XZ 004054f0 f i CADbindDlg.obj
 0001:000044f0       ??1escaped_list_error@boost@@UAE@XZ 004054f0 f i NCMakeOption.obj
 0001:000044f0       ??1logic_error@std@@UAE@XZ 004054f0 f i NCDoc.obj
 0001:000044f0       ??1invalid_argument@std@@UAE@XZ 004054f0 f i NCDoc.obj
 0001:000044f0       ??1regex_error@boost@@UAE@XZ 004054f0 f i DXFOption.obj
 0001:00004510       ?RoundCt4@DECIMALPOINT@@QAEMM@Z 00405510 f i MyTemplate.obj
 0001:00004580       ?RoundUp4@DECIMALPOINT@@QAEMM@Z 00405580 f i MyTemplate.obj
 0001:000045f0       ?RoundCt3@DECIMALPOINT@@QAEMM@Z 004055f0 f i MyTemplate.obj
 0001:00004660       _fabsf                     00405660 f i MyTemplate.obj
 0001:00004680       ?RoundUp3@DECIMALPOINT@@QAEMM@Z 00405680 f i MyTemplate.obj
 0001:000046f0       ?GetMessageMap@CAboutDlg@@MBEPBUAFX_MSGMAP@@XZ 004056f0 f   AboutDlg.obj
 0001:00004700       ??_ECAboutDlg@@UAEPAXI@Z   00405700 f i * CIL library *:* CIL module *
 0001:00004700       ??_GCAboutDlg@@UAEPAXI@Z   00405700 f i AboutDlg.obj
 0001:00004760       ??1CAboutDlg@@UAE@XZ       00405760 f i AboutDlg.obj
 0001:00004790       ?DoDataExchange@CAboutDlg@@MAEXPAVCDataExchange@@@Z 00405790 f   AboutDlg.obj
 0001:000047d0       ?OnInitDialog@CAboutDlg@@MAEHXZ 004057d0 f   AboutDlg.obj
 0001:00004870       ?OnCtlColor@CAboutDlg@@IAEPAUHBRUSH__@@PAVCDC@@PAVCWnd@@I@Z 00405870 f   AboutDlg.obj
 0001:000048b0       ??_ECThumbnailStatic@@UAEPAXI@Z 004058b0 f i * CIL library *:* CIL module *
 0001:000048b0       ??_ECStatic@@UAEPAXI@Z     004058b0 f i * CIL library *:* CIL module *
 0001:000048b0       ??_GCStatic@@UAEPAXI@Z     004058b0 f i AboutDlg.obj
 0001:000048b0       ??_GCThumbnailStatic@@UAEPAXI@Z 004058b0 f i ThumbnailDlg.obj
 0001:000048f0       ??0CStatic@@QAE@XZ         004058f0 f i AboutDlg.obj
 0001:00004910       ?GetMessageMap@CAddinDlg@@MBEPBUAFX_MSGMAP@@XZ 00405910 f   AddinDlg.obj
 0001:00004920       ??_GCAddinDlg@@UAEPAXI@Z   00405920 f i AddinDlg.obj
 0001:00004920       ??_ECAddinDlg@@UAEPAXI@Z   00405920 f i * CIL library *:* CIL module *
 0001:000049a0       ??1CAddinDlg@@UAE@XZ       004059a0 f i AddinDlg.obj
 0001:000049f0       ?DoDataExchange@CAddinDlg@@MAEXPAVCDataExchange@@@Z 004059f0 f   AddinDlg.obj
 0001:00004a60       ?SetDetailData@CAddinDlg@@AAEXPAVCNCVCaddinIF@@@Z 00405a60 f   AddinDlg.obj
 0001:00004ea0       ?OnInitDialog@CAddinDlg@@MAEHXZ 00405ea0 f   AddinDlg.obj
 0001:000050e0       ?OnItemChangedAddinList@CAddinDlg@@IAEXPAUtagNMHDR@@PAJ@Z 004060e0 f   AddinDlg.obj
 0001:00005100       ??HATL@@YA?AV?$CStringT@DV?$StrTraitMFC_DLL@DV?$ChTraitsCRT@D@ATL@@@@@0@ABV10@0@Z 00406100 f i AddinDlg.obj
 0001:00005180       ??_GCListCtrl@@UAEPAXI@Z   00406180 f i AddinDlg.obj
 0001:00005180       ??_ECListCtrl@@UAEPAXI@Z   00406180 f i * CIL library *:* CIL module *
 0001:000051c0       ??_ECEdit@@UAEPAXI@Z       004061c0 f i * CIL library *:* CIL module *
 0001:000051c0       ??_GCEdit@@UAEPAXI@Z       004061c0 f i AddinDlg.obj
 0001:00005200       ??0CEdit@@QAE@XZ           00406200 f i AddinDlg.obj
 0001:00005220       ?GetMessageMap@CCADbindDlg@@MBEPBUAFX_MSGMAP@@XZ 00406220 f   CADbindDlg.obj
 0001:00005230       ??_ECCADbindDlg@@UAEPAXI@Z 00406230 f i * CIL library *:* CIL module *
 0001:00005230       ??_GCCADbindDlg@@UAEPAXI@Z 00406230 f i CADbindDlg.obj
 0001:00005270       ??1CCADbindDlg@@UAE@XZ     00406270 f i CADbindDlg.obj
 0001:00005300       ??_FCFloatEdit@@QAEXXZ     00406300 f i CADbindDlg.obj
 0001:00005320       ?DoDataExchange@CCADbindDlg@@MAEXPAVCDataExchange@@@Z 00406320 f   CADbindDlg.obj
 0001:000053b0       ?PathOptimizeAdd@CCADbindDlg@@AAEXABV?$CStringT@DV?$StrTraitMFC_DLL@DV?$ChTraitsCRT@D@ATL@@@@@ATL@@@Z 004063b0 f   CADbindDlg.obj
 0001:000055d0       ??1?$tuple@HV?$CStringT@DV?$StrTraitMFC_DLL@DV?$ChTraitsCRT@D@ATL@@@@@ATL@@Unull_type@tuples@boost@@U345@U345@U345@U345@U345@U345@U345@@tuples@boost@@QAE@XZ 004065d0 f i MakeCustomCode.obj
 0001:000055d0       ??1?$tuple@V?$lambda_functor@U?$placeholder@$00@lambda@boost@@@lambda@boost@@$$CBV?$CStringT@DV?$StrTraitMFC_DLL@DV?$ChTraitsCRT@D@ATL@@@@@ATL@@Unull_type@tuples@3@U673@U673@U673@U673@U673@U673@U673@@tuples@boost@@QAE@XZ 004065d0 f i ReadDXF.obj
 0001:000055d0       ??1BINDFILE@@QAE@XZ        004065d0 f i CADbindDlg.obj
 0001:000055d0       ??1?$lambda_functor@V?$lambda_functor_base@V?$relational_action@Vequal_action@lambda@boost@@@lambda@boost@@V?$tuple@V?$lambda_functor@U?$placeholder@$00@lambda@boost@@@lambda@boost@@$$CBV?$CStringT@DV?$StrTraitMFC_DLL@DV?$ChTraitsCRT@D@ATL@@@@@ATL@@Unull_type@tuples@3@U673@U673@U673@U673@U673@U673@U673@@tuples@3@@lambda@boost@@@lambda@boost@@QAE@XZ 004065d0 f i ReadDXF.obj
 0001:000055d0       ??1?$lambda_functor_base@V?$relational_action@Vequal_action@lambda@boost@@@lambda@boost@@V?$tuple@V?$lambda_functor@U?$placeholder@$00@lambda@boost@@@lambda@boost@@$$CBV?$CStringT@DV?$StrTraitMFC_DLL@DV?$ChTraitsCRT@D@ATL@@@@@ATL@@Unull_type@tuples@3@U673@U673@U673@U673@U673@U673@U673@@tuples@3@@lambda@boost@@QAE@XZ 004065d0 f i ReadDXF.obj
 0001:000055e0       ?OnInitDialog@CCADbindDlg@@MAEHXZ 004065e0 f   CADbindDlg.obj
 0001:00005770       ?OnOK@CCADbindDlg@@MAEXXZ  00406770 f   CADbindDlg.obj
 0001:000059b0       ?OnBindFileAdd@CCADbindDlg@@QAEXXZ 004069b0 f   CADbindDlg.obj
 0001:00005a50       ?OnBindFileClr@CCADbindDlg@@QAEXXZ 00406a50 f   CADbindDlg.obj
 0001:00005b10       ?OnBindFileAllClr@CCADbindDlg@@QAEXXZ 00406b10 f   CADbindDlg.obj
 0001:00005b70       ?OnDropFiles@CCADbindDlg@@QAEXPAUHDROP__@@@Z 00406b70 f   CADbindDlg.obj
 0001:00005c30       ?OnNMDblclkBindList@CCADbindDlg@@QAEXPAUtagNMHDR@@PAJ@Z 00406c30 f   CADbindDlg.obj
 0001:00005c70       ?OnLvnBeginlabeledit@CCADbindDlg@@QAEXPAUtagNMHDR@@PAJ@Z 00406c70 f   CADbindDlg.obj
 0001:00005cb0       ?OnLvnEndlabeledit@CCADbindDlg@@QAEXPAUtagNMHDR@@PAJ@Z 00406cb0 f   CADbindDlg.obj
 0001:00005de0       ??1?$vector@UBINDFILE@@V?$allocator@UBINDFILE@@@std@@@std@@QAE@XZ 00406de0 f i CADbindDlg.obj
 0001:00005e50       ?deallocate@?$allocator@UBINDFILE@@@std@@QAEXQAUBINDFILE@@I@Z 00406e50 f i CADbindDlg.obj
 0001:00005e90       ??$lexical_cast@V?$basic_string@DU?$char_traits@D@std@@V?$allocator@D@2@@std@@H@boost@@YA?AV?$basic_string@DU?$char_traits@D@std@@V?$allocator@D@2@@std@@ABH@Z 00406e90 f i CADbindDlg.obj
 0001:00005f20       ??$_Destroy_range@V?$allocator@UBINDFILE@@@std@@@std@@YAXPAUBINDFILE@@QAU1@AAV?$allocator@UBINDFILE@@@0@@Z 00406f20 f i CADbindDlg.obj
 0001:00005f50       ??$_Emplace_reallocate@ABUBINDFILE@@@?$vector@UBINDFILE@@V?$allocator@UBINDFILE@@@std@@@std@@QAEPAUBINDFILE@@QAU2@ABU2@@Z 00406f50 f i CADbindDlg.obj
 0001:000061d0       ?_Xlength@?$vector@V?$CPointT@M@@V?$allocator@V?$CPointT@M@@@std@@@std@@CAXXZ 004071d0 f i DXFdata.obj
 0001:000061d0       ?_Xlength@?$vector@U?$format_item@DU?$char_traits@D@std@@V?$allocator@D@2@@detail@io@boost@@V?$allocator@U?$format_item@DU?$char_traits@D@std@@V?$allocator@D@2@@detail@io@boost@@@std@@@std@@CAXXZ 004071d0 f i NCInfoView.obj
 0001:000061d0       ?_Xlength@?$vector@IV?$allocator@I@std@@@std@@CAXXZ 004071d0 f i DXFshape.obj
 0001:000061d0       ?_Xlength@?$vector@PAXV?$allocator@PAX@std@@@std@@CAXXZ 004071d0 f i NCViewGL_Mill.obj
 0001:000061d0       ?_Xlength@?$vector@ULATHEDRILLINFO@@V?$allocator@ULATHEDRILLINFO@@@std@@@std@@CAXXZ 004071d0 f i NCMakeLatheOpt.obj
 0001:000061d0       ?_Xlength@?$vector@U?$sub_match@PBD@boost@@V?$allocator@U?$sub_match@PBD@boost@@@std@@@std@@CAXXZ 004071d0 f i NCDoc.obj
 0001:000061d0       ?_Xlength@?$vector@DV?$allocator@D@std@@@std@@CAXXZ 004071d0 f i NCDoc.obj
 0001:000061d0       ?_Xlength@?$vector@U?$recursion_info@V?$match_results@V?$_String_const_iterator@V?$_String_val@U?$_Simple_types@D@std@@@std@@@std@@V?$allocator@U?$sub_match@V?$_String_const_iterator@V?$_String_val@U?$_Simple_types@D@std@@@std@@@std@@@boost@@@2@@boost@@@re_detail_500@boost@@V?$allocator@U?$recursion_info@V?$match_results@V?$_String_const_iterator@V?$_String_val@U?$_Simple_types@D@std@@@std@@@std@@V?$allocator@U?$sub_match@V?$_String_const_iterator@V?$_String_val@U?$_Simple_types@D@std@@@std@@@std@@@boost@@@2@@boost@@@re_detail_500@boost@@@std@@@std@@CAXXZ 004071d0 f i NCDoc.obj
 0001:000061d0       ?_Xlength@?$vector@Uname@named_subexpressions@re_detail_500@boost@@V?$allocator@Uname@named_subexpressions@re_detail_500@boost@@@std@@@std@@CAXXZ 004071d0 f i DXFOption.obj
 0001:000061d0       ?_Xlength@?$vector@UWIRELINE@@V?$allocator@UWIRELINE@@@std@@@std@@CAXXZ 004071d0 f i NCViewGL_Wire.obj
 0001:000061d0       ?_Xlength@?$vector@V?$vector@IV?$allocator@I@std@@@std@@V?$allocator@V?$vector@IV?$allocator@I@std@@@std@@@2@@std@@CAXXZ 004071d0 f i NCViewGL_Lathe.obj
 0001:000061d0       ?_Xlength@?$vector@EV?$allocator@E@std@@@std@@CAXXZ 004071d0 f i DXFOption.obj
 0001:000061d0       ?_Xlength@?$vector@UBINDFILE@@V?$allocator@UBINDFILE@@@std@@@std@@CAXXZ 004071d0 f i CADbindDlg.obj
 0001:000061d0       ?_Xlength@?$vector@PAU__POSITION@@V?$allocator@PAU__POSITION@@@std@@@std@@CAXXZ 004071d0 f i DXFshape.obj
 0001:000061d0       ?_Xlength@?$vector@PAUCREATEBOTTOMVERTEXPARAM@@V?$allocator@PAUCREATEBOTTOMVERTEXPARAM@@@std@@@std@@CAXXZ 004071d0 f i NCViewGL_Mill.obj
 0001:000061d0       ?_Xlength@?$vector@USELECTBIND@@V?$allocator@USELECTBIND@@@std@@@std@@CAXXZ 004071d0 f i DXFView.obj
 0001:000061d0       ?_Xlength@?$vector@V?$vector@V?$CPointT@M@@V?$allocator@V?$CPointT@M@@@std@@@std@@V?$allocator@V?$vector@V?$CPointT@M@@V?$allocator@V?$CPointT@M@@@std@@@std@@@2@@std@@CAXXZ 004071d0 f i DXFView.obj
 0001:000061d0       ?_Xlength@?$vector@UTABLELAYERINFO@@V?$allocator@UTABLELAYERINFO@@@std@@@std@@CAXXZ 004071d0 f i DXFMakeClass.obj
 0001:000061d0       ?_Xlength@?$vector@U?$pair@II@std@@V?$allocator@U?$pair@II@std@@@2@@std@@CAXXZ 004071d0 f i DXFOption.obj
 0001:000061d0       ?_Xlength@?$vector@UPOLYVERTEX@@V?$allocator@UPOLYVERTEX@@@std@@@std@@CAXXZ 004071d0 f i ReadDXF.obj
 0001:000061d0       ?_Xlength@?$vector@JV?$allocator@J@std@@@std@@CAXXZ 004071d0 f i DXFOption.obj
 0001:000061d0       ?_Xlength@?$vector@U?$digraph@D@re_detail_500@boost@@V?$allocator@U?$digraph@D@re_detail_500@boost@@@std@@@std@@CAXXZ 004071d0 f i DXFOption.obj
 0001:000061d0       ?_Xlength@?$vector@U?$pair@_NPAUre_syntax_base@re_detail_500@boost@@@std@@V?$allocator@U?$pair@_NPAUre_syntax_base@re_detail_500@boost@@@std@@@2@@std@@CAXXZ 004071d0 f i DXFOption.obj
 0001:000061d0       ?_Xlength@?$vector@MV?$allocator@M@std@@@std@@CAXXZ 004071d0 f i NCdataGL.obj
 0001:000061d0       ?_Xlength@?$vector@U?$sub_match@V?$_String_const_iterator@V?$_String_val@U?$_Simple_types@D@std@@@std@@@std@@@boost@@V?$allocator@U?$sub_match@V?$_String_const_iterator@V?$_String_val@U?$_Simple_types@D@std@@@std@@@std@@@boost@@@std@@@std@@CAXXZ 004071d0 f i NCDoc.obj
 0001:000061d0       ?_Xlength@?$vector@UBOTTOMDRAW@@V?$allocator@UBOTTOMDRAW@@@std@@@std@@CAXXZ 004071d0 f i NCdataGL.obj
 0001:000061d0       ?_Xlength@?$vector@U?$recursion_info@V?$match_results@PBDV?$allocator@U?$sub_match@PBD@boost@@@std@@@boost@@@re_detail_500@boost@@V?$allocator@U?$recursion_info@V?$match_results@PBDV?$allocator@U?$sub_match@PBD@boost@@@std@@@boost@@@re_detail_500@boost@@@std@@@std@@CAXXZ 004071d0 f i NCDoc.obj
 0001:000061d0       ?_Xlength@?$vector@V?$CPoint3T@M@@V?$allocator@V?$CPoint3T@M@@@std@@@std@@CAXXZ 004071d0 f i NCdataGL.obj
 0001:000061e0       ??$throw_bad_cast@HV?$basic_string@DU?$char_traits@D@std@@V?$allocator@D@2@@std@@@detail@conversion@boost@@YAXXZ 004071e0 f i CADbindDlg.obj
 0001:00006230       ??1?$_Uninitialized_backout_al@V?$allocator@UBINDFILE@@@std@@@std@@QAE@XZ 00407230 f i CADbindDlg.obj
 0001:00006260       ?try_convert@?$lexical_converter_impl@V?$basic_string@DU?$char_traits@D@std@@V?$allocator@D@2@@std@@H@detail@boost@@SA_NABHAAV?$basic_string@DU?$char_traits@D@std@@V?$allocator@D@2@@std@@@Z 00407260 f i CADbindDlg.obj
 0001:00006300       ??$throw_exception@Vbad_lexical_cast@boost@@@boost@@YAXABVbad_lexical_cast@0@@Z 00407300 f i CADbindDlg.obj
 0001:00006320       ??1?$wrapexcept@Vbad_lexical_cast@boost@@@boost@@UAE@XZ 00407320 f i CADbindDlg.obj
 0001:00006320       ??1?$wrapexcept@Vregex_error@boost@@@boost@@UAE@XZ 00407320 f i DXFOption.obj
 0001:00006320       ??1?$wrapexcept@Vbad_format_string@io@boost@@@boost@@UAE@XZ 00407320 f i NCInfoView.obj
 0001:00006320       ??1?$wrapexcept@Vtoo_few_args@io@boost@@@boost@@UAE@XZ 00407320 f i NCInfoView.obj
 0001:00006320       ??1?$wrapexcept@Vtoo_many_args@io@boost@@@boost@@UAE@XZ 00407320 f i NCInfoView.obj
 0001:000063a0       ??0?$wrapexcept@Vbad_lexical_cast@boost@@@boost@@QAE@ABU01@@Z 004073a0 f i CADbindDlg.obj
 0001:00006470       ??0bad_lexical_cast@boost@@QAE@ABV01@@Z 00407470 f i CADbindDlg.obj
 0001:000064b0       ??_G?$wrapexcept@Vbad_lexical_cast@boost@@@boost@@UAEPAXI@Z 004074b0 f i CADbindDlg.obj
 0001:000064b0       ??_G?$wrapexcept@Vbad_format_string@io@boost@@@boost@@UAEPAXI@Z 004074b0 f i NCInfoView.obj
 0001:000064b0       ??_G?$wrapexcept@Vtoo_many_args@io@boost@@@boost@@UAEPAXI@Z 004074b0 f i NCInfoView.obj
 0001:000064b0       ??_G?$wrapexcept@Vregex_error@boost@@@boost@@UAEPAXI@Z 004074b0 f i DXFOption.obj
 0001:000064b0       ??_E?$wrapexcept@Vtoo_few_args@io@boost@@@boost@@UAEPAXI@Z 004074b0 f i * CIL library *:* CIL module *
 0001:000064b0       ??_E?$wrapexcept@Vregex_error@boost@@@boost@@UAEPAXI@Z 004074b0 f i * CIL library *:* CIL module *
 0001:000064b0       ??_E?$wrapexcept@Vbad_lexical_cast@boost@@@boost@@UAEPAXI@Z 004074b0 f i * CIL library *:* CIL module *
 0001:000064b0       ??_E?$wrapexcept@Vbad_format_string@io@boost@@@boost@@UAEPAXI@Z 004074b0 f i * CIL library *:* CIL module *
 0001:000064b0       ??_E?$wrapexcept@Vtoo_many_args@io@boost@@@boost@@UAEPAXI@Z 004074b0 f i * CIL library *:* CIL module *
 0001:000064b0       ??_G?$wrapexcept@Vtoo_few_args@io@boost@@@boost@@UAEPAXI@Z 004074b0 f i NCInfoView.obj
 0001:00006540       ?convert@?$lcast_put_unsigned@U?$char_traits@D@std@@ID@detail@boost@@QAEPADXZ 00407540 f i CADbindDlg.obj
 0001:00006740       ?rethrow@?$wrapexcept@Vbad_lexical_cast@boost@@@boost@@UBEXXZ 00407740 f i CADbindDlg.obj
 0001:00006760       ?clone@?$wrapexcept@Vbad_lexical_cast@boost@@@boost@@UBEPBVclone_base@exception_detail@2@XZ 00407760 f i CADbindDlg.obj
 0001:000067f0       ??0?$wrapexcept@Vbad_lexical_cast@boost@@@boost@@QAE@ABVbad_lexical_cast@1@@Z 004077f0 f i CADbindDlg.obj
 0001:00006867       ??_E?$wrapexcept@Vtoo_many_args@io@boost@@@boost@@WBI@AEPAXI@Z 00407867 f i NCInfoView.obj
 0001:00006867       ??_E?$wrapexcept@Vregex_error@boost@@@boost@@WBI@AEPAXI@Z 00407867 f i DXFOption.obj
 0001:00006867       ??_E?$wrapexcept@Vbad_lexical_cast@boost@@@boost@@WBI@AEPAXI@Z 00407867 f i CADbindDlg.obj
 0001:00006867       ??_E?$wrapexcept@Vbad_format_string@io@boost@@@boost@@WBI@AEPAXI@Z 00407867 f i NCInfoView.obj
 0001:00006867       ??_E?$wrapexcept@Vtoo_few_args@io@boost@@@boost@@WBI@AEPAXI@Z 00407867 f i NCInfoView.obj
 0001:0000686f       ??_E?$wrapexcept@Vtoo_few_args@io@boost@@@boost@@W3AEPAXI@Z 0040786f f i NCInfoView.obj
 0001:0000686f       ??_E?$wrapexcept@Vregex_error@boost@@@boost@@W3AEPAXI@Z 0040786f f i DXFOption.obj
 0001:0000686f       ??_E?$wrapexcept@Vbad_lexical_cast@boost@@@boost@@W3AEPAXI@Z 0040786f f i CADbindDlg.obj
 0001:0000686f       ??_E?$wrapexcept@Vbad_format_string@io@boost@@@boost@@W3AEPAXI@Z 0040786f f i NCInfoView.obj
 0001:0000686f       ??_E?$wrapexcept@Vtoo_many_args@io@boost@@@boost@@W3AEPAXI@Z 0040786f f i NCInfoView.obj
 0001:00006880       ?size@?$basic_string@DU?$char_traits@D@std@@V?$allocator@D@2@@std@@QBEIXZ 00407880 f i CADbindDlg.obj
 0001:00006890       ??_E?$numpunct@D@std@@MAEPAXI@Z 00407890 f i * CIL library *:* CIL module *
 0001:00006890       ??_G?$numpunct@D@std@@MAEPAXI@Z 00407890 f i CADbindDlg.obj
 0001:000068e0       ?do_decimal_point@?$numpunct@D@std@@MBEDXZ 004078e0 f i CADbindDlg.obj
 0001:000068f0       ?do_thousands_sep@?$numpunct@D@std@@MBEDXZ 004078f0 f i CADbindDlg.obj
 0001:00006900       ?do_grouping@?$numpunct@D@std@@MBE?AV?$basic_string@DU?$char_traits@D@std@@V?$allocator@D@2@@2@XZ 00407900 f i CADbindDlg.obj
 0001:00006950       ?do_falsename@?$numpunct@D@std@@MBE?AV?$basic_string@DU?$char_traits@D@std@@V?$allocator@D@2@@2@XZ 00407950 f i CADbindDlg.obj
 0001:000069a0       ?do_truename@?$numpunct@D@std@@MBE?AV?$basic_string@DU?$char_traits@D@std@@V?$allocator@D@2@@2@XZ 004079a0 f i CADbindDlg.obj
 0001:000069f0       ??1?$_Tidy_guard@V?$numpunct@D@std@@@std@@QAE@XZ 004079f0 f i CADbindDlg.obj
 0001:00006a20       ?_Getcat@?$numpunct@D@std@@SAIPAPBVfacet@locale@2@PBV42@@Z 00407a20 f i CADbindDlg.obj
 0001:00006c20       ?_Throw_bad_cast@std@@YAXXZ 00407c20 f i CADbindDlg.obj
 0001:00006c40       ??1?$unique_ptr@V_Facet_base@std@@U?$default_delete@V_Facet_base@std@@@2@@std@@QAE@XZ 00407c40 f i CADbindDlg.obj
 0001:00006c50       ??$use_facet@V?$numpunct@D@std@@@std@@YAABV?$numpunct@D@0@ABVlocale@0@@Z 00407c50 f i CADbindDlg.obj
 0001:00006d40       ??$_Traits_compare@U?$char_traits@D@std@@@std@@YAHQBDI0I@Z 00407d40 f i CADbindDlg.obj
 0001:00006dc0       ??0?$basic_string@DU?$char_traits@D@std@@V?$allocator@D@2@@std@@QAE@QBD@Z 00407dc0 f i CADbindDlg.obj
 0001:00006e00       ?name@locale@std@@QBE?AV?$basic_string@DU?$char_traits@D@std@@V?$allocator@D@2@@2@XZ 00407e00 f i CADbindDlg.obj
 0001:00006f50       ??8locale@std@@QBE_NABV01@@Z 00407f50 f i CADbindDlg.obj
 0001:00007120       ??1locale@std@@QAE@XZ      00408120 f i CADbindDlg.obj
 0001:00007140       ?_Xlen_string@std@@YAXXZ   00408140 f i CADbindDlg.obj
 0001:00007150       ?allocate@?$allocator@D@std@@QAEPADI@Z 00408150 f i CADbindDlg.obj
 0001:000071a0       ?assign@?$basic_string@DU?$char_traits@D@std@@V?$allocator@D@2@@std@@QAEAAV12@QBDI@Z 004081a0 f i CADbindDlg.obj
 0001:00007290       ??0bad_cast@std@@QAE@ABV01@@Z 00408290 f i CADbindDlg.obj
 0001:000072d0       ??0bad_cast@std@@QAE@XZ    004082d0 f i CADbindDlg.obj
 0001:000072f0       ??_Gtoo_few_args@io@boost@@UAEPAXI@Z 004082f0 f i NCInfoView.obj
 0001:000072f0       ??_Gbad_format_string@io@boost@@UAEPAXI@Z 004082f0 f i NCInfoView.obj
 0001:000072f0       ??_Etoo_many_args@io@boost@@UAEPAXI@Z 004082f0 f i * CIL library *:* CIL module *
 0001:000072f0       ??_Gtoo_many_args@io@boost@@UAEPAXI@Z 004082f0 f i NCInfoView.obj
 0001:000072f0       ??_Etoo_few_args@io@boost@@UAEPAXI@Z 004082f0 f i * CIL library *:* CIL module *
 0001:000072f0       ??_Gbad_lexical_cast@boost@@UAEPAXI@Z 004082f0 f i CADbindDlg.obj
 0001:000072f0       ??_Eregex_error@boost@@UAEPAXI@Z 004082f0 f i * CIL library *:* CIL module *
 0001:000072f0       ??_Ebad_lexical_cast@boost@@UAEPAXI@Z 004082f0 f i * CIL library *:* CIL module *
 0001:000072f0       ??_Gregex_error@boost@@UAEPAXI@Z 004082f0 f i DXFOption.obj
 0001:000072f0       ??_Ebad_format_string@io@boost@@UAEPAXI@Z 004082f0 f i * CIL library *:* CIL module *
 0001:00007320       ?what@bad_lexical_cast@boost@@UBEPBDXZ 00408320 f i CADbindDlg.obj
 0001:00007330       ??0bad_lexical_cast@boost@@QAE@ABVtype_info@@0@Z 00408330 f i CADbindDlg.obj
 0001:00007360       ??0bad_array_new_length@std@@QAE@XZ 00408360 f i CADbindDlg.obj
 0001:00007380       ??0bad_array_new_length@std@@QAE@ABV01@@Z 00408380 f i CADbindDlg.obj
 0001:000073c0       ??0bad_alloc@std@@QAE@ABV01@@Z 004083c0 f i CADbindDlg.obj
 0001:00007400       ?_Throw_bad_array_new_length@std@@YAXXZ 00408400 f i CADbindDlg.obj
 0001:00007420       ??1?$basic_string@DU?$char_traits@D@std@@V?$allocator@D@2@@std@@QAE@XZ 00408420 f i CADbindDlg.obj
 0001:00007470       ?c_str@?$basic_string@DU?$char_traits@D@std@@V?$allocator@D@2@@std@@QBEPBDXZ 00408470 f i CADbindDlg.obj
 0001:00007480       ?GetThisMessageMap@CChildBase@@KGPBUAFX_MSGMAP@@XZ 00408480 f   ChildBase.obj
 0001:00007490       ?ActivateFrame@CChildBase@@UAEXH@Z 00408490 f   ChildBase.obj
 0001:000074e0       ?OnClose@CChildBase@@IAEXXZ 004084e0 f   ChildBase.obj
 0001:00007540       ?OnUserFileChangeNotify@CChildBase@@IAEJIJ@Z 00408540 f   ChildBase.obj
 0001:000076c0       ?GetMessageMap@CIntEdit@@MBEPBUAFX_MSGMAP@@XZ 004086c0 f   CustomControl.obj
 0001:000076d0       ?GetMessageMap@CFloatEdit@@MBEPBUAFX_MSGMAP@@XZ 004086d0 f   CustomControl.obj
 0001:000076e0       ?GetMessageMap@CColComboBox@@MBEPBUAFX_MSGMAP@@XZ 004086e0 f   CustomControl.obj
 0001:00007740       ??0CIntEdit@@QAE@XZ        00408740 f   CustomControl.obj
 0001:00007760       ??_ECIntEdit@@UAEPAXI@Z    00408760 f i * CIL library *:* CIL module *
 0001:00007760       ??_GCIntEdit@@UAEPAXI@Z    00408760 f i CustomControl.obj
 0001:000077a0       ??1CIntEdit@@UAE@XZ        004087a0 f   CustomControl.obj
 0001:000077b0       ??4CIntEdit@@QAEAAV0@H@Z   004087b0 f   CustomControl.obj
 0001:00007860       ?OnChar@CIntEdit@@IAEXIII@Z 00408860 f   CustomControl.obj
 0001:00007960       ??_ECFloatEdit@@UAEPAXI@Z  00408960 f i * CIL library *:* CIL module *
 0001:00007960       ??_GCFloatEdit@@UAEPAXI@Z  00408960 f i CustomControl.obj
 0001:000079a0       ??1CFloatEdit@@UAE@XZ      004089a0 f   CustomControl.obj
 0001:000079b0       ??4CFloatEdit@@QAEAAV0@M@Z 004089b0 f   CustomControl.obj
 0001:00007ae0       ?OnChar@CFloatEdit@@IAEXIII@Z 00408ae0 f   CustomControl.obj
 0001:00007be0       ??0CColComboBox@@QAE@XZ    00408be0 f   CustomControl.obj
 0001:00007c00       ??_ECColComboBox@@UAEPAXI@Z 00408c00 f i * CIL library *:* CIL module *
 0001:00007c00       ??_GCColComboBox@@UAEPAXI@Z 00408c00 f i CustomControl.obj
 0001:00007c40       ??1CColComboBox@@UAE@XZ    00408c40 f   CustomControl.obj
 0001:00007c50       ?MeasureItem@CColComboBox@@UAEXPAUtagMEASUREITEMSTRUCT@@@Z 00408c50 f   CustomControl.obj
 0001:00007c70       ?DrawItem@CColComboBox@@UAEXPAUtagDRAWITEMSTRUCT@@@Z 00408c70 f   CustomControl.obj
 0001:00007cc0       ?ConvertSTRtoRGB@@YAKPBD@Z 00408cc0 f   CustomControl.obj
 0001:00007db0       ?ConvertRGBtoSTR@@YA?AV?$CStringT@DV?$StrTraitMFC_DLL@DV?$ChTraitsCRT@D@ATL@@@@@ATL@@K@Z 00408db0 f   CustomControl.obj
 0001:00008100       ??0?$basic_string@DU?$char_traits@D@std@@V?$allocator@D@2@@std@@QAE@U_String_constructor_concat_tag@1@AAV01@1@Z 00409100 f i CustomControl.obj
 0001:00008290       ?append@?$basic_string@DU?$char_traits@D@std@@V?$allocator@D@2@@std@@QAEAAV12@QBDI@Z 00409290 f i CustomControl.obj
 0001:000083e0       ??_ECComboBox@@UAEPAXI@Z   004093e0 f i * CIL library *:* CIL module *
 0001:000083e0       ??_GCComboBox@@UAEPAXI@Z   004093e0 f i CustomControl.obj
 0001:00008420       ??0CComboBox@@QAE@XZ       00409420 f i CustomControl.obj
 0001:00008440       _modff                     00409440 f i CustomControl.obj
 0001:00008490       ??_ECCustomMenu@@UAEPAXI@Z 00409490 f i * CIL library *:* CIL module *
 0001:00008490       ??_GCCustomMenu@@UAEPAXI@Z 00409490 f i CustomMenu.obj
 0001:00008550       ??1CCustomMenu@@UAE@XZ     00409550 f   CustomMenu.obj
 0001:000085d0       ?FindString@CCustomMenu@@IAEHABV?$CStringT@DV?$StrTraitMFC_DLL@DV?$ChTraitsCRT@D@ATL@@@@@ATL@@@Z 004095d0 f   CustomMenu.obj
 0001:00008620       ?DrawItemIcon@CCustomMenu@@MAEHPAVCDC@@PAUtagDRAWITEMSTRUCT@@@Z 00409620 f   CustomMenu.obj
 0001:00008800       ?DrawItemString@CCustomMenu@@IAEXPAVCDC@@PAUtagDRAWITEMSTRUCT@@H@Z 00409800 f   CustomMenu.obj
 0001:000089e0       ?DrawItemStringText@CCustomMenu@@IAEXPAVCDC@@V?$CStringT@DV?$StrTraitMFC_DLL@DV?$ChTraitsCRT@D@ATL@@@@@ATL@@VCRect@@@Z 004099e0 f   CustomMenu.obj
 0001:00008ac0       ??1CCustomMenuEx@@UAE@XZ   00409ac0 f   CustomMenu.obj
 0001:00008bb0       ??_ECCustomMenuEx@@UAEPAXI@Z 00409bb0 f i * CIL library *:* CIL module *
 0001:00008bb0       ??_GCCustomMenuEx@@UAEPAXI@Z 00409bb0 f i CustomMenu.obj
 0001:00008bf0       ??1?$CSortArray@VCObArray@@PAVCDXFdata@@@@UAE@XZ 00409bf0 f i TH_MakeLathe.obj
 0001:00008bf0       ??1?$CSortArray@VCObArray@@PAVCDXFcircle@@@@UAE@XZ 00409bf0 f i TH_MakeNCD.obj
 0001:00008bf0       ??1?$CTypedPtrArrayEx@VCObArray@@PAVCImageList@@@@UAE@XZ 00409bf0 f i CustomMenu.obj
 0001:00008bf0       ??1?$CSortArray@VCObArray@@PAVCDXFchain@@@@UAE@XZ 00409bf0 f i DXFshape.obj
 0001:00008bf0       ??1?$CTypedPtrArrayEx@VCObArray@@PAVCDXFdata@@@@UAE@XZ 00409bf0 f i DXFshape.obj
 0001:00008bf0       ??1?$CTypedPtrArrayEx@VCObArray@@PAVCDXFtext@@@@UAE@XZ 00409bf0 f i Layer.obj
 0001:00008bf0       ??1?$CSortArray@VCObArray@@PAVCDXFshape@@@@UAE@XZ 00409bf0 f i Layer.obj
 0001:00008bf0       ??1?$CSortArray@VCObArray@@PAVCLayerData@@@@UAE@XZ 00409bf0 f i DXFDoc.obj
 0001:00008c00       ?DrawItemIcon@CCustomMenuEx@@MAEHPAVCDC@@PAUtagDRAWITEMSTRUCT@@@Z 00409c00 f   CustomMenu.obj
 0001:00008d60       ??1CFont@@UAE@XZ           00409d60 f i CustomMenu.obj
 0001:00008d70       ??_ECFont@@UAEPAXI@Z       00409d70 f i * CIL library *:* CIL module *
 0001:00008d70       ??_GCFont@@UAEPAXI@Z       00409d70 f i CustomMenu.obj
 0001:00008db0       ??0CFont@@QAE@XZ           00409db0 f i CustomMenu.obj
 0001:00008dc0       ??1CMenu@@UAE@XZ           00409dc0 f i CustomMenu.obj
 0001:00008e10       ??_ECMenu@@UAEPAXI@Z       00409e10 f i * CIL library *:* CIL module *
 0001:00008e10       ??_GCMenu@@UAEPAXI@Z       00409e10 f i CustomMenu.obj
 0001:00008ea0       ??0CMenu@@QAE@XZ           00409ea0 f i CustomMenu.obj
 0001:00008eb0       ?GetMessageMap@CCustomToolBar@@MBEPBUAFX_MSGMAP@@XZ 00409eb0 f   CustomToolBar.obj
 0001:00008eb0       ?GetThisMessageMap@CCustomToolBar@@KGPBUAFX_MSGMAP@@XZ 00409eb0 f   CustomToolBar.obj
 0001:00008ec0       ??0CCustomToolBar@@QAE@XZ  00409ec0 f   CustomToolBar.obj
 0001:00008f40       ??_GCCustomToolBar@@UAEPAXI@Z 00409f40 f i CustomToolBar.obj
 0001:00008f40       ??_ECCustomToolBar@@UAEPAXI@Z 00409f40 f i * CIL library *:* CIL module *
 0001:00008f80       ??_G?$CTypedPtrArrayEx@VCPtrArray@@PAV?$CSortArray@VCObArray@@PAVCDXFdata@@@@@@UAEPAXI@Z 00409f80 f i TH_MakeNCD.obj
 0001:00008f80       ??_G?$CTypedPtrArrayEx@VCPtrArray@@PAVCNCVCaddinIF@@@@UAEPAXI@Z 00409f80 f i NCVC.obj
 0001:00008f80       ??_E?$CTypedPtrArrayEx@VCPtrArray@@PAVCNCMakeMill@@@@UAEPAXI@Z 00409f80 f i * CIL library *:* CIL module *
 0001:00008f80       ??_E?$CTypedPtrArrayEx@VCPtrArray@@PAUCUSTTBINFO@@@@UAEPAXI@Z 00409f80 f i * CIL library *:* CIL module *
 0001:00008f80       ??_G?$CSortArray@VCPtrArray@@PAUTHUMBNAILINFO@@@@UAEPAXI@Z 00409f80 f i ThumbnailDlg.obj
 0001:00008f80       ??_E?$CTypedPtrArrayEx@VCPtrArray@@PAV?$CTypedPtrListEx@VCObList@@PAVCDXFdata@@@@@@UAEPAXI@Z 00409f80 f i * CIL library *:* CIL module *
 0001:00008f80       ??_E?$CTypedPtrArrayEx@VCPtrArray@@PAV?$CSortArray@VCObArray@@PAVCDXFdata@@@@@@UAEPAXI@Z 00409f80 f i * CIL library *:* CIL module *
 0001:00008f80       ??_E?$CTypedPtrArrayEx@VCPtrArray@@PAVCDXFMake@@@@UAEPAXI@Z 00409f80 f i * CIL library *:* CIL module *
 0001:00008f80       ??_G?$CTypedPtrArrayEx@VCPtrArray@@PAVCNCMakeWire@@@@UAEPAXI@Z 00409f80 f i TH_MakeWire.obj
 0001:00008f80       ??_G?$CTypedPtrArrayEx@VCPtrArray@@PAVCNCblock@@@@UAEPAXI@Z 00409f80 f i NCDoc.obj
 0001:00008f80       ??_G?$CTypedPtrArrayEx@VCPtrArray@@PAVCDXFMake@@@@UAEPAXI@Z 00409f80 f i DXFDoc.obj
 0001:00008f80       ??_G?$CTypedPtrArrayEx@VCPtrArray@@PAVCNCdata@@@@UAEPAXI@Z 00409f80 f i NCdata.obj
 0001:00008f80       ??_G?$CTypedPtrArrayEx@VCPtrArray@@PAVCNCMakeMill@@@@UAEPAXI@Z 00409f80 f i TH_MakeNCD.obj
 0001:00008f80       ??_G?$CTypedPtrArrayEx@VCPtrArray@@PAUCUSTTBINFO@@@@UAEPAXI@Z 00409f80 f i CustomToolBar.obj
 0001:00008f80       ??_E?$CTypedPtrArrayEx@VCPtrArray@@PAVCNCblock@@@@UAEPAXI@Z 00409f80 f i * CIL library *:* CIL module *
 0001:00008f80       ??_E?$CSortArray@VCPtrArray@@PAUTHUMBNAILINFO@@@@UAEPAXI@Z 00409f80 f i * CIL library *:* CIL module *
 0001:00008f80       ??_E?$CTypedPtrArrayEx@VCPtrArray@@PAVCNCdata@@@@UAEPAXI@Z 00409f80 f i * CIL library *:* CIL module *
 0001:00008f80       ??_E?$CTypedPtrArrayEx@VCPtrArray@@PAVCNCMakeWire@@@@UAEPAXI@Z 00409f80 f i * CIL library *:* CIL module *
 0001:00008f80       ??_E?$CTypedPtrArrayEx@VCPtrArray@@PAVCNCVCaddinIF@@@@UAEPAXI@Z 00409f80 f i * CIL library *:* CIL module *
 0001:00008f80       ??_G?$CSortArray@VCPtrArray@@PAUCADBINDINFO@@@@UAEPAXI@Z 00409f80 f i DXFDoc.obj
 0001:00008f80       ??_G?$CTypedPtrArrayEx@VCPtrArray@@PAV?$CTypedPtrListEx@VCObList@@PAVCDXFdata@@@@@@UAEPAXI@Z 00409f80 f i DXFshape.obj
 0001:00008f80       ??_G?$CTypedPtrArrayEx@VCPtrArray@@PAVCNCMakeLathe@@@@UAEPAXI@Z 00409f80 f i TH_MakeLathe.obj
 0001:00008f80       ??_E?$CSortArray@VCPtrArray@@PAUCADBINDINFO@@@@UAEPAXI@Z 00409f80 f i * CIL library *:* CIL module *
 0001:00008f80       ??_E?$CTypedPtrArrayEx@VCPtrArray@@PAVCNCMakeLathe@@@@UAEPAXI@Z 00409f80 f i * CIL library *:* CIL module *
 0001:00008fc0       ??1CCustomToolBar@@UAE@XZ  00409fc0 f   CustomToolBar.obj
 0001:00009070       ??1CUSTTBINFO@@QAE@XZ      0040a070 f i CustomToolBar.obj
 0001:00009080       ?LoadToolBarEx@CCustomToolBar@@QAEHPBDPAUCUSTTBBUTTON@@H@Z 0040a080 f   CustomToolBar.obj
 0001:000093c0       ??0CUSTTBINFO@@QAE@XZ      0040a3c0 f i CustomToolBar.obj
 0001:000093d0       ?SetCustomButtons@CCustomToolBar@@QAEHPBDPAVCImageList@@1QAUCUSTTBINFO@@H@Z 0040a3d0 f   CustomToolBar.obj
 0001:00009620       ?LoadToolBarItem@CCustomToolBar@@IAEHPBDAAV?$CMap@GAAGHAAH@@@Z 0040a620 f   CustomToolBar.obj
 0001:00009720       ?RestoreState@CCustomToolBar@@IAEXXZ 0040a720 f   CustomToolBar.obj
 0001:00009870       ?RemoveAllButtons@CCustomToolBar@@IAEXXZ 0040a870 f   CustomToolBar.obj
 0001:00009900       ?GetValueName@CCustomToolBar@@IAE?AV?$CStringT@DV?$StrTraitMFC_DLL@DV?$ChTraitsCRT@D@ATL@@@@@ATL@@XZ 0040a900 f   CustomToolBar.obj
 0001:00009980       ?OnDestroy@CCustomToolBar@@IAEXXZ 0040a980 f   CustomToolBar.obj
 0001:00009ae0       ?OnNotifyQueryInsertOrDelete@CCustomToolBar@@IAEXPAUtagNMHDR@@PAJ@Z 0040aae0 f   CustomToolBar.obj
 0001:00009af0       ?OnNotifyGetButtonInfo@CCustomToolBar@@IAEXPAUtagNMHDR@@PAJ@Z 0040aaf0 f   CustomToolBar.obj
 0001:00009b60       ?OnNotifyReset@CCustomToolBar@@IAEXPAUtagNMHDR@@PAJ@Z 0040ab60 f   CustomToolBar.obj
 0001:00009ba0       ?OnNotifyToolBarChange@CCustomToolBar@@IAEXPAUtagNMHDR@@PAJ@Z 0040aba0 f   CustomToolBar.obj
 0001:00009bd0       ??1?$CMap@GAAGHAAH@@UAE@XZ 0040abd0 f i CustomToolBar.obj
 0001:00009c50       ?Serialize@?$CMap@GAAGHAAH@@UAEXAAVCArchive@@@Z 0040ac50 f i CustomToolBar.obj
 0001:00009d10       ??_E?$CMap@GAAGHAAH@@UAEPAXI@Z 0040ad10 f i * CIL library *:* CIL module *
 0001:00009d10       ??_G?$CMap@GAAGHAAH@@UAEPAXI@Z 0040ad10 f i CustomToolBar.obj
 0001:00009dd0       ??A?$CMap@GAAGHAAH@@QAEAAHAAG@Z 0040add0 f i CustomToolBar.obj
 0001:00009f30       ??$SerializeElements@G@@YGXAAVCArchive@@PAGH@Z 0040af30 f i CustomToolBar.obj
 0001:00009fc0       ??$SerializeElements@PAV?$CTypedPtrArrayEx@VCObArray@@PAVCDXFdata@@@@@@YGXAAVCArchive@@PAPAV?$CTypedPtrArrayEx@VCObArray@@PAVCDXFdata@@@@H@Z 0040afc0 f i DXFshape.obj
 0001:00009fc0       ??$SerializeElements@H@@YGXAAVCArchive@@PAHH@Z 0040afc0 f i CustomToolBar.obj
 0001:0000a050       ??HATL@@YA?AV?$CStringT@DV?$StrTraitMFC_DLL@DV?$ChTraitsCRT@D@ATL@@@@@0@PBDABV10@@Z 0040b050 f i CustomToolBar.obj
 0001:0000a0f0       ??HATL@@YA?AV?$CStringT@DV?$StrTraitMFC_DLL@DV?$ChTraitsCRT@D@ATL@@@@@0@ABV10@PBD@Z 0040b0f0 f i CustomToolBar.obj
 0001:0000a190       ?GetSubTreeRegKey@@YA?AV?$CStringT@DV?$StrTraitMFC_DLL@DV?$ChTraitsCRT@D@ATL@@@@@ATL@@HH@Z 0040b190 f i CustomToolBar.obj
 0001:0000a2a0       ?Open@CRegKey@ATL@@QAEJPAUHKEY__@@PBDK@Z 0040b2a0 f i CustomToolBar.obj
 0001:0000a360       ??1CRegKey@ATL@@QAE@XZ     0040b360 f i CustomToolBar.obj
 0001:0000a380       ?ReportSaveLoadException@CDocBase@@UAEXPBDPAVCException@@HI@Z 0040b380 f   DocBase.obj
 0001:0000a3f0       ?SetModifiedFlag@CDocBase@@UAEXH@Z 0040b3f0 f   DocBase.obj
 0001:0000a4c0       ?OnOpenDocumentSP@CDocBase@@IAEHPBDPAVCFrameWnd@@@Z 0040b4c0 f   DocBase.obj
 0001:0000a5c0       ?FileChangeNotificationThread@@YAIPAX@Z 0040b5c0 f   DocBase.obj
 0001:0000a7b0       ??_GCDxfAutoPocketgDlg@@UAEPAXI@Z 0040b7b0 f i DxfAutoPocketDlg.obj
 0001:0000a7b0       ??_ECDxfAutoPocketgDlg@@UAEPAXI@Z 0040b7b0 f i * CIL library *:* CIL module *
 0001:0000a830       ??1CDxfAutoPocketgDlg@@UAE@XZ 0040b830 f i DxfAutoPocketDlg.obj
 0001:0000a880       ?DoDataExchange@CDxfAutoPocketgDlg@@MAEXPAVCDataExchange@@@Z 0040b880 f   DxfAutoPocketDlg.obj
 0001:0000a8f0       ?OnInitDialog@CDxfAutoPocketgDlg@@MAEHXZ 0040b8f0 f   DxfAutoPocketDlg.obj
 0001:0000a940       ?OnOK@CDxfAutoPocketgDlg@@MAEXXZ 0040b940 f   DxfAutoPocketDlg.obj
 0001:0000aba0       ?SetEllipseArgv_Circle@CDXFcircle@@IAEXPBUDXFBLOCK@@PAUDXFEARGV@@MMH@Z 0040bba0 f i DXFBlock.obj
 0001:0000acf0       ?CopyBlock@CDXFBlockData@@QAEXPBV1@PBUDXFBLOCK@@@Z 0040bcf0 f   DXFBlock.obj
 0001:0000b010       ??1CMDIFrameWnd@@UAE@XZ    0040c010 f i MainFrm.obj
 0001:0000b010       ??1CChildBase@@UAE@XZ      0040c010 f i DXFChild.obj
 0001:0000b020       ?IsDocFlag@CDocBase@@QBEHI@Z 0040c020 f i DXFChild.obj
 0001:0000b050       ?CreateObject@CDXFChild@@SGPAVCObject@@XZ 0040c050 f   DXFChild.obj
 0001:0000b100       ?_GetBaseClass@CDXFChild@@KGPAUCRuntimeClass@@XZ 0040c100 f   DXFChild.obj
 0001:0000b100       ?_GetBaseClass@CNCChild@@KGPAUCRuntimeClass@@XZ 0040c100 f   NCChild.obj
 0001:0000b110       ?GetRuntimeClass@CDXFChild@@UBEPAUCRuntimeClass@@XZ 0040c110 f   DXFChild.obj
 0001:0000b120       ?GetMessageMap@CDXFChild@@MBEPBUAFX_MSGMAP@@XZ 0040c120 f   DXFChild.obj
 0001:0000b130       ?GetMessageMap@CDXFFrameSplit@@MBEPBUAFX_MSGMAP@@XZ 0040c130 f   DXFChild.obj
 0001:0000b140       ??_ECDXFChild@@UAEPAXI@Z   0040c140 f i * CIL library *:* CIL module *
 0001:0000b140       ??_GCDXFChild@@UAEPAXI@Z   0040c140 f i DXFChild.obj
 0001:0000b1a0       ??1CNCViewSplit@@UAE@XZ    0040c1a0 f i NCViewSplit.obj
 0001:0000b1a0       ??1CNCFrameSplit@@UAE@XZ   0040c1a0 f i NCChild.obj
 0001:0000b1a0       ??1CDXFFrameSplit@@UAE@XZ  0040c1a0 f i DXFChild.obj
 0001:0000b1b0       ??_GCDXFFrameSplit@@UAEPAXI@Z 0040c1b0 f i DXFChild.obj
 0001:0000b1b0       ??_ECDXFFrameSplit@@UAEPAXI@Z 0040c1b0 f i * CIL library *:* CIL module *
 0001:0000b1b0       ??_ECNCFrameSplit@@UAEPAXI@Z 0040c1b0 f i * CIL library *:* CIL module *
 0001:0000b1b0       ??_GCNCFrameSplit@@UAEPAXI@Z 0040c1b0 f i NCChild.obj
 0001:0000b1f0       ?OnCreateClient@CDXFChild@@MAEHPAUtagCREATESTRUCTA@@PAUCCreateContext@@@Z 0040c1f0 f   DXFChild.obj
 0001:0000b2c0       ?OnCmdMsg@CDXFChild@@UAEHIHPAXPAUAFX_CMDHANDLERINFO@@@Z 0040c2c0 f   DXFChild.obj
 0001:0000b3a0       ?SetDataInfo@CDXFChild@@QAEXPBVCDXFDoc@@@Z 0040c3a0 f   DXFChild.obj
 0001:0000b450       ?ShowShapeView@CDXFChild@@QAEXXZ 0040c450 f   DXFChild.obj
 0001:0000b520       ?OnCreate@CDXFChild@@IAEHPAUtagCREATESTRUCTA@@@Z 0040c520 f   DXFChild.obj
 0001:0000b580       ?OnSize@CDXFChild@@IAEXIHH@Z 0040c580 f   DXFChild.obj
 0001:0000b5f0       ?OnMDIActivate@CDXFChild@@IAEXHPAVCWnd@@0@Z 0040c5f0 f   DXFChild.obj
 0001:0000b5f0       ?OnMDIActivate@CNCChild@@IAEXHPAVCWnd@@0@Z 0040c5f0 f   NCChild.obj
 0001:0000b660       ?OnUserInitialUpdate@CDXFChild@@IAEJIJ@Z 0040c660 f   DXFChild.obj
 0001:0000b670       ?OnLButtonDblClk@CDXFFrameSplit@@IAEXIVCPoint@@@Z 0040c670 f   DXFChild.obj
 0001:0000b6a0       __get_startup_thread_locale_mode 0040c6a0 f i msvcrt:thread_locale.obj
 0001:0000b6a0       ?IsTabbedMDIChild@CMDIChildWnd@@UAEHXZ 0040c6a0 f i DXFChild.obj
 0001:0000b6a0       ___scrt_exe_initialize_mta 0040c6a0 f i msvcrt:utility_desktop.obj
 0001:0000b6a0       ?CalcOffsetSign@CNCcycle@@UBEHXZ 0040c6a0 f i NCdata.obj
 0001:0000b6a0       ?GetApplicationRestartFlags@CWinApp@@UAEKXZ 0040c6a0 f i NCVC.obj
 0001:0000b6a0       ?IsStartEqEnd@CDXFarc@@UBEHXZ 0040c6a0 f i DXFdata.obj
 0001:0000b6a0       ___scrt_initialize_winrt   0040c6a0 f i msvcrt:utility_desktop.obj
 0001:0000b6a0       __get_startup_new_mode     0040c6a0 f i msvcrt:new_mode.obj
 0001:0000b6a0       ___scrt_stub_for_initialize_mta 0040c6a0 f i msvcrt:utility_desktop.obj
 0001:0000b6a0       ?IsStartEqEnd@CDXFline@@UBEHXZ 0040c6a0 f i DXFdata.obj
 0001:0000b6a0       __matherr                  0040c6a0 f i msvcrt:matherr.obj
 0001:0000b6a0       __get_startup_commit_mode  0040c6a0 f i msvcrt:commit_mode.obj
 0001:0000b6a0       ?IsMakeTarget@CDXFcircleEx@@UBEHXZ 0040c6a0 f i DXFdata.obj
 0001:0000b6a0       ?GetApplicationRecoveryParameter@CWinApp@@UAEPAXXZ 0040c6a0 f i NCVC.obj
 0001:0000b6a0       ?CalcOffsetSign@CNCdata@@UBEHXZ 0040c6a0 f i NCdata.obj
 0001:0000b6b0       ??_ECCAMHead@@UAEPAXI@Z    0040c6b0 f i * CIL library *:* CIL module *
 0001:0000b6b0       ??_GCCAMHead@@UAEPAXI@Z    0040c6b0 f i DXFdata.obj
 0001:0000b6e0       ?SetNativePoint@CDXFdata@@UAEXIABV?$CPointT@M@@@Z 0040c6e0 f i DXFdata.obj
 0001:0000b700       ?IsMatchPoint@CDXFdata@@QBEHABV?$CPointT@M@@@Z 0040c700 f i DXFdata.obj
 0001:0000b780       ?IsStartEqEnd@CDXFpoint@@UBEHXZ 0040c780 f i DXFdata.obj
 0001:0000b780       ?IsStartEqEnd@CDXFcircle@@UBEHXZ 0040c780 f i DXFdata.obj
 0001:0000b780       ?IsMakeTarget@CDXFpolyline@@UBEHXZ 0040c780 f i DXFdata.obj
 0001:0000b780       ?CanAddPageToDynamicLayout@CPropertySheet@@MBEHXZ 0040c780 f i DxfSetup.obj
 0001:0000b780       ?IsMakeTarget@CDXFpoint@@UBEHXZ 0040c780 f i DXFdata.obj
 0001:0000b790       ?IsMakeMatchPoint@CDXFpoint@@UAEHABV?$CPointT@M@@@Z 0040c790 f i DXFdata.obj
 0001:0000b7d0       ?GetEdgeGap@CDXFpoint@@UAEMABV?$CPointT@M@@H@Z 0040c7d0 f i DXFdata.obj
 0001:0000b820       ?GetStartCutterPoint@CDXFline@@UBE?BV?$CPointT@M@@XZ 0040c820 f i DXFdata.obj
 0001:0000b820       ?GetEndCutterPoint@CDXFpoint@@UBE?BV?$CPointT@M@@XZ 0040c820 f i DXFdata.obj
 0001:0000b820       ?GetStartCutterPoint@CDXFpoint@@UBE?BV?$CPointT@M@@XZ 0040c820 f i DXFdata.obj
 0001:0000b820       ?GetStartCutterPoint@CDXFarc@@UBE?BV?$CPointT@M@@XZ 0040c820 f i DXFdata.obj
 0001:0000b840       ?GetStartMakePoint@CDXFpoint@@UBE?BV?$CPointT@M@@XZ 0040c840 f i DXFdata.obj
 0001:0000b840       ?GetEndMakePoint@CDXFpoint@@UBE?BV?$CPointT@M@@XZ 0040c840 f i DXFdata.obj
 0001:0000b840       ?GetStartMakePoint@CDXFline@@UBE?BV?$CPointT@M@@XZ 0040c840 f i DXFdata.obj
 0001:0000b840       ?GetStartMakePoint@CDXFarc@@UBE?BV?$CPointT@M@@XZ 0040c840 f i DXFdata.obj
 0001:0000b860       ?GetLength@CDXFpoint@@UBEMXZ 0040c860 f i DXFdata.obj
 0001:0000b860       ?OrgTuning_XY@CDXFpoint@@SAMPBV1@@Z 0040c860 f i DXFdata.obj
 0001:0000b870       ?IsMakeTarget@CDXFline@@UBEHXZ 0040c870 f i DXFdata.obj
 0001:0000b8c0       ?IsMakeMatchPoint@CDXFarc@@UAEHABV?$CPointT@M@@@Z 0040c8c0 f i DXFdata.obj
 0001:0000b8c0       ?IsMakeMatchPoint@CDXFline@@UAEHABV?$CPointT@M@@@Z 0040c8c0 f i DXFdata.obj
 0001:0000b960       ?GetEdgeGap@CDXFline@@UAEMABV?$CPointT@M@@H@Z 0040c960 f i DXFdata.obj
 0001:0000b960       ?GetEdgeGap@CDXFarc@@UAEMABV?$CPointT@M@@H@Z 0040c960 f i DXFdata.obj
 0001:0000ba10       ?GetEndCutterPoint@CDXFarc@@UBE?BV?$CPointT@M@@XZ 0040ca10 f i DXFdata.obj
 0001:0000ba10       ?GetEndCutterPoint@CDXFline@@UBE?BV?$CPointT@M@@XZ 0040ca10 f i DXFdata.obj
 0001:0000ba30       ?GetEndMakePoint@CDXFline@@UBE?BV?$CPointT@M@@XZ 0040ca30 f i DXFdata.obj
 0001:0000ba30       ?GetEndMakePoint@CDXFarc@@UBE?BV?$CPointT@M@@XZ 0040ca30 f i DXFdata.obj
 0001:0000ba50       ?GetLength@CDXFline@@UBEMXZ 0040ca50 f i DXFdata.obj
 0001:0000baa0       ?GetQuarterPoint@CDXFcircle@@IBEXABV?$CPointT@M@@QAV2@@Z 0040caa0 f i DXFdata.obj
 0001:0000bbc0       ?IsMakeTarget@CDXFcircle@@UBEHXZ 0040cbc0 f i DXFdata.obj
 0001:0000bbe0       ?IsMakeMatchPoint@CDXFcircle@@UAEHABV?$CPointT@M@@@Z 0040cbe0 f i DXFdata.obj
 0001:0000bca0       ?GetEdgeGap@CDXFcircle@@UAEMABV?$CPointT@M@@H@Z 0040cca0 f i DXFdata.obj
 0001:0000bd90       ?GetStartCutterPoint@CDXFcircle@@UBE?BV?$CPointT@M@@XZ 0040cd90 f i DXFdata.obj
 0001:0000bd90       ?GetEndCutterPoint@CDXFcircle@@UBE?BV?$CPointT@M@@XZ 0040cd90 f i DXFdata.obj
 0001:0000bdc0       ?GetEndMakePoint@CDXFcircle@@UBE?BV?$CPointT@M@@XZ 0040cdc0 f i DXFdata.obj
 0001:0000bdc0       ?GetStartMakePoint@CDXFcircle@@UBE?BV?$CPointT@M@@XZ 0040cdc0 f i DXFdata.obj
 0001:0000bdf0       ?GetLength@CDXFcircle@@UBEMXZ 0040cdf0 f i DXFdata.obj
 0001:0000be00       ?IsMakeMatchPoint@CDXFcircleEx@@UAEHABV?$CPointT@M@@@Z 0040ce00 f i DXFdata.obj
 0001:0000be50       ?GetEdgeGap@CDXFcircleEx@@UAEMABV?$CPointT@M@@H@Z 0040ce50 f i DXFdata.obj
 0001:0000bea0       ?GetStartCutterPoint@CDXFcircleEx@@UBE?BV?$CPointT@M@@XZ 0040cea0 f i DXFdata.obj
 0001:0000bec0       ?GetStartMakePoint@CDXFcircleEx@@UBE?BV?$CPointT@M@@XZ 0040cec0 f i DXFdata.obj
 0001:0000bee0       ?GetEndCutterPoint@CDXFcircleEx@@UBE?BV?$CPointT@M@@XZ 0040cee0 f i DXFdata.obj
 0001:0000bef0       ?GetEndMakePoint@CDXFcircleEx@@UBE?BV?$CPointT@M@@XZ 0040cef0 f i DXFdata.obj
 0001:0000bf00       ?SetNativePoint@CDXFarc@@UAEXIABV?$CPointT@M@@@Z 0040cf00 f i DXFdata.obj
 0001:0000bf80       ?IsMakeTarget@CDXFellipse@@UBEHXZ 0040cf80 f i DXFdata.obj
 0001:0000bf80       ?IsMakeTarget@CDXFarc@@UBEHXZ 0040cf80 f i DXFdata.obj
 0001:0000bfd0       ?GetLength@CDXFarc@@UBEMXZ 0040cfd0 f i DXFdata.obj
 0001:0000c030       ?IsMakeMatchPoint@CDXFellipse@@UAEHABV?$CPointT@M@@@Z 0040d030 f i DXFdata.obj
 0001:0000c1a0       ?IsStartEqEnd@CDXFellipse@@UBEHXZ 0040d1a0 f i DXFdata.obj
 0001:0000c1b0       ?GetEdgeGap@CDXFellipse@@UAEMABV?$CPointT@M@@H@Z 0040d1b0 f i DXFdata.obj
 0001:0000c370       ?GetStartCutterPoint@CDXFellipse@@UBE?BV?$CPointT@M@@XZ 0040d370 f i DXFdata.obj
 0001:0000c3c0       ?GetStartMakePoint@CDXFellipse@@UBE?BV?$CPointT@M@@XZ 0040d3c0 f i DXFdata.obj
 0001:0000c410       ?GetEndCutterPoint@CDXFellipse@@UBE?BV?$CPointT@M@@XZ 0040d410 f i DXFdata.obj
 0001:0000c460       ?GetEndMakePoint@CDXFellipse@@UBE?BV?$CPointT@M@@XZ 0040d460 f i DXFdata.obj
 0001:0000c4b0       ?IsStartEqEnd@CDXFpolyline@@UBEHXZ 0040d4b0 f i DXFdata.obj
 0001:0000c4c0       ?GetEdgeGap@CDXFtext@@UAEMABV?$CPointT@M@@H@Z 0040d4c0 f i DXFdata.obj
 0001:0000c4d0       ?CreateObject@CCAMHead@@SGPAVCObject@@XZ 0040d4d0 f   DXFdata.obj
 0001:0000c4f0       ?_GetBaseClass@CDXFchain@@KGPAUCRuntimeClass@@XZ 0040d4f0 f   DXFshape.obj
 0001:0000c4f0       ?_GetBaseClass@CDXFmap@@KGPAUCRuntimeClass@@XZ 0040d4f0 f   DXFshape.obj
 0001:0000c4f0       ?_GetBaseClass@CCAMHead@@KGPAUCRuntimeClass@@XZ 0040d4f0 f   DXFdata.obj
 0001:0000c4f0       ?_GetBaseClass@CDXFshape@@KGPAUCRuntimeClass@@XZ 0040d4f0 f   DXFshape.obj
 0001:0000c4f0       ?_GetBaseClass@CLayerData@@KGPAUCRuntimeClass@@XZ 0040d4f0 f   Layer.obj
 0001:0000c4f0       ?_GetBaseClass@CDXFdata@@KGPAUCRuntimeClass@@XZ 0040d4f0 f   DXFdata.obj
 0001:0000c4f0       ?_GetBaseClass@CDXFworking@@KGPAUCRuntimeClass@@XZ 0040d4f0 f   DXFshape.obj
 0001:0000c500       ?GetRuntimeClass@CCAMHead@@UBEPAUCRuntimeClass@@XZ 0040d500 f   DXFdata.obj
 0001:0000c510       ?GetRuntimeClass@CDXFdata@@UBEPAUCRuntimeClass@@XZ 0040d510 f   DXFdata.obj
 0001:0000c510       ?_GetBaseClass@CDXFpoint@@KGPAUCRuntimeClass@@XZ 0040d510 f   DXFdata.obj
 0001:0000c520       ?CreateObject@CDXFpoint@@SGPAVCObject@@XZ 0040d520 f   DXFdata.obj
 0001:0000c5d0       ?_GetBaseClass@CDXFtext@@KGPAUCRuntimeClass@@XZ 0040d5d0 f   DXFdata.obj
 0001:0000c5d0       ?GetRuntimeClass@CDXFpoint@@UBEPAUCRuntimeClass@@XZ 0040d5d0 f   DXFdata.obj
 0001:0000c5d0       ?_GetBaseClass@CDXFline@@KGPAUCRuntimeClass@@XZ 0040d5d0 f   DXFdata.obj
 0001:0000c5e0       ?CreateObject@CDXFline@@SGPAVCObject@@XZ 0040d5e0 f   DXFdata.obj
 0001:0000c6a0       ?_GetBaseClass@CDXFpolyline@@KGPAUCRuntimeClass@@XZ 0040d6a0 f   DXFdata.obj
 0001:0000c6a0       ?_GetBaseClass@CDXFcircle@@KGPAUCRuntimeClass@@XZ 0040d6a0 f   DXFdata.obj
 0001:0000c6a0       ?GetRuntimeClass@CDXFline@@UBEPAUCRuntimeClass@@XZ 0040d6a0 f   DXFdata.obj
 0001:0000c6b0       ?CreateObject@CDXFcircle@@SGPAVCObject@@XZ 0040d6b0 f   DXFdata.obj
 0001:0000c7c0       ?_GetBaseClass@CDXFcircleEx@@KGPAUCRuntimeClass@@XZ 0040d7c0 f   DXFdata.obj
 0001:0000c7c0       ?GetRuntimeClass@CDXFcircle@@UBEPAUCRuntimeClass@@XZ 0040d7c0 f   DXFdata.obj
 0001:0000c7c0       ?_GetBaseClass@CDXFarc@@KGPAUCRuntimeClass@@XZ 0040d7c0 f   DXFdata.obj
 0001:0000c7d0       ?CreateObject@CDXFcircleEx@@SGPAVCObject@@XZ 0040d7d0 f   DXFdata.obj
 0001:0000c880       ?GetRuntimeClass@CDXFcircleEx@@UBEPAUCRuntimeClass@@XZ 0040d880 f   DXFdata.obj
 0001:0000c890       ?CreateObject@CDXFarc@@SGPAVCObject@@XZ 0040d890 f   DXFdata.obj
 0001:0000c930       ?_GetBaseClass@CDXFellipse@@KGPAUCRuntimeClass@@XZ 0040d930 f   DXFdata.obj
 0001:0000c930       ?GetRuntimeClass@CDXFarc@@UBEPAUCRuntimeClass@@XZ 0040d930 f   DXFdata.obj
 0001:0000c940       ?CreateObject@CDXFellipse@@SGPAVCObject@@XZ 0040d940 f   DXFdata.obj
 0001:0000ca40       ?GetRuntimeClass@CDXFellipse@@UBEPAUCRuntimeClass@@XZ 0040da40 f   DXFdata.obj
 0001:0000ca50       ?CreateObject@CDXFpolyline@@SGPAVCObject@@XZ 0040da50 f   DXFdata.obj
 0001:0000cac0       ?GetRuntimeClass@CDXFpolyline@@UBEPAUCRuntimeClass@@XZ 0040dac0 f   DXFdata.obj
 0001:0000cad0       ?CreateObject@CDXFtext@@SGPAVCObject@@XZ 0040dad0 f   DXFdata.obj
 0001:0000cb80       ?GetRuntimeClass@CDXFtext@@UBEPAUCRuntimeClass@@XZ 0040db80 f   DXFdata.obj
 0001:0000cb90       ?Serialize@CCAMHead@@UAEXAAVCArchive@@@Z 0040db90 f   DXFdata.obj
 0001:0000cde0       ??0CDXFdata@@IAE@W4ENDXFTYPE@@PAVCLayerData@@HK@Z 0040dde0 f   DXFdata.obj
 0001:0000cf40       ??_ECDXFdata@@UAEPAXI@Z    0040df40 f i * CIL library *:* CIL module *
 0001:0000cf40       ??_GCDXFdata@@UAEPAXI@Z    0040df40 f i DXFdata.obj
 0001:0000cfa0       ?Serialize@CDXFdata@@UAEXAAVCArchive@@@Z 0040dfa0 f   DXFdata.obj
 0001:0000d050       ?SwapMakePt@CDXFdata@@UAEXH@Z 0040e050 f   DXFdata.obj
 0001:0000d0b0       ?SwapNativePt@CDXFdata@@UAEXXZ 0040e0b0 f   DXFdata.obj
 0001:0000d0e0       ?RoundObjPoint@CDXFdata@@UAEXABV?$CPointT@M@@M@Z 0040e0e0 f   DXFdata.obj
 0001:0000d1c0       ?IsDirectionPoint@CDXFdata@@UAEHABV?$CPointT@M@@0@Z 0040e1c0 f   DXFdata.obj
 0001:0000d210       ?XRev@CDXFdata@@MAEXXZ     0040e210 f   DXFdata.obj
 0001:0000d210       ?XRev@CDXFpolyline@@MAEXXZ 0040e210 f   DXFdata.obj
 0001:0000d250       ?YRev@CDXFdata@@MAEXXZ     0040e250 f   DXFdata.obj
 0001:0000d250       ?YRev@CDXFpolyline@@MAEXXZ 0040e250 f   DXFdata.obj
 0001:0000d290       ?OrgTuningBase@CDXFdata@@IAEXXZ 0040e290 f   DXFdata.obj
 0001:0000d310       ??_ECDXFpoint@@UAEPAXI@Z   0040e310 f i * CIL library *:* CIL module *
 0001:0000d310       ??_GCDXFpoint@@UAEPAXI@Z   0040e310 f i DXFdata.obj
 0001:0000d370       ??1CDXFline@@UAE@XZ        0040e370 f i DXFdata.obj
 0001:0000d370       ??1CDXFcircle@@UAE@XZ      0040e370 f i DXFdata.obj
 0001:0000d370       ??1CDXFpoint@@UAE@XZ       0040e370 f i DXFdata.obj
 0001:0000d370       ??1CDXFarc@@UAE@XZ         0040e370 f i DXFdata.obj
 0001:0000d3a0       ??0CDXFpoint@@QAE@PBUDXFPARGV@@K@Z 0040e3a0 f   DXFdata.obj
 0001:0000d470       ??0CDXFpoint@@QAE@PAVCLayerData@@PBV0@PBUDXFBLOCK@@K@Z 0040e470 f   DXFdata.obj
 0001:0000d600       ?Serialize@CDXFpoint@@UAEXAAVCArchive@@@Z 0040e600 f   DXFdata.obj
 0001:0000d800       ?SetMaxRect@CDXFpoint@@MAEXXZ 0040e800 f   DXFdata.obj
 0001:0000d870       ?DrawTuning@CDXFpoint@@UAEXM@Z 0040e870 f   DXFdata.obj
 0001:0000d930       ?Draw@CDXFpoint@@UBEXPAVCDC@@@Z 0040e930 f   DXFdata.obj
 0001:0000d9d0       ?OrgTuning@CDXFpoint@@UAEMH@Z 0040e9d0 f   DXFdata.obj
 0001:0000da60       ?OrgTuning_Seq@CDXFpoint@@SAMPBV1@@Z 0040ea60 f   DXFdata.obj
 0001:0000dac0       ?GetSelectPointGap@CDXFpoint@@UAEMABV?$CPointT@M@@@Z 0040eac0 f   DXFdata.obj
 0001:0000dad0       ?GetDirectionArraw@CDXFpoint@@UAEHABV?$CPointT@M@@QAY02V2@@Z 0040ead0 f   DXFdata.obj
 0001:0000dad0       ?CheckIntersectionCircle@CDXFellipse@@UBEHABV?$CPointT@M@@M@Z 0040ead0 f   DXFdata.obj
 0001:0000dad0       ?CheckIntersectionCircle@CDXFpoint@@UBEHABV?$CPointT@M@@M@Z 0040ead0 f   DXFdata.obj
 0001:0000dad0       ?CheckIntersectionCircle@CDXFcircle@@UBEHABV?$CPointT@M@@M@Z 0040ead0 f   DXFdata.obj
 0001:0000dae0       ?GetIntersectionPoint@CDXFpoint@@UBEHPBVCDXFdata@@QAV?$CPointT@M@@H@Z 0040eae0 f   DXFdata.obj
 0001:0000daf0       ?GetIntersectionPoint@CDXFpoint@@UBEHABV?$CPointT@M@@0QAV2@H@Z 0040eaf0 f   DXFdata.obj
 0001:0000db00       ?CalcPerpendicularPoint@CNCcycle@@UBE?AV?$optional@V?$CPointT@M@@@boost@@W4ENPOINTORDER@@MH@Z 0040eb00 f   NCdata.obj
 0001:0000db00       ?CalcOffsetIntersectionPoint2@CNCcycle@@UBE?AV?$optional@V?$CPointT@M@@@boost@@PBVCNCdata@@MH@Z 0040eb00 f   NCdata.obj
 0001:0000db00       ?CalcOffsetIntersectionPoint@CDXFcircle@@UBE?AV?$optional@V?$CPointT@M@@@boost@@PBVCDXFdata@@MH@Z 0040eb00 f   DXFdata.obj
 0001:0000db00       ?CalcOffsetIntersectionPoint2@CNCdata@@UBE?AV?$optional@V?$CPointT@M@@@boost@@PBV1@MH@Z 0040eb00 f   NCdata.obj
 0001:0000db00       ?CalcOffsetIntersectionPoint@CDXFpoint@@UBE?AV?$optional@V?$CPointT@M@@@boost@@PBVCDXFdata@@MH@Z 0040eb00 f   DXFdata.obj
 0001:0000db00       ?CalcPerpendicularPoint@CNCdata@@UBE?AV?$optional@V?$CPointT@M@@@boost@@W4ENPOINTORDER@@MH@Z 0040eb00 f   NCdata.obj
 0001:0000db10       ?SetVectorPoint@CDXFpoint@@UBEIAAV?$vector@V?$CPointT@M@@V?$allocator@V?$CPointT@M@@@std@@@std@@M@Z 0040eb10 f   DXFdata.obj
 0001:0000db60       ?DrawWireYZ@CNCcycle@@UBEXPAVCDC@@H@Z 0040eb60 f   NCdata.obj
 0001:0000db60       ?SetVectorPoint@CDXFpolyline@@UBEXAAV?$vector@V?$CPointT@M@@V?$allocator@V?$CPointT@M@@@std@@@std@@I@Z 0040eb60 f   DXFdata.obj
 0001:0000db60       ?SetVectorPoint@CDXFellipse@@UBEXAAV?$vector@V?$CPointT@M@@V?$allocator@V?$CPointT@M@@@std@@@std@@I@Z 0040eb60 f   DXFdata.obj
 0001:0000db60       ?DrawWire@CNCdata@@UBEXPAVCDC@@H@Z 0040eb60 f   NCdata.obj
 0001:0000db60       ?DrawWire@CNCcycle@@UBEXPAVCDC@@H@Z 0040eb60 f   NCdata.obj
 0001:0000db60       ?DrawWireXZ@CNCdata@@UBEXPAVCDC@@H@Z 0040eb60 f   NCdata.obj
 0001:0000db60       ?DrawWireXY@CNCdata@@UBEXPAVCDC@@H@Z 0040eb60 f   NCdata.obj
 0001:0000db60       ?DrawWireXY@CNCcycle@@UBEXPAVCDC@@H@Z 0040eb60 f   NCdata.obj
 0001:0000db60       ?DrawWireYZ@CNCdata@@UBEXPAVCDC@@H@Z 0040eb60 f   NCdata.obj
 0001:0000db60       ?SetVectorPoint@CDXFpoint@@UBEXAAV?$vector@V?$CPointT@M@@V?$allocator@V?$CPointT@M@@@std@@@std@@I@Z 0040eb60 f   DXFdata.obj
 0001:0000db60       ?DrawWireXZ@CNCcycle@@UBEXPAVCDC@@H@Z 0040eb60 f   NCdata.obj
 0001:0000db70       ?SetWireHeteroData@CDXFpolyline@@UBEXPBVCDXFdata@@AAV?$vector@V?$CPointT@M@@V?$allocator@V?$CPointT@M@@@std@@@std@@1M@Z 0040eb70 f   DXFdata.obj
 0001:0000db70       ?SetWireHeteroData@CDXFpoint@@UBEXPBVCDXFdata@@AAV?$vector@V?$CPointT@M@@V?$allocator@V?$CPointT@M@@@std@@@std@@1M@Z 0040eb70 f   DXFdata.obj
 0001:0000db70       ?SetWireHeteroData@CDXFcircle@@UBEXPBVCDXFdata@@AAV?$vector@V?$CPointT@M@@V?$allocator@V?$CPointT@M@@@std@@@std@@1M@Z 0040eb70 f   DXFdata.obj
 0001:0000db70       ?SetWireHeteroData@CDXFellipse@@UBEXPBVCDXFdata@@AAV?$vector@V?$CPointT@M@@V?$allocator@V?$CPointT@M@@@std@@@std@@1M@Z 0040eb70 f   DXFdata.obj
 0001:0000db80       ??_ECDXFline@@UAEPAXI@Z    0040eb80 f i * CIL library *:* CIL module *
 0001:0000db80       ??_GCDXFline@@UAEPAXI@Z    0040eb80 f i DXFdata.obj
 0001:0000dbe0       ??0CDXFline@@IAE@W4ENDXFTYPE@@PAVCLayerData@@HK@Z 0040ebe0 f   DXFdata.obj
 0001:0000dc50       ??0CDXFline@@QAE@PBUDXFLARGV@@K@Z 0040ec50 f   DXFdata.obj
 0001:0000dd50       ??0CDXFline@@QAE@PAVCLayerData@@PBV0@PBUDXFBLOCK@@K@Z 0040ed50 f   DXFdata.obj
 0001:0000df90       ?Serialize@CDXFline@@UAEXAAVCArchive@@@Z 0040ef90 f   DXFdata.obj
 0001:0000e370       ?SetMaxRect@CDXFline@@MAEXXZ 0040f370 f   DXFdata.obj
 0001:0000e3e0       ?DrawTuning@CDXFline@@UAEXM@Z 0040f3e0 f   DXFdata.obj
 0001:0000e460       ?Draw@CDXFline@@UBEXPAVCDC@@@Z 0040f460 f   DXFdata.obj
 0001:0000e4a0       ?OrgTuning@CDXFline@@UAEMH@Z 0040f4a0 f   DXFdata.obj
 0001:0000e590       ?GetSelectPointGap@CDXFline@@UAEMABV?$CPointT@M@@@Z 0040f590 f   DXFdata.obj
 0001:0000e7e0       ?GetDirectionArraw@CDXFline@@UAEHABV?$CPointT@M@@QAY02V2@@Z 0040f7e0 f   DXFdata.obj
 0001:0000e900       ?GetIntersectionPoint@CDXFline@@UBEHPBVCDXFdata@@QAV?$CPointT@M@@H@Z 0040f900 f   DXFdata.obj
 0001:0000ec00       ?GetIntersectionPoint@CDXFline@@UBEHABV?$CPointT@M@@0QAV2@H@Z 0040fc00 f   DXFdata.obj
 0001:0000ee70       ?CalcOffsetIntersectionPoint@CDXFline@@UBE?AV?$optional@V?$CPointT@M@@@boost@@PBVCDXFdata@@MH@Z 0040fe70 f   DXFdata.obj
 0001:0000f150       ?CheckIntersectionCircle@CDXFline@@UBEHABV?$CPointT@M@@M@Z 00410150 f   DXFdata.obj
 0001:0000f310       ?SetVectorPoint@CDXFline@@UBEIAAV?$vector@V?$CPointT@M@@V?$allocator@V?$CPointT@M@@@std@@@std@@M@Z 00410310 f   DXFdata.obj
 0001:0000f3c0       ?SetVectorPoint@CDXFline@@UBEXAAV?$vector@V?$CPointT@M@@V?$allocator@V?$CPointT@M@@@std@@@std@@I@Z 004103c0 f   DXFdata.obj
 0001:0000f540       ?SetWireHeteroData@CDXFline@@UBEXPBVCDXFdata@@AAV?$vector@V?$CPointT@M@@V?$allocator@V?$CPointT@M@@@std@@@std@@1M@Z 00410540 f   DXFdata.obj
 0001:0000f580       ??_ECDXFcircle@@UAEPAXI@Z  00410580 f i * CIL library *:* CIL module *
 0001:0000f580       ??_GCDXFcircle@@UAEPAXI@Z  00410580 f i DXFdata.obj
 0001:0000f5e0       ??0CDXFcircle@@IAE@W4ENDXFTYPE@@PAVCLayerData@@ABV?$CPointT@M@@MHHK@Z 004105e0 f   DXFdata.obj
 0001:0000f6e0       ??0CDXFcircle@@QAE@PBUDXFCARGV@@K@Z 004106e0 f   DXFdata.obj
 0001:0000f870       ??0CDXFcircle@@QAE@PAVCLayerData@@PBV0@PBUDXFBLOCK@@K@Z 00410870 f   DXFdata.obj
 0001:0000fa70       ?Serialize@CDXFcircle@@UAEXAAVCArchive@@@Z 00410a70 f   DXFdata.obj
 0001:0000fdb0       ?SwapMakePt@CDXFcircle@@UAEXH@Z 00410db0 f   DXFdata.obj
 0001:0000fdc0       ?RoundObjPoint@CDXFcircle@@UAEXABV?$CPointT@M@@M@Z 00410dc0 f   DXFdata.obj
 0001:0000fe90       ?SetCirclePoint@CDXFcircle@@MAEXXZ 00410e90 f   DXFdata.obj
 0001:0000ff20       ?XRev@CDXFcircle@@MAEXXZ   00410f20 f   DXFdata.obj
 0001:0000ffa0       ?YRev@CDXFcircle@@MAEXXZ   00410fa0 f   DXFdata.obj
 0001:00010020       ?SetMaxRect@CDXFcircle@@MAEXXZ 00411020 f   DXFdata.obj
 0001:000100f0       ?OnEraseBkgnd@CNCViewGL@@IAEHPAVCDC@@@Z 004110f0 f   NCViewGL.obj
 0001:000100f0       ?IsRangeAngle@CDXFcircle@@UBEHABV?$CPointT@M@@@Z 004110f0 f   DXFdata.obj
 0001:000100f0       ?OnInitPage@CTabViewBase@@MAEHH@Z 004110f0 f   NCInfoTab.obj
 0001:00010100       ?DrawTuning@CDXFcircle@@UAEXM@Z 00411100 f   DXFdata.obj
 0001:000101e0       ?Draw@CDXFcircle@@UBEXPAVCDC@@@Z 004111e0 f   DXFdata.obj
 0001:00010200       ?OrgTuning@CDXFcircle@@UAEMH@Z 00411200 f   DXFdata.obj
 0001:000103b0       ?GetSelectPointGap@CDXFcircle@@UAEMABV?$CPointT@M@@@Z 004113b0 f   DXFdata.obj
 0001:00010480       ?GetDirectionArraw_Circle@CDXFcircle@@IAEHQBMQBV?$CPointT@M@@QAY02V2@@Z 00411480 f   DXFdata.obj
 0001:00010590       ?GetDirectionArraw@CDXFcircle@@UAEHABV?$CPointT@M@@QAY02V2@@Z 00411590 f   DXFdata.obj
 0001:00010650       ?IsDirectionPoint@CDXFcircle@@UAEHABV?$CPointT@M@@0@Z 00411650 f   DXFdata.obj
 0001:00010790       ?GetIntersectionPoint@CDXFcircle@@UBEHPBVCDXFdata@@QAV?$CPointT@M@@H@Z 00411790 f   DXFdata.obj
 0001:00010940       ?GetIntersectionPoint@CDXFcircle@@UBEHABV?$CPointT@M@@0QAV2@H@Z 00411940 f   DXFdata.obj
 0001:000109e0       ?SetVectorPoint@CDXFcircle@@UBEIAAV?$vector@V?$CPointT@M@@V?$allocator@V?$CPointT@M@@@std@@@std@@M@Z 004119e0 f   DXFdata.obj
 0001:00010a60       ?SetVectorPoint@CDXFcircle@@UBEXAAV?$vector@V?$CPointT@M@@V?$allocator@V?$CPointT@M@@@std@@@std@@I@Z 00411a60 f   DXFdata.obj
 0001:00010b10       ?SetVectorPointSub@CDXFcircle@@IBEIHMMMABV?$CPointT@M@@AAV?$vector@V?$CPointT@M@@V?$allocator@V?$CPointT@M@@@std@@@std@@@Z 00411b10 f   DXFdata.obj
 0001:00010cf0       ??_ECDXFcircleEx@@UAEPAXI@Z 00411cf0 f i * CIL library *:* CIL module *
 0001:00010cf0       ??_GCDXFcircleEx@@UAEPAXI@Z 00411cf0 f i DXFdata.obj
 0001:00010d50       ?Serialize@CDXFcircleEx@@UAEXAAVCArchive@@@Z 00411d50 f   DXFdata.obj
 0001:00011110       ?XRev@CDXFcircleEx@@MAEXXZ 00412110 f   DXFdata.obj
 0001:00011140       ?YRev@CDXFcircleEx@@MAEXXZ 00412140 f   DXFdata.obj
 0001:00011170       ?Draw@CDXFcircleEx@@UBEXPAVCDC@@@Z 00412170 f   DXFdata.obj
 0001:00011200       ?OrgTuning@CDXFcircleEx@@UAEMH@Z 00412200 f   DXFdata.obj
 0001:00011280       ??_GCDXFarc@@UAEPAXI@Z     00412280 f i DXFdata.obj
 0001:00011280       ??_ECDXFarc@@UAEPAXI@Z     00412280 f i * CIL library *:* CIL module *
 0001:000112e0       ??0CDXFarc@@QAE@PBUDXFAARGV@@K@Z 004122e0 f   DXFdata.obj
 0001:000114f0       ??0CDXFarc@@QAE@PBUDXFAARGV@@HABV?$CPointT@M@@1K@Z 004124f0 f   DXFdata.obj
 0001:000115f0       ??0CDXFarc@@QAE@PAVCLayerData@@PBV0@PBUDXFBLOCK@@K@Z 004125f0 f   DXFdata.obj
 0001:000119f0       ?Serialize@CDXFarc@@UAEXAAVCArchive@@@Z 004129f0 f   DXFdata.obj
 0001:00012120       ?SetMaxRect@CDXFarc@@MAEXXZ 00413120 f   DXFdata.obj
 0001:00012460       ?SwapMakePt@CDXFarc@@UAEXH@Z 00413460 f   DXFdata.obj
 0001:000124e0       ?SwapNativePt@CDXFarc@@UAEXXZ 004134e0 f   DXFdata.obj
 0001:00012560       ?RoundObjPoint@CDXFarc@@UAEXABV?$CPointT@M@@M@Z 00413560 f   DXFdata.obj
 0001:00012680       ?SetVectorPoint@CDXFarc@@UBEIAAV?$vector@V?$CPointT@M@@V?$allocator@V?$CPointT@M@@@std@@@std@@M@Z 00413680 f   DXFdata.obj
 0001:000127b0       ?SetVectorPoint@CDXFarc@@UBEXAAV?$vector@V?$CPointT@M@@V?$allocator@V?$CPointT@M@@@std@@@std@@I@Z 004137b0 f   DXFdata.obj
 0001:00012840       ?SetWireHeteroData@CDXFarc@@UBEXPBVCDXFdata@@AAV?$vector@V?$CPointT@M@@V?$allocator@V?$CPointT@M@@@std@@@std@@1M@Z 00413840 f   DXFdata.obj
 0001:00012900       ?XRev@CDXFarc@@MAEXXZ      00413900 f   DXFdata.obj
 0001:00012950       ?YRev@CDXFarc@@MAEXXZ      00413950 f   DXFdata.obj
 0001:000129a0       ?AngleTuning@CDXFarc@@IAEXXZ 004139a0 f   DXFdata.obj
 0001:00012c50       ?IsRangeAngle@CDXFarc@@UBEHABV?$CPointT@M@@@Z 00413c50 f   DXFdata.obj
 0001:00012f90       ?DrawTuning@CDXFarc@@UAEXM@Z 00413f90 f   DXFdata.obj
 0001:00012ff0       ?Draw@CDXFarc@@UBEXPAVCDC@@@Z 00413ff0 f   DXFdata.obj
 0001:00013210       ?OrgTuning@CDXFarc@@UAEMH@Z 00414210 f   DXFdata.obj
 0001:000132a0       ?GetSelectPointGap@CDXFarc@@UAEMABV?$CPointT@M@@@Z 004142a0 f   DXFdata.obj
 0001:00013440       ?GetDirectionArraw@CDXFarc@@UAEHABV?$CPointT@M@@QAY02V2@@Z 00414440 f   DXFdata.obj
 0001:000134e0       ?GetIntersectionPoint@CDXFarc@@UBEHPBVCDXFdata@@QAV?$CPointT@M@@H@Z 004144e0 f   DXFdata.obj
 0001:00013720       ?GetIntersectionPoint@CDXFarc@@UBEHABV?$CPointT@M@@0QAV2@H@Z 00414720 f   DXFdata.obj
 0001:000137e0       ?CalcOffsetIntersectionPoint@CDXFarc@@UBE?AV?$optional@V?$CPointT@M@@@boost@@PBVCDXFdata@@MH@Z 004147e0 f   DXFdata.obj
 0001:00013b70       ?CheckIntersectionCircle@CDXFarc@@UBEHABV?$CPointT@M@@M@Z 00414b70 f   DXFdata.obj
 0001:00013d20       ??_GCDXFellipse@@UAEPAXI@Z 00414d20 f i DXFdata.obj
 0001:00013d20       ??_ECDXFellipse@@UAEPAXI@Z 00414d20 f i * CIL library *:* CIL module *
 0001:00013d80       ??0CDXFellipse@@QAE@PBUDXFEARGV@@K@Z 00414d80 f   DXFdata.obj
 0001:00013ec0       ??0CDXFellipse@@QAE@PAVCLayerData@@PBV0@PBUDXFBLOCK@@K@Z 00414ec0 f   DXFdata.obj
 0001:00014330       ?Serialize@CDXFellipse@@UAEXAAVCArchive@@@Z 00415330 f   DXFdata.obj
 0001:00014b40       ?Construct@CDXFellipse@@AAEXXZ 00415b40 f   DXFdata.obj
 0001:00014c60       ?EllipseCalc@CDXFellipse@@AAEXXZ 00415c60 f   DXFdata.obj
 0001:00014ee0       ?SetMaxRect@CDXFellipse@@MAEXXZ 00415ee0 f   DXFdata.obj
 0001:000152f0       ?SwapMakePt@CDXFellipse@@UAEXH@Z 004162f0 f   DXFdata.obj
 0001:00015390       ?SwapNativePt@CDXFellipse@@UAEXXZ 00416390 f   DXFdata.obj
 0001:00015410       ?RoundObjPoint@CDXFellipse@@UAEXABV?$CPointT@M@@M@Z 00416410 f   DXFdata.obj
 0001:00015520       ?SetVectorPoint@CDXFellipse@@UBEIAAV?$vector@V?$CPointT@M@@V?$allocator@V?$CPointT@M@@@std@@@std@@M@Z 00416520 f   DXFdata.obj
 0001:00015890       ?XRev@CDXFellipse@@MAEXXZ  00416890 f   DXFdata.obj
 0001:000159c0       ?YRev@CDXFellipse@@MAEXXZ  004169c0 f   DXFdata.obj
 0001:00015af0       ?XYRev@CDXFellipse@@AAEXABV?$CPointT@M@@0@Z 00416af0 f   DXFdata.obj
 0001:00015c80       ?DrawTuning@CDXFellipse@@UAEXM@Z 00416c80 f   DXFdata.obj
 0001:00015cf0       ?Draw@CDXFellipse@@UBEXPAVCDC@@@Z 00416cf0 f   DXFdata.obj
 0001:00016020       ?OrgTuning@CDXFellipse@@UAEMH@Z 00417020 f   DXFdata.obj
 0001:00016390       ?GetSelectPointGap@CDXFellipse@@UAEMABV?$CPointT@M@@@Z 00417390 f   DXFdata.obj
 0001:000165c0       ?GetDirectionArraw@CDXFellipse@@UAEHABV?$CPointT@M@@QAY02V2@@Z 004175c0 f   DXFdata.obj
 0001:00016970       ?IsDirectionPoint@CDXFellipse@@UAEHABV?$CPointT@M@@0@Z 00417970 f   DXFdata.obj
 0001:00016ad0       ?GetIntersectionPoint@CDXFellipse@@UBEHPBVCDXFdata@@QAV?$CPointT@M@@H@Z 00417ad0 f   DXFdata.obj
 0001:00016c80       ?GetIntersectionPoint@CDXFellipse@@UBEHABV?$CPointT@M@@0QAV2@H@Z 00417c80 f   DXFdata.obj
 0001:00016d80       ?CalcOffsetIntersectionPoint@CDXFellipse@@UBE?AV?$optional@V?$CPointT@M@@@boost@@PBVCDXFdata@@MH@Z 00417d80 f   DXFdata.obj
 0001:00016fb0       ??0CDXFpolyline@@QAE@XZ    00417fb0 f   DXFdata.obj
 0001:000170a0       ??_ECDXFpolyline@@UAEPAXI@Z 004180a0 f i * CIL library *:* CIL module *
 0001:000170a0       ??_GCDXFpolyline@@UAEPAXI@Z 004180a0 f i DXFdata.obj
 0001:00017180       ??1?$CTypedPtrList@VCObList@@PAVCDXFDoc@@@@UAE@XZ 00418180 f i NCVC.obj
 0001:00017180       ??1?$CTypedPtrListEx@VCObList@@PAVCDXFworking@@@@UAE@XZ 00418180 f i DXFshape.obj
 0001:00017180       ??1?$CTypedPtrListEx@VCObList@@PAVCDXFworkingOutline@@@@UAE@XZ 00418180 f i DXFshape.obj
 0001:00017180       ??1?$CTypedPtrListEx@VCObList@@PAVCDXFdata@@@@UAE@XZ 00418180 f i DXFdata.obj
 0001:00017190       ??_G?$CTypedPtrListEx@VCObList@@PAVCDXFdata@@@@UAEPAXI@Z 00418190 f i DXFdata.obj
 0001:00017190       ??_E?$CTypedPtrListEx@VCObList@@PAVCDXFworkingOutline@@@@UAEPAXI@Z 00418190 f i * CIL library *:* CIL module *
 0001:00017190       ??_G?$CTypedPtrList@VCObList@@PAVCDXFDoc@@@@UAEPAXI@Z 00418190 f i NCVC.obj
 0001:00017190       ??_E?$CTypedPtrListEx@VCObList@@PAVCDXFworking@@@@UAEPAXI@Z 00418190 f i * CIL library *:* CIL module *
 0001:00017190       ??_E?$CTypedPtrListEx@VCObList@@PAVCDXFdata@@@@UAEPAXI@Z 00418190 f i * CIL library *:* CIL module *
 0001:00017190       ??_G?$CTypedPtrListEx@VCObList@@PAVCDXFworking@@@@UAEPAXI@Z 00418190 f i DXFshape.obj
 0001:00017190       ??_E?$CTypedPtrList@VCObList@@PAVCDXFDoc@@@@UAEPAXI@Z 00418190 f i * CIL library *:* CIL module *
 0001:00017190       ??_G?$CTypedPtrListEx@VCObList@@PAVCDXFworkingOutline@@@@UAEPAXI@Z 00418190 f i DXFshape.obj
 0001:000171d0       ??0CDXFpolyline@@QAE@PAVCLayerData@@PBV0@PBUDXFBLOCK@@K@Z 004181d0 f   DXFdata.obj
 0001:000173c0       ?Serialize@CDXFpolyline@@UAEXAAVCArchive@@@Z 004183c0 f   DXFdata.obj
 0001:000175c0       ?SetMaxRect@CDXFpolyline@@MAEXXZ 004185c0 f   DXFdata.obj
 0001:00017790       ?SwapMakePt@CDXFpolyline@@UAEXH@Z 00418790 f   DXFdata.obj
 0001:00017800       ?SwapNativePt@CDXFpolyline@@UAEXXZ 00418800 f   DXFdata.obj
 0001:00017850       ?RoundObjPoint@CDXFpolyline@@UAEXABV?$CPointT@M@@M@Z 00418850 f   DXFdata.obj
 0001:000178a0       ?IsDirectionPoint@CDXFpolyline@@UAEHABV?$CPointT@M@@0@Z 004188a0 f   DXFdata.obj
 0001:00017970       ?SetVectorPoint@CDXFpolyline@@UBEIAAV?$vector@V?$CPointT@M@@V?$allocator@V?$CPointT@M@@@std@@@std@@M@Z 00418970 f   DXFdata.obj
 0001:000179d0       ?SetVertex@CDXFpolyline@@QAEHPBUDXFPARGV@@MABV?$CPointT@M@@@Z 004189d0 f   DXFdata.obj
 0001:00017e40       ?EndSeq@CDXFpolyline@@QAEXXZ 00418e40 f   DXFdata.obj
 0001:00017f10       ?GetFirstObject@CDXFpolyline@@QBEPAVCDXFdata@@XZ 00418f10 f   DXFdata.obj
 0001:00017fe0       ?CheckPolylineIntersection_SubLoop@CDXFpolyline@@AAEXABV?$CPointT@M@@0PAU__POSITION@@@Z 00418fe0 f   DXFdata.obj
 0001:00018420       ?CheckPolylineIntersection_SubLoop@CDXFpolyline@@AAEXPBVCDXFarc@@PAU__POSITION@@@Z 00419420 f   DXFdata.obj
 0001:000187a0       ?CheckPolylineIntersection_SubLoop@CDXFpolyline@@AAEXPBVCDXFellipse@@PAU__POSITION@@@Z 004197a0 f   DXFdata.obj
 0001:00018a10       ?DrawTuning@CDXFpolyline@@UAEXM@Z 00419a10 f   DXFdata.obj
 0001:00018a40       ?Draw@CDXFpolyline@@UBEXPAVCDC@@@Z 00419a40 f   DXFdata.obj
 0001:00018ad0       ?OrgTuning@CDXFpolyline@@UAEMH@Z 00419ad0 f   DXFdata.obj
 0001:00018b20       ?GetSelectPointGap@CDXFpolyline@@UAEMABV?$CPointT@M@@@Z 00419b20 f   DXFdata.obj
 0001:00018cb0       ?GetDirectionArraw@CDXFpolyline@@UAEHABV?$CPointT@M@@QAY02V2@@Z 00419cb0 f   DXFdata.obj
 0001:00018de0       ?GetIntersectionPoint@CDXFpolyline@@UBEHPBVCDXFdata@@QAV?$CPointT@M@@H@Z 00419de0 f   DXFdata.obj
 0001:00018f30       ?GetIntersectionPoint@CDXFpolyline@@UBEHABV?$CPointT@M@@0QAV2@H@Z 00419f30 f   DXFdata.obj
 0001:00018ff0       ?CalcOffsetIntersectionPoint@CDXFpolyline@@UBE?AV?$optional@V?$CPointT@M@@@boost@@PBVCDXFdata@@MH@Z 00419ff0 f   DXFdata.obj
 0001:000191b0       ?CheckIntersectionCircle@CDXFpolyline@@UBEHABV?$CPointT@M@@M@Z 0041a1b0 f   DXFdata.obj
 0001:00019320       ??_GCDXFtext@@UAEPAXI@Z    0041a320 f i DXFdata.obj
 0001:00019320       ??_ECDXFtext@@UAEPAXI@Z    0041a320 f i * CIL library *:* CIL module *
 0001:00019380       ??0CDXFtext@@QAE@PBUDXFTARGV@@K@Z 0041a380 f   DXFdata.obj
 0001:000194a0       ??0CDXFtext@@QAE@PAVCLayerData@@PBV0@PBUDXFBLOCK@@K@Z 0041a4a0 f   DXFdata.obj
 0001:00019690       ?Serialize@CDXFtext@@UAEXAAVCArchive@@@Z 0041a690 f   DXFdata.obj
 0001:000198d0       ?Draw@CDXFtext@@UBEXPAVCDC@@@Z 0041a8d0 f   DXFdata.obj
 0001:00019910       ?OrgTuning@CDXFtext@@UAEMH@Z 0041a910 f   DXFdata.obj
 0001:00019980       ?GetNext@?$_CTypedPtrList@VCObList@@PAVCDXFdata@@@@QAEAAPAVCDXFdata@@AAPAU__POSITION@@@Z 0041a980 f i DXFdata.obj
 0001:000199a0       ?GetTail@?$_CTypedPtrList@VCObList@@PAVCDXFdata@@@@QAEAAPAVCDXFdata@@XZ 0041a9a0 f i DXFdata.obj
 0001:000199b0       ?GetHead@?$_CTypedPtrList@VCObList@@PAVCDXFdata@@@@QAEAAPAVCDXFdata@@XZ 0041a9b0 f i DXFdata.obj
 0001:000199c0       ?RoundUp@?$CPointT@M@@QBE?AV1@XZ 0041a9c0 f i DXFdata.obj
 0001:00019a80       ?GetXY@?$CPoint3T@M@@QBE?AV?$CPointT@M@@XZ 0041aa80 f i DXFdata.obj
 0001:00019aa0       ??$?5DV?$StrTraitMFC_DLL@DV?$ChTraitsCRT@D@ATL@@@@@CArchive@@QAEAAV0@AAV?$CStringT@DV?$StrTraitMFC_DLL@DV?$ChTraitsCRT@D@ATL@@@@@ATL@@@Z 0041aaa0 f i DXFdata.obj
 0001:00019c60       ??$_Emplace_reallocate@ABV?$CPointT@M@@@?$vector@V?$CPointT@M@@V?$allocator@V?$CPointT@M@@@std@@@std@@QAEPAV?$CPointT@M@@QAV2@ABV2@@Z 0041ac60 f i DXFdata.obj
 0001:00019dc0       ?allocate@?$allocator@V?$CPointT@M@@@std@@QAEPAV?$CPointT@M@@I@Z 0041adc0 f i DXFdata.obj
 0001:00019e20       ?AllocateHeap@?$CTempBuffer@D$0IA@VCCRTAllocator@ATL@@@ATL@@AAEXI@Z 0041ae20 f i DXFdata.obj
 0001:00019e20       ?AllocateHeap@?$CTempBuffer@_W$0IA@VCCRTAllocator@ATL@@@ATL@@AAEXI@Z 0041ae20 f i DXFdata.obj
 0001:00019e50       ?FreeHeap@?$CTempBuffer@D$0IA@VCCRTAllocator@ATL@@@ATL@@AAEXXZ 0041ae50 f i DXFdata.obj
 0001:00019e50       ?FreeHeap@?$CTempBuffer@_W$0IA@VCCRTAllocator@ATL@@@ATL@@AAEXXZ 0041ae50 f i DXFdata.obj
 0001:00019e60       ??1?$CTempBuffer@D$0IA@VCCRTAllocator@ATL@@@ATL@@QAE@XZ 0041ae60 f i DXFdata.obj
 0001:00019e60       ??1?$CTempBuffer@_W$0IA@VCCRTAllocator@ATL@@@ATL@@QAE@XZ 0041ae60 f i DXFdata.obj
 0001:00019e70       _atanf                     0041ae70 f i DXFdata.obj
 0001:00019e90       ?GetContainer@CDocumentAdapter@CDocument@@UBEPAXXZ 0041ae90 f i DXFDoc.obj
 0001:00019e90       ?GetTailPosition@CObList@@QBEPAU__POSITION@@XZ 0041ae90 f i DXFdata.obj
 0001:00019ea0       ?GetHeadPosition@CObList@@QBEPAU__POSITION@@XZ 0041aea0 f i DXFdata.obj
 0001:00019eb0       ?AtlThrowImpl@ATL@@YGXJ@Z  0041aeb0 f i DXFdata.obj
 0001:00019ed0       ?AddInitHistory@CDXFOption@@QAEHW4enMAKETYPE@@PBD@Z 0041aed0 f i DXFDoc.obj
 0001:0001a080       ?GetDocExtString@CNCVCApp@@QAE?AV?$CStringT@DV?$StrTraitMFC_DLL@DV?$ChTraitsCRT@D@ATL@@@@@ATL@@W4DOCTYPE@@@Z 0041b080 f i DXFDoc.obj
 0001:0001a0f0       ??0CDocBase@@IAE@XZ        0041b0f0 f i DXFDoc.obj
 0001:0001a1c0       ??_GCDocBase@@UAEPAXI@Z    0041b1c0 f i DXFDoc.obj
 0001:0001a1c0       ??_ECDocBase@@UAEPAXI@Z    0041b1c0 f i * CIL library *:* CIL module *
 0001:0001a210       ??1CDocBase@@UAE@XZ        0041b210 f i DXFDoc.obj
 0001:0001a230       ?CreateObject@CDXFDoc@@SGPAVCObject@@XZ 0041b230 f   DXFDoc.obj
 0001:0001a2a0       ?_GetBaseClass@CDXFDoc@@KGPAUCRuntimeClass@@XZ 0041b2a0 f   DXFDoc.obj
 0001:0001a2a0       ?_GetBaseClass@CNCDoc@@KGPAUCRuntimeClass@@XZ 0041b2a0 f   NCDoc.obj
 0001:0001a2b0       ?GetRuntimeClass@CDXFDoc@@UBEPAUCRuntimeClass@@XZ 0041b2b0 f   DXFDoc.obj
 0001:0001a2c0       ?GetMessageMap@CDXFDoc@@MBEPBUAFX_MSGMAP@@XZ 0041b2c0 f   DXFDoc.obj
 0001:0001a2d0       ??0CDXFDoc@@IAE@XZ         0041b2d0 f   DXFDoc.obj
 0001:0001a4c0       ??_ECDXFDoc@@UAEPAXI@Z     0041b4c0 f i * CIL library *:* CIL module *
 0001:0001a4c0       ??_GCDXFDoc@@UAEPAXI@Z     0041b4c0 f i DXFDoc.obj
 0001:0001a500       ??1?$CTypedPtrMap@VCMapStringToOb@@V?$CStringT@DV?$StrTraitMFC_DLL@DV?$ChTraitsCRT@D@ATL@@@@@ATL@@PAVCLayerData@@@@UAE@XZ 0041b500 f i DXFDoc.obj
 0001:0001a510       ??1?$CTypedPtrArrayEx@VCPtrArray@@PAV?$CTypedPtrListEx@VCObList@@PAVCDXFdata@@@@@@UAE@XZ 0041b510 f i DXFshape.obj
 0001:0001a510       ??1?$CTypedPtrArrayEx@VCPtrArray@@PAV?$CSortArray@VCObArray@@PAVCDXFdata@@@@@@UAE@XZ 0041b510 f i TH_MakeNCD.obj
 0001:0001a510       ??1?$CTypedPtrArrayEx@VCPtrArray@@PAVCDXFMake@@@@UAE@XZ 0041b510 f i DXFDoc.obj
 0001:0001a510       ??1?$CSortArray@VCPtrArray@@PAUCADBINDINFO@@@@UAE@XZ 0041b510 f i DXFDoc.obj
 0001:0001a510       ??1?$CTypedPtrArrayEx@VCPtrArray@@PAVCNCblock@@@@UAE@XZ 0041b510 f i NCDoc.obj
 0001:0001a510       ??1?$CTypedPtrArrayEx@VCPtrArray@@PAVCNCVCaddinIF@@@@UAE@XZ 0041b510 f i NCVC.obj
 0001:0001a510       ??1?$CTypedPtrArrayEx@VCPtrArray@@PAVCNCdata@@@@UAE@XZ 0041b510 f i NCdata.obj
 0001:0001a520       ??_E?$CSortArray@VCObArray@@PAVCDXFshape@@@@UAEPAXI@Z 0041b520 f i * CIL library *:* CIL module *
 0001:0001a520       ??_E?$CTypedPtrArrayEx@VCObArray@@PAVCWnd@@@@UAEPAXI@Z 0041b520 f i * CIL library *:* CIL module *
 0001:0001a520       ??_G?$CTypedPtrArrayEx@VCObArray@@PAVCWnd@@@@UAEPAXI@Z 0041b520 f i NCInfoTab.obj
 0001:0001a520       ??_E?$CTypedPtrArrayEx@VCObArray@@PAVCImageList@@@@UAEPAXI@Z 0041b520 f i * CIL library *:* CIL module *
 0001:0001a520       ??_G?$CTypedPtrArrayEx@VCObArray@@PAVCDXFtext@@@@UAEPAXI@Z 0041b520 f i Layer.obj
 0001:0001a520       ??_G?$CSortArray@VCObArray@@PAVCLayerData@@@@UAEPAXI@Z 0041b520 f i DXFDoc.obj
 0001:0001a520       ??_E?$CSortArray@VCObArray@@PAVCDXFworkingOutline@@@@UAEPAXI@Z 0041b520 f i * CIL library *:* CIL module *
 0001:0001a520       ??_E?$CSortArray@VCObArray@@PAVCDXFdata@@@@UAEPAXI@Z 0041b520 f i * CIL library *:* CIL module *
 0001:0001a520       ??_G?$CSortArray@VCObArray@@PAVCDXFcircle@@@@UAEPAXI@Z 0041b520 f i TH_MakeNCD.obj
 0001:0001a520       ??_E?$CSortArray@VCObArray@@PAVCLayerData@@@@UAEPAXI@Z 0041b520 f i * CIL library *:* CIL module *
 0001:0001a520       ??_E?$CTypedPtrArrayEx@VCObArray@@PAVCDXFdata@@@@UAEPAXI@Z 0041b520 f i * CIL library *:* CIL module *
 0001:0001a520       ??_E?$CSortArray@VCObArray@@PAVCDXFcircle@@@@UAEPAXI@Z 0041b520 f i * CIL library *:* CIL module *
 0001:0001a520       ??_G?$CTypedPtrArrayEx@VCObArray@@PAVCDXFdata@@@@UAEPAXI@Z 0041b520 f i DXFshape.obj
 0001:0001a520       ??_G?$CTypedPtrArrayEx@VCObArray@@PAVCImageList@@@@UAEPAXI@Z 0041b520 f i MainFrm.obj
 0001:0001a520       ??_G?$CSortArray@VCObArray@@PAVCDXFshape@@@@UAEPAXI@Z 0041b520 f i Layer.obj
 0001:0001a520       ??_E?$CSortArray@VCObArray@@PAVCDXFchain@@@@UAEPAXI@Z 0041b520 f i * CIL library *:* CIL module *
 0001:0001a520       ??_G?$CSortArray@VCObArray@@PAVCDXFchain@@@@UAEPAXI@Z 0041b520 f i DXFshape.obj
 0001:0001a520       ??_G?$CSortArray@VCObArray@@PAVCDXFworkingOutline@@@@UAEPAXI@Z 0041b520 f i DXFshape.obj
 0001:0001a520       ??_G?$CSortArray@VCObArray@@PAVCDXFdata@@@@UAEPAXI@Z 0041b520 f i TH_MakeLathe.obj
 0001:0001a520       ??_E?$CTypedPtrArrayEx@VCObArray@@PAVCDXFtext@@@@UAEPAXI@Z 0041b520 f i * CIL library *:* CIL module *
 0001:0001a560       ??1CDXFDoc@@UAE@XZ         0041b560 f   DXFDoc.obj
 0001:0001a6e0       ?RemoveData@CDXFDoc@@AAEXPAVCLayerData@@H@Z 0041b6e0 f   DXFDoc.obj
 0001:0001a840       ?DataOperation@CDXFDoc@@QAEXPAVCDXFdata@@W4ENDXFOPERATION@@H@Z 0041b840 f   DXFDoc.obj
 0001:0001a9d0       ?AddLayerMap@CDXFDoc@@QAEPAVCLayerData@@ABV?$CStringT@DV?$StrTraitMFC_DLL@DV?$ChTraitsCRT@D@ATL@@@@@ATL@@H@Z 0041b9d0 f   DXFDoc.obj
 0001:0001aba0       ?CheckDuplexFile@CDXFDoc@@QAE?AV?$CStringT@DV?$StrTraitMFC_DLL@DV?$ChTraitsCRT@D@ATL@@@@@ATL@@ABV23@PBV?$CSortArray@VCObArray@@PAVCLayerData@@@@@Z 0041bba0 f   DXFDoc.obj
 0001:0001adc0       ?ReadLayerMap@CDXFDoc@@QAEHPBD@Z 0041bdc0 f   DXFDoc.obj
 0001:0001b010       ?SaveLayerMap@CDXFDoc@@QAEHPBDPBV?$CSortArray@VCObArray@@PAVCLayerData@@@@@Z 0041c010 f   DXFDoc.obj
 0001:0001b1e0       ?AllChangeFactor@CDXFDoc@@QAEXM@Z 0041c1e0 f   DXFDoc.obj
 0001:0001b390       ?AllSetDxfFlg@CDXFDoc@@QAEXKH@Z 0041c390 f   DXFDoc.obj
 0001:0001b470       ?AllRoundObjPoint@CDXFDoc@@QAEXM@Z 0041c470 f   DXFDoc.obj
 0001:0001b750       ?CreateCutterOrigin@CDXFDoc@@QAEXABV?$CPointT@M@@MH@Z 0041c750 f   DXFDoc.obj
 0001:0001b870       ?CreateLatheLine@CDXFDoc@@QAEXABV?$CPointT@M@@0@Z 0041c870 f   DXFDoc.obj
 0001:0001b9b0       ?CreateLatheLine@CDXFDoc@@QAEXPBVCDXFline@@PBUDXFBLOCK@@@Z 0041c9b0 f   DXFDoc.obj
 0001:0001bad0       ?GetEditOrgPoint@CDXFDoc@@AAEHPBDAAV?$CPointT@M@@@Z 0041cad0 f   DXFDoc.obj
 0001:0001bd30       ?GetSelectObject@CDXFDoc@@QAE?AV?$tuple@PAVCDXFshape@@PAVCDXFdata@@MUnull_type@tuples@boost@@U345@U345@U345@U345@U345@U345@@tuples@boost@@ABV?$CPointT@M@@ABV?$CRectT@M@@@Z 0041cd30 f   DXFDoc.obj
 0001:0001bed0       ?MakeDXF_Sub@@YAXPBVCDXFDoc@@ABV?$CPointT@M@@AAV?$CTypedPtrArrayEx@VCPtrArray@@PAVCDXFMake@@@@@Z 0041ced0 f   DXFDoc.obj
 0001:0001c030       ?MakeDXF@CDXFDoc@@AAEXABV?$CStringT@DV?$StrTraitMFC_DLL@DV?$ChTraitsCRT@D@ATL@@@@@ATL@@@Z 0041d030 f   DXFDoc.obj
 0001:0001c4e0       ??1CDXFMakeOption@@QAE@XZ  0041d4e0 f i DXFDoc.obj
 0001:0001c530       ?OnCmdMsg@CDXFDoc@@UAEHIHPAXPAUAFX_CMDHANDLERINFO@@@Z 0041d530 f   DXFDoc.obj
 0001:0001c560       ?OnNewDocument@CDXFDoc@@UAEHXZ 0041d560 f   DXFDoc.obj
 0001:0001c670       ?OnOpenDocument@CDXFDoc@@UAEHPBD@Z 0041d670 f   DXFDoc.obj
 0001:0001cb00       ?OnSaveDocument@CDXFDoc@@UAEHPBD@Z 0041db00 f   DXFDoc.obj
 0001:0001cbc0       ?OnCloseDocument@CDXFDoc@@UAEXXZ 0041dbc0 f   DXFDoc.obj
 0001:0001cc60       ?SaveModified@CDXFDoc@@UAEHXZ 0041dc60 f   DXFDoc.obj
 0001:0001cdd0       ?UpdateFrameCounts@CDXFDoc@@UAEXXZ 0041ddd0 f   DXFDoc.obj
 0001:0001ce20       ?Serialize@CDXFDoc@@UAEXAAVCArchive@@@Z 0041de20 f   DXFDoc.obj
 0001:0001e6e0       ?OnEditOrigin@CDXFDoc@@IAEXXZ 0041f6e0 f   DXFDoc.obj
 0001:0001ea10       ??1CDxfEditOrgDlg@@UAE@XZ  0041fa10 f i DXFDoc.obj
 0001:0001ea60       ?OnUpdateEditShape@CDXFDoc@@IAEXPAVCCmdUI@@@Z 0041fa60 f   DXFDoc.obj
 0001:0001ea90       ?OnEditShape@CDXFDoc@@IAEXXZ 0041fa90 f   DXFDoc.obj
 0001:0001eb70       ??1CThreadDlg@@UAE@XZ      0041fb70 f i DXFDoc.obj
 0001:0001eba0       ?OnEditAuto@CDXFDoc@@IAEXI@Z 0041fba0 f   DXFDoc.obj
 0001:0001ef10       ?OnEditStrictOffset@CDXFDoc@@IAEXXZ 0041ff10 f   DXFDoc.obj
 0001:0001efd0       ?OnUpdateEditShaping@CDXFDoc@@IAEXPAVCCmdUI@@@Z 0041ffd0 f   DXFDoc.obj
 0001:0001eff0       ?OnUpdateShapePattern@CDXFDoc@@IAEXPAVCCmdUI@@@Z 0041fff0 f   DXFDoc.obj
 0001:0001f040       ?OnShapePattern@CDXFDoc@@IAEXI@Z 00420040 f   DXFDoc.obj
 0001:0001f080       ?OnFileDXF2DXF@CDXFDoc@@IAEXXZ 00420080 f   DXFDoc.obj
 0001:0001f350       ?OnUpdateFileDXF2NCD@CDXFDoc@@IAEXPAVCCmdUI@@@Z 00420350 f   DXFDoc.obj
 0001:0001f450       ?OnFileDXF2NCD@CDXFDoc@@IAEXI@Z 00420450 f   DXFDoc.obj
 0001:0001fe30       ??1CMakeNCDlgEx@@UAE@XZ    00420e30 f i DXFDoc.obj
 0001:0001fe90       ??1CMakeNCDlg@@UAE@XZ      00420e90 f i DXFDoc.obj
 0001:0001ff00       ??1CMakeNCDlgEx2@@UAE@XZ   00420f00 f i DXFDoc.obj
 0001:0001ffe0       ??1CMakeNCDlgEx3@@UAE@XZ   00420fe0 f i DXFDoc.obj
 0001:00020000       ?OnFileSave@CDXFDoc@@IAEXXZ 00421000 f   DXFDoc.obj
 0001:000200d0       ?OnFileSaveAs@CDXFDoc@@IAEXXZ 004210d0 f   DXFDoc.obj
 0001:00020290       ?RestoreCircleTypeThread@CDXFDoc@@CAIPAX@Z 00421290 f   DXFDoc.obj
 0001:000209d0       ??_E?$CTypedPtrMap@VCMapStringToOb@@V?$CStringT@DV?$StrTraitMFC_DLL@DV?$ChTraitsCRT@D@ATL@@@@@ATL@@PAVCLayerData@@@@UAEPAXI@Z 004219d0 f i * CIL library *:* CIL module *
 0001:000209d0       ??_G?$CTypedPtrMap@VCMapStringToOb@@V?$CStringT@DV?$StrTraitMFC_DLL@DV?$ChTraitsCRT@D@ATL@@@@@ATL@@PAVCLayerData@@@@UAEPAXI@Z 004219d0 f i DXFDoc.obj
 0001:00020a10       ?QSort@?$CSortArray@VCPtrArray@@PAUTHUMBNAILINFO@@@@AAEXP6AHPAUTHUMBNAILINFO@@0@ZHH@Z 00421a10 f i ThumbnailDlg.obj
 0001:00020a10       ?QSort@?$CSortArray@VCPtrArray@@PAUCADBINDINFO@@@@AAEXP6AHPAUCADBINDINFO@@0@ZHH@Z 00421a10 f i DXFDoc.obj
 0001:00020a10       ?QSort@?$CSortArray@VCObArray@@PAVCDXFshape@@@@AAEXP6AHPAVCDXFshape@@0@ZHH@Z 00421a10 f i Layer.obj
 0001:00020a10       ?QSort@?$CSortArray@VCObArray@@PAVCDXFdata@@@@AAEXP6AHPAVCDXFdata@@0@ZHH@Z 00421a10 f i TH_MakeLathe.obj
 0001:00020a10       ?QSort@?$CSortArray@VCObArray@@PAVCLayerData@@@@AAEXP6AHPAVCLayerData@@0@ZHH@Z 00421a10 f i DXFDoc.obj
 0001:00020ad0       ??$trim_copy_if@V?$basic_string@DU?$char_traits@D@std@@V?$allocator@D@2@@std@@Uis_classifiedF@detail@algorithm@boost@@@algorithm@boost@@YA?AV?$basic_string@DU?$char_traits@D@std@@V?$allocator@D@2@@std@@ABV23@Uis_classifiedF@detail@01@@Z 00421ad0 f i DXFDoc.obj
 0001:00020c90       ??_GCDocumentAdapter@CDocument@@UAEPAXI@Z 00421c90 f i DXFDoc.obj
 0001:00020c90       ??_ECDocumentAdapter@CDocument@@UAEPAXI@Z 00421c90 f i * CIL library *:* CIL module *
 0001:00020cd0       ??_GIDocument@ATL@@UAEPAXI@Z 00421cd0 f i DXFDoc.obj
 0001:00020cd0       ??_EIDocument@ATL@@UAEPAXI@Z 00421cd0 f i * CIL library *:* CIL module *
 0001:00020d00       ?Release@IDocument@ATL@@UAEJXZ 00421d00 f i DXFDoc.obj
 0001:00020d20       ?LoadFromStream@CDocumentAdapter@CDocument@@UAEJPAUIStream@@K@Z 00421d20 f i DXFDoc.obj
 0001:00020d70       ?InitializeSearchContent@CDocumentAdapter@CDocument@@UAEXXZ 00421d70 f i DXFDoc.obj
 0001:00020d80       ?BeginReadChunks@CDocumentAdapter@CDocument@@UAEXXZ 00421d80 f i DXFDoc.obj
 0001:00020d90       ?GetThumbnail@CDocumentAdapter@CDocument@@UAEHIPAPAUHBITMAP__@@PAW4WTS_ALPHATYPE@@@Z 00421d90 f i DXFDoc.obj
 0001:00020db0       ?ClearChunkList@CDocumentAdapter@CDocument@@UAEXXZ 00421db0 f i DXFDoc.obj
 0001:00020dc0       ?SetChunkValue@CDocumentAdapter@CDocument@@UAEHPAUIFilterChunkValue@ATL@@@Z 00421dc0 f i DXFDoc.obj
 0001:00020de0       ?ReadNextChunkValue@CDocumentAdapter@CDocument@@UAEHPAPAUIFilterChunkValue@ATL@@@Z 00421de0 f i DXFDoc.obj
 0001:00020e00       ?RemoveChunk@CDocumentAdapter@CDocument@@UAEXABU_GUID@@K@Z 00421e00 f i DXFDoc.obj
 0001:00020e20       ?FindChunk@CDocumentAdapter@CDocument@@UAEPAU__POSITION@@ABU_GUID@@K@Z 00421e20 f i DXFDoc.obj
 0001:00020e40       ?AddRef@IDocument@ATL@@UAEJXZ 00421e40 f i DXFDoc.obj
 0001:00020e50       ?GetAdapter@CDocument@@UAEPAUIDocument@ATL@@XZ 00421e50 f i DXFDoc.obj
 0001:00020f20       ??$use_facet@V?$ctype@D@std@@@std@@YAABV?$ctype@D@0@ABVlocale@0@@Z 00421f20 f i DXFDoc.obj
 0001:00021010       ??1is_classifiedF@detail@algorithm@boost@@QAE@XZ 00422010 f i DXFDoc.obj
 0001:00021030       ?IsModified@CDocument@@UAEHXZ 00422030 f i DXFDoc.obj
 0001:00021040       ??1CWaitCursor@@QAE@XZ     00422040 f i DXFDoc.obj
 0001:00021150       ??1CCriticalSection@@UAE@XZ 00422150 f i DXFDoc.obj
 0001:00021170       ??_ECCriticalSection@@UAEPAXI@Z 00422170 f i * CIL library *:* CIL module *
 0001:00021170       ??_GCCriticalSection@@UAEPAXI@Z 00422170 f i DXFDoc.obj
 0001:000211c0       ?Lock@CCriticalSection@@UAEHK@Z 004221c0 f i DXFDoc.obj
 0001:000211e0       ?Unlock@CSyncObject@@UAEHJPAJ@Z 004221e0 f i DXFDoc.obj
 0001:000211f0       ?Unlock@CCriticalSection@@UAEHXZ 004221f0 f i DXFDoc.obj
 0001:00021200       ??0CCriticalSection@@QAE@XZ 00422200 f i DXFDoc.obj
 0001:00021280       ?GetMessageMap@CDxfEditOrgDlg@@MBEPBUAFX_MSGMAP@@XZ 00422280 f   DxfEditOrgDlg.obj
 0001:00021290       ??_ECDxfEditOrgDlg@@UAEPAXI@Z 00422290 f i * CIL library *:* CIL module *
 0001:00021290       ??_GCDxfEditOrgDlg@@UAEPAXI@Z 00422290 f i DxfEditOrgDlg.obj
 0001:00021310       ?DoDataExchange@CDxfEditOrgDlg@@MAEXPAVCDataExchange@@@Z 00422310 f   DxfEditOrgDlg.obj
 0001:000213a0       ?OnInitDialog@CDxfEditOrgDlg@@MAEHXZ 004223a0 f   DxfEditOrgDlg.obj
 0001:00021420       ?OnSelect@CDxfEditOrgDlg@@IAEXXZ 00422420 f   DxfEditOrgDlg.obj
 0001:00021480       ?OnOK@CDxfEditOrgDlg@@MAEXXZ 00422480 f   DxfEditOrgDlg.obj
 0001:000228d0       ??0CDXFMake@@QAE@W4enSECNAME@@PBVCDocBase@@@Z 004238d0 f   DXFMakeClass.obj
 0001:00022ae0       ??0CDXFMake@@QAE@PBVCDXFdata@@ABV?$CPointT@M@@@Z 00423ae0 f   DXFMakeClass.obj
 0001:00022e80       ??0CDXFMake@@QAE@ABV?$CPoint3T@M@@M@Z 00423e80 f   DXFMakeClass.obj
 0001:00023460       ??0CDXFMake@@QAE@ABV?$CRectT@M@@@Z 00424460 f   DXFMakeClass.obj
 0001:000236b0       ?MakeSection_Header@CDXFMake@@AAEXPBVCDocBase@@@Z 004246b0 f   DXFMakeClass.obj
 0001:00024180       ?MakeSection_Tables@CDXFMake@@AAEXPBVCDocBase@@@Z 00425180 f   DXFMakeClass.obj
 0001:00026360       ??1TABLELAYERINFO@@QAE@XZ  00427360 f i DXFMakeClass.obj
 0001:00026380       ?MakeSection_TableLayer_NCD@CDXFMake@@AAEXAAV?$vector@UTABLELAYERINFO@@V?$allocator@UTABLELAYERINFO@@@std@@@std@@@Z 00427380 f   DXFMakeClass.obj
 0001:00026560       ?MakeSection_TableLayer_DXF@CDXFMake@@AAEXAAV?$vector@UTABLELAYERINFO@@V?$allocator@UTABLELAYERINFO@@@std@@@std@@PBVCDXFDoc@@@Z 00427560 f   DXFMakeClass.obj
 0001:00026790       ?MakeDXF_Figure@CDXFMake@@AAE?AV?$CStringT@DV?$StrTraitMFC_DLL@DV?$ChTraitsCRT@D@ATL@@@@@ATL@@HH@Z 00427790 f   DXFMakeClass.obj
 0001:000269d0       ?MakeValueCycle@CDXFMake@@AAE?AV?$CStringT@DV?$StrTraitMFC_DLL@DV?$ChTraitsCRT@D@ATL@@@@@ATL@@PBVCNCcycle@@HHW4ENPLANE@@@Z 004279d0 f   DXFMakeClass.obj
 0001:00027840       ?MakeDXF_NCtoLine@CDXFMake@@AAEXPBVCNCline@@H@Z 00428840 f   DXFMakeClass.obj
 0001:00027e10       ?MakeDXF_NCtoArc@CDXFMake@@AAEXPBVCNCcircle@@H@Z 00428e10 f   DXFMakeClass.obj
 0001:00028070       ?MakeDXF_NCtoCycle@CDXFMake@@AAEXPBVCNCcycle@@@Z 00429070 f   DXFMakeClass.obj
 0001:00028380       ?MakeValueCycle_XY_Circle@CDXFMake@@AAE?AV?$CStringT@DV?$StrTraitMFC_DLL@DV?$ChTraitsCRT@D@ATL@@@@@ATL@@PBVCNCcycle@@H@Z 00429380 f   DXFMakeClass.obj
 0001:000283a0       ?MakeValueCycle_XZ_Circle@CDXFMake@@AAE?AV?$CStringT@DV?$StrTraitMFC_DLL@DV?$ChTraitsCRT@D@ATL@@@@@ATL@@PBVCNCcycle@@H@Z 004293a0 f   DXFMakeClass.obj
 0001:000283c0       ?MakeValueCycle_YZ_Circle@CDXFMake@@AAE?AV?$CStringT@DV?$StrTraitMFC_DLL@DV?$ChTraitsCRT@D@ATL@@@@@ATL@@PBVCNCcycle@@H@Z 004293c0 f   DXFMakeClass.obj
 0001:000283e0       ?MakeValueCycle_XY_Point@CDXFMake@@AAE?AV?$CStringT@DV?$StrTraitMFC_DLL@DV?$ChTraitsCRT@D@ATL@@@@@ATL@@PBVCNCcycle@@H@Z 004293e0 f   DXFMakeClass.obj
 0001:00028400       ?MakeValueCycle_XZ_Point@CDXFMake@@AAE?AV?$CStringT@DV?$StrTraitMFC_DLL@DV?$ChTraitsCRT@D@ATL@@@@@ATL@@PBVCNCcycle@@H@Z 00429400 f   DXFMakeClass.obj
 0001:00028420       ?MakeValueCycle_YZ_Point@CDXFMake@@AAE?AV?$CStringT@DV?$StrTraitMFC_DLL@DV?$ChTraitsCRT@D@ATL@@@@@ATL@@PBVCNCcycle@@H@Z 00429420 f   DXFMakeClass.obj
 0001:00028440       ?MakeDXF_PolylineDismantle@CDXFMake@@AAEXPBVCDXFpolyline@@ABV?$CPointT@M@@@Z 00429440 f   DXFMakeClass.obj
 0001:00028820       ?SetStaticOption@CDXFMake@@SAXPBVCDXFMakeOption@@@Z 00429820 f   DXFMakeClass.obj
 0001:000288c0       ?InitialColorIndex@@YAXXZ  004298c0 f   DXFMakeClass.obj
 0001:000298c0       ??1?$vector@UTABLELAYERINFO@@V?$allocator@UTABLELAYERINFO@@@std@@@std@@QAE@XZ 0042a8c0 f i DXFMakeClass.obj
 0001:00029950       ?GetYZ@?$CPoint3T@M@@QBE?AV?$CPointT@M@@XZ 0042a950 f i DXFMakeClass.obj
 0001:00029970       ?GetXZ@?$CPoint3T@M@@QBE?AV?$CPointT@M@@XZ 0042a970 f i DXFMakeClass.obj
 0001:00029990       ?deallocate@?$allocator@UTABLELAYERINFO@@@std@@QAEXQAUTABLELAYERINFO@@I@Z 0042a990 f i DXFMakeClass.obj
 0001:00029990       ?deallocate@?$allocator@V?$vector@IV?$allocator@I@std@@@std@@@std@@QAEXQAV?$vector@IV?$allocator@I@std@@@2@I@Z 0042a990 f i NCViewGL.obj
 0001:00029990       ?deallocate@?$allocator@V?$vector@V?$CPointT@M@@V?$allocator@V?$CPointT@M@@@std@@@std@@@std@@QAEXQAV?$vector@V?$CPointT@M@@V?$allocator@V?$CPointT@M@@@std@@@2@I@Z 0042a990 f i DXFView.obj
 0001:000299d0       ??$_Emplace_reallocate@UTABLELAYERINFO@@@?$vector@UTABLELAYERINFO@@V?$allocator@UTABLELAYERINFO@@@std@@@std@@QAEPAUTABLELAYERINFO@@QAU2@$$QAU2@@Z 0042a9d0 f i DXFMakeClass.obj
 0001:00029c80       ??$_Destroy_range@V?$allocator@UTABLELAYERINFO@@@std@@@std@@YAXPAUTABLELAYERINFO@@QAU1@AAV?$allocator@UTABLELAYERINFO@@@0@@Z 0042ac80 f i DXFMakeClass.obj
 0001:00029cb0       ??$_Uninitialized_move@PAUTABLELAYERINFO@@V?$allocator@UTABLELAYERINFO@@@std@@@std@@YAPAUTABLELAYERINFO@@QAU1@0PAU1@AAV?$allocator@UTABLELAYERINFO@@@0@@Z 0042acb0 f i DXFMakeClass.obj
 0001:00029d40       ??1?$_Uninitialized_backout_al@V?$allocator@UTABLELAYERINFO@@@std@@@std@@QAE@XZ 0042ad40 f i DXFMakeClass.obj
 0001:00029d70       ??$_Sort_unchecked@PAUINDEXCOLOR@@U?$less@X@std@@@std@@YAXPAUINDEXCOLOR@@0HU?$less@X@0@@Z 0042ad70 f i DXFMakeClass.obj
 0001:00029fc0       ??$_Partition_by_median_guess_unchecked@PAUINDEXCOLOR@@U?$less@X@std@@@std@@YA?AU?$pair@PAUINDEXCOLOR@@PAU1@@0@PAUINDEXCOLOR@@0U?$less@X@0@@Z 0042afc0 f i DXFMakeClass.obj
 0001:0002a270       ??$_Pop_heap_hole_by_index@PAUINDEXCOLOR@@U1@U?$less@X@std@@@std@@YAXPAUINDEXCOLOR@@HH$$QAU1@U?$less@X@0@@Z 0042b270 f i DXFMakeClass.obj
 0001:0002a370       ??$_Med3_unchecked@PAUINDEXCOLOR@@U?$less@X@std@@@std@@YAXPAUINDEXCOLOR@@00U?$less@X@0@@Z 0042b370 f i DXFMakeClass.obj
 0001:0002a400       _tanf                      0042b400 f i DXFMakeClass.obj
 0001:0002a420       ??0CDXFMakeOption@@QAE@H@Z 0042b420 f   DXFMakeOption.obj
 0001:0002a520       ?Initialize_Registry@CDXFMakeOption@@AAEXXZ 0042b520 f   DXFMakeOption.obj
 0001:0002a7d0       ??0CDXFOption@@QAE@XZ      0042b7d0 f   DXFOption.obj
 0001:0002ad00       ??_FCStringList@@QAEXXZ    0042bd00 f i DXFOption.obj
 0001:0002ad10       ?ReadInitHistory@CDXFOption@@AAEHW4enMAKETYPE@@@Z 0042bd10 f   DXFOption.obj
 0001:0002af50       ?AddListHistory@CDXFOption@@AAEHW4enMAKETYPE@@PBD@Z 0042bf50 f   DXFOption.obj
 0001:0002b070       ?DelInitHistory@CDXFOption@@QAEXW4enMAKETYPE@@PBD@Z 0042c070 f   DXFOption.obj
 0001:0002b0d0       ?GetIgnoreStr@CDXFOption@@QBE?AV?$CStringT@DV?$StrTraitMFC_DLL@DV?$ChTraitsCRT@D@ATL@@@@@ATL@@XZ 0042c0d0 f   DXFOption.obj
 0001:0002b1d0       ?SetIgnoreArray@CDXFOption@@QAEXABV?$CStringT@DV?$StrTraitMFC_DLL@DV?$ChTraitsCRT@D@ATL@@@@@ATL@@@Z 0042c1d0 f   DXFOption.obj
 0001:0002b630       ??1?$no_case_literal_string@QBD$0A@@qi@spirit@boost@@QAE@XZ 0042c630 f i TH_NCRead.obj
 0001:0002b630       ??1?$no_case_literal_string@AAY02$$CBD$00@qi@spirit@boost@@QAE@XZ 0042c630 f i TH_NCRead.obj
 0001:0002b630       ??1?$char_separator@DU?$char_traits@D@std@@@boost@@QAE@XZ 0042c630 f i DXFOption.obj
 0001:0002b630       ??1?$no_case_literal_string@QBD$00@qi@spirit@boost@@QAE@XZ 0042c630 f i TH_NCRead.obj
 0001:0002b6c0       ??1?$tokenizer@V?$char_separator@DU?$char_traits@D@std@@@boost@@V?$_String_const_iterator@V?$_String_val@U?$_Simple_types@D@std@@@std@@@std@@V?$basic_string@DU?$char_traits@D@std@@V?$allocator@D@2@@4@@boost@@QAE@XZ 0042c6c0 f i DXFOption.obj
 0001:0002b6d0       ??1?$auto_any@V?$token_iterator@V?$char_separator@DU?$char_traits@D@std@@@boost@@V?$_String_const_iterator@V?$_String_val@U?$_Simple_types@D@std@@@std@@@std@@V?$basic_string@DU?$char_traits@D@std@@V?$allocator@D@2@@4@@boost@@@foreach_detail_@boost@@QAE@XZ 0042c6d0 f i DXFOption.obj
 0001:0002b6d0       ??1?$token_iterator@V?$char_separator@DU?$char_traits@D@std@@@boost@@V?$_String_const_iterator@V?$_String_val@U?$_Simple_types@D@std@@@std@@@std@@V?$basic_string@DU?$char_traits@D@std@@V?$allocator@D@2@@4@@boost@@QAE@XZ 0042c6d0 f i DXFOption.obj
 0001:0002b730       ?SaveDXFoption@CDXFOption@@QAEHXZ 0042c730 f   DXFOption.obj
 0001:0002b8e0       ?SaveBindOption@CDXFOption@@QAEHXZ 0042c8e0 f   DXFOption.obj
 0001:0002bb20       ??1?$regex_iterator@V?$_String_const_iterator@V?$_String_val@U?$_Simple_types@D@std@@@std@@@std@@DU?$regex_traits@DV?$w32_regex_traits@D@boost@@@boost@@@boost@@QAE@XZ 0042cb20 f i NCDoc.obj
 0001:0002bb20       ??1?$basic_regex@DU?$regex_traits@DV?$w32_regex_traits@D@boost@@@boost@@@boost@@QAE@XZ 0042cb20 f i DXFOption.obj
 0001:0002bb20       ??1?$shared_ptr@$$CBV?$w32_regex_traits_implementation@D@re_detail_500@boost@@@std@@QAE@XZ 0042cb20 f i DXFOption.obj
 0001:0002bb20       ??1?$shared_ptr@V?$regex_iterator_implementation@V?$_String_const_iterator@V?$_String_val@U?$_Simple_types@D@std@@@std@@@std@@DU?$regex_traits@DV?$w32_regex_traits@D@boost@@@boost@@@boost@@@std@@QAE@XZ 0042cb20 f i NCDoc.obj
 0001:0002bb20       ??1?$shared_ptr@V?$basic_regex_implementation@DU?$regex_traits@DV?$w32_regex_traits@D@boost@@@boost@@@re_detail_500@boost@@@std@@QAE@XZ 0042cb20 f i DXFOption.obj
 0001:0002bb20       ??1?$shared_ptr@X@std@@QAE@XZ 0042cb20 f i DXFOption.obj
 0001:0002bb20       ??1?$pair@V?$shared_ptr@$$CBV?$w32_regex_traits_implementation@D@re_detail_500@boost@@@std@@PBK@std@@QAE@XZ 0042cb20 f i DXFOption.obj
 0001:0002bb50       ??4?$basic_string@DU?$char_traits@D@std@@V?$allocator@D@2@@std@@QAEAAV01@ABV01@@Z 0042cb50 f i DXFOption.obj
 0001:0002bb80       ?do_assign@?$basic_regex@DU?$regex_traits@DV?$w32_regex_traits@D@boost@@@boost@@@boost@@AAEAAV12@PBD0I@Z 0042cb80 f i DXFOption.obj
 0001:0002bf50       ??$begin@V?$tokenizer@V?$char_separator@DU?$char_traits@D@std@@@boost@@V?$_String_const_iterator@V?$_String_val@U?$_Simple_types@D@std@@@std@@@std@@V?$basic_string@DU?$char_traits@D@std@@V?$allocator@D@2@@4@@boost@@U?$bool_@$0A@@mpl@2@@foreach_detail_@boost@@YA?AU?$auto_any@V?$token_iterator@V?$char_separator@DU?$char_traits@D@std@@@boost@@V?$_String_const_iterator@V?$_String_val@U?$_Simple_types@D@std@@@std@@@std@@V?$basic_string@DU?$char_traits@D@std@@V?$allocator@D@2@@4@@boost@@@01@ABUauto_any_base@01@PAU?$type2type@V?$tokenizer@V?$char_separator@DU?$char_traits@D@std@@@boost@@V?$_String_const_iterator@V?$_String_val@U?$_Simple_types@D@std@@@std@@@std@@V?$basic_string@DU?$char_traits@D@std@@V?$allocator@D@2@@4@@boost@@U?$bool_@$0A@@mpl@2@@01@PAU?$bool_@$0A@@mpl@1@@Z 0042cf50 f i DXFOption.obj
 0001:0002c060       ??$end@V?$tokenizer@V?$char_separator@DU?$char_traits@D@std@@@boost@@V?$_String_const_iterator@V?$_String_val@U?$_Simple_types@D@std@@@std@@@std@@V?$basic_string@DU?$char_traits@D@std@@V?$allocator@D@2@@4@@boost@@U?$bool_@$0A@@mpl@2@@foreach_detail_@boost@@YA?AU?$auto_any@V?$token_iterator@V?$char_separator@DU?$char_traits@D@std@@@boost@@V?$_String_const_iterator@V?$_String_val@U?$_Simple_types@D@std@@@std@@@std@@V?$basic_string@DU?$char_traits@D@std@@V?$allocator@D@2@@4@@boost@@@01@ABUauto_any_base@01@PAU?$type2type@V?$tokenizer@V?$char_separator@DU?$char_traits@D@std@@@boost@@V?$_String_const_iterator@V?$_String_val@U?$_Simple_types@D@std@@@std@@@std@@V?$basic_string@DU?$char_traits@D@std@@V?$allocator@D@2@@4@@boost@@U?$bool_@$0A@@mpl@2@@01@PAU?$bool_@$0A@@mpl@1@@Z 0042d060 f i DXFOption.obj
 0001:0002c170       ??1?$basic_regex_parser@DU?$regex_traits@DV?$w32_regex_traits@D@boost@@@boost@@@re_detail_500@boost@@QAE@XZ 0042d170 f i DXFOption.obj
 0001:0002c190       ??1?$basic_regex_creator@DU?$regex_traits@DV?$w32_regex_traits@D@boost@@@boost@@@re_detail_500@boost@@QAE@XZ 0042d190 f i DXFOption.obj
 0001:0002c1f0       ??1?$vector@V?$CPointT@M@@V?$allocator@V?$CPointT@M@@@std@@@std@@QAE@XZ 0042d1f0 f i DXFshape.obj
 0001:0002c1f0       ??1named_subexpressions@re_detail_500@boost@@QAE@XZ 0042d1f0 f i DXFOption.obj
 0001:0002c200       ??0?$regex_data@DU?$regex_traits@DV?$w32_regex_traits@D@boost@@@boost@@@re_detail_500@boost@@QAE@XZ 0042d200 f i DXFOption.obj
 0001:0002c410       ?_Tidy@?$vector@MV?$allocator@M@std@@@std@@AAEXXZ 0042d410 f i NCdataGL.obj
 0001:0002c410       ??1?$vector@PAU__POSITION@@V?$allocator@PAU__POSITION@@@std@@@std@@QAE@XZ 0042d410 f i DXFshape.obj
 0001:0002c410       ?_Tidy@?$vector@IV?$allocator@I@std@@@std@@AAEXXZ 0042d410 f i DXFshape.obj
 0001:0002c410       ??1?$vector@JV?$allocator@J@std@@@std@@QAE@XZ 0042d410 f i DXFOption.obj
 0001:0002c410       ??1?$vector@PAUCREATEBOTTOMVERTEXPARAM@@V?$allocator@PAUCREATEBOTTOMVERTEXPARAM@@@std@@@std@@QAE@XZ 0042d410 f i NCViewGL_Mill.obj
 0001:0002c410       ??1?$vector@PAXV?$allocator@PAX@std@@@std@@QAE@XZ 0042d410 f i NCViewGL_Mill.obj
 0001:0002c470       ??1?$vector@U?$pair@_NPAUre_syntax_base@re_detail_500@boost@@@std@@V?$allocator@U?$pair@_NPAUre_syntax_base@re_detail_500@boost@@@std@@@2@@std@@QAE@XZ 0042d470 f i DXFOption.obj
 0001:0002c470       ??1?$vector@U?$pair@II@std@@V?$allocator@U?$pair@II@std@@@2@@std@@QAE@XZ 0042d470 f i DXFOption.obj
 0001:0002c470       ??1?$vector@Uname@named_subexpressions@re_detail_500@boost@@V?$allocator@Uname@named_subexpressions@re_detail_500@boost@@@std@@@std@@QAE@XZ 0042d470 f i DXFOption.obj
 0001:0002c470       ?_Tidy@?$vector@V?$CPointT@M@@V?$allocator@V?$CPointT@M@@@std@@@std@@AAEXXZ 0042d470 f i DXFshape.obj
 0001:0002c4d0       ??$?0V?$basic_regex_implementation@DU?$regex_traits@DV?$w32_regex_traits@D@boost@@@boost@@@re_detail_500@boost@@$0A@@?$shared_ptr@V?$basic_regex_implementation@DU?$regex_traits@DV?$w32_regex_traits@D@boost@@@boost@@@re_detail_500@boost@@@std@@QAE@PAV?$basic_regex_implementation@DU?$regex_traits@DV?$w32_regex_traits@D@boost@@@boost@@@re_detail_500@boost@@@Z 0042d4d0 f i DXFOption.obj
 0001:0002c570       ?parse@?$basic_regex_parser@DU?$regex_traits@DV?$w32_regex_traits@D@boost@@@boost@@@re_detail_500@boost@@QAEXPBD0I@Z 0042d570 f i DXFOption.obj
 0001:0002c850       ?_Delete_this@?$_Ref_count_resource@PAUHINSTANCE__@@P6AXPAX@Z@std@@EAEXXZ 0042d850 f i DXFOption.obj
 0001:0002c850       ?_Delete_this@?$_Ref_count@V?$w32_regex_traits_implementation@D@re_detail_500@boost@@@std@@EAEXXZ 0042d850 f i DXFOption.obj
 0001:0002c850       ?_Delete_this@?$_Ref_count@V?$regex_iterator_implementation@V?$_String_const_iterator@V?$_String_val@U?$_Simple_types@D@std@@@std@@@std@@DU?$regex_traits@DV?$w32_regex_traits@D@boost@@@boost@@@boost@@@std@@EAEXXZ 0042d850 f i NCDoc.obj
 0001:0002c850       ?_Delete_this@?$_Ref_count@U?$regex_traits_wrapper@U?$regex_traits@DV?$w32_regex_traits@D@boost@@@boost@@@boost@@@std@@EAEXXZ 0042d850 f i DXFOption.obj
 0001:0002c850       ?_Delete_this@?$_Ref_count@V?$basic_regex_implementation@DU?$regex_traits@DV?$w32_regex_traits@D@boost@@@boost@@@re_detail_500@boost@@@std@@EAEXXZ 0042d850 f i DXFOption.obj
 0001:0002c860       ?_Destroy@?$_Ref_count@U?$regex_traits_wrapper@U?$regex_traits@DV?$w32_regex_traits@D@boost@@@boost@@@boost@@@std@@EAEXXZ 0042d860 f i DXFOption.obj
 0001:0002c8b0       ??1?$_Temporary_owner@U?$regex_traits_wrapper@U?$regex_traits@DV?$w32_regex_traits@D@boost@@@boost@@@boost@@@std@@QAE@XZ 0042d8b0 f i DXFOption.obj
 0001:0002c8f0       ?_Destroy@?$_Ref_count@V?$basic_regex_implementation@DU?$regex_traits@DV?$w32_regex_traits@D@boost@@@boost@@@re_detail_500@boost@@@std@@EAEXXZ 0042d8f0 f i DXFOption.obj
 0001:0002c900       ??1?$_Temporary_owner@V?$basic_regex_implementation@DU?$regex_traits@DV?$w32_regex_traits@D@boost@@@boost@@@re_detail_500@boost@@@std@@QAE@XZ 0042d900 f i DXFOption.obj
 0001:0002c910       ??B?$integral_constant@_N$00@boost@@QBEABU?$bool_@$00@mpl@1@XZ 0042d910 f i DXFOption.obj
 0001:0002c920       ??_E?$_Ref_count@V?$basic_regex_implementation@DU?$regex_traits@DV?$w32_regex_traits@D@boost@@@boost@@@re_detail_500@boost@@@std@@UAEPAXI@Z 0042d920 f i * CIL library *:* CIL module *
 0001:0002c920       ??_G?$_Ref_count@V?$regex_iterator_implementation@V?$_String_const_iterator@V?$_String_val@U?$_Simple_types@D@std@@@std@@@std@@DU?$regex_traits@DV?$w32_regex_traits@D@boost@@@boost@@@boost@@@std@@UAEPAXI@Z 0042d920 f i NCDoc.obj
 0001:0002c920       ??_E?$_Ref_count@U?$regex_traits_wrapper@U?$regex_traits@DV?$w32_regex_traits@D@boost@@@boost@@@boost@@@std@@UAEPAXI@Z 0042d920 f i * CIL library *:* CIL module *
 0001:0002c920       ??_E?$_Ref_count@V?$w32_regex_traits_implementation@D@re_detail_500@boost@@@std@@UAEPAXI@Z 0042d920 f i * CIL library *:* CIL module *
 0001:0002c920       ??_G?$_Ref_count@V?$w32_regex_traits_implementation@D@re_detail_500@boost@@@std@@UAEPAXI@Z 0042d920 f i DXFOption.obj
 0001:0002c920       ??_G?$_Ref_count@V?$basic_regex_implementation@DU?$regex_traits@DV?$w32_regex_traits@D@boost@@@boost@@@re_detail_500@boost@@@std@@UAEPAXI@Z 0042d920 f i DXFOption.obj
 0001:0002c920       ??_E?$_Ref_count@V?$regex_iterator_implementation@V?$_String_const_iterator@V?$_String_val@U?$_Simple_types@D@std@@@std@@@std@@DU?$regex_traits@DV?$w32_regex_traits@D@boost@@@boost@@@boost@@@std@@UAEPAXI@Z 0042d920 f i * CIL library *:* CIL module *
 0001:0002c920       ??_G?$_Ref_count@U?$regex_traits_wrapper@U?$regex_traits@DV?$w32_regex_traits@D@boost@@@boost@@@boost@@@std@@UAEPAXI@Z 0042d920 f i DXFOption.obj
 0001:0002c940       ??_G?$basic_regex_implementation@DU?$regex_traits@DV?$w32_regex_traits@D@boost@@@boost@@@re_detail_500@boost@@QAEPAXI@Z 0042d940 f i DXFOption.obj
 0001:0002c9b0       ?fail@?$basic_regex_parser@DU?$regex_traits@DV?$w32_regex_traits@D@boost@@@boost@@@re_detail_500@boost@@QAEXW4error_type@regex_constants@3@HV?$basic_string@DU?$char_traits@D@std@@V?$allocator@D@2@@std@@H@Z 0042d9b0 f i DXFOption.obj
 0001:0002cc00       ?fail@?$basic_regex_parser@DU?$regex_traits@DV?$w32_regex_traits@D@boost@@@boost@@@re_detail_500@boost@@QAEXW4error_type@regex_constants@3@H@Z 0042dc00 f i DXFOption.obj
 0001:0002ccc0       ?parse_all@?$basic_regex_parser@DU?$regex_traits@DV?$w32_regex_traits@D@boost@@@boost@@@re_detail_500@boost@@QAE_NXZ 0042dcc0 f i DXFOption.obj
 0001:0002cdd0       ?parse_basic@?$basic_regex_parser@DU?$regex_traits@DV?$w32_regex_traits@D@boost@@@boost@@@re_detail_500@boost@@QAE_NXZ 0042ddd0 f i DXFOption.obj
 0001:0002cfc0       ?parse_extended@?$basic_regex_parser@DU?$regex_traits@DV?$w32_regex_traits@D@boost@@@boost@@@re_detail_500@boost@@QAE_NXZ 0042dfc0 f i DXFOption.obj
 0001:0002d3a0       ?parse_literal@?$basic_regex_parser@DU?$regex_traits@DV?$w32_regex_traits@D@boost@@@boost@@@re_detail_500@boost@@QAE_NXZ 0042e3a0 f i DXFOption.obj
 0001:0002d3f0       ?unwind_alts@?$basic_regex_parser@DU?$regex_traits@DV?$w32_regex_traits@D@boost@@@boost@@@re_detail_500@boost@@QAE_NH@Z 0042e3f0 f i DXFOption.obj
 0001:0002d5e0       ?append_state@?$basic_regex_creator@DU?$regex_traits@DV?$w32_regex_traits@D@boost@@@boost@@@re_detail_500@boost@@QAEPAUre_syntax_base@23@W4syntax_element_type@23@I@Z 0042e5e0 f i DXFOption.obj
 0001:0002d670       ?finalize@?$basic_regex_creator@DU?$regex_traits@DV?$w32_regex_traits@D@boost@@@boost@@@re_detail_500@boost@@QAEXPBD0@Z 0042e670 f i DXFOption.obj
 0001:0002d960       ??$trim_right_if@V?$basic_string@DU?$char_traits@D@std@@V?$allocator@D@2@@std@@Uis_classifiedF@detail@algorithm@boost@@@algorithm@boost@@YAXAAV?$basic_string@DU?$char_traits@D@std@@V?$allocator@D@2@@std@@Uis_classifiedF@detail@01@@Z 0042e960 f i DXFOption.obj
 0001:0002dac0       ??$trim_left_if@V?$basic_string@DU?$char_traits@D@std@@V?$allocator@D@2@@std@@Uis_classifiedF@detail@algorithm@boost@@@algorithm@boost@@YAXAAV?$basic_string@DU?$char_traits@D@std@@V?$allocator@D@2@@std@@Uis_classifiedF@detail@01@@Z 0042eac0 f i DXFOption.obj
 0001:0002dbe0       ??$?RV?$_String_const_iterator@V?$_String_val@U?$_Simple_types@D@std@@@std@@@std@@V?$basic_string@DU?$char_traits@D@std@@V?$allocator@D@2@@1@@?$char_separator@DU?$char_traits@D@std@@@boost@@QAE_NAAV?$_String_const_iterator@V?$_String_val@U?$_Simple_types@D@std@@@std@@@std@@V23@AAV?$basic_string@DU?$char_traits@D@std@@V?$allocator@D@2@@3@@Z 0042ebe0 f i DXFOption.obj
 0001:0002dd40       ?end@?$tokenizer@V?$char_separator@DU?$char_traits@D@std@@@boost@@V?$_String_const_iterator@V?$_String_val@U?$_Simple_types@D@std@@@std@@@std@@V?$basic_string@DU?$char_traits@D@std@@V?$allocator@D@2@@4@@boost@@QBE?AV?$token_iterator@V?$char_separator@DU?$char_traits@D@std@@@boost@@V?$_String_const_iterator@V?$_String_val@U?$_Simple_types@D@std@@@std@@@std@@V?$basic_string@DU?$char_traits@D@std@@V?$allocator@D@2@@4@@2@XZ 0042ed40 f i DXFOption.obj
 0001:0002dde0       ?begin@?$tokenizer@V?$char_separator@DU?$char_traits@D@std@@@boost@@V?$_String_const_iterator@V?$_String_val@U?$_Simple_types@D@std@@@std@@@std@@V?$basic_string@DU?$char_traits@D@std@@V?$allocator@D@2@@4@@boost@@QBE?AV?$token_iterator@V?$char_separator@DU?$char_traits@D@std@@@boost@@V?$_String_const_iterator@V?$_String_val@U?$_Simple_types@D@std@@@std@@@std@@V?$basic_string@DU?$char_traits@D@std@@V?$allocator@D@2@@4@@2@XZ 0042ede0 f i DXFOption.obj
 0001:0002de80       ?is_dropped@?$char_separator@DU?$char_traits@D@std@@@boost@@ABE_ND@Z 0042ee80 f i DXFOption.obj
 0001:0002def0       ?is_kept@?$char_separator@DU?$char_traits@D@std@@@boost@@ABE_ND@Z 0042eef0 f i DXFOption.obj
 0001:0002df60       ?assign@?$vector@EV?$allocator@E@std@@@std@@QAEXIABE@Z 0042ef60 f i DXFOption.obj
 0001:0002e040       ?error_string@?$w32_regex_traits@D@boost@@QBE?AV?$basic_string@DU?$char_traits@D@std@@V?$allocator@D@2@@std@@W4error_type@regex_constants@2@@Z 0042f040 f i DXFOption.obj
 0001:0002e060       ?isctype@?$w32_regex_traits@D@boost@@QBE_NDI@Z 0042f060 f i DXFOption.obj
 0001:0002e0f0       ?lookup_classname@?$w32_regex_traits@D@boost@@QBEIPBD0@Z 0042f0f0 f i DXFOption.obj
 0001:0002e210       ??0?$token_iterator@V?$char_separator@DU?$char_traits@D@std@@@boost@@V?$_String_const_iterator@V?$_String_val@U?$_Simple_types@D@std@@@std@@@std@@V?$basic_string@DU?$char_traits@D@std@@V?$allocator@D@2@@4@@boost@@QAE@V?$char_separator@DU?$char_traits@D@std@@@1@V?$_String_const_iterator@V?$_String_val@U?$_Simple_types@D@std@@@std@@@std@@1@Z 0042f210 f i DXFOption.obj
 0001:0002e2f0       ?error_string@?$w32_regex_traits_implementation@D@re_detail_500@boost@@QBE?AV?$basic_string@DU?$char_traits@D@std@@V?$allocator@D@2@@std@@W4error_type@regex_constants@3@@Z 0042f2f0 f i DXFOption.obj
 0001:0002e520       ?lookup_classname_imp@?$w32_regex_traits_implementation@D@re_detail_500@boost@@ABEIPBD0@Z 0042f520 f i DXFOption.obj
 0001:0002e760       ?parse_open_paren@?$basic_regex_parser@DU?$regex_traits@DV?$w32_regex_traits@D@boost@@@boost@@@re_detail_500@boost@@QAE_NXZ 0042f760 f i DXFOption.obj
 0001:0002e9a0       ?parse_basic_escape@?$basic_regex_parser@DU?$regex_traits@DV?$w32_regex_traits@D@boost@@@boost@@@re_detail_500@boost@@QAE_NXZ 0042f9a0 f i DXFOption.obj
 0001:0002f020       ?parse_extended_escape@?$basic_regex_parser@DU?$regex_traits@DV?$w32_regex_traits@D@boost@@@boost@@@re_detail_500@boost@@QAE_NXZ 00430020 f i DXFOption.obj
 0001:0002f910       ?parse_repeat@?$basic_regex_parser@DU?$regex_traits@DV?$w32_regex_traits@D@boost@@@boost@@@re_detail_500@boost@@QAE_NII@Z 00430910 f i DXFOption.obj
 0001:0002fd50       ?parse_repeat_range@?$basic_regex_parser@DU?$regex_traits@DV?$w32_regex_traits@D@boost@@@boost@@@re_detail_500@boost@@QAE_N_N@Z 00430d50 f i DXFOption.obj
 0001:00030330       ?parse_alt@?$basic_regex_parser@DU?$regex_traits@DV?$w32_regex_traits@D@boost@@@boost@@@re_detail_500@boost@@QAE_NXZ 00431330 f i DXFOption.obj
 0001:000304f0       ?parse_set@?$basic_regex_parser@DU?$regex_traits@DV?$w32_regex_traits@D@boost@@@boost@@@re_detail_500@boost@@QAE_NXZ 004314f0 f i DXFOption.obj
 0001:00030730       ?append_literal@?$basic_regex_creator@DU?$regex_traits@DV?$w32_regex_traits@D@boost@@@boost@@@re_detail_500@boost@@QAEPAUre_literal@23@D@Z 00431730 f i DXFOption.obj
 0001:00030800       ?fixup_recursions@?$basic_regex_creator@DU?$regex_traits@DV?$w32_regex_traits@D@boost@@@boost@@@re_detail_500@boost@@AAEXPAUre_syntax_base@23@@Z 00431800 f i DXFOption.obj
 0001:00030a90       ?create_startmaps@?$basic_regex_creator@DU?$regex_traits@DV?$w32_regex_traits@D@boost@@@boost@@@re_detail_500@boost@@AAEXPAUre_syntax_base@23@@Z 00431a90 f i DXFOption.obj
 0001:00030d20       ?create_startmap@?$basic_regex_creator@DU?$regex_traits@DV?$w32_regex_traits@D@boost@@@boost@@@re_detail_500@boost@@AAEXPAUre_syntax_base@23@PAEPAIE@Z 00431d20 f i DXFOption.obj
 0001:000314a0       ?do_get@?$object_cache@KV?$w32_regex_traits_implementation@D@re_detail_500@boost@@@boost@@CA?AV?$shared_ptr@$$CBV?$w32_regex_traits_implementation@D@re_detail_500@boost@@@std@@ABKI@Z 004324a0 f i DXFOption.obj
 0001:000318e0       ??1?$basic_char_set@DU?$regex_traits@DV?$w32_regex_traits@D@boost@@@boost@@@re_detail_500@boost@@QAE@XZ 004328e0 f i DXFOption.obj
 0001:00031900       ??1?$set@U?$digraph@D@re_detail_500@boost@@U?$less@U?$digraph@D@re_detail_500@boost@@@std@@V?$allocator@U?$digraph@D@re_detail_500@boost@@@5@@std@@QAE@XZ 00432900 f i DXFOption.obj
 0001:00031910       ??1?$_Tree@V?$_Tset_traits@U?$digraph@D@re_detail_500@boost@@U?$less@U?$digraph@D@re_detail_500@boost@@@std@@V?$allocator@U?$digraph@D@re_detail_500@boost@@@5@$0A@@std@@@std@@QAE@XZ 00432910 f i DXFOption.obj
 0001:00031950       ??1?$vector@U?$digraph@D@re_detail_500@boost@@V?$allocator@U?$digraph@D@re_detail_500@boost@@@std@@@std@@QAE@XZ 00432950 f i DXFOption.obj
 0001:000319b0       ??0?$basic_char_set@DU?$regex_traits@DV?$w32_regex_traits@D@boost@@@boost@@@re_detail_500@boost@@QAE@XZ 004329b0 f i DXFOption.obj
 0001:00031a80       ?erase@?$_Tree@V?$_Tmap_traits@KV?$_List_iterator@V?$_List_val@U?$_List_simple_types@U?$pair@V?$shared_ptr@$$CBV?$w32_regex_traits_implementation@D@re_detail_500@boost@@@std@@PBK@std@@@std@@@std@@@std@@U?$less@K@2@V?$allocator@U?$pair@$$CBKV?$_List_iterator@V?$_List_val@U?$_List_simple_types@U?$pair@V?$shared_ptr@$$CBV?$w32_regex_traits_implementation@D@re_detail_500@boost@@@std@@PBK@std@@@std@@@std@@@std@@@std@@@2@$0A@@std@@@std@@QAEIABK@Z 00432a80 f i DXFOption.obj
 0001:00031c80       ??1?$_Tree@V?$_Tmap_traits@KV?$_List_iterator@V?$_List_val@U?$_List_simple_types@U?$pair@V?$shared_ptr@$$CBV?$w32_regex_traits_implementation@D@re_detail_500@boost@@@std@@PBK@std@@@std@@@std@@@std@@U?$less@K@2@V?$allocator@U?$pair@$$CBKV?$_List_iterator@V?$_List_val@U?$_List_simple_types@U?$pair@V?$shared_ptr@$$CBV?$w32_regex_traits_implementation@D@re_detail_500@boost@@@std@@PBK@std@@@std@@@std@@@std@@@std@@@2@$0A@@std@@@std@@QAE@XZ 00432c80 f i DXFOption.obj
 0001:00031cc0       ??1?$list@U?$pair@V?$shared_ptr@$$CBV?$w32_regex_traits_implementation@D@re_detail_500@boost@@@std@@PBK@std@@V?$allocator@U?$pair@V?$shared_ptr@$$CBV?$w32_regex_traits_implementation@D@re_detail_500@boost@@@std@@PBK@std@@@2@@std@@QAE@XZ 00432cc0 f i DXFOption.obj
 0001:00031d30       ?_Xrange@?$vector@U?$pair@II@std@@V?$allocator@U?$pair@II@std@@@2@@std@@CAXXZ 00432d30 f i DXFOption.obj
 0001:00031d40       ?_Extract@?$_Tree_val@U?$_Tree_simple_types@U?$pair@$$CBKV?$_List_iterator@V?$_List_val@U?$_List_simple_types@U?$pair@V?$shared_ptr@$$CBV?$w32_regex_traits_implementation@D@re_detail_500@boost@@@std@@PBK@std@@@std@@@std@@@std@@@std@@@std@@@std@@QAEPAU?$_Tree_node@U?$pair@$$CBKV?$_List_iterator@V?$_List_val@U?$_List_simple_types@U?$pair@V?$shared_ptr@$$CBV?$w32_regex_traits_implementation@D@re_detail_500@boost@@@std@@PBK@std@@@std@@@std@@@std@@@std@@PAX@2@V?$_Tree_unchecked_const_iterator@V?$_Tree_val@U?$_Tree_simple_types@U?$pair@$$CBKV?$_List_iterator@V?$_List_val@U?$_List_simple_types@U?$pair@V?$shared_ptr@$$CBV?$w32_regex_traits_implementation@D@re_detail_500@boost@@@std@@PBK@std@@@std@@@std@@@std@@@std@@@std@@@std@@U_Iterator_base0@2@@2@@Z 00432d40 f i DXFOption.obj
 0001:00032190       ??0?$w32_regex_traits_implementation@D@re_detail_500@boost@@QAE@K@Z 00433190 f i DXFOption.obj
 0001:00032800       ?parse_backref@?$basic_regex_parser@DU?$regex_traits@DV?$w32_regex_traits@D@boost@@@boost@@@re_detail_500@boost@@QAE_NXZ 00433800 f i DXFOption.obj
 0001:000328f0       ?parse_set_literal@?$basic_regex_parser@DU?$regex_traits@DV?$w32_regex_traits@D@boost@@@boost@@@re_detail_500@boost@@QAEXAAV?$basic_char_set@DU?$regex_traits@DV?$w32_regex_traits@D@boost@@@boost@@@23@@Z 004338f0 f i DXFOption.obj
 0001:00032aa0       ?parse_inner_set@?$basic_regex_parser@DU?$regex_traits@DV?$w32_regex_traits@D@boost@@@boost@@@re_detail_500@boost@@QAE_NAAV?$basic_char_set@DU?$regex_traits@DV?$w32_regex_traits@D@boost@@@boost@@@23@@Z 00433aa0 f i DXFOption.obj
 0001:00032ff0       ?parse_QE@?$basic_regex_parser@DU?$regex_traits@DV?$w32_regex_traits@D@boost@@@boost@@@re_detail_500@boost@@QAE_NXZ 00433ff0 f i DXFOption.obj
 0001:00033150       ?parse_perl_extension@?$basic_regex_parser@DU?$regex_traits@DV?$w32_regex_traits@D@boost@@@boost@@@re_detail_500@boost@@QAE_NXZ 00434150 f i DXFOption.obj
 0001:00034630       ?parse_perl_verb@?$basic_regex_parser@DU?$regex_traits@DV?$w32_regex_traits@D@boost@@@boost@@@re_detail_500@boost@@QAE_NXZ 00435630 f i DXFOption.obj
 0001:00034bc0       ?add_emacs_code@?$basic_regex_parser@DU?$regex_traits@DV?$w32_regex_traits@D@boost@@@boost@@@re_detail_500@boost@@QAE_N_N@Z 00435bc0 f i DXFOption.obj
 0001:00035130       ?unescape_character@?$basic_regex_parser@DU?$regex_traits@DV?$w32_regex_traits@D@boost@@@boost@@@re_detail_500@boost@@QAEDXZ 00436130 f i DXFOption.obj
 0001:00035860       ?insert_state@?$basic_regex_creator@DU?$regex_traits@DV?$w32_regex_traits@D@boost@@@boost@@@re_detail_500@boost@@QAEPAUre_syntax_base@23@HW4syntax_element_type@23@I@Z 00436860 f i DXFOption.obj
 0001:00035910       ?append_set@?$basic_regex_creator@DU?$regex_traits@DV?$w32_regex_traits@D@boost@@@boost@@@re_detail_500@boost@@QAEPAUre_syntax_base@23@ABV?$basic_char_set@DU?$regex_traits@DV?$w32_regex_traits@D@boost@@@boost@@@23@@Z 00436910 f i DXFOption.obj
 0001:00035940       ?calculate_backstep@?$basic_regex_creator@DU?$regex_traits@DV?$w32_regex_traits@D@boost@@@boost@@@re_detail_500@boost@@AAEHPAUre_syntax_base@23@@Z 00436940 f i DXFOption.obj
 0001:00035a70       ?set_all_masks@?$basic_regex_creator@DU?$regex_traits@DV?$w32_regex_traits@D@boost@@@boost@@@re_detail_500@boost@@AAEXPAEE@Z 00436a70 f i DXFOption.obj
 0001:00035b10       ?get_repeat_type@?$basic_regex_creator@DU?$regex_traits@DV?$w32_regex_traits@D@boost@@@boost@@@re_detail_500@boost@@AAE?AW4syntax_element_type@23@PAUre_syntax_base@23@@Z 00436b10 f i DXFOption.obj
 0001:00035ba0       ??$hash_value_from_capture_name@PBD@re_detail_500@boost@@YAHPBD0@Z 00436ba0 f i DXFOption.obj
 0001:00035bf0       ??$re_is_set_member@PBDDU?$regex_traits@DV?$w32_regex_traits@D@boost@@@boost@@I@re_detail_500@boost@@YAPBDPBD0PBU?$re_set_long@I@01@ABU?$regex_data@DU?$regex_traits@DV?$w32_regex_traits@D@boost@@@boost@@@01@_N@Z 00436bf0 f i NCDoc.obj
 0001:00035bf0       ??$re_is_set_member@PADDU?$regex_traits@DV?$w32_regex_traits@D@boost@@@boost@@I@re_detail_500@boost@@YAPADPAD0PBU?$re_set_long@I@01@ABU?$regex_data@DU?$regex_traits@DV?$w32_regex_traits@D@boost@@@boost@@@01@_N@Z 00436bf0 f i DXFOption.obj
 0001:00036080       ??$_Find_lower_bound@H@?$_Tree@V?$_Tmap_traits@HV?$basic_string@DU?$char_traits@D@std@@V?$allocator@D@2@@std@@U?$less@H@2@V?$allocator@U?$pair@$$CBHV?$basic_string@DU?$char_traits@D@std@@V?$allocator@D@2@@std@@@std@@@2@$0A@@std@@@std@@IBE?AU?$_Tree_find_result@PAU?$_Tree_node@U?$pair@$$CBHV?$basic_string@DU?$char_traits@D@std@@V?$allocator@D@2@@std@@@std@@PAX@std@@@1@ABH@Z 00437080 f i DXFOption.obj
 0001:000360d0       ??$_Emplace_reallocate@U?$pair@_NPAUre_syntax_base@re_detail_500@boost@@@std@@@?$vector@U?$pair@_NPAUre_syntax_base@re_detail_500@boost@@@std@@V?$allocator@U?$pair@_NPAUre_syntax_base@re_detail_500@boost@@@std@@@2@@std@@QAEPAU?$pair@_NPAUre_syntax_base@re_detail_500@boost@@@1@QAU21@$$QAU21@@Z 004370d0 f i DXFOption.obj
 0001:000360d0       ??$_Emplace_reallocate@U?$pair@II@std@@@?$vector@U?$pair@II@std@@V?$allocator@U?$pair@II@std@@@2@@std@@QAEPAU?$pair@II@1@QAU21@$$QAU21@@Z 004370d0 f i DXFOption.obj
 0001:000360d0       ??$_Emplace_reallocate@Uname@named_subexpressions@re_detail_500@boost@@@?$vector@Uname@named_subexpressions@re_detail_500@boost@@V?$allocator@Uname@named_subexpressions@re_detail_500@boost@@@std@@@std@@QAEPAUname@named_subexpressions@re_detail_500@boost@@QAU2345@$$QAU2345@@Z 004370d0 f i DXFOption.obj
 0001:00036260       ??$_Emplace_reallocate@J@?$vector@JV?$allocator@J@std@@@std@@QAEPAJQAJ$$QAJ@Z 00437260 f i DXFOption.obj
 0001:00036260       ??$_Emplace_reallocate@ABQAUCREATEBOTTOMVERTEXPARAM@@@?$vector@PAUCREATEBOTTOMVERTEXPARAM@@V?$allocator@PAUCREATEBOTTOMVERTEXPARAM@@@std@@@std@@QAEPAPAUCREATEBOTTOMVERTEXPARAM@@QAPAU2@ABQAU2@@Z 00437260 f i NCViewGL_Mill.obj
 0001:00036260       ??$_Emplace_reallocate@PAX@?$vector@PAXV?$allocator@PAX@std@@@std@@QAEPAPAXQAPAX$$QAPAX@Z 00437260 f i NCViewGL_Mill.obj
 0001:00036260       ??$_Emplace_reallocate@ABQAU__POSITION@@@?$vector@PAU__POSITION@@V?$allocator@PAU__POSITION@@@std@@@std@@QAEPAPAU__POSITION@@QAPAU2@ABQAU2@@Z 00437260 f i DXFshape.obj
 0001:000363c0       ??$global_toi@DV?$w32_regex_traits@D@boost@@@re_detail_500@boost@@YA_JAAPBDPBDHABV?$w32_regex_traits@D@1@@Z 004373c0 f i DXFOption.obj
 0001:000364e0       ??$_Erase_tree@V?$allocator@U?$_Tree_node@U?$pair@$$CBKV?$_List_iterator@V?$_List_val@U?$_List_simple_types@U?$pair@V?$shared_ptr@$$CBV?$w32_regex_traits_implementation@D@re_detail_500@boost@@@std@@PBK@std@@@std@@@std@@@std@@@std@@PAX@std@@@std@@@?$_Tree_val@U?$_Tree_simple_types@U?$pair@$$CBKV?$_List_iterator@V?$_List_val@U?$_List_simple_types@U?$pair@V?$shared_ptr@$$CBV?$w32_regex_traits_implementation@D@re_detail_500@boost@@@std@@PBK@std@@@std@@@std@@@std@@@std@@@std@@@std@@QAEXAAV?$allocator@U?$_Tree_node@U?$pair@$$CBKV?$_List_iterator@V?$_List_val@U?$_List_simple_types@U?$pair@V?$shared_ptr@$$CBV?$w32_regex_traits_implementation@D@re_detail_500@boost@@@std@@PBK@std@@@std@@@std@@@std@@@std@@PAX@std@@@1@PAU?$_Tree_node@U?$pair@$$CBKV?$_List_iterator@V?$_List_val@U?$_List_simple_types@U?$pair@V?$shared_ptr@$$CBV?$w32_regex_traits_implementation@D@re_detail_500@boost@@@std@@PBK@std@@@std@@@std@@@std@@@std@@PAX@1@@Z 004374e0 f i DXFOption.obj
 0001:00036520       ??1?$map@HV?$basic_string@DU?$char_traits@D@std@@V?$allocator@D@2@@std@@U?$less@H@2@V?$allocator@U?$pair@$$CBHV?$basic_string@DU?$char_traits@D@std@@V?$allocator@D@2@@std@@@std@@@2@@std@@QAE@XZ 00437520 f i DXFOption.obj
 0001:00036540       ??1?$map@V?$basic_string@DU?$char_traits@D@std@@V?$allocator@D@2@@std@@IU?$less@V?$basic_string@DU?$char_traits@D@std@@V?$allocator@D@2@@std@@@2@V?$allocator@U?$pair@$$CBV?$basic_string@DU?$char_traits@D@std@@V?$allocator@D@2@@std@@I@std@@@2@@std@@QAE@XZ 00437540 f i DXFOption.obj
 0001:00036560       ??1?$map@V?$basic_string@DU?$char_traits@D@std@@V?$allocator@D@2@@std@@V12@U?$less@V?$basic_string@DU?$char_traits@D@std@@V?$allocator@D@2@@std@@@2@V?$allocator@U?$pair@$$CBV?$basic_string@DU?$char_traits@D@std@@V?$allocator@D@2@@std@@V12@@std@@@2@@std@@QAE@XZ 00437560 f i DXFOption.obj
 0001:00036580       ?_Destroy@?$_Ref_count@V?$w32_regex_traits_implementation@D@re_detail_500@boost@@@std@@EAEXXZ 00437580 f i DXFOption.obj
 0001:00036590       ??1?$_Temporary_owner@V?$w32_regex_traits_implementation@D@re_detail_500@boost@@@std@@QAE@XZ 00437590 f i DXFOption.obj
 0001:000365a0       ?add_equivalent@?$basic_char_set@DU?$regex_traits@DV?$w32_regex_traits@D@boost@@@boost@@@re_detail_500@boost@@QAEXABU?$digraph@D@23@@Z 004375a0 f i DXFOption.obj
 0001:000365f0       ??A?$map@V?$basic_string@DU?$char_traits@D@std@@V?$allocator@D@2@@std@@IU?$less@V?$basic_string@DU?$char_traits@D@std@@V?$allocator@D@2@@std@@@2@V?$allocator@U?$pair@$$CBV?$basic_string@DU?$char_traits@D@std@@V?$allocator@D@2@@std@@I@std@@@2@@std@@QAEAAIABV?$basic_string@DU?$char_traits@D@std@@V?$allocator@D@2@@1@@Z 004375f0 f i DXFOption.obj
 0001:000366e0       ?value@?$w32_regex_traits@D@boost@@QBEHDH@Z 004376e0 f i DXFOption.obj
 0001:00036750       ??A?$map@HV?$basic_string@DU?$char_traits@D@std@@V?$allocator@D@2@@std@@U?$less@H@2@V?$allocator@U?$pair@$$CBHV?$basic_string@DU?$char_traits@D@std@@V?$allocator@D@2@@std@@@std@@@2@@std@@QAEAAV?$basic_string@DU?$char_traits@D@std@@V?$allocator@D@2@@1@$$QAH@Z 00437750 f i DXFOption.obj
 0001:00036820       ??_G?$w32_regex_traits_implementation@D@re_detail_500@boost@@QAEPAXI@Z 00437820 f i DXFOption.obj
 0001:000368a0       ??1?$_Alloc_construct_ptr@V?$allocator@U?$_List_node@U?$pair@V?$shared_ptr@$$CBV?$w32_regex_traits_implementation@D@re_detail_500@boost@@@std@@PBK@std@@PAX@std@@@std@@@std@@QAE@XZ 004378a0 f i DXFOption.obj
 0001:000368c0       ?lookup_collatename@?$w32_regex_traits_implementation@D@re_detail_500@boost@@QBE?AV?$basic_string@DU?$char_traits@D@std@@V?$allocator@D@2@@std@@PBD0@Z 004378c0 f i DXFOption.obj
 0001:00036c20       ?transform_primary@?$w32_regex_traits_implementation@D@re_detail_500@boost@@QBE?AV?$basic_string@DU?$char_traits@D@std@@V?$allocator@D@2@@std@@PBD0@Z 00437c20 f i DXFOption.obj
 0001:00036f10       ?match_verb@?$basic_regex_parser@DU?$regex_traits@DV?$w32_regex_traits@D@boost@@@boost@@@re_detail_500@boost@@QAE_NPBD@Z 00437f10 f i DXFOption.obj
 0001:00036fc0       ?get_next_set_literal@?$basic_regex_parser@DU?$regex_traits@DV?$w32_regex_traits@D@boost@@@boost@@@re_detail_500@boost@@QAE?AU?$digraph@D@23@AAV?$basic_char_set@DU?$regex_traits@DV?$w32_regex_traits@D@boost@@@boost@@@23@@Z 00437fc0 f i DXFOption.obj
 0001:00037250       ?parse_options@?$basic_regex_parser@DU?$regex_traits@DV?$w32_regex_traits@D@boost@@@boost@@@re_detail_500@boost@@QAEIXZ 00438250 f i DXFOption.obj
 0001:00037410       ?append_set@?$basic_regex_creator@DU?$regex_traits@DV?$w32_regex_traits@D@boost@@@boost@@@re_detail_500@boost@@QAEPAUre_syntax_base@23@ABV?$basic_char_set@DU?$regex_traits@DV?$w32_regex_traits@D@boost@@@boost@@@23@PAU?$integral_constant@_N$00@std@@@Z 00438410 f i DXFOption.obj
 0001:00037c10       ?append_set@?$basic_regex_creator@DU?$regex_traits@DV?$w32_regex_traits@D@boost@@@boost@@@re_detail_500@boost@@QAEPAUre_syntax_base@23@ABV?$basic_char_set@DU?$regex_traits@DV?$w32_regex_traits@D@boost@@@boost@@@23@PAU?$integral_constant@_N$0A@@std@@@Z 00438c10 f i DXFOption.obj
 0001:00038580       ??$find_sort_syntax@V?$w32_regex_traits_implementation@D@re_detail_500@boost@@D@re_detail_500@boost@@YAIPBV?$w32_regex_traits_implementation@D@01@PAD@Z 00439580 f i DXFOption.obj
 0001:000388d0       ??$valid_value@D@re_detail_500@boost@@YA_ND_J@Z 004398d0 f i DXFOption.obj
 0001:000388f0       ??$emplace@U?$pair@KV?$_List_iterator@V?$_List_val@U?$_List_simple_types@U?$pair@V?$shared_ptr@$$CBV?$w32_regex_traits_implementation@D@re_detail_500@boost@@@std@@PBK@std@@@std@@@std@@@std@@@std@@@?$_Tree@V?$_Tmap_traits@KV?$_List_iterator@V?$_List_val@U?$_List_simple_types@U?$pair@V?$shared_ptr@$$CBV?$w32_regex_traits_implementation@D@re_detail_500@boost@@@std@@PBK@std@@@std@@@std@@@std@@U?$less@K@2@V?$allocator@U?$pair@$$CBKV?$_List_iterator@V?$_List_val@U?$_List_simple_types@U?$pair@V?$shared_ptr@$$CBV?$w32_regex_traits_implementation@D@re_detail_500@boost@@@std@@PBK@std@@@std@@@std@@@std@@@std@@@2@$0A@@std@@@std@@QAE?AU?$pair@V?$_Tree_iterator@V?$_Tree_val@U?$_Tree_simple_types@U?$pair@$$CBKV?$_List_iterator@V?$_List_val@U?$_List_simple_types@U?$pair@V?$shared_ptr@$$CBV?$w32_regex_traits_implementation@D@re_detail_500@boost@@@std@@PBK@std@@@std@@@std@@@std@@@std@@@std@@@std@@@std@@_N@1@$$QAU?$pair@KV?$_List_iterator@V?$_List_val@U?$_List_simple_types@U?$pair@V?$shared_ptr@$$CBV?$w32_regex_traits_implementation@D@re_detail_500@boost@@@std@@PBK@std@@@std@@@std@@@std@@@1@@Z 004398f0 f i DXFOption.obj
 0001:000389c0       ??$_Erase_tree@V?$allocator@U?$_Tree_node@U?$digraph@D@re_detail_500@boost@@PAX@std@@@std@@@?$_Tree_val@U?$_Tree_simple_types@U?$digraph@D@re_detail_500@boost@@@std@@@std@@QAEXAAV?$allocator@U?$_Tree_node@U?$digraph@D@re_detail_500@boost@@PAX@std@@@1@PAU?$_Tree_node@U?$digraph@D@re_detail_500@boost@@PAX@1@@Z 004399c0 f i DXFOption.obj
 0001:00038a00       ??$_Find_lower_bound@K@?$_Tree@V?$_Tmap_traits@KV?$_List_iterator@V?$_List_val@U?$_List_simple_types@U?$pair@V?$shared_ptr@$$CBV?$w32_regex_traits_implementation@D@re_detail_500@boost@@@std@@PBK@std@@@std@@@std@@@std@@U?$less@K@2@V?$allocator@U?$pair@$$CBKV?$_List_iterator@V?$_List_val@U?$_List_simple_types@U?$pair@V?$shared_ptr@$$CBV?$w32_regex_traits_implementation@D@re_detail_500@boost@@@std@@PBK@std@@@std@@@std@@@std@@@std@@@2@$0A@@std@@@std@@IBE?AU?$_Tree_find_result@PAU?$_Tree_node@U?$pair@$$CBKV?$_List_iterator@V?$_List_val@U?$_List_simple_types@U?$pair@V?$shared_ptr@$$CBV?$w32_regex_traits_implementation@D@re_detail_500@boost@@@std@@PBK@std@@@std@@@std@@@std@@@std@@PAX@std@@@1@ABK@Z 00439a00 f i DXFOption.obj
 0001:00038a50       ??$_Find_lower_bound@V?$basic_string@DU?$char_traits@D@std@@V?$allocator@D@2@@std@@@?$_Tree@V?$_Tmap_traits@V?$basic_string@DU?$char_traits@D@std@@V?$allocator@D@2@@std@@IU?$less@V?$basic_string@DU?$char_traits@D@std@@V?$allocator@D@2@@std@@@2@V?$allocator@U?$pair@$$CBV?$basic_string@DU?$char_traits@D@std@@V?$allocator@D@2@@std@@I@std@@@2@$0A@@std@@@std@@IBE?AU?$_Tree_find_result@PAU?$_Tree_node@U?$pair@$$CBV?$basic_string@DU?$char_traits@D@std@@V?$allocator@D@2@@std@@I@std@@PAX@std@@@1@ABV?$basic_string@DU?$char_traits@D@std@@V?$allocator@D@2@@1@@Z 00439a50 f i DXFOption.obj
 0001:00038ad0       ??$insert@$0A@$0A@@?$_Tree@V?$_Tset_traits@U?$digraph@D@re_detail_500@boost@@U?$less@U?$digraph@D@re_detail_500@boost@@@std@@V?$allocator@U?$digraph@D@re_detail_500@boost@@@5@$0A@@std@@@std@@QAE?AU?$pair@V?$_Tree_const_iterator@V?$_Tree_val@U?$_Tree_simple_types@U?$digraph@D@re_detail_500@boost@@@std@@@std@@@std@@_N@1@ABU?$digraph@D@re_detail_500@boost@@@Z 00439ad0 f i DXFOption.obj
 0001:00038be0       ??$_Emplace_reallocate@ABU?$digraph@D@re_detail_500@boost@@@?$vector@U?$digraph@D@re_detail_500@boost@@V?$allocator@U?$digraph@D@re_detail_500@boost@@@std@@@std@@QAEPAU?$digraph@D@re_detail_500@boost@@QAU234@ABU234@@Z 00439be0 f i DXFOption.obj
 0001:00038d80       ?_Insert_node@?$_Tree_val@U?$_Tree_simple_types@U?$pair@$$CBV?$basic_string@DU?$char_traits@D@std@@V?$allocator@D@2@@std@@I@std@@@std@@@std@@QAEPAU?$_Tree_node@U?$pair@$$CBV?$basic_string@DU?$char_traits@D@std@@V?$allocator@D@2@@std@@I@std@@PAX@2@U?$_Tree_id@PAU?$_Tree_node@U?$pair@$$CBV?$basic_string@DU?$char_traits@D@std@@V?$allocator@D@2@@std@@I@std@@PAX@std@@@2@QAU32@@Z 00439d80 f i DXFOption.obj
 0001:00038d80       ?_Insert_node@?$_Tree_val@U?$_Tree_simple_types@U?$pair@$$CBKV?$_List_iterator@V?$_List_val@U?$_List_simple_types@U?$pair@V?$shared_ptr@$$CBV?$w32_regex_traits_implementation@D@re_detail_500@boost@@@std@@PBK@std@@@std@@@std@@@std@@@std@@@std@@@std@@QAEPAU?$_Tree_node@U?$pair@$$CBKV?$_List_iterator@V?$_List_val@U?$_List_simple_types@U?$pair@V?$shared_ptr@$$CBV?$w32_regex_traits_implementation@D@re_detail_500@boost@@@std@@PBK@std@@@std@@@std@@@std@@@std@@PAX@2@U?$_Tree_id@PAU?$_Tree_node@U?$pair@$$CBKV?$_List_iterator@V?$_List_val@U?$_List_simple_types@U?$pair@V?$shared_ptr@$$CBV?$w32_regex_traits_implementation@D@re_detail_500@boost@@@std@@PBK@std@@@std@@@std@@@std@@@std@@PAX@std@@@2@QAU32@@Z 00439d80 f i DXFOption.obj
 0001:00038d80       ?_Insert_node@?$_Tree_val@U?$_Tree_simple_types@U?$digraph@D@re_detail_500@boost@@@std@@@std@@QAEPAU?$_Tree_node@U?$digraph@D@re_detail_500@boost@@PAX@2@U?$_Tree_id@PAU?$_Tree_node@U?$digraph@D@re_detail_500@boost@@PAX@std@@@2@QAU32@@Z 00439d80 f i DXFOption.obj
 0001:00038d80       ?_Insert_node@?$_Tree_val@U?$_Tree_simple_types@U?$pair@$$CBHV?$basic_string@DU?$char_traits@D@std@@V?$allocator@D@2@@std@@@std@@@std@@@std@@QAEPAU?$_Tree_node@U?$pair@$$CBHV?$basic_string@DU?$char_traits@D@std@@V?$allocator@D@2@@std@@@std@@PAX@2@U?$_Tree_id@PAU?$_Tree_node@U?$pair@$$CBHV?$basic_string@DU?$char_traits@D@std@@V?$allocator@D@2@@std@@@std@@PAX@std@@@2@QAU32@@Z 00439d80 f i DXFOption.obj
 0001:00038f70       ??1?$_Alloc_construct_ptr@V?$allocator@U?$_Tree_node@U?$pair@$$CBHV?$basic_string@DU?$char_traits@D@std@@V?$allocator@D@2@@std@@@std@@PAX@std@@@std@@@std@@QAE@XZ 00439f70 f i DXFOption.obj
 0001:00038f70       ??1?$_Tree_temp_node_alloc@V?$allocator@U?$_Tree_node@U?$pair@$$CBV?$basic_string@DU?$char_traits@D@std@@V?$allocator@D@2@@std@@I@std@@PAX@std@@@std@@@std@@QAE@XZ 00439f70 f i DXFOption.obj
 0001:00038f70       ??1?$_Alloc_construct_ptr@V?$allocator@U?$_Tree_node@U?$pair@$$CBV?$basic_string@DU?$char_traits@D@std@@V?$allocator@D@2@@std@@I@std@@PAX@std@@@std@@@std@@QAE@XZ 00439f70 f i DXFOption.obj
 0001:00038f90       ??$distance@V?$_Tree_const_iterator@V?$_Tree_val@U?$_Tree_simple_types@U?$digraph@D@re_detail_500@boost@@@std@@@std@@@std@@@std@@YAHV?$_Tree_const_iterator@V?$_Tree_val@U?$_Tree_simple_types@U?$digraph@D@re_detail_500@boost@@@std@@@std@@@0@0@Z 00439f90 f i DXFOption.obj
 0001:00038ff0       ??$_Erase_tree@V?$allocator@U?$_Tree_node@U?$pair@$$CBV?$basic_string@DU?$char_traits@D@std@@V?$allocator@D@2@@std@@V12@@std@@PAX@std@@@std@@@?$_Tree_val@U?$_Tree_simple_types@U?$pair@$$CBV?$basic_string@DU?$char_traits@D@std@@V?$allocator@D@2@@std@@V12@@std@@@std@@@std@@QAEXAAV?$allocator@U?$_Tree_node@U?$pair@$$CBV?$basic_string@DU?$char_traits@D@std@@V?$allocator@D@2@@std@@V12@@std@@PAX@std@@@1@PAU?$_Tree_node@U?$pair@$$CBV?$basic_string@DU?$char_traits@D@std@@V?$allocator@D@2@@std@@V12@@std@@PAX@1@@Z 00439ff0 f i DXFOption.obj
 0001:000390c0       ??$_Erase_tree@V?$allocator@U?$_Tree_node@U?$pair@$$CBV?$basic_string@DU?$char_traits@D@std@@V?$allocator@D@2@@std@@I@std@@PAX@std@@@std@@@?$_Tree_val@U?$_Tree_simple_types@U?$pair@$$CBV?$basic_string@DU?$char_traits@D@std@@V?$allocator@D@2@@std@@I@std@@@std@@@std@@QAEXAAV?$allocator@U?$_Tree_node@U?$pair@$$CBV?$basic_string@DU?$char_traits@D@std@@V?$allocator@D@2@@std@@I@std@@PAX@std@@@1@PAU?$_Tree_node@U?$pair@$$CBV?$basic_string@DU?$char_traits@D@std@@V?$allocator@D@2@@std@@I@std@@PAX@1@@Z 0043a0c0 f i DXFOption.obj
 0001:00039150       ??$_Erase_tree@V?$allocator@U?$_Tree_node@U?$pair@$$CBHV?$basic_string@DU?$char_traits@D@std@@V?$allocator@D@2@@std@@@std@@PAX@std@@@std@@@?$_Tree_val@U?$_Tree_simple_types@U?$pair@$$CBHV?$basic_string@DU?$char_traits@D@std@@V?$allocator@D@2@@std@@@std@@@std@@@std@@QAEXAAV?$allocator@U?$_Tree_node@U?$pair@$$CBHV?$basic_string@DU?$char_traits@D@std@@V?$allocator@D@2@@std@@@std@@PAX@std@@@1@PAU?$_Tree_node@U?$pair@$$CBHV?$basic_string@DU?$char_traits@D@std@@V?$allocator@D@2@@std@@@std@@PAX@1@@Z 0043a150 f i DXFOption.obj
 0001:000391e0       ??1?$_Alloc_construct_ptr@V?$allocator@U?$_Tree_node@U?$digraph@D@re_detail_500@boost@@PAX@std@@@std@@@std@@QAE@XZ 0043a1e0 f i DXFOption.obj
 0001:00039200       ??1?$_Alloc_construct_ptr@V?$allocator@U?$_Tree_node@U?$pair@$$CBKV?$_List_iterator@V?$_List_val@U?$_List_simple_types@U?$pair@V?$shared_ptr@$$CBV?$w32_regex_traits_implementation@D@re_detail_500@boost@@@std@@PBK@std@@@std@@@std@@@std@@@std@@PAX@std@@@std@@@std@@QAE@XZ 0043a200 f i DXFOption.obj
 0001:00039220       ?_Get_deleter@_Ref_count_base@std@@UBEPAXABVtype_info@@@Z 0043a220 f i DXFOption.obj
 0001:00039220       ?IsLeftNavigationPane@CPropertySheet@@MBEHPAUHWND__@@@Z 0043a220 f i DxfSetup.obj
 0001:00039220       ?OnWorkspaceIdle@CWinAppEx@@UAEHPAVCWnd@@@Z 0043a220 f i NCVC.obj
 0001:00039230       ?_Throw_tree_length_error@std@@YAXXZ 0043a230 f i DXFOption.obj
 0001:00039240       ?insert@?$basic_string@DU?$char_traits@D@std@@V?$allocator@D@2@@std@@QAEAAV12@IID@Z 0043a240 f i DXFOption.obj
 0001:000393e0       ??$_Traits_equal@U?$char_traits@D@std@@@std@@YA_NQBDI0I@Z 0043a3e0 f i DXFOption.obj
 0001:00039450       ?lookup_default_collate_name@re_detail_500@boost@@YA?AV?$basic_string@DU?$char_traits@D@std@@V?$allocator@D@2@@std@@ABV34@@Z 0043a450 f i DXFOption.obj
 0001:000395d0       ?_Xran@?$_String_val@U?$_Simple_types@D@std@@@std@@SAXXZ 0043a5d0 f i DXFOption.obj
 0001:000395e0       ?w32_transform@re_detail_500@boost@@YA?AV?$basic_string@DU?$char_traits@D@std@@V?$allocator@D@2@@std@@KPBD0@Z 0043a5e0 f i DXFOption.obj
 0001:000397d0       ??4?$basic_string@DU?$char_traits@D@std@@V?$allocator@D@2@@std@@QAEAAV01@$$QAV01@@Z 0043a7d0 f i DXFOption.obj
 0001:00039850       ?assign@?$basic_string@DU?$char_traits@D@std@@V?$allocator@D@2@@std@@QAEAAV12@ID@Z 0043a850 f i DXFOption.obj
 0001:00039940       ?append@?$basic_string@DU?$char_traits@D@std@@V?$allocator@D@2@@std@@QAEAAV12@ID@Z 0043a940 f i DXFOption.obj
 0001:00039aa0       ?get_catalog_name@?$w32_regex_traits@D@boost@@SA?AV?$basic_string@DU?$char_traits@D@std@@V?$allocator@D@2@@std@@XZ 0043aaa0 f i DXFOption.obj
 0001:00039bd0       ??1?$_Temporary_owner_del@PAUHINSTANCE__@@P6AXPAX@Z@std@@QAE@XZ 0043abd0 f i DXFOption.obj
 0001:00039c20       ?_Destroy@?$_Ref_count_resource@PAUHINSTANCE__@@P6AXPAX@Z@std@@EAEXXZ 0043ac20 f i DXFOption.obj
 0001:00039c70       ??_E?$_Ref_count_resource@PAUHINSTANCE__@@P6AXPAX@Z@std@@UAEPAXI@Z 0043ac70 f i * CIL library *:* CIL module *
 0001:00039c70       ??_G?$_Ref_count_resource@PAUHINSTANCE__@@P6AXPAX@Z@std@@UAEPAXI@Z 0043ac70 f i DXFOption.obj
 0001:00039c90       ?_Get_deleter@?$_Ref_count_resource@PAUHINSTANCE__@@P6AXPAX@Z@std@@UBEPAXABVtype_info@@@Z 0043ac90 f i DXFOption.obj
 0001:00039cc0       ?free_module@re_detail_500@boost@@YAXPAX@Z 0043acc0 f i DXFOption.obj
 0001:00039cd0       ?w32_cat_open@re_detail_500@boost@@YA?AV?$shared_ptr@X@std@@ABV?$basic_string@DU?$char_traits@D@std@@V?$allocator@D@2@@4@@Z 0043acd0 f i DXFOption.obj
 0001:00039d90       ??$?HDU?$char_traits@D@std@@V?$allocator@D@1@@std@@YA?AV?$basic_string@DU?$char_traits@D@std@@V?$allocator@D@2@@0@ABV10@0@Z 0043ad90 f i DXFOption.obj
 0001:00039e70       ??0?$wrapexcept@Vruntime_error@std@@@boost@@QAE@ABVruntime_error@std@@@Z 0043ae70 f i DXFOption.obj
 0001:00039ee0       ?clone@?$wrapexcept@Vruntime_error@std@@@boost@@UBEPBVclone_base@exception_detail@2@XZ 0043aee0 f i DXFOption.obj
 0001:00039f70       ?rethrow@?$wrapexcept@Vruntime_error@std@@@boost@@UBEXXZ 0043af70 f i DXFOption.obj
 0001:00039f90       ??0?$wrapexcept@Vruntime_error@std@@@boost@@QAE@ABU01@@Z 0043af90 f i DXFOption.obj
 0001:0003a050       ??$throw_exception@Vruntime_error@std@@@boost@@YAXABVruntime_error@std@@@Z 0043b050 f i DXFOption.obj
 0001:0003a070       ??$raise_runtime_error@Vruntime_error@std@@@re_detail_500@boost@@YAXABVruntime_error@std@@@Z 0043b070 f i DXFOption.obj
 0001:0003a080       ?get_default_syntax@re_detail_500@boost@@YAPBDE@Z 0043b080 f i DXFOption.obj
 0001:0003a310       ??$init@D@?$w32_regex_traits_char_layer@D@re_detail_500@boost@@AAEXXZ 0043b310 f i DXFOption.obj
 0001:0003a790       ??1recursion_saver@re_detail_500@boost@@QAE@XZ 0043b790 f i DXFOption.obj
 0001:0003a810       ?_Buy_raw@?$vector@EV?$allocator@E@std@@@std@@AAEXI@Z 0043b810 f i DXFOption.obj
 0001:0003a890       ??1?$lock_guard@Vmutex@std@@@std@@QAE@XZ 0043b890 f i DXFOption.obj
 0001:0003a8a0       ?resize@raw_storage@re_detail_500@boost@@QAEXI@Z 0043b8a0 f i DXFOption.obj
 0001:0003a910       ??0?$wrapexcept@Vregex_error@boost@@@boost@@QAE@ABVregex_error@1@@Z 0043b910 f i DXFOption.obj
 0001:0003a990       ?clone@?$wrapexcept@Vregex_error@boost@@@boost@@UBEPBVclone_base@exception_detail@2@XZ 0043b990 f i DXFOption.obj
 0001:0003aa20       ?rethrow@?$wrapexcept@Vregex_error@boost@@@boost@@UBEXXZ 0043ba20 f i DXFOption.obj
 0001:0003aa40       ??0?$wrapexcept@Vregex_error@boost@@@boost@@QAE@ABU01@@Z 0043ba40 f i DXFOption.obj
 0001:0003ab10       ??0regex_error@boost@@QAE@ABV01@@Z 0043bb10 f i DXFOption.obj
 0001:0003ab50       ??$throw_exception@Vregex_error@boost@@@boost@@YAXABVregex_error@0@@Z 0043bb50 f i DXFOption.obj
 0001:0003ab70       ?raise@regex_error@boost@@QBEXXZ 0043bb70 f i DXFOption.obj
 0001:0003ab70       ??$raise_runtime_error@Vregex_error@boost@@@re_detail_500@boost@@YAXABVregex_error@1@@Z 0043bb70 f i NCDoc.obj
 0001:0003ab80       ??0runtime_error@std@@QAE@ABV?$basic_string@DU?$char_traits@D@std@@V?$allocator@D@2@@1@@Z 0043bb80 f i DXFOption.obj
 0001:0003abd0       ??0regex_error@boost@@QAE@ABV?$basic_string@DU?$char_traits@D@std@@V?$allocator@D@2@@std@@W4error_type@regex_constants@1@H@Z 0043bbd0 f i DXFOption.obj
 0001:0003ac30       ??1?$vector@EV?$allocator@E@std@@@std@@QAE@XZ 0043bc30 f i DXFOption.obj
 0001:0003ac80       ??0?$basic_string@DU?$char_traits@D@std@@V?$allocator@D@2@@std@@QAE@ABV01@@Z 0043bc80 f i DXFOption.obj
 0001:0003ad00       ?GetMessageMap@CDxfSetup@@MBEPBUAFX_MSGMAP@@XZ 0043bd00 f   DxfSetup.obj
 0001:0003ad10       ??0CDxfSetup@@QAE@I@Z      0043bd10 f   DxfSetup.obj
 0001:0003af90       ??_ECDxfSetup@@UAEPAXI@Z   0043bf90 f i * CIL library *:* CIL module *
 0001:0003af90       ??_GCDxfSetup@@UAEPAXI@Z   0043bf90 f i DxfSetup.obj
 0001:0003afd0       ??1CDxfSetup@@UAE@XZ       0043bfd0 f i DxfSetup.obj
 0001:0003b0b0       ??1CDxfSetup1@@UAE@XZ      0043c0b0 f i DxfSetup.obj
 0001:0003b100       ??1CDxfSetup2@@UAE@XZ      0043c100 f i DxfSetup.obj
 0001:0003b150       ?OnReload@CDxfSetup@@QAEHPAVCPropertyPage@@@Z 0043c150 f   DxfSetup.obj
 0001:0003b340       ??1CDxfSetupReload@@UAE@XZ 0043c340 f i DxfSetup.obj
 0001:0003b360       ?OnDestroy@CDxfSetup@@IAEXXZ 0043c360 f   DxfSetup.obj
 0001:0003b380       ?GetMessageMap@CDxfSetup1@@MBEPBUAFX_MSGMAP@@XZ 0043c380 f   DxfSetup1.obj
 0001:0003b390       ??_GCDxfSetup1@@UAEPAXI@Z  0043c390 f i DxfSetup1.obj
 0001:0003b390       ??_ECDxfSetup1@@UAEPAXI@Z  0043c390 f i * CIL library *:* CIL module *
 0001:0003b410       ?DoDataExchange@CDxfSetup1@@MAEXPAVCDataExchange@@@Z 0043c410 f   DxfSetup1.obj
 0001:0003b490       ?OnInitDialog@CDxfSetup1@@MAEHXZ 0043c490 f   DxfSetup1.obj
 0001:0003b510       ?OnApply@CDxfSetup1@@UAEHXZ 0043c510 f   DxfSetup1.obj
 0001:0003b600       ?OnSetActive@CDxfSetup1@@UAEHXZ 0043c600 f   DxfSetup1.obj
 0001:0003b630       ?OnKillActive@CDxfSetup1@@UAEHXZ 0043c630 f   DxfSetup1.obj
 0001:0003b6a0       ?OnReload@CDxfSetup1@@IAEXXZ 0043c6a0 f   DxfSetup1.obj
 0001:0003b730       ?GetMessageMap@CDxfSetup2@@MBEPBUAFX_MSGMAP@@XZ 0043c730 f   DxfSetup2.obj
 0001:0003b740       ??_ECDxfSetup2@@UAEPAXI@Z  0043c740 f i * CIL library *:* CIL module *
 0001:0003b740       ??_GCDxfSetup2@@UAEPAXI@Z  0043c740 f i DxfSetup2.obj
 0001:0003b7c0       ?DoDataExchange@CDxfSetup2@@MAEXPAVCDataExchange@@@Z 0043c7c0 f   DxfSetup2.obj
 0001:0003b830       ?OnInitDialog@CDxfSetup2@@MAEHXZ 0043c830 f   DxfSetup2.obj
 0001:0003b870       ?OnApply@CDxfSetup2@@UAEHXZ 0043c870 f   DxfSetup2.obj
 0001:0003b8c0       ?OnReload@CDxfSetup2@@IAEXXZ 0043c8c0 f   DxfSetup2.obj
 0001:0003b950       ?OnSetActive@CDxfSetup2@@UAEHXZ 0043c950 f   DxfSetup2.obj
 0001:0003b990       ?GetMessageMap@CDxfSetupReload@@MBEPBUAFX_MSGMAP@@XZ 0043c990 f   DxfSetupReload.obj
 0001:0003b990       ?GetMessageMap@CMakeBindOptDlg@@MBEPBUAFX_MSGMAP@@XZ 0043c990 f   MakeBindOptDlg.obj
 0001:0003b990       ?GetMessageMap@CShapePropDlg@@MBEPBUAFX_MSGMAP@@XZ 0043c990 f   ShapePropDlg.obj
 0001:0003b9a0       ??_GCDxfSetupReload@@UAEPAXI@Z 0043c9a0 f i DxfSetupReload.obj
 0001:0003b9a0       ??_ECDxfSetupReload@@UAEPAXI@Z 0043c9a0 f i * CIL library *:* CIL module *
 0001:0003b9f0       ?OnInitDialog@CDxfSetupReload@@MAEHXZ 0043c9f0 f   DxfSetupReload.obj
 0001:0003bb60       ?OnOK@CDxfSetupReload@@MAEXXZ 0043cb60 f   DxfSetupReload.obj
 0001:0003bbe0       ??_GCListBox@@UAEPAXI@Z    0043cbe0 f i DxfSetupReload.obj
 0001:0003bbe0       ??_ECListBox@@UAEPAXI@Z    0043cbe0 f i * CIL library *:* CIL module *
 0001:0003bc20       ??0CListBox@@QAE@XZ        0043cc20 f i DxfSetupReload.obj
 0001:0003bc40       ??_GCCheckListBox@@UAEPAXI@Z 0043cc40 f i DxfSetupReload.obj
 0001:0003bc40       ??_ECCheckListBox@@UAEPAXI@Z 0043cc40 f i * CIL library *:* CIL module *
 0001:0003bc80       ??_ECDXFworkingDirection@@UAEPAXI@Z 0043cc80 f i * CIL library *:* CIL module *
 0001:0003bc80       ??_GCDXFworkingDirection@@UAEPAXI@Z 0043cc80 f i DXFshape.obj
 0001:0003bcc0       ??1CDXFworking@@UAE@XZ     0043ccc0 f i DXFshape.obj
 0001:0003bcc0       ??1DXFTARGV@@QAE@XZ        0043ccc0 f i NCVCaddinDXF.obj
 0001:0003bcd0       ??_ECDXFworkingStart@@UAEPAXI@Z 0043ccd0 f i * CIL library *:* CIL module *
 0001:0003bcd0       ??_GCDXFworkingStart@@UAEPAXI@Z 0043ccd0 f i DXFshape.obj
 0001:0003bd10       ??_ECDXFworkingOutline@@UAEPAXI@Z 0043cd10 f i * CIL library *:* CIL module *
 0001:0003bd10       ??_GCDXFworkingOutline@@UAEPAXI@Z 0043cd10 f i DXFshape.obj
 0001:0003be10       ??_ECDXFworkingPocket@@UAEPAXI@Z 0043ce10 f i * CIL library *:* CIL module *
 0001:0003be10       ??_GCDXFworkingPocket@@UAEPAXI@Z 0043ce10 f i DXFshape.obj
 0001:0003bee0       ?GetShapeChain@CDXFshape@@QBEPAVCDXFchain@@XZ 0043cee0 f i DXFshape.obj
 0001:0003bf80       ?GetShapeMap@CDXFshape@@QBEPAVCDXFmap@@XZ 0043cf80 f i DXFshape.obj
 0001:0003c020       ?_GetBaseClass@CDXFworkingStart@@KGPAUCRuntimeClass@@XZ 0043d020 f   DXFshape.obj
 0001:0003c020       ?_GetBaseClass@CDXFworkingOutline@@KGPAUCRuntimeClass@@XZ 0043d020 f   DXFshape.obj
 0001:0003c020       ?GetRuntimeClass@CDXFworking@@UBEPAUCRuntimeClass@@XZ 0043d020 f   DXFshape.obj
 0001:0003c020       ?_GetBaseClass@CDXFworkingDirection@@KGPAUCRuntimeClass@@XZ 0043d020 f   DXFshape.obj
 0001:0003c020       ?_GetBaseClass@CDXFworkingPocket@@KGPAUCRuntimeClass@@XZ 0043d020 f   DXFshape.obj
 0001:0003c030       ?CreateObject@CDXFworkingDirection@@SGPAVCObject@@XZ 0043d030 f   DXFshape.obj
 0001:0003c110       ?GetRuntimeClass@CDXFworkingDirection@@UBEPAUCRuntimeClass@@XZ 0043d110 f   DXFshape.obj
 0001:0003c120       ?CreateObject@CDXFworkingStart@@SGPAVCObject@@XZ 0043d120 f   DXFshape.obj
 0001:0003c1d0       ?GetRuntimeClass@CDXFworkingStart@@UBEPAUCRuntimeClass@@XZ 0043d1d0 f   DXFshape.obj
 0001:0003c1e0       ?CreateObject@CDXFworkingOutline@@SGPAVCObject@@XZ 0043d1e0 f   DXFshape.obj
 0001:0003c2c0       ?GetRuntimeClass@CDXFworkingOutline@@UBEPAUCRuntimeClass@@XZ 0043d2c0 f   DXFshape.obj
 0001:0003c2d0       ?CreateObject@CDXFworkingPocket@@SGPAVCObject@@XZ 0043d2d0 f   DXFshape.obj
 0001:0003c370       ?GetRuntimeClass@CDXFworkingPocket@@UBEPAUCRuntimeClass@@XZ 0043d370 f   DXFshape.obj
 0001:0003c380       ?CreateObject@CDXFmap@@SGPAVCObject@@XZ 0043d380 f   DXFshape.obj
 0001:0003c3d0       ?GetRuntimeClass@CDXFmap@@UBEPAUCRuntimeClass@@XZ 0043d3d0 f   DXFshape.obj
 0001:0003c3e0       ?CreateObject@CDXFchain@@SGPAVCObject@@XZ 0043d3e0 f   DXFshape.obj
 0001:0003c490       ?GetRuntimeClass@CDXFchain@@UBEPAUCRuntimeClass@@XZ 0043d490 f   DXFshape.obj
 0001:0003c4a0       ?CreateObject@CDXFshape@@SGPAVCObject@@XZ 0043d4a0 f   DXFshape.obj
 0001:0003c620       ?GetRuntimeClass@CDXFshape@@UBEPAUCRuntimeClass@@XZ 0043d620 f   DXFshape.obj
 0001:0003c630       ??0CDXFworking@@IAE@W4ENWORKINGTYPE@@PAVCDXFshape@@PAVCDXFdata@@K@Z 0043d630 f   DXFshape.obj
 0001:0003c840       ??_GCDXFworking@@UAEPAXI@Z 0043d840 f i DXFshape.obj
 0001:0003c840       ??_ECDXFworking@@UAEPAXI@Z 0043d840 f i * CIL library *:* CIL module *
 0001:0003c880       ?Serialize@CDXFworking@@UAEXAAVCArchive@@@Z 0043d880 f   DXFshape.obj
 0001:0003ca80       ?DrawTuning@CDXFworkingDirection@@UAEXM@Z 0043da80 f   DXFshape.obj
 0001:0003cb30       ?Draw@CDXFworkingDirection@@UBEXPAVCDC@@@Z 0043db30 f   DXFshape.obj
 0001:0003cb50       ?Serialize@CDXFworkingDirection@@UAEXAAVCArchive@@@Z 0043db50 f   DXFshape.obj
 0001:0003cef0       ?DrawTuning@CDXFworkingStart@@UAEXM@Z 0043def0 f   DXFshape.obj
 0001:0003cfa0       ?Draw@CDXFworkingStart@@UBEXPAVCDC@@@Z 0043dfa0 f   DXFshape.obj
 0001:0003cfc0       ?Serialize@CDXFworkingStart@@UAEXAAVCArchive@@@Z 0043dfc0 f   DXFshape.obj
 0001:0003d1a0       ??0CDXFworkingOutline@@QAE@PAVCDXFshape@@PBVCDXFchain@@MK@Z 0043e1a0 f   DXFshape.obj
 0001:0003d2b0       ?SeparateAdd_Construct@CDXFworkingOutline@@AAEXPBVCDXFchain@@@Z 0043e2b0 f   DXFshape.obj
 0001:0003d470       ?SeparateModify@CDXFworkingOutline@@QAEXXZ 0043e470 f   DXFshape.obj
 0001:0003dac0       ?SetMergeHandle@CDXFworkingOutline@@QAEXABV?$CStringT@DV?$StrTraitMFC_DLL@DV?$ChTraitsCRT@D@ATL@@@@@ATL@@@Z 0043eac0 f   DXFshape.obj
 0001:0003db20       ?DrawTuning@CDXFworkingOutline@@UAEXM@Z 0043eb20 f   DXFshape.obj
 0001:0003db80       ?Draw@CDXFworkingOutline@@UBEXPAVCDC@@@Z 0043eb80 f   DXFshape.obj
 0001:0003dbe0       ?Serialize@CDXFworkingOutline@@UAEXAAVCArchive@@@Z 0043ebe0 f   DXFshape.obj
 0001:0003e250       ?DrawTuning@CDXFworkingPocket@@UAEXM@Z 0043f250 f   DXFshape.obj
 0001:0003e2a0       ?Draw@CDXFworkingPocket@@UBEXPAVCDC@@@Z 0043f2a0 f   DXFshape.obj
 0001:0003e2e0       ?Serialize@CDXFworkingPocket@@UAEXAAVCArchive@@@Z 0043f2e0 f   DXFshape.obj
 0001:0003e300       ??_GCDXFmap@@UAEPAXI@Z     0043f300 f i DXFshape.obj
 0001:0003e300       ??_ECDXFmap@@UAEPAXI@Z     0043f300 f i * CIL library *:* CIL module *
 0001:0003e3d0       ??1CDXFmap@@UAE@XZ         0043f3d0 f   DXFshape.obj
 0001:0003e460       ?Serialize@CDXFmap@@UAEXAAVCArchive@@@Z 0043f460 f   DXFshape.obj
 0001:0003e940       ??0?$CTypedPtrArrayEx@VCObArray@@PAVCDXFdata@@@@QAE@XZ 0043f940 f i DXFshape.obj
 0001:0003e960       ?RemoveAll@CDXFmap@@QAEXXZ 0043f960 f   DXFshape.obj
 0001:0003e9e0       ?SetPointMap@CDXFmap@@QAEXPAVCDXFdata@@@Z 0043f9e0 f   DXFshape.obj
 0001:0003eae0       ?SetMakePointMap@CDXFmap@@QAEXPAVCDXFdata@@@Z 0043fae0 f   DXFshape.obj
 0001:0003ec00       ?IsEulerRequirement@CDXFmap@@QBE?AV?$tuple@HPAV?$CTypedPtrArrayEx@VCObArray@@PAVCDXFdata@@@@V?$CPointT@M@@Unull_type@tuples@boost@@U345@U345@U345@U345@U345@U345@@tuples@boost@@ABV?$CPointT@M@@@Z 0043fc00 f   DXFshape.obj
 0001:0003ee60       ?GetMapTypeFlag@CDXFmap@@QBEKXZ 0043fe60 f   DXFshape.obj
 0001:0003f0d0       ?IsAllSearchFlg@CDXFmap@@QBEHXZ 004400d0 f   DXFshape.obj
 0001:0003f150       ?AllMapObject_ClearSearchFlg@CDXFmap@@QBEXH@Z 00440150 f   DXFshape.obj
 0001:0003f1d0       ?CopyToChain@CDXFmap@@QAEHPAVCDXFchain@@@Z 004401d0 f   DXFshape.obj
 0001:0003f560       ?Append@CDXFmap@@QAEXPBV1@@Z 00440560 f   DXFshape.obj
 0001:0003f680       ?GetObjectCount@CDXFmap@@QBEHXZ 00440680 f   DXFshape.obj
 0001:0003f700       ?RemoveObject@CDXFmap@@QAEXPBVCDXFdata@@@Z 00440700 f   DXFshape.obj
 0001:0003f8c0       ?DrawShape@CDXFmap@@QBEXPAVCDC@@@Z 004408c0 f   DXFshape.obj
 0001:0003fa50       ??_ECDXFchain@@UAEPAXI@Z   00440a50 f i * CIL library *:* CIL module *
 0001:0003fa50       ??_GCDXFchain@@UAEPAXI@Z   00440a50 f i DXFshape.obj
 0001:0003fa90       ??1CDXFchain@@UAE@XZ       00440a90 f   DXFshape.obj
 0001:0003faa0       ?Serialize@CDXFchain@@UAEXAAVCArchive@@@Z 00440aa0 f   DXFshape.obj
 0001:0003fcf0       ?IsPointInPolygon@CDXFchain@@QBEHABV?$CPointT@M@@@Z 00440cf0 f   DXFshape.obj
 0001:0003ffa0       ?SetLoopFunc@CDXFchain@@QAEPAU__POSITION@@PBVCDXFdata@@HH@Z 00440fa0 f   DXFshape.obj
 0001:00040120       ?GetSelectObjectFromShape@CDXFchain@@QAEMABV?$CPointT@M@@PBV?$CRectT@M@@PAPAVCDXFdata@@@Z 00441120 f   DXFshape.obj
 0001:000402b0       ?SetVectorPoint@CDXFchain@@QAEXPAU__POSITION@@AAV?$vector@V?$CPointT@M@@V?$allocator@V?$CPointT@M@@@std@@@std@@I@Z 004412b0 f   DXFshape.obj
 0001:000404a0       ??_GCDXFshape@@UAEPAXI@Z   004414a0 f i DXFshape.obj
 0001:000404a0       ??_ECDXFshape@@UAEPAXI@Z   004414a0 f i * CIL library *:* CIL module *
 0001:000404e0       ??0CDXFshape@@QAE@W4DXFSHAPE_ASSEMBLE@@PBDKPAVCLayerData@@PAVCDXFmap@@@Z 004414e0 f   DXFshape.obj
 0001:00040630       ?Constructor@CDXFshape@@AAEXW4DXFSHAPE_ASSEMBLE@@PBDKPAVCLayerData@@@Z 00441630 f   DXFshape.obj
 0001:000406e0       ?SetDetailInfo@CDXFshape@@AAEXPAVCDXFchain@@@Z 004416e0 f   DXFshape.obj
 0001:000407a0       ?SetDetailInfo@CDXFshape@@AAEXPAVCDXFmap@@@Z 004417a0 f   DXFshape.obj
 0001:000408b0       ??1CDXFshape@@UAE@XZ       004418b0 f   DXFshape.obj
 0001:00040a00       ?Serialize@CDXFshape@@UAEXAAVCArchive@@@Z 00441a00 f   DXFshape.obj
 0001:000410a0       ?DelWorkingData@CDXFshape@@QAEHPAVCDXFworking@@PAV1@@Z 004420a0 f   DXFshape.obj
 0001:00041150       ?DelOutlineData@CDXFshape@@QAEHPAVCDXFworkingOutline@@@Z 00442150 f   DXFshape.obj
 0001:000411d0       ?GetFirstChainPosition@CDXFshape@@QAEPAU__POSITION@@XZ 004421d0 f   DXFshape.obj
 0001:000414c0       ?LinkObject@CDXFshape@@QAEHXZ 004424c0 f   DXFshape.obj
 0001:00041530       ?ChangeCreate_MapToChain@CDXFshape@@QAEHPAVCDXFmap@@@Z 00442530 f   DXFshape.obj
 0001:000416a0       ?ChangeCreate_ChainToMap@CDXFshape@@QAEHPAVCDXFchain@@@Z 004426a0 f   DXFshape.obj
 0001:00041830       ?LinkShape@CDXFshape@@QAEHPAV1@@Z 00442830 f   DXFshape.obj
 0001:00041bd0       ?CreateOutlineTempObject@CDXFshape@@QAEHHPAVCDXFchain@@M@Z 00442bd0 f   DXFshape.obj
 0001:00042550       ?CreateOutlineTempObject_polyline@CDXFshape@@AAEHPBVCDXFpolyline@@HMPAVCDXFchain@@AAV?$CTypedPtrArrayEx@VCPtrArray@@PAV?$CTypedPtrListEx@VCObList@@PAVCDXFdata@@@@@@@Z 00443550 f   DXFshape.obj
 0001:00042be0       ?CreateScanLine_X@CDXFshape@@QAEHPAVCDXFchain@@@Z 00443be0 f   DXFshape.obj
 0001:00042ed0       ?CreateScanLine_Y@CDXFshape@@QAEHPAVCDXFchain@@@Z 00443ed0 f   DXFshape.obj
 0001:000431e0       ?CreateScanLine_ScrollCircle@CDXFshape@@QAEHPAVCDXFchain@@@Z 004441e0 f   DXFshape.obj
 0001:00043550       ?CreateScanLine_Lathe@CDXFshape@@QAEXHM@Z 00444550 f   DXFshape.obj
 0001:00043920       ?CrearScanLine_Lathe@CDXFshape@@QAEXXZ 00444920 f   DXFshape.obj
 0001:00043990       ?SeparateOutlineIntersection@CDXFshape@@AAEHPAVCDXFchain@@AAV?$CTypedPtrArrayEx@VCPtrArray@@PAV?$CTypedPtrListEx@VCObList@@PAVCDXFdata@@@@@@H@Z 00444990 f   DXFshape.obj
 0001:00043d30       ?CheckSeparateChain@CDXFshape@@AAEHPAV?$CTypedPtrListEx@VCObList@@PAVCDXFdata@@@@M@Z 00444d30 f   DXFshape.obj
 0001:00044050       ?DrawWorking@CDXFshape@@QBEXPAVCDC@@@Z 00445050 f   DXFshape.obj
 0001:000441d0       ?GetSelectObjectFromShape@CDXFshape@@QAEMABV?$CPointT@M@@PBV?$CRectT@M@@PAPAVCDXFdata@@@Z 004451d0 f   DXFshape.obj
 0001:00044470       ?SetShapeSwitch@CDXFshape@@QAEXH@Z 00445470 f   DXFshape.obj
 0001:000445e0       ?DrawShape@CDXFshape@@QBEXPAVCDC@@@Z 004455e0 f   DXFshape.obj
 0001:000447e0       ?CreateDxfOffsetObject@@YAPAVCDXFdata@@PBV1@ABV?$CPointT@M@@1HM@Z 004457e0 f   DXFshape.obj
 0001:00045210       ??1?$vector@_NV?$allocator@_N@std@@@std@@QAE@XZ 00446210 f i NCInfoView.obj
 0001:00045210       ??1?$vector@MV?$allocator@M@std@@@std@@QAE@XZ 00446210 f i NCdataGL.obj
 0001:00045210       ??1?$vector@IV?$allocator@I@std@@@std@@QAE@XZ 00446210 f i DXFshape.obj
 0001:00045220       ?GetPrev@?$_CTypedPtrList@VCObList@@PAVCDXFdata@@@@QAEAAPAVCDXFdata@@AAPAU__POSITION@@@Z 00446220 f i DXFshape.obj
 0001:00045240       ?SetAt@?$CMap@V?$CPointT@M@@AAV1@PAV?$CTypedPtrArrayEx@VCObArray@@PAVCDXFdata@@@@AAPAV2@@@QAEXAAV?$CPointT@M@@AAPAV?$CTypedPtrArrayEx@VCObArray@@PAVCDXFdata@@@@@Z 00446240 f i DXFshape.obj
 0001:00045360       ?GetNextAssoc@?$CMap@V?$CPointT@M@@AAV1@PAV?$CTypedPtrArrayEx@VCObArray@@PAVCDXFdata@@@@AAPAV2@@@QBEXAAPAU__POSITION@@AAV?$CPointT@M@@AAPAV?$CTypedPtrArrayEx@VCObArray@@PAVCDXFdata@@@@@Z 00446360 f i DXFshape.obj
 0001:000453e0       ?Serialize@?$CMap@V?$CPointT@M@@AAV1@PAV?$CTypedPtrArrayEx@VCObArray@@PAVCDXFdata@@@@AAPAV2@@@UAEXAAVCArchive@@@Z 004463e0 f i DXFshape.obj
 0001:000454d0       ??$_Emplace_reallocate@ABI@?$vector@IV?$allocator@I@std@@@std@@QAEPAIQAIABI@Z 004464d0 f i DXFshape.obj
 0001:000454d0       ??$_Emplace_reallocate@ABM@?$vector@MV?$allocator@M@std@@@std@@QAEPAMQAMABM@Z 004464d0 f i NCViewGL_Wire.obj
 0001:000454d0       ??$_Emplace_reallocate@I@?$vector@IV?$allocator@I@std@@@std@@QAEPAIQAI$$QAI@Z 004464d0 f i NCdataGL.obj
 0001:000455b0       ??_E?$CMap@V?$CPointT@M@@AAV1@PAV?$CTypedPtrArrayEx@VCObArray@@PAVCDXFdata@@@@AAPAV2@@@UAEPAXI@Z 004465b0 f i * CIL library *:* CIL module *
 0001:000455b0       ??_G?$CMap@V?$CPointT@M@@AAV1@PAV?$CTypedPtrArrayEx@VCObArray@@PAVCDXFdata@@@@AAPAV2@@@UAEPAXI@Z 004465b0 f i DXFshape.obj
 0001:00045670       ?_Change_array@?$vector@MV?$allocator@M@std@@@std@@AAEXQAMII@Z 00446670 f i NCdataGL.obj
 0001:00045670       ?_Change_array@?$vector@IV?$allocator@I@std@@@std@@AAEXQAIII@Z 00446670 f i DXFshape.obj
 0001:000456d0       ?allocate@?$allocator@I@std@@QAEPAII@Z 004466d0 f i DXFshape.obj
 0001:000456d0       ?allocate@?$allocator@M@std@@QAEPAMI@Z 004466d0 f i NCdataGL.obj
 0001:00045730       ?GetAssocAt@?$CMap@V?$CPointT@M@@AAV1@PAV?$CTypedPtrArrayEx@VCObArray@@PAVCDXFdata@@@@AAPAV2@@@IBEPAVCAssoc@1@AAV?$CPointT@M@@AAI1@Z 00446730 f i DXFshape.obj
 0001:000457f0       ??$SerializeElements@V?$CPointT@M@@@@YGXAAVCArchive@@PAV?$CPointT@M@@H@Z 004467f0 f i DXFshape.obj
 0001:00045880       ??$apply_visitor@$$CBUGetObjectCount_Visitor@@@?$variant@PAVCDXFchain@@PAVCDXFmap@@@boost@@QGBEHABUGetObjectCount_Visitor@@@Z 00446880 f i DXFshape.obj
 0001:00045a00       ??$apply_visitor@$$CBUOrgTuning_Visitor@@@?$variant@PAVCDXFchain@@PAVCDXFmap@@@boost@@QGAEXABUOrgTuning_Visitor@@@Z 00446a00 f i DXFshape.obj
 0001:00045bb0       ?variant_assign@?$variant@PAVCNCblock@@PAVCNCdata@@@boost@@AAEX$$QAV12@@Z 00446bb0 f i NCChild.obj
 0001:00045bb0       ?variant_assign@?$variant@PAVCDXFchain@@PAVCDXFmap@@@boost@@AAEX$$QAV12@@Z 00446bb0 f i DXFshape.obj
 0001:00045eb0       ??$apply_visitor@V?$direct_assigner@PAVCDXFchain@@@variant@detail@boost@@@?$variant@PAVCDXFchain@@PAVCDXFmap@@@boost@@QGAE_NAAV?$direct_assigner@PAVCDXFchain@@@variant@detail@1@@Z 00446eb0 f i DXFshape.obj
 0001:00045eb0       ??$apply_visitor@V?$direct_assigner@PAVCNCdata@@@variant@detail@boost@@@?$variant@PAVCNCdata@@URANGEPARAM@@@boost@@QGAE_NAAV?$direct_assigner@PAVCNCdata@@@variant@detail@1@@Z 00446eb0 f i NCViewGL.obj
 0001:00045eb0       ??$apply_visitor@V?$direct_assigner@PAVCNCblock@@@variant@detail@boost@@@?$variant@PAVCNCblock@@PAVCNCdata@@@boost@@QGAE_NAAV?$direct_assigner@PAVCNCblock@@@variant@detail@1@@Z 00446eb0 f i NCListView.obj
 0001:00046030       ??$apply_visitor@V?$direct_assigner@PAVCDXFmap@@@variant@detail@boost@@@?$variant@PAVCDXFchain@@PAVCDXFmap@@@boost@@QGAE_NAAV?$direct_assigner@PAVCDXFmap@@@variant@detail@1@@Z 00447030 f i DXFshape.obj
 0001:00046030       ??$apply_visitor@V?$direct_assigner@PAVCNCdata@@@variant@detail@boost@@@?$variant@PAVCNCblock@@PAVCNCdata@@@boost@@QGAE_NAAV?$direct_assigner@PAVCNCdata@@@variant@detail@1@@Z 00447030 f i NCListView.obj
 0001:00046030       ??$apply_visitor@V?$direct_mover@PAVCNCdata@@@variant@detail@boost@@@?$variant@PAVCNCblock@@PAVCNCdata@@@boost@@QGAE_NAAV?$direct_mover@PAVCNCdata@@@variant@detail@1@@Z 00447030 f i NCChild.obj
 0001:000461b0       ??0bad_get@boost@@QAE@XZ   004471b0 f i DXFshape.obj
 0001:000461d0       ??$throw_exception@Vbad_get@boost@@@boost@@YAXABVbad_get@0@@Z 004471d0 f i DXFshape.obj
 0001:000461f0       ??0?$wrapexcept@Vbad_get@boost@@@boost@@QAE@ABU01@@Z 004471f0 f i DXFshape.obj
 0001:000462b0       ??0bad_get@boost@@QAE@ABV01@@Z 004472b0 f i DXFshape.obj
 0001:000462f0       ?rethrow@?$wrapexcept@Vbad_get@boost@@@boost@@UBEXXZ 004472f0 f i DXFshape.obj
 0001:00046310       ?clone@?$wrapexcept@Vbad_get@boost@@@boost@@UBEPBVclone_base@exception_detail@2@XZ 00447310 f i DXFshape.obj
 0001:000463a0       ??0?$wrapexcept@Vbad_get@boost@@@boost@@QAE@ABVbad_get@1@@Z 004473a0 f i DXFshape.obj
 0001:00046410       ??$apply_visitor@U?$get_visitor@PAVCDXFchain@@@variant@detail@boost@@@?$variant@PAVCDXFchain@@PAVCDXFmap@@@boost@@QGAEPAPAVCDXFchain@@AAU?$get_visitor@PAVCDXFchain@@@variant@detail@1@@Z 00447410 f i DXFshape.obj
 0001:00046410       ??$apply_visitor@U?$get_visitor@PAVCNCdata@@@variant@detail@boost@@@?$variant@PAVCNCdata@@URANGEPARAM@@@boost@@QGAEPAPAVCNCdata@@AAU?$get_visitor@PAVCNCdata@@@variant@detail@1@@Z 00447410 f i NCViewGL_Mill.obj
 0001:00046410       ??$apply_visitor@U?$get_visitor@QAVCDXFchain@@@variant@detail@boost@@@?$variant@PAVCDXFchain@@PAVCDXFmap@@@boost@@QGBEPBQAVCDXFchain@@AAU?$get_visitor@QAVCDXFchain@@@variant@detail@1@@Z 00447410 f i DXFshape.obj
 0001:00046410       ??$apply_visitor@U?$get_visitor@PAVCNCblock@@@variant@detail@boost@@@?$variant@PAVCNCblock@@PAVCNCdata@@@boost@@QGAEPAPAVCNCblock@@AAU?$get_visitor@PAVCNCblock@@@variant@detail@1@@Z 00447410 f i NCChild.obj
 0001:00046590       ??$apply_visitor@U?$get_visitor@PAVCDXFmap@@@variant@detail@boost@@@?$variant@PAVCDXFchain@@PAVCDXFmap@@@boost@@QGAEPAPAVCDXFmap@@AAU?$get_visitor@PAVCDXFmap@@@variant@detail@1@@Z 00447590 f i DXFshape.obj
 0001:00046590       ??$apply_visitor@U?$get_visitor@PAVCNCdata@@@variant@detail@boost@@@?$variant@PAVCNCblock@@PAVCNCdata@@@boost@@QGAEPAPAVCNCdata@@AAU?$get_visitor@PAVCNCdata@@@variant@detail@1@@Z 00447590 f i NCChild.obj
 0001:00046590       ??$apply_visitor@U?$get_visitor@URANGEPARAM@@@variant@detail@boost@@@?$variant@PAVCNCdata@@URANGEPARAM@@@boost@@QGAEPAURANGEPARAM@@AAU?$get_visitor@URANGEPARAM@@@variant@detail@1@@Z 00447590 f i NCViewGL_Mill.obj
 0001:00046590       ??$apply_visitor@U?$get_visitor@QAVCDXFmap@@@variant@detail@boost@@@?$variant@PAVCDXFchain@@PAVCDXFmap@@@boost@@QGBEPBQAVCDXFmap@@AAU?$get_visitor@QAVCDXFmap@@@variant@detail@1@@Z 00447590 f i DXFshape.obj
 0001:00046710       ??$forced_return@PAPAVCNCblock@@@variant@detail@boost@@YAPAPAVCNCblock@@XZ 00447710 f i NCChild.obj
 0001:00046710       ??$forced_return@PBQAVCDXFchain@@@variant@detail@boost@@YAPBQAVCDXFchain@@XZ 00447710 f i DXFshape.obj
 0001:00046710       ??$forced_return@PAPAVCDXFmap@@@variant@detail@boost@@YAPAPAVCDXFmap@@XZ 00447710 f i DXFshape.obj
 0001:00046710       ??$forced_return@PAPAVCDXFshape@@@variant@detail@boost@@YAPAPAVCDXFshape@@XZ 00447710 f i DXFView.obj
 0001:00046710       ??$forced_return@PAPAVCDXFchain@@@variant@detail@boost@@YAPAPAVCDXFchain@@XZ 00447710 f i DXFshape.obj
 0001:00046710       ??$forced_return@PBQAVCDXFmap@@@variant@detail@boost@@YAPBQAVCDXFmap@@XZ 00447710 f i DXFshape.obj
 0001:00046710       ??$forced_return@PAPAVCDXFworking@@@variant@detail@boost@@YAPAPAVCDXFworking@@XZ 00447710 f i DXFView.obj
 0001:00046710       ??$forced_return@PAURANGEPARAM@@@variant@detail@boost@@YAPAURANGEPARAM@@XZ 00447710 f i NCViewGL_Mill.obj
 0001:00046710       ??$forced_return@X@variant@detail@boost@@YAXXZ 00447710 f i DXFshape.obj
 0001:00046710       ??$forced_return@H@variant@detail@boost@@YAHXZ 00447710 f i DXFshape.obj
 0001:00046710       ??$forced_return@_N@variant@detail@boost@@YA_NXZ 00447710 f i DXFshape.obj
 0001:00046710       ??$forced_return@PAPAVCNCdata@@@variant@detail@boost@@YAPAPAVCNCdata@@XZ 00447710 f i NCChild.obj
 0001:00046710       ??$forced_return@PAPAVCLayerData@@@variant@detail@boost@@YAPAPAVCLayerData@@XZ 00447710 f i TH_AutoWorkingSet.obj
 0001:00046720       ??$visitation_impl_invoke@V?$invoke_visitor@U?$get_visitor@PAVCDXFchain@@@variant@detail@boost@@$0A@@variant@detail@boost@@PAXUhas_fallback_type_@?$variant@PAVCDXFchain@@PAVCDXFmap@@@4@@variant@detail@boost@@YAPAPAVCDXFchain@@HAAV?$invoke_visitor@U?$get_visitor@PAVCDXFchain@@@variant@detail@boost@@$0A@@012@PAXPAUapply_visitor_unrolled@012@Uhas_fallback_type_@?$variant@PAVCDXFchain@@PAVCDXFmap@@@2@J@Z 00447720 f i DXFshape.obj
 0001:00046720       ??$visitation_impl@U?$int_@$0BE@@mpl@boost@@U?$visitation_impl_step@U?$l_iter@Ul_end@mpl@boost@@@mpl@boost@@U123@@variant@detail@3@V?$invoke_visitor@V?$direct_assigner@PAVCNCdata@@@variant@detail@boost@@$0A@@563@PAXUhas_fallback_type_@?$variant@PAVCNCdata@@URANGEPARAM@@@3@@variant@detail@boost@@YA_NHHAAV?$invoke_visitor@V?$direct_assigner@PAVCNCdata@@@variant@detail@boost@@$0A@@012@PAXU?$bool_@$00@mpl@2@Uhas_fallback_type_@?$variant@PAVCNCdata@@URANGEPARAM@@@2@PAU?$int_@$0BE@@52@PAU?$visitation_impl_step@U?$l_iter@Ul_end@mpl@boost@@@mpl@boost@@U123@@012@@Z 00447720 f i NCViewGL.obj
 0001:00046720       ??$visitation_impl_invoke@V?$invoke_visitor@V?$direct_assigner@PAVCDXFchain@@@variant@detail@boost@@$0A@@variant@detail@boost@@PAXUhas_fallback_type_@?$variant@PAVCDXFchain@@PAVCDXFmap@@@4@@variant@detail@boost@@YA_NHAAV?$invoke_visitor@V?$direct_assigner@PAVCDXFchain@@@variant@detail@boost@@$0A@@012@PAXPAUapply_visitor_unrolled@012@Uhas_fallback_type_@?$variant@PAVCDXFchain@@PAVCDXFmap@@@2@J@Z 00447720 f i DXFshape.obj
 0001:00046720       ??$visitation_impl_invoke@Vassigner@?$variant@KPAVCLayerData@@PAVCDXFshape@@PAVCDXFworking@@@boost@@PBXUhas_fallback_type_@23@@variant@detail@boost@@YAXHAAVassigner@?$variant@KPAVCLayerData@@PAVCDXFshape@@PAVCDXFworking@@@2@PBXPAUapply_visitor_unrolled@012@Uhas_fallback_type_@42@J@Z 00447720 f i DXFView.obj
 0001:00046720       ??$visitation_impl_invoke@V?$invoke_visitor@U?$get_visitor@PAVCDXFshape@@@variant@detail@boost@@$0A@@variant@detail@boost@@PAXUhas_fallback_type_@?$variant@KPAVCLayerData@@PAVCDXFshape@@PAVCDXFworking@@@4@@variant@detail@boost@@YAPAPAVCDXFshape@@HAAV?$invoke_visitor@U?$get_visitor@PAVCDXFshape@@@variant@detail@boost@@$0A@@012@PAXPAUapply_visitor_unrolled@012@Uhas_fallback_type_@?$variant@KPAVCLayerData@@PAVCDXFshape@@PAVCDXFworking@@@2@J@Z 00447720 f i DXFView.obj
 0001:00046720       ??$visitation_impl@U?$int_@$0BE@@mpl@boost@@U?$visitation_impl_step@U?$l_iter@Ul_end@mpl@boost@@@mpl@boost@@U123@@variant@detail@3@V?$invoke_visitor@V?$direct_assigner@PAVCNCblock@@@variant@detail@boost@@$0A@@563@PAXUhas_fallback_type_@?$variant@PAVCNCblock@@PAVCNCdata@@@3@@variant@detail@boost@@YA_NHHAAV?$invoke_visitor@V?$direct_assigner@PAVCNCblock@@@variant@detail@boost@@$0A@@012@PAXU?$bool_@$00@mpl@2@Uhas_fallback_type_@?$variant@PAVCNCblock@@PAVCNCdata@@@2@PAU?$int_@$0BE@@52@PAU?$visitation_impl_step@U?$l_iter@Ul_end@mpl@boost@@@mpl@boost@@U123@@012@@Z 00447720 f i NCListView.obj
 0001:00046720       ??$visitation_impl_invoke@V?$invoke_visitor@U?$get_visitor@URANGEPARAM@@@variant@detail@boost@@$0A@@variant@detail@boost@@PAXUhas_fallback_type_@?$variant@PAVCNCdata@@URANGEPARAM@@@4@@variant@detail@boost@@YAPAURANGEPARAM@@HAAV?$invoke_visitor@U?$get_visitor@URANGEPARAM@@@variant@detail@boost@@$0A@@012@PAXPAUapply_visitor_unrolled@012@Uhas_fallback_type_@?$variant@PAVCNCdata@@URANGEPARAM@@@2@J@Z 00447720 f i NCViewGL_Mill.obj
 0001:00046720       ??$visitation_impl@U?$int_@$0BE@@mpl@boost@@U?$visitation_impl_step@U?$l_iter@Ul_end@mpl@boost@@@mpl@boost@@U123@@variant@detail@3@V?$invoke_visitor@U?$get_visitor@PAVCDXFshape@@@variant@detail@boost@@$0A@@563@PAXUhas_fallback_type_@?$variant@KPAVCLayerData@@PAVCDXFshape@@PAVCDXFworking@@@3@@variant@detail@boost@@YAPAPAVCDXFshape@@HHAAV?$invoke_visitor@U?$get_visitor@PAVCDXFshape@@@variant@detail@boost@@$0A@@012@PAXU?$bool_@$00@mpl@2@Uhas_fallback_type_@?$variant@KPAVCLayerData@@PAVCDXFshape@@PAVCDXFworking@@@2@PAU?$int_@$0BE@@62@PAU?$visitation_impl_step@U?$l_iter@Ul_end@mpl@boost@@@mpl@boost@@U123@@012@@Z 00447720 f i DXFView.obj
 0001:00046720       ??$visitation_impl@U?$int_@$0BE@@mpl@boost@@U?$visitation_impl_step@U?$l_iter@Ul_end@mpl@boost@@@mpl@boost@@U123@@variant@detail@3@Vmove_assigner@?$variant@KPAVCLayerData@@PAVCDXFshape@@PAVCDXFworking@@@3@PAXUhas_fallback_type_@83@@variant@detail@boost@@YAXHHAAVmove_assigner@?$variant@KPAVCLayerData@@PAVCDXFshape@@PAVCDXFworking@@@2@PAXU?$bool_@$00@mpl@2@Uhas_fallback_type_@42@PAU?$int_@$0BE@@62@PAU?$visitation_impl_step@U?$l_iter@Ul_end@mpl@boost@@@mpl@boost@@U123@@012@@Z 00447720 f i DXFShapeView.obj
 0001:00046720       ??$visitation_impl_invoke@Vmove_assigner@?$variant@PAVCDXFchain@@PAVCDXFmap@@@boost@@PAXUhas_fallback_type_@23@@variant@detail@boost@@YAXHAAVmove_assigner@?$variant@PAVCDXFchain@@PAVCDXFmap@@@2@PAXPAUapply_visitor_unrolled@012@Uhas_fallback_type_@42@J@Z 00447720 f i DXFshape.obj
 0001:00046720       ??$visitation_impl_invoke@Vmove_assigner@?$variant@KPAVCLayerData@@PAVCDXFshape@@PAVCDXFworking@@@boost@@PAXUhas_fallback_type_@23@@variant@detail@boost@@YAXHAAVmove_assigner@?$variant@KPAVCLayerData@@PAVCDXFshape@@PAVCDXFworking@@@2@PAXPAUapply_visitor_unrolled@012@Uhas_fallback_type_@42@J@Z 00447720 f i DXFShapeView.obj
 0001:00046720       ??$visitation_impl@U?$int_@$0BE@@mpl@boost@@U?$visitation_impl_step@U?$l_iter@Ul_end@mpl@boost@@@mpl@boost@@U123@@variant@detail@3@V?$invoke_visitor@U?$get_visitor@QAVCDXFmap@@@variant@detail@boost@@$0A@@563@PBXUhas_fallback_type_@?$variant@PAVCDXFchain@@PAVCDXFmap@@@3@@variant@detail@boost@@YAPBQAVCDXFmap@@HHAAV?$invoke_visitor@U?$get_visitor@QAVCDXFmap@@@variant@detail@boost@@$0A@@012@PBXU?$bool_@$00@mpl@2@Uhas_fallback_type_@?$variant@PAVCDXFchain@@PAVCDXFmap@@@2@PAU?$int_@$0BE@@62@PAU?$visitation_impl_step@U?$l_iter@Ul_end@mpl@boost@@@mpl@boost@@U123@@012@@Z 00447720 f i DXFshape.obj
 0001:00046720       ??$visitation_impl@U?$int_@$0BE@@mpl@boost@@U?$visitation_impl_step@U?$l_iter@Ul_end@mpl@boost@@@mpl@boost@@U123@@variant@detail@3@V?$invoke_visitor@$$CBUOrgTuning_Visitor@@$0A@@563@PAXUhas_fallback_type_@?$variant@PAVCDXFchain@@PAVCDXFmap@@@3@@variant@detail@boost@@YAXHHAAV?$invoke_visitor@$$CBUOrgTuning_Visitor@@$0A@@012@PAXU?$bool_@$00@mpl@2@Uhas_fallback_type_@?$variant@PAVCDXFchain@@PAVCDXFmap@@@2@PAU?$int_@$0BE@@52@PAU?$visitation_impl_step@U?$l_iter@Ul_end@mpl@boost@@@mpl@boost@@U123@@012@@Z 00447720 f i DXFshape.obj
 0001:00046720       ??$visitation_impl_invoke@Umove_storage@variant@detail@boost@@PAXUhas_fallback_type_@?$variant@PAVCNCblock@@PAVCNCdata@@@4@@variant@detail@boost@@YAXHAAUmove_storage@012@PAXPAUapply_visitor_unrolled@012@Uhas_fallback_type_@?$variant@PAVCNCblock@@PAVCNCdata@@@2@J@Z 00447720 f i NCChild.obj
 0001:00046720       ??$visitation_impl_invoke@V?$invoke_visitor@V?$direct_mover@PAVCLayerData@@@variant@detail@boost@@$0A@@variant@detail@boost@@PAXUhas_fallback_type_@?$variant@KPAVCLayerData@@PAVCDXFshape@@PAVCDXFworking@@@4@@variant@detail@boost@@YA_NHAAV?$invoke_visitor@V?$direct_mover@PAVCLayerData@@@variant@detail@boost@@$0A@@012@PAXPAUapply_visitor_unrolled@012@Uhas_fallback_type_@?$variant@KPAVCLayerData@@PAVCDXFshape@@PAVCDXFworking@@@2@J@Z 00447720 f i DXFShapeView.obj
 0001:00046720       ??$visitation_impl@U?$int_@$0BE@@mpl@boost@@U?$visitation_impl_step@U?$l_iter@Ul_end@mpl@boost@@@mpl@boost@@U123@@variant@detail@3@V?$invoke_visitor@U?$get_visitor@PAVCNCdata@@@variant@detail@boost@@$0A@@563@PAXUhas_fallback_type_@?$variant@PAVCNCdata@@URANGEPARAM@@@3@@variant@detail@boost@@YAPAPAVCNCdata@@HHAAV?$invoke_visitor@U?$get_visitor@PAVCNCdata@@@variant@detail@boost@@$0A@@012@PAXU?$bool_@$00@mpl@2@Uhas_fallback_type_@?$variant@PAVCNCdata@@URANGEPARAM@@@2@PAU?$int_@$0BE@@62@PAU?$visitation_impl_step@U?$l_iter@Ul_end@mpl@boost@@@mpl@boost@@U123@@012@@Z 00447720 f i NCViewGL_Mill.obj
 0001:00046720       ??$visitation_impl@U?$int_@$0BE@@mpl@boost@@U?$visitation_impl_step@U?$l_iter@Ul_end@mpl@boost@@@mpl@boost@@U123@@variant@detail@3@V?$invoke_visitor@V?$direct_mover@URANGEPARAM@@@variant@detail@boost@@$0A@@563@PAXUhas_fallback_type_@?$variant@PAVCNCdata@@URANGEPARAM@@@3@@variant@detail@boost@@YA_NHHAAV?$invoke_visitor@V?$direct_mover@URANGEPARAM@@@variant@detail@boost@@$0A@@012@PAXU?$bool_@$00@mpl@2@Uhas_fallback_type_@?$variant@PAVCNCdata@@URANGEPARAM@@@2@PAU?$int_@$0BE@@52@PAU?$visitation_impl_step@U?$l_iter@Ul_end@mpl@boost@@@mpl@boost@@U123@@012@@Z 00447720 f i NCViewGL.obj
 0001:00046720       ??$visitation_impl_invoke@V?$invoke_visitor@V?$direct_assigner@PAVCNCdata@@@variant@detail@boost@@$0A@@variant@detail@boost@@PAXUhas_fallback_type_@?$variant@PAVCNCdata@@URANGEPARAM@@@4@@variant@detail@boost@@YA_NHAAV?$invoke_visitor@V?$direct_assigner@PAVCNCdata@@@variant@detail@boost@@$0A@@012@PAXPAUapply_visitor_unrolled@012@Uhas_fallback_type_@?$variant@PAVCNCdata@@URANGEPARAM@@@2@J@Z 00447720 f i NCViewGL.obj
 0001:00046720       ??$visitation_impl@U?$int_@$0BE@@mpl@boost@@U?$visitation_impl_step@U?$l_iter@Ul_end@mpl@boost@@@mpl@boost@@U123@@variant@detail@3@V?$invoke_visitor@V?$direct_assigner@PAVCDXFshape@@@variant@detail@boost@@$0A@@563@PAXUhas_fallback_type_@?$variant@KPAVCLayerData@@PAVCDXFshape@@PAVCDXFworking@@@3@@variant@detail@boost@@YA_NHHAAV?$invoke_visitor@V?$direct_assigner@PAVCDXFshape@@@variant@detail@boost@@$0A@@012@PAXU?$bool_@$00@mpl@2@Uhas_fallback_type_@?$variant@KPAVCLayerData@@PAVCDXFshape@@PAVCDXFworking@@@2@PAU?$int_@$0BE@@52@PAU?$visitation_impl_step@U?$l_iter@Ul_end@mpl@boost@@@mpl@boost@@U123@@012@@Z 00447720 f i DXFShapeView.obj
 0001:00046720       ??$visitation_impl_invoke@Uassign_storage@variant@detail@boost@@PAXUhas_fallback_type_@?$variant@KPAVCLayerData@@PAVCDXFshape@@PAVCDXFworking@@@4@@variant@detail@boost@@YAXHAAUassign_storage@012@PAXPAUapply_visitor_unrolled@012@Uhas_fallback_type_@?$variant@KPAVCLayerData@@PAVCDXFshape@@PAVCDXFworking@@@2@J@Z 00447720 f i DXFView.obj
 0001:00046720       ??$visitation_impl@U?$int_@$0BE@@mpl@boost@@U?$visitation_impl_step@U?$l_iter@Ul_end@mpl@boost@@@mpl@boost@@U123@@variant@detail@3@V?$invoke_visitor@U?$get_visitor@PAVCLayerData@@@variant@detail@boost@@$0A@@563@PAXUhas_fallback_type_@?$variant@KPAVCLayerData@@PAVCDXFshape@@PAVCDXFworking@@@3@@variant@detail@boost@@YAPAPAVCLayerData@@HHAAV?$invoke_visitor@U?$get_visitor@PAVCLayerData@@@variant@detail@boost@@$0A@@012@PAXU?$bool_@$00@mpl@2@Uhas_fallback_type_@?$variant@KPAVCLayerData@@PAVCDXFshape@@PAVCDXFworking@@@2@PAU?$int_@$0BE@@62@PAU?$visitation_impl_step@U?$l_iter@Ul_end@mpl@boost@@@mpl@boost@@U123@@012@@Z 00447720 f i TH_AutoWorkingSet.obj
 0001:00046720       ??$visitation_impl@U?$int_@$0BE@@mpl@boost@@U?$visitation_impl_step@U?$l_iter@Ul_end@mpl@boost@@@mpl@boost@@U123@@variant@detail@3@V?$invoke_visitor@U?$get_visitor@PAVCNCdata@@@variant@detail@boost@@$0A@@563@PAXUhas_fallback_type_@?$variant@PAVCNCblock@@PAVCNCdata@@@3@@variant@detail@boost@@YAPAPAVCNCdata@@HHAAV?$invoke_visitor@U?$get_visitor@PAVCNCdata@@@variant@detail@boost@@$0A@@012@PAXU?$bool_@$00@mpl@2@Uhas_fallback_type_@?$variant@PAVCNCblock@@PAVCNCdata@@@2@PAU?$int_@$0BE@@62@PAU?$visitation_impl_step@U?$l_iter@Ul_end@mpl@boost@@@mpl@boost@@U123@@012@@Z 00447720 f i NCChild.obj
 0001:00046720       ??$visitation_impl_invoke@V?$invoke_visitor@V?$direct_assigner@PAVCDXFshape@@@variant@detail@boost@@$0A@@variant@detail@boost@@PAXUhas_fallback_type_@?$variant@KPAVCLayerData@@PAVCDXFshape@@PAVCDXFworking@@@4@@variant@detail@boost@@YA_NHAAV?$invoke_visitor@V?$direct_assigner@PAVCDXFshape@@@variant@detail@boost@@$0A@@012@PAXPAUapply_visitor_unrolled@012@Uhas_fallback_type_@?$variant@KPAVCLayerData@@PAVCDXFshape@@PAVCDXFworking@@@2@J@Z 00447720 f i DXFShapeView.obj
 0001:00046720       ??$visitation_impl@U?$int_@$0BE@@mpl@boost@@U?$visitation_impl_step@U?$l_iter@Ul_end@mpl@boost@@@mpl@boost@@U123@@variant@detail@3@V?$invoke_visitor@U?$get_visitor@QAVCDXFchain@@@variant@detail@boost@@$0A@@563@PBXUhas_fallback_type_@?$variant@PAVCDXFchain@@PAVCDXFmap@@@3@@variant@detail@boost@@YAPBQAVCDXFchain@@HHAAV?$invoke_visitor@U?$get_visitor@QAVCDXFchain@@@variant@detail@boost@@$0A@@012@PBXU?$bool_@$00@mpl@2@Uhas_fallback_type_@?$variant@PAVCDXFchain@@PAVCDXFmap@@@2@PAU?$int_@$0BE@@62@PAU?$visitation_impl_step@U?$l_iter@Ul_end@mpl@boost@@@mpl@boost@@U123@@012@@Z 00447720 f i DXFshape.obj
 0001:00046720       ??$visitation_impl_invoke@V?$invoke_visitor@V?$direct_assigner@PAVCNCblock@@@variant@detail@boost@@$0A@@variant@detail@boost@@PAXUhas_fallback_type_@?$variant@PAVCNCblock@@PAVCNCdata@@@4@@variant@detail@boost@@YA_NHAAV?$invoke_visitor@V?$direct_assigner@PAVCNCblock@@@variant@detail@boost@@$0A@@012@PAXPAUapply_visitor_unrolled@012@Uhas_fallback_type_@?$variant@PAVCNCblock@@PAVCNCdata@@@2@J@Z 00447720 f i NCListView.obj
 0001:00046720       ??$visitation_impl@U?$int_@$0BE@@mpl@boost@@U?$visitation_impl_step@U?$l_iter@Ul_end@mpl@boost@@@mpl@boost@@U123@@variant@detail@3@V?$invoke_visitor@V?$direct_assigner@PAVCLayerData@@@variant@detail@boost@@$0A@@563@PAXUhas_fallback_type_@?$variant@KPAVCLayerData@@PAVCDXFshape@@PAVCDXFworking@@@3@@variant@detail@boost@@YA_NHHAAV?$invoke_visitor@V?$direct_assigner@PAVCLayerData@@@variant@detail@boost@@$0A@@012@PAXU?$bool_@$00@mpl@2@Uhas_fallback_type_@?$variant@KPAVCLayerData@@PAVCDXFshape@@PAVCDXFworking@@@2@PAU?$int_@$0BE@@52@PAU?$visitation_impl_step@U?$l_iter@Ul_end@mpl@boost@@@mpl@boost@@U123@@012@@Z 00447720 f i DXFShapeView.obj
 0001:00046720       ??$visitation_impl@U?$int_@$0BE@@mpl@boost@@U?$visitation_impl_step@U?$l_iter@Ul_end@mpl@boost@@@mpl@boost@@U123@@variant@detail@3@V?$invoke_visitor@V?$direct_mover@PAVCNCdata@@@variant@detail@boost@@$0A@@563@PAXUhas_fallback_type_@?$variant@PAVCNCblock@@PAVCNCdata@@@3@@variant@detail@boost@@YA_NHHAAV?$invoke_visitor@V?$direct_mover@PAVCNCdata@@@variant@detail@boost@@$0A@@012@PAXU?$bool_@$00@mpl@2@Uhas_fallback_type_@?$variant@PAVCNCblock@@PAVCNCdata@@@2@PAU?$int_@$0BE@@52@PAU?$visitation_impl_step@U?$l_iter@Ul_end@mpl@boost@@@mpl@boost@@U123@@012@@Z 00447720 f i NCChild.obj
 0001:00046720       ??$visitation_impl_invoke@V?$invoke_visitor@V?$direct_assigner@PAVCDXFworking@@@variant@detail@boost@@$0A@@variant@detail@boost@@PAXUhas_fallback_type_@?$variant@KPAVCLayerData@@PAVCDXFshape@@PAVCDXFworking@@@4@@variant@detail@boost@@YA_NHAAV?$invoke_visitor@V?$direct_assigner@PAVCDXFworking@@@variant@detail@boost@@$0A@@012@PAXPAUapply_visitor_unrolled@012@Uhas_fallback_type_@?$variant@KPAVCLayerData@@PAVCDXFshape@@PAVCDXFworking@@@2@J@Z 00447720 f i DXFShapeView.obj
 0001:00046720       ??$visitation_impl_invoke@Vmove_assigner@?$variant@PAVCNCdata@@URANGEPARAM@@@boost@@PAXUhas_fallback_type_@23@@variant@detail@boost@@YAXHAAVmove_assigner@?$variant@PAVCNCdata@@URANGEPARAM@@@2@PAXPAUapply_visitor_unrolled@012@Uhas_fallback_type_@42@J@Z 00447720 f i NCViewGL.obj
 0001:00046720       ??$visitation_impl@U?$int_@$0BE@@mpl@boost@@U?$visitation_impl_step@U?$l_iter@Ul_end@mpl@boost@@@mpl@boost@@U123@@variant@detail@3@V?$invoke_visitor@V?$direct_mover@K@variant@detail@boost@@$0A@@563@PAXUhas_fallback_type_@?$variant@KPAVCLayerData@@PAVCDXFshape@@PAVCDXFworking@@@3@@variant@detail@boost@@YA_NHHAAV?$invoke_visitor@V?$direct_mover@K@variant@detail@boost@@$0A@@012@PAXU?$bool_@$00@mpl@2@Uhas_fallback_type_@?$variant@KPAVCLayerData@@PAVCDXFshape@@PAVCDXFworking@@@2@PAU?$int_@$0BE@@52@PAU?$visitation_impl_step@U?$l_iter@Ul_end@mpl@boost@@@mpl@boost@@U123@@012@@Z 00447720 f i DXFShapeView.obj
 0001:00046720       ??$visitation_impl@U?$int_@$0BE@@mpl@boost@@U?$visitation_impl_step@U?$l_iter@Ul_end@mpl@boost@@@mpl@boost@@U123@@variant@detail@3@Vassigner@?$variant@KPAVCLayerData@@PAVCDXFshape@@PAVCDXFworking@@@3@PBXUhas_fallback_type_@83@@variant@detail@boost@@YAXHHAAVassigner@?$variant@KPAVCLayerData@@PAVCDXFshape@@PAVCDXFworking@@@2@PBXU?$bool_@$00@mpl@2@Uhas_fallback_type_@42@PAU?$int_@$0BE@@62@PAU?$visitation_impl_step@U?$l_iter@Ul_end@mpl@boost@@@mpl@boost@@U123@@012@@Z 00447720 f i DXFView.obj
 0001:00046720       ??$visitation_impl@U?$int_@$0BE@@mpl@boost@@U?$visitation_impl_step@U?$l_iter@Ul_end@mpl@boost@@@mpl@boost@@U123@@variant@detail@3@V?$invoke_visitor@V?$direct_assigner@PAVCDXFchain@@@variant@detail@boost@@$0A@@563@PAXUhas_fallback_type_@?$variant@PAVCDXFchain@@PAVCDXFmap@@@3@@variant@detail@boost@@YA_NHHAAV?$invoke_visitor@V?$direct_assigner@PAVCDXFchain@@@variant@detail@boost@@$0A@@012@PAXU?$bool_@$00@mpl@2@Uhas_fallback_type_@?$variant@PAVCDXFchain@@PAVCDXFmap@@@2@PAU?$int_@$0BE@@52@PAU?$visitation_impl_step@U?$l_iter@Ul_end@mpl@boost@@@mpl@boost@@U123@@012@@Z 00447720 f i DXFshape.obj
 0001:00046720       ??$visitation_impl_invoke@V?$invoke_visitor@U?$get_visitor@PAVCNCblock@@@variant@detail@boost@@$0A@@variant@detail@boost@@PAXUhas_fallback_type_@?$variant@PAVCNCblock@@PAVCNCdata@@@4@@variant@detail@boost@@YAPAPAVCNCblock@@HAAV?$invoke_visitor@U?$get_visitor@PAVCNCblock@@@variant@detail@boost@@$0A@@012@PAXPAUapply_visitor_unrolled@012@Uhas_fallback_type_@?$variant@PAVCNCblock@@PAVCNCdata@@@2@J@Z 00447720 f i NCChild.obj
 0001:00046720       ??$visitation_impl@U?$int_@$0BE@@mpl@boost@@U?$visitation_impl_step@U?$l_iter@Ul_end@mpl@boost@@@mpl@boost@@U123@@variant@detail@3@V?$invoke_visitor@V?$direct_assigner@PAVCNCdata@@@variant@detail@boost@@$0A@@563@PAXUhas_fallback_type_@?$variant@PAVCNCblock@@PAVCNCdata@@@3@@variant@detail@boost@@YA_NHHAAV?$invoke_visitor@V?$direct_assigner@PAVCNCdata@@@variant@detail@boost@@$0A@@012@PAXU?$bool_@$00@mpl@2@Uhas_fallback_type_@?$variant@PAVCNCblock@@PAVCNCdata@@@2@PAU?$int_@$0BE@@52@PAU?$visitation_impl_step@U?$l_iter@Ul_end@mpl@boost@@@mpl@boost@@U123@@012@@Z 00447720 f i NCListView.obj
 0001:00046720       ??$visitation_impl@U?$int_@$0BE@@mpl@boost@@U?$visitation_impl_step@U?$l_iter@Ul_end@mpl@boost@@@mpl@boost@@U123@@variant@detail@3@V?$invoke_visitor@U?$get_visitor@PAVCDXFworking@@@variant@detail@boost@@$0A@@563@PAXUhas_fallback_type_@?$variant@KPAVCLayerData@@PAVCDXFshape@@PAVCDXFworking@@@3@@variant@detail@boost@@YAPAPAVCDXFworking@@HHAAV?$invoke_visitor@U?$get_visitor@PAVCDXFworking@@@variant@detail@boost@@$0A@@012@PAXU?$bool_@$00@mpl@2@Uhas_fallback_type_@?$variant@KPAVCLayerData@@PAVCDXFshape@@PAVCDXFworking@@@2@PAU?$int_@$0BE@@62@PAU?$visitation_impl_step@U?$l_iter@Ul_end@mpl@boost@@@mpl@boost@@U123@@012@@Z 00447720 f i DXFView.obj
 0001:00046720       ??$visitation_impl@U?$int_@$0BE@@mpl@boost@@U?$visitation_impl_step@U?$l_iter@Ul_end@mpl@boost@@@mpl@boost@@U123@@variant@detail@3@Umove_storage@563@PAXUhas_fallback_type_@?$variant@PAVCNCblock@@PAVCNCdata@@@3@@variant@detail@boost@@YAXHHAAUmove_storage@012@PAXU?$bool_@$00@mpl@2@Uhas_fallback_type_@?$variant@PAVCNCblock@@PAVCNCdata@@@2@PAU?$int_@$0BE@@52@PAU?$visitation_impl_step@U?$l_iter@Ul_end@mpl@boost@@@mpl@boost@@U123@@012@@Z 00447720 f i NCChild.obj
 0001:00046720       ??$visitation_impl_invoke@V?$invoke_visitor@V?$direct_assigner@PAVCLayerData@@@variant@detail@boost@@$0A@@variant@detail@boost@@PAXUhas_fallback_type_@?$variant@KPAVCLayerData@@PAVCDXFshape@@PAVCDXFworking@@@4@@variant@detail@boost@@YA_NHAAV?$invoke_visitor@V?$direct_assigner@PAVCLayerData@@@variant@detail@boost@@$0A@@012@PAXPAUapply_visitor_unrolled@012@Uhas_fallback_type_@?$variant@KPAVCLayerData@@PAVCDXFshape@@PAVCDXFworking@@@2@J@Z 00447720 f i DXFShapeView.obj
 0001:00046720       ??$visitation_impl@U?$int_@$0BE@@mpl@boost@@U?$visitation_impl_step@U?$l_iter@Ul_end@mpl@boost@@@mpl@boost@@U123@@variant@detail@3@V?$invoke_visitor@U?$get_visitor@PAVCDXFchain@@@variant@detail@boost@@$0A@@563@PAXUhas_fallback_type_@?$variant@PAVCDXFchain@@PAVCDXFmap@@@3@@variant@detail@boost@@YAPAPAVCDXFchain@@HHAAV?$invoke_visitor@U?$get_visitor@PAVCDXFchain@@@variant@detail@boost@@$0A@@012@PAXU?$bool_@$00@mpl@2@Uhas_fallback_type_@?$variant@PAVCDXFchain@@PAVCDXFmap@@@2@PAU?$int_@$0BE@@62@PAU?$visitation_impl_step@U?$l_iter@Ul_end@mpl@boost@@@mpl@boost@@U123@@012@@Z 00447720 f i DXFshape.obj
 0001:00046720       ??$visitation_impl@U?$int_@$0BE@@mpl@boost@@U?$visitation_impl_step@U?$l_iter@Ul_end@mpl@boost@@@mpl@boost@@U123@@variant@detail@3@V?$invoke_visitor@V?$direct_mover@PAVCLayerData@@@variant@detail@boost@@$0A@@563@PAXUhas_fallback_type_@?$variant@KPAVCLayerData@@PAVCDXFshape@@PAVCDXFworking@@@3@@variant@detail@boost@@YA_NHHAAV?$invoke_visitor@V?$direct_mover@PAVCLayerData@@@variant@detail@boost@@$0A@@012@PAXU?$bool_@$00@mpl@2@Uhas_fallback_type_@?$variant@KPAVCLayerData@@PAVCDXFshape@@PAVCDXFworking@@@2@PAU?$int_@$0BE@@52@PAU?$visitation_impl_step@U?$l_iter@Ul_end@mpl@boost@@@mpl@boost@@U123@@012@@Z 00447720 f i DXFShapeView.obj
 0001:00046720       ??$visitation_impl@U?$int_@$0BE@@mpl@boost@@U?$visitation_impl_step@U?$l_iter@Ul_end@mpl@boost@@@mpl@boost@@U123@@variant@detail@3@Umove_storage@563@PAXUhas_fallback_type_@?$variant@PAVCNCdata@@URANGEPARAM@@@3@@variant@detail@boost@@YAXHHAAUmove_storage@012@PAXU?$bool_@$00@mpl@2@Uhas_fallback_type_@?$variant@PAVCNCdata@@URANGEPARAM@@@2@PAU?$int_@$0BE@@52@PAU?$visitation_impl_step@U?$l_iter@Ul_end@mpl@boost@@@mpl@boost@@U123@@012@@Z 00447720 f i NCViewGL.obj
 0001:00046720       ??$visitation_impl_invoke@Umove_storage@variant@detail@boost@@PAXUhas_fallback_type_@?$variant@KPAVCLayerData@@PAVCDXFshape@@PAVCDXFworking@@@4@@variant@detail@boost@@YAXHAAUmove_storage@012@PAXPAUapply_visitor_unrolled@012@Uhas_fallback_type_@?$variant@KPAVCLayerData@@PAVCDXFshape@@PAVCDXFworking@@@2@J@Z 00447720 f i DXFShapeView.obj
 0001:00046720       ??$visitation_impl_invoke@V?$invoke_visitor@U?$get_visitor@QAVCDXFmap@@@variant@detail@boost@@$0A@@variant@detail@boost@@PBXUhas_fallback_type_@?$variant@PAVCDXFchain@@PAVCDXFmap@@@4@@variant@detail@boost@@YAPBQAVCDXFmap@@HAAV?$invoke_visitor@U?$get_visitor@QAVCDXFmap@@@variant@detail@boost@@$0A@@012@PBXPAUapply_visitor_unrolled@012@Uhas_fallback_type_@?$variant@PAVCDXFchain@@PAVCDXFmap@@@2@J@Z 00447720 f i DXFshape.obj
 0001:00046720       ??$visitation_impl_invoke@V?$invoke_visitor@V?$direct_mover@URANGEPARAM@@@variant@detail@boost@@$0A@@variant@detail@boost@@PAXUhas_fallback_type_@?$variant@PAVCNCdata@@URANGEPARAM@@@4@@variant@detail@boost@@YA_NHAAV?$invoke_visitor@V?$direct_mover@URANGEPARAM@@@variant@detail@boost@@$0A@@012@PAXPAUapply_visitor_unrolled@012@Uhas_fallback_type_@?$variant@PAVCNCdata@@URANGEPARAM@@@2@J@Z 00447720 f i NCViewGL.obj
 0001:00046720       ??$visitation_impl_invoke@V?$invoke_visitor@$$CBUOrgTuning_Visitor@@$0A@@variant@detail@boost@@PAXUhas_fallback_type_@?$variant@PAVCDXFchain@@PAVCDXFmap@@@4@@variant@detail@boost@@YAXHAAV?$invoke_visitor@$$CBUOrgTuning_Visitor@@$0A@@012@PAXPAUapply_visitor_unrolled@012@Uhas_fallback_type_@?$variant@PAVCDXFchain@@PAVCDXFmap@@@2@J@Z 00447720 f i DXFshape.obj
 0001:00046720       ??$visitation_impl_invoke@V?$invoke_visitor@U?$get_visitor@PAVCDXFworking@@@variant@detail@boost@@$0A@@variant@detail@boost@@PAXUhas_fallback_type_@?$variant@KPAVCLayerData@@PAVCDXFshape@@PAVCDXFworking@@@4@@variant@detail@boost@@YAPAPAVCDXFworking@@HAAV?$invoke_visitor@U?$get_visitor@PAVCDXFworking@@@variant@detail@boost@@$0A@@012@PAXPAUapply_visitor_unrolled@012@Uhas_fallback_type_@?$variant@KPAVCLayerData@@PAVCDXFshape@@PAVCDXFworking@@@2@J@Z 00447720 f i DXFView.obj
 0001:00046720       ??$visitation_impl@U?$int_@$0BE@@mpl@boost@@U?$visitation_impl_step@U?$l_iter@Ul_end@mpl@boost@@@mpl@boost@@U123@@variant@detail@3@V?$invoke_visitor@U?$get_visitor@PAVCDXFmap@@@variant@detail@boost@@$0A@@563@PAXUhas_fallback_type_@?$variant@PAVCDXFchain@@PAVCDXFmap@@@3@@variant@detail@boost@@YAPAPAVCDXFmap@@HHAAV?$invoke_visitor@U?$get_visitor@PAVCDXFmap@@@variant@detail@boost@@$0A@@012@PAXU?$bool_@$00@mpl@2@Uhas_fallback_type_@?$variant@PAVCDXFchain@@PAVCDXFmap@@@2@PAU?$int_@$0BE@@62@PAU?$visitation_impl_step@U?$l_iter@Ul_end@mpl@boost@@@mpl@boost@@U123@@012@@Z 00447720 f i DXFshape.obj
 0001:00046720       ??$visitation_impl@U?$int_@$0BE@@mpl@boost@@U?$visitation_impl_step@U?$l_iter@Ul_end@mpl@boost@@@mpl@boost@@U123@@variant@detail@3@Umove_storage@563@PAXUhas_fallback_type_@?$variant@KPAVCLayerData@@PAVCDXFshape@@PAVCDXFworking@@@3@@variant@detail@boost@@YAXHHAAUmove_storage@012@PAXU?$bool_@$00@mpl@2@Uhas_fallback_type_@?$variant@KPAVCLayerData@@PAVCDXFshape@@PAVCDXFworking@@@2@PAU?$int_@$0BE@@52@PAU?$visitation_impl_step@U?$l_iter@Ul_end@mpl@boost@@@mpl@boost@@U123@@012@@Z 00447720 f i DXFShapeView.obj
 0001:00046720       ??$visitation_impl_invoke@V?$invoke_visitor@V?$direct_assigner@PAVCDXFmap@@@variant@detail@boost@@$0A@@variant@detail@boost@@PAXUhas_fallback_type_@?$variant@PAVCDXFchain@@PAVCDXFmap@@@4@@variant@detail@boost@@YA_NHAAV?$invoke_visitor@V?$direct_assigner@PAVCDXFmap@@@variant@detail@boost@@$0A@@012@PAXPAUapply_visitor_unrolled@012@Uhas_fallback_type_@?$variant@PAVCDXFchain@@PAVCDXFmap@@@2@J@Z 00447720 f i DXFshape.obj
 0001:00046720       ??$visitation_impl_invoke@V?$invoke_visitor@U?$get_visitor@QAVCDXFchain@@@variant@detail@boost@@$0A@@variant@detail@boost@@PBXUhas_fallback_type_@?$variant@PAVCDXFchain@@PAVCDXFmap@@@4@@variant@detail@boost@@YAPBQAVCDXFchain@@HAAV?$invoke_visitor@U?$get_visitor@QAVCDXFchain@@@variant@detail@boost@@$0A@@012@PBXPAUapply_visitor_unrolled@012@Uhas_fallback_type_@?$variant@PAVCDXFchain@@PAVCDXFmap@@@2@J@Z 00447720 f i DXFshape.obj
 0001:00046720       ??$visitation_impl@U?$int_@$0BE@@mpl@boost@@U?$visitation_impl_step@U?$l_iter@Ul_end@mpl@boost@@@mpl@boost@@U123@@variant@detail@3@V?$invoke_visitor@$$CBUGetObjectCount_Visitor@@$0A@@563@PBXUhas_fallback_type_@?$variant@PAVCDXFchain@@PAVCDXFmap@@@3@@variant@detail@boost@@YAHHHAAV?$invoke_visitor@$$CBUGetObjectCount_Visitor@@$0A@@012@PBXU?$bool_@$00@mpl@2@Uhas_fallback_type_@?$variant@PAVCDXFchain@@PAVCDXFmap@@@2@PAU?$int_@$0BE@@52@PAU?$visitation_impl_step@U?$l_iter@Ul_end@mpl@boost@@@mpl@boost@@U123@@012@@Z 00447720 f i DXFshape.obj
 0001:00046720       ??$visitation_impl@U?$int_@$0BE@@mpl@boost@@U?$visitation_impl_step@U?$l_iter@Ul_end@mpl@boost@@@mpl@boost@@U123@@variant@detail@3@Vmove_assigner@?$variant@PAVCNCblock@@PAVCNCdata@@@3@PAXUhas_fallback_type_@83@@variant@detail@boost@@YAXHHAAVmove_assigner@?$variant@PAVCNCblock@@PAVCNCdata@@@2@PAXU?$bool_@$00@mpl@2@Uhas_fallback_type_@42@PAU?$int_@$0BE@@62@PAU?$visitation_impl_step@U?$l_iter@Ul_end@mpl@boost@@@mpl@boost@@U123@@012@@Z 00447720 f i NCChild.obj
 0001:00046720       ??$visitation_impl@U?$int_@$0BE@@mpl@boost@@U?$visitation_impl_step@U?$l_iter@Ul_end@mpl@boost@@@mpl@boost@@U123@@variant@detail@3@V?$invoke_visitor@U?$get_visitor@URANGEPARAM@@@variant@detail@boost@@$0A@@563@PAXUhas_fallback_type_@?$variant@PAVCNCdata@@URANGEPARAM@@@3@@variant@detail@boost@@YAPAURANGEPARAM@@HHAAV?$invoke_visitor@U?$get_visitor@URANGEPARAM@@@variant@detail@boost@@$0A@@012@PAXU?$bool_@$00@mpl@2@Uhas_fallback_type_@?$variant@PAVCNCdata@@URANGEPARAM@@@2@PAU?$int_@$0BE@@62@PAU?$visitation_impl_step@U?$l_iter@Ul_end@mpl@boost@@@mpl@boost@@U123@@012@@Z 00447720 f i NCViewGL_Mill.obj
 0001:00046720       ??$visitation_impl_invoke@V?$invoke_visitor@V?$direct_mover@PAVCNCdata@@@variant@detail@boost@@$0A@@variant@detail@boost@@PAXUhas_fallback_type_@?$variant@PAVCNCblock@@PAVCNCdata@@@4@@variant@detail@boost@@YA_NHAAV?$invoke_visitor@V?$direct_mover@PAVCNCdata@@@variant@detail@boost@@$0A@@012@PAXPAUapply_visitor_unrolled@012@Uhas_fallback_type_@?$variant@PAVCNCblock@@PAVCNCdata@@@2@J@Z 00447720 f i NCChild.obj
 0001:00046720       ??$visitation_impl@U?$int_@$0BE@@mpl@boost@@U?$visitation_impl_step@U?$l_iter@Ul_end@mpl@boost@@@mpl@boost@@U123@@variant@detail@3@V?$invoke_visitor@V?$direct_assigner@PAVCDXFworking@@@variant@detail@boost@@$0A@@563@PAXUhas_fallback_type_@?$variant@KPAVCLayerData@@PAVCDXFshape@@PAVCDXFworking@@@3@@variant@detail@boost@@YA_NHHAAV?$invoke_visitor@V?$direct_assigner@PAVCDXFworking@@@variant@detail@boost@@$0A@@012@PAXU?$bool_@$00@mpl@2@Uhas_fallback_type_@?$variant@KPAVCLayerData@@PAVCDXFshape@@PAVCDXFworking@@@2@PAU?$int_@$0BE@@52@PAU?$visitation_impl_step@U?$l_iter@Ul_end@mpl@boost@@@mpl@boost@@U123@@012@@Z 00447720 f i DXFShapeView.obj
 0001:00046720       ??$visitation_impl_invoke@V?$invoke_visitor@V?$direct_assigner@PAVCNCdata@@@variant@detail@boost@@$0A@@variant@detail@boost@@PAXUhas_fallback_type_@?$variant@PAVCNCblock@@PAVCNCdata@@@4@@variant@detail@boost@@YA_NHAAV?$invoke_visitor@V?$direct_assigner@PAVCNCdata@@@variant@detail@boost@@$0A@@012@PAXPAUapply_visitor_unrolled@012@Uhas_fallback_type_@?$variant@PAVCNCblock@@PAVCNCdata@@@2@J@Z 00447720 f i NCListView.obj
 0001:00046720       ??$visitation_impl@U?$int_@$0BE@@mpl@boost@@U?$visitation_impl_step@U?$l_iter@Ul_end@mpl@boost@@@mpl@boost@@U123@@variant@detail@3@Vmove_assigner@?$variant@PAVCDXFchain@@PAVCDXFmap@@@3@PAXUhas_fallback_type_@83@@variant@detail@boost@@YAXHHAAVmove_assigner@?$variant@PAVCDXFchain@@PAVCDXFmap@@@2@PAXU?$bool_@$00@mpl@2@Uhas_fallback_type_@42@PAU?$int_@$0BE@@62@PAU?$visitation_impl_step@U?$l_iter@Ul_end@mpl@boost@@@mpl@boost@@U123@@012@@Z 00447720 f i DXFshape.obj
 0001:00046720       ??$visitation_impl@U?$int_@$0BE@@mpl@boost@@U?$visitation_impl_step@U?$l_iter@Ul_end@mpl@boost@@@mpl@boost@@U123@@variant@detail@3@V?$invoke_visitor@U?$get_visitor@PAVCNCblock@@@variant@detail@boost@@$0A@@563@PAXUhas_fallback_type_@?$variant@PAVCNCblock@@PAVCNCdata@@@3@@variant@detail@boost@@YAPAPAVCNCblock@@HHAAV?$invoke_visitor@U?$get_visitor@PAVCNCblock@@@variant@detail@boost@@$0A@@012@PAXU?$bool_@$00@mpl@2@Uhas_fallback_type_@?$variant@PAVCNCblock@@PAVCNCdata@@@2@PAU?$int_@$0BE@@62@PAU?$visitation_impl_step@U?$l_iter@Ul_end@mpl@boost@@@mpl@boost@@U123@@012@@Z 00447720 f i NCChild.obj
 0001:00046720       ??$visitation_impl@U?$int_@$0BE@@mpl@boost@@U?$visitation_impl_step@U?$l_iter@Ul_end@mpl@boost@@@mpl@boost@@U123@@variant@detail@3@Vmove_assigner@?$variant@PAVCNCdata@@URANGEPARAM@@@3@PAXUhas_fallback_type_@83@@variant@detail@boost@@YAXHHAAVmove_assigner@?$variant@PAVCNCdata@@URANGEPARAM@@@2@PAXU?$bool_@$00@mpl@2@Uhas_fallback_type_@42@PAU?$int_@$0BE@@62@PAU?$visitation_impl_step@U?$l_iter@Ul_end@mpl@boost@@@mpl@boost@@U123@@012@@Z 00447720 f i NCViewGL.obj
 0001:00046720       ??$visitation_impl@U?$int_@$0BE@@mpl@boost@@U?$visitation_impl_step@U?$l_iter@Ul_end@mpl@boost@@@mpl@boost@@U123@@variant@detail@3@Umove_storage@563@PAXUhas_fallback_type_@?$variant@PAVCDXFchain@@PAVCDXFmap@@@3@@variant@detail@boost@@YAXHHAAUmove_storage@012@PAXU?$bool_@$00@mpl@2@Uhas_fallback_type_@?$variant@PAVCDXFchain@@PAVCDXFmap@@@2@PAU?$int_@$0BE@@52@PAU?$visitation_impl_step@U?$l_iter@Ul_end@mpl@boost@@@mpl@boost@@U123@@012@@Z 00447720 f i DXFshape.obj
 0001:00046720       ??$visitation_impl_invoke@V?$invoke_visitor@U?$get_visitor@PAVCLayerData@@@variant@detail@boost@@$0A@@variant@detail@boost@@PAXUhas_fallback_type_@?$variant@KPAVCLayerData@@PAVCDXFshape@@PAVCDXFworking@@@4@@variant@detail@boost@@YAPAPAVCLayerData@@HAAV?$invoke_visitor@U?$get_visitor@PAVCLayerData@@@variant@detail@boost@@$0A@@012@PAXPAUapply_visitor_unrolled@012@Uhas_fallback_type_@?$variant@KPAVCLayerData@@PAVCDXFshape@@PAVCDXFworking@@@2@J@Z 00447720 f i TH_AutoWorkingSet.obj
 0001:00046720       ??$visitation_impl_invoke@Umove_storage@variant@detail@boost@@PAXUhas_fallback_type_@?$variant@PAVCDXFchain@@PAVCDXFmap@@@4@@variant@detail@boost@@YAXHAAUmove_storage@012@PAXPAUapply_visitor_unrolled@012@Uhas_fallback_type_@?$variant@PAVCDXFchain@@PAVCDXFmap@@@2@J@Z 00447720 f i DXFshape.obj
 0001:00046720       ??$visitation_impl@U?$int_@$0BE@@mpl@boost@@U?$visitation_impl_step@U?$l_iter@Ul_end@mpl@boost@@@mpl@boost@@U123@@variant@detail@3@Uassign_storage@563@PAXUhas_fallback_type_@?$variant@KPAVCLayerData@@PAVCDXFshape@@PAVCDXFworking@@@3@@variant@detail@boost@@YAXHHAAUassign_storage@012@PAXU?$bool_@$00@mpl@2@Uhas_fallback_type_@?$variant@KPAVCLayerData@@PAVCDXFshape@@PAVCDXFworking@@@2@PAU?$int_@$0BE@@52@PAU?$visitation_impl_step@U?$l_iter@Ul_end@mpl@boost@@@mpl@boost@@U123@@012@@Z 00447720 f i DXFView.obj
 0001:00046720       ??$visitation_impl@U?$int_@$0BE@@mpl@boost@@U?$visitation_impl_step@U?$l_iter@Ul_end@mpl@boost@@@mpl@boost@@U123@@variant@detail@3@V?$invoke_visitor@V?$direct_assigner@PAVCDXFmap@@@variant@detail@boost@@$0A@@563@PAXUhas_fallback_type_@?$variant@PAVCDXFchain@@PAVCDXFmap@@@3@@variant@detail@boost@@YA_NHHAAV?$invoke_visitor@V?$direct_assigner@PAVCDXFmap@@@variant@detail@boost@@$0A@@012@PAXU?$bool_@$00@mpl@2@Uhas_fallback_type_@?$variant@PAVCDXFchain@@PAVCDXFmap@@@2@PAU?$int_@$0BE@@52@PAU?$visitation_impl_step@U?$l_iter@Ul_end@mpl@boost@@@mpl@boost@@U123@@012@@Z 00447720 f i DXFshape.obj
 0001:00046720       ??$visitation_impl_invoke@V?$invoke_visitor@U?$get_visitor@PAVCNCdata@@@variant@detail@boost@@$0A@@variant@detail@boost@@PAXUhas_fallback_type_@?$variant@PAVCNCblock@@PAVCNCdata@@@4@@variant@detail@boost@@YAPAPAVCNCdata@@HAAV?$invoke_visitor@U?$get_visitor@PAVCNCdata@@@variant@detail@boost@@$0A@@012@PAXPAUapply_visitor_unrolled@012@Uhas_fallback_type_@?$variant@PAVCNCblock@@PAVCNCdata@@@2@J@Z 00447720 f i NCChild.obj
 0001:00046720       ??$visitation_impl_invoke@Vmove_assigner@?$variant@PAVCNCblock@@PAVCNCdata@@@boost@@PAXUhas_fallback_type_@23@@variant@detail@boost@@YAXHAAVmove_assigner@?$variant@PAVCNCblock@@PAVCNCdata@@@2@PAXPAUapply_visitor_unrolled@012@Uhas_fallback_type_@42@J@Z 00447720 f i NCChild.obj
 0001:00046720       ??$visitation_impl_invoke@V?$invoke_visitor@U?$get_visitor@PAVCNCdata@@@variant@detail@boost@@$0A@@variant@detail@boost@@PAXUhas_fallback_type_@?$variant@PAVCNCdata@@URANGEPARAM@@@4@@variant@detail@boost@@YAPAPAVCNCdata@@HAAV?$invoke_visitor@U?$get_visitor@PAVCNCdata@@@variant@detail@boost@@$0A@@012@PAXPAUapply_visitor_unrolled@012@Uhas_fallback_type_@?$variant@PAVCNCdata@@URANGEPARAM@@@2@J@Z 00447720 f i NCViewGL_Mill.obj
 0001:00046720       ??$visitation_impl_invoke@V?$invoke_visitor@V?$direct_mover@K@variant@detail@boost@@$0A@@variant@detail@boost@@PAXUhas_fallback_type_@?$variant@KPAVCLayerData@@PAVCDXFshape@@PAVCDXFworking@@@4@@variant@detail@boost@@YA_NHAAV?$invoke_visitor@V?$direct_mover@K@variant@detail@boost@@$0A@@012@PAXPAUapply_visitor_unrolled@012@Uhas_fallback_type_@?$variant@KPAVCLayerData@@PAVCDXFshape@@PAVCDXFworking@@@2@J@Z 00447720 f i DXFShapeView.obj
 0001:00046720       ??$visitation_impl_invoke@V?$invoke_visitor@U?$get_visitor@PAVCDXFmap@@@variant@detail@boost@@$0A@@variant@detail@boost@@PAXUhas_fallback_type_@?$variant@PAVCDXFchain@@PAVCDXFmap@@@4@@variant@detail@boost@@YAPAPAVCDXFmap@@HAAV?$invoke_visitor@U?$get_visitor@PAVCDXFmap@@@variant@detail@boost@@$0A@@012@PAXPAUapply_visitor_unrolled@012@Uhas_fallback_type_@?$variant@PAVCDXFchain@@PAVCDXFmap@@@2@J@Z 00447720 f i DXFshape.obj
 0001:00046720       ??$visitation_impl_invoke@Umove_storage@variant@detail@boost@@PAXUhas_fallback_type_@?$variant@PAVCNCdata@@URANGEPARAM@@@4@@variant@detail@boost@@YAXHAAUmove_storage@012@PAXPAUapply_visitor_unrolled@012@Uhas_fallback_type_@?$variant@PAVCNCdata@@URANGEPARAM@@@2@J@Z 00447720 f i NCViewGL.obj
 0001:00046720       ??$visitation_impl_invoke@V?$invoke_visitor@$$CBUGetObjectCount_Visitor@@$0A@@variant@detail@boost@@PBXUhas_fallback_type_@?$variant@PAVCDXFchain@@PAVCDXFmap@@@4@@variant@detail@boost@@YAHHAAV?$invoke_visitor@$$CBUGetObjectCount_Visitor@@$0A@@012@PBXPAUapply_visitor_unrolled@012@Uhas_fallback_type_@?$variant@PAVCDXFchain@@PAVCDXFmap@@@2@J@Z 00447720 f i DXFshape.obj
 0001:00046730       ??$visitation_impl_invoke@V?$invoke_visitor@$$CBUOrgTuning_Visitor@@$0A@@variant@detail@boost@@PAXPAVCDXFmap@@Uhas_fallback_type_@?$variant@PAVCDXFchain@@PAVCDXFmap@@@4@@variant@detail@boost@@YAXHAAV?$invoke_visitor@$$CBUOrgTuning_Visitor@@$0A@@012@PAXPAPAVCDXFmap@@Uhas_fallback_type_@?$variant@PAVCDXFchain@@PAVCDXFmap@@@2@H@Z 00447730 f i DXFshape.obj
 0001:000467b0       ?what@bad_get@boost@@UBEPBDXZ 004477b0 f i DXFshape.obj
 0001:000467c0       _acosf                     004477c0 f i DXFshape.obj
 0001:000467e0       ?CreateObject@CDXFShapeView@@SGPAVCObject@@XZ 004477e0 f   DXFShapeView.obj
 0001:00046890       ?_GetBaseClass@CDXFShapeView@@KGPAUCRuntimeClass@@XZ 00447890 f   DXFShapeView.obj
 0001:000468a0       ?GetRuntimeClass@CDXFShapeView@@UBEPAUCRuntimeClass@@XZ 004478a0 f   DXFShapeView.obj
 0001:000468b0       ?GetMessageMap@CDXFShapeView@@MBEPBUAFX_MSGMAP@@XZ 004478b0 f   DXFShapeView.obj
 0001:000468c0       ??_ECDXFShapeView@@UAEPAXI@Z 004478c0 f i * CIL library *:* CIL module *
 0001:000468c0       ??_GCDXFShapeView@@UAEPAXI@Z 004478c0 f i DXFShapeView.obj
 0001:00046900       ?PreCreateWindow@CDXFShapeView@@MAEHAAUtagCREATESTRUCTA@@@Z 00447900 f   DXFShapeView.obj
 0001:00046920       ?OnInitialUpdate@CDXFShapeView@@UAEXXZ 00447920 f   DXFShapeView.obj
 0001:00046a90       ?OnUpdate@CDXFShapeView@@MAEXPAVCView@@JPAVCObject@@@Z 00447a90 f   DXFShapeView.obj
 0001:00046d50       ?PreTranslateMessage@CDXFShapeView@@UAEHPAUtagMSG@@@Z 00447d50 f   DXFShapeView.obj
 0001:00046e40       ?OnUpdateShape@CDXFShapeView@@AAEXPAUDXFADDSHAPE@@@Z 00447e40 f   DXFShapeView.obj
 0001:00047090       ?DragInsert@CDXFShapeView@@AAEXXZ 00448090 f   DXFShapeView.obj
 0001:00047210       ?DragInsertLayer@CDXFShapeView@@AAEPAU_TREEITEM@@XZ 00448210 f   DXFShapeView.obj
 0001:00047650       ?DragInsertShape@CDXFShapeView@@AAEPAU_TREEITEM@@XZ 00448650 f   DXFShapeView.obj
 0001:000479c0       ?DragLink@CDXFShapeView@@AAEXXZ 004489c0 f   DXFShapeView.obj
 0001:00047d00       ?DragCancel@CDXFShapeView@@AAEXHH@Z 00448d00 f   DXFShapeView.obj
 0001:00047dc0       ?SearchLayerTree@CDXFShapeView@@AAEPAU_TREEITEM@@PAU2@PBVCLayerData@@@Z 00448dc0 f   DXFShapeView.obj
 0001:00047e10       ?GetParentAssemble@CDXFShapeView@@AAEKPAU_TREEITEM@@@Z 00448e10 f   DXFShapeView.obj
 0001:00047e90       ?SetShapeSwitch_SubordinateTree@CDXFShapeView@@AAEXPAU_TREEITEM@@H@Z 00448e90 f   DXFShapeView.obj
 0001:00047f60       ?SetShapeTree@CDXFShapeView@@AAEXXZ 00448f60 f   DXFShapeView.obj
 0001:00048130       ?AutoWorkingDel@CDXFShapeView@@AAEXPBVCLayerData@@PBVCDXFshape@@@Z 00449130 f   DXFShapeView.obj
 0001:000482a0       ?AutoWorkingSet@CDXFShapeView@@AAEXHPBVCLayerData@@PBVCDXFshape@@@Z 004492a0 f   DXFShapeView.obj
 0001:00048480       ?OnSortShape@CDXFShapeView@@IAEXXZ 00449480 f   DXFShapeView.obj
 0001:00048510       ?OnUpdateWorkingDel@CDXFShapeView@@IAEXPAVCCmdUI@@@Z 00449510 f   DXFShapeView.obj
 0001:00048590       ?OnWorkingDel@CDXFShapeView@@IAEXXZ 00449590 f   DXFShapeView.obj
 0001:00048660       ?OnUpdateEditShapeProp@CDXFShapeView@@IAEXPAVCCmdUI@@@Z 00449660 f   DXFShapeView.obj
 0001:000486d0       ?OnEditShapeProp@CDXFShapeView@@IAEXXZ 004496d0 f   DXFShapeView.obj
 0001:00049140       ??1CShapePropDlg@@UAE@XZ   0044a140 f i DXFShapeView.obj
 0001:00049190       ?OnUpdateEditShapeName@CDXFShapeView@@IAEXPAVCCmdUI@@@Z 0044a190 f   DXFShapeView.obj
 0001:00049200       ?OnEditShapeName@CDXFShapeView@@IAEXXZ 0044a200 f   DXFShapeView.obj
 0001:00049270       ?OnCreate@CDXFShapeView@@IAEHPAUtagCREATESTRUCTA@@@Z 0044a270 f   DXFShapeView.obj
 0001:000492d0       ?OnContextMenu@CDXFShapeView@@IAEXPAVCWnd@@VCPoint@@@Z 0044a2d0 f   DXFShapeView.obj
 0001:000493a0       ?OnGetDispInfo@CDXFShapeView@@IAEXPAUtagNMHDR@@PAJ@Z 0044a3a0 f   DXFShapeView.obj
 0001:00049440       ?OnBeginLabelEdit@CDXFShapeView@@IAEXPAUtagNMHDR@@PAJ@Z 0044a440 f   DXFShapeView.obj
 0001:000494a0       ?OnEndLabelEdit@CDXFShapeView@@IAEXPAUtagNMHDR@@PAJ@Z 0044a4a0 f   DXFShapeView.obj
 0001:000495a0       ?OnKeyDown@CDXFShapeView@@IAEXPAUtagNMHDR@@PAJ@Z 0044a5a0 f   DXFShapeView.obj
 0001:000496b0       ?OnChar@CDXFShapeView@@IAEXIII@Z 0044a6b0 f   DXFShapeView.obj
 0001:000496c0       ?OnSelChanged@CDXFShapeView@@IAEXPAUtagNMHDR@@PAJ@Z 0044a6c0 f   DXFShapeView.obj
 0001:000499a0       ?OnBeginDrag@CDXFShapeView@@IAEXPAUtagNMHDR@@PAJ@Z 0044a9a0 f   DXFShapeView.obj
 0001:00049b60       ?OnMouseMove@CDXFShapeView@@IAEXIVCPoint@@@Z 0044ab60 f   DXFShapeView.obj
 0001:00049cd0       ?OnLButtonUp@CDXFShapeView@@IAEXIVCPoint@@@Z 0044acd0 f   DXFShapeView.obj
 0001:00049d30       ?SetCorrectPoint@CNCcycle@@UAEXW4ENPOINTORDER@@ABV?$CPointT@M@@M@Z 0044ad30 f   NCdata.obj
 0001:00049d30       ?DrawWireLine@CNCdata@@UBEXW4ENNCDRAWVIEW@@PAVCDC@@H@Z 0044ad30 f   NCdata.obj
 0001:00049d30       ?SetCorrectPoint@CNCdata@@UAEXW4ENPOINTORDER@@ABV?$CPointT@M@@M@Z 0044ad30 f   NCdata.obj
 0001:00049d30       ?OnRButtonDown@CDXFShapeView@@IAEXIVCPoint@@@Z 0044ad30 f   DXFShapeView.obj
 0001:00049d40       ?OnRButtonUp@CDXFShapeView@@IAEXIVCPoint@@@Z 0044ad40 f   DXFShapeView.obj
 0001:00049d90       ??0?$variant@KPAVCLayerData@@PAVCDXFshape@@PAVCDXFworking@@@boost@@QAE@XZ 0044ad90 f i DXFShapeView.obj
 0001:00049da0       ?variant_assign@?$variant@KPAVCLayerData@@PAVCDXFshape@@PAVCDXFworking@@@boost@@AAEXABV12@@Z 0044ada0 f i DXFView.obj
 0001:00049da0       ?variant_assign@?$variant@KPAVCLayerData@@PAVCDXFshape@@PAVCDXFworking@@@boost@@AAEX$$QAV12@@Z 0044ada0 f i DXFShapeView.obj
 0001:0004a070       ??$apply_visitor@V?$direct_mover@K@variant@detail@boost@@@?$variant@KPAVCLayerData@@PAVCDXFshape@@PAVCDXFworking@@@boost@@QGAE_NAAV?$direct_mover@K@variant@detail@1@@Z 0044b070 f i DXFShapeView.obj
 0001:0004a1e0       ??$apply_visitor@V?$direct_mover@PAVCLayerData@@@variant@detail@boost@@@?$variant@KPAVCLayerData@@PAVCDXFshape@@PAVCDXFworking@@@boost@@QGAE_NAAV?$direct_mover@PAVCLayerData@@@variant@detail@1@@Z 0044b1e0 f i DXFShapeView.obj
 0001:0004a1e0       ??$apply_visitor@V?$direct_assigner@PAVCLayerData@@@variant@detail@boost@@@?$variant@KPAVCLayerData@@PAVCDXFshape@@PAVCDXFworking@@@boost@@QGAE_NAAV?$direct_assigner@PAVCLayerData@@@variant@detail@1@@Z 0044b1e0 f i DXFShapeView.obj
 0001:0004a350       ??$apply_visitor@V?$direct_assigner@PAVCDXFshape@@@variant@detail@boost@@@?$variant@KPAVCLayerData@@PAVCDXFshape@@PAVCDXFworking@@@boost@@QGAE_NAAV?$direct_assigner@PAVCDXFshape@@@variant@detail@1@@Z 0044b350 f i DXFShapeView.obj
 0001:0004a4c0       ??$apply_visitor@V?$direct_assigner@PAVCDXFworking@@@variant@detail@boost@@@?$variant@KPAVCLayerData@@PAVCDXFshape@@PAVCDXFworking@@@boost@@QGAE_NAAV?$direct_assigner@PAVCDXFworking@@@variant@detail@1@@Z 0044b4c0 f i DXFShapeView.obj
 0001:0004a630       ?GetBindInfo_fromView@CDXFDoc@@QBEHPBVCDXFView@@@Z 0044b630 f i DXFView.obj
 0001:0004a670       ?DrawMagnifyRect@CViewBase@@QAEXPAVCDC@@@Z 0044b670 f i DXFView.obj
 0001:0004a700       ?CreateObject@CDXFView@@SGPAVCObject@@XZ 0044b700 f   DXFView.obj
 0001:0004a900       ?_GetBaseClass@CNCViewBase@@KGPAUCRuntimeClass@@XZ 0044b900 f   NCViewBase.obj
 0001:0004a900       ?GetRuntimeClass@CViewBase@@UBEPAUCRuntimeClass@@XZ 0044b900 f   ViewBase.obj
 0001:0004a900       ?_GetBaseClass@CDXFView@@KGPAUCRuntimeClass@@XZ 0044b900 f   DXFView.obj
 0001:0004a910       ?GetRuntimeClass@CDXFView@@UBEPAUCRuntimeClass@@XZ 0044b910 f   DXFView.obj
 0001:0004a920       ?GetMessageMap@CDXFView@@MBEPBUAFX_MSGMAP@@XZ 0044b920 f   DXFView.obj
 0001:0004a930       ??_ECDXFView@@UAEPAXI@Z    0044b930 f i * CIL library *:* CIL module *
 0001:0004a930       ??_GCDXFView@@UAEPAXI@Z    0044b930 f i DXFView.obj
 0001:0004aa00       ??1CViewBase@@UAE@XZ       0044ba00 f i DXFView.obj
 0001:0004aa10       ??_FCDXFchain@@QAEXXZ      0044ba10 f i DXFView.obj
 0001:0004aa60       ??_E?$CTypedPtrList@VCPtrList@@PAVCMCTOOLINFO@@@@UAEPAXI@Z 0044ba60 f i * CIL library *:* CIL module *
 0001:0004aa60       ??_G?$CTypedPtrListEx@VCPtrList@@PAUCADBINDINFO@@@@UAEPAXI@Z 0044ba60 f i DXFView.obj
 0001:0004aa60       ??_G?$CTypedPtrList@VCPtrList@@PAVCMCTOOLINFO@@@@UAEPAXI@Z 0044ba60 f i MCOption.obj
 0001:0004aa60       ??_E?$CTypedPtrList@VCPtrList@@PAVCExecOption@@@@UAEPAXI@Z 0044ba60 f i * CIL library *:* CIL module *
 0001:0004aa60       ??_G?$CTypedPtrList@VCPtrList@@PAVCExecOption@@@@UAEPAXI@Z 0044ba60 f i NCVC.obj
 0001:0004aa60       ??_E?$CTypedPtrList@VCPtrList@@PAVCRecentViewInfo@@@@UAEPAXI@Z 0044ba60 f i * CIL library *:* CIL module *
 0001:0004aa60       ??_E?$CTypedPtrListEx@VCPtrList@@PAUCADBINDINFO@@@@UAEPAXI@Z 0044ba60 f i * CIL library *:* CIL module *
 0001:0004aa60       ??_G?$CTypedPtrList@VCPtrList@@PAVCRecentViewInfo@@@@UAEPAXI@Z 0044ba60 f i NCVC.obj
 0001:0004aaa0       ?OnCmdMsg@CDXFView@@UAEHIHPAXPAUAFX_CMDHANDLERINFO@@@Z 0044baa0 f   DXFView.obj
 0001:0004aad0       ?OnInitialUpdate@CDXFView@@UAEXXZ 0044bad0 f   DXFView.obj
 0001:0004ab60       ?OnUpdate@CDXFView@@MAEXPAVCView@@JPAVCObject@@@Z 0044bb60 f   DXFView.obj
 0001:0004adc0       ?OnUpdateShape@CDXFView@@AAEHQAV?$variant@KPAVCLayerData@@PAVCDXFshape@@PAVCDXFworking@@@boost@@@Z 0044bdc0 f   DXFView.obj
 0001:0004afe0       ?CreateWorkingData@CDXFView@@AAEPAVCDXFworking@@XZ 0044bfe0 f   DXFView.obj
 0001:0004b380       ?CreateOutlineTempObject@CDXFView@@AAEHPAVCDXFshape@@@Z 0044c380 f   DXFView.obj
 0001:0004b4b0       ?DeleteOutlineTempObject@CDXFView@@AAEXXZ 0044c4b0 f   DXFView.obj
 0001:0004b4f0       ?CancelForSelect@CDXFView@@AAEHPAVCDC@@@Z 0044c4f0 f   DXFView.obj
 0001:0004b5d0       ?AllChangeFactor_OutlineTempObject@CDXFView@@AAEXXZ 0044c5d0 f   DXFView.obj
 0001:0004b620       ?BindMove@CDXFView@@AAEXH@Z 0044c620 f   DXFView.obj
 0001:0004b7d0       ?BindMsgPost@CDXFView@@AAEXPAVCDC@@PAUCADBINDINFO@@PAVCPoint@@@Z 0044c7d0 f   DXFView.obj
 0001:0004b910       ?ClearBindSelectData@CDXFView@@AAEXXZ 0044c910 f   DXFView.obj
 0001:0004b990       ?OnDraw@CDXFView@@MAEXPAVCDC@@@Z 0044c990 f   DXFView.obj
 0001:0004c120       ?DrawTemporaryProcess@CDXFView@@AAEXPAVCDC@@@Z 0044d120 f   DXFView.obj
 0001:0004c240       ?DrawTempArraw@CDXFView@@AAEXPAVCDC@@@Z 0044d240 f   DXFView.obj
 0001:0004c3c0       ?DrawTempStart@CDXFView@@AAEXPAVCDC@@@Z 0044d3c0 f   DXFView.obj
 0001:0004c4f0       ?DrawTempOutline@CDXFView@@AAEXPAVCDC@@@Z 0044d4f0 f   DXFView.obj
 0001:0004c5b0       ?OnUpdateEditUndo@CDXFView@@IAEXPAVCCmdUI@@@Z 0044d5b0 f   DXFView.obj
 0001:0004c5d0       ?OnEditUndo@CDXFView@@IAEXXZ 0044d5d0 f   DXFView.obj
 0001:0004c730       ?OnEditCopy@CDXFView@@IAEXXZ 0044d730 f   DXFView.obj
 0001:0004c730       ?OnEditCopy@CNCViewBase@@QAEXXZ 0044d730 f   NCViewBase.obj
 0001:0004c860       ?OnUpdateEditBind@CDXFView@@IAEXPAVCCmdUI@@@Z 0044d860 f   DXFView.obj
 0001:0004c890       ?OnEditBindDel@CDXFView@@IAEXXZ 0044d890 f   DXFView.obj
 0001:0004c9a0       ?OnEditBindTarget@CDXFView@@IAEXXZ 0044d9a0 f   DXFView.obj
 0001:0004ca10       ?OnUpdateViewLayer@CDXFView@@IAEXPAVCCmdUI@@@Z 0044da10 f   DXFView.obj
 0001:0004ca50       ?OnViewLayer@CDXFView@@IAEXXZ 0044da50 f   DXFView.obj
 0001:0004cb80       ?OnUpdateMouseCursor@CDXFView@@IAEXPAVCCmdUI@@@Z 0044db80 f   DXFView.obj
 0001:0004cd90       ?OnMoveKey@CDXFView@@IAEXI@Z 0044dd90 f   DXFView.obj
 0001:0004ce10       ?OnLensKey@CDXFView@@IAEXI@Z 0044de10 f   DXFView.obj
 0001:0004cff0       ?OnViewLensComm@CDXFView@@MAEXXZ 0044dff0 f   DXFView.obj
 0001:0004d1c0       ?OnDestroy@CDXFView@@IAEXXZ 0044e1c0 f   DXFView.obj
 0001:0004d1e0       ?OnContextMenu@CDXFView@@IAEXPAVCWnd@@VCPoint@@@Z 0044e1e0 f   DXFView.obj
 0001:0004d220       ?OnUserViewFitMsg@CDXFView@@IAEJIJ@Z 0044e220 f   DXFView.obj
 0001:0004d3c0       ?OnBindInitMsg@CDXFView@@IAEJIJ@Z 0044e3c0 f   DXFView.obj
 0001:0004dbe0       ?OnBindLButtonDown@CDXFView@@IAEJIJ@Z 0044ebe0 f   DXFView.obj
 0001:0004ddc0       ?OnBindRoundMsg@CDXFView@@IAEJIJ@Z 0044edc0 f   DXFView.obj
 0001:0004df40       ?OnBindCancel@CDXFView@@IAEJIJ@Z 0044ef40 f   DXFView.obj
 0001:0004e010       ?OnLButtonDown@CDXFView@@IAEXIVCPoint@@@Z 0044f010 f   DXFView.obj
 0001:0004e100       ?OnLButtonUp@CDXFView@@IAEXIVCPoint@@@Z 0044f100 f   DXFView.obj
 0001:0004e840       ?OnRButtonDown@CDXFView@@IAEXIVCPoint@@@Z 0044f840 f   DXFView.obj
 0001:0004e8f0       ?OnRButtonUp@CDXFView@@IAEXIVCPoint@@@Z 0044f8f0 f   DXFView.obj
 0001:0004ea10       ?OnLButtonDblClk@CDXFView@@IAEXIVCPoint@@@Z 0044fa10 f   DXFView.obj
 0001:0004ec70       ?OnLButtonUp_Separate@CDXFView@@AAEXPAVCDC@@PAVCDXFdata@@ABV?$CPointT@M@@ABV?$CRectT@M@@@Z 0044fc70 f   DXFView.obj
 0001:0004f230       ?OnLButtonUp_Vector@CDXFView@@AAEXPAVCDC@@PAVCDXFdata@@ABV?$CPointT@M@@ABV?$CRectT@M@@@Z 00450230 f   DXFView.obj
 0001:0004f420       ?OnLButtonUp_Start@CDXFView@@AAEXPAVCDC@@PAVCDXFdata@@ABV?$CPointT@M@@ABV?$CRectT@M@@@Z 00450420 f   DXFView.obj
 0001:0004f640       ?OnLButtonUp_Outline@CDXFView@@AAEXPAVCDC@@PAVCDXFdata@@ABV?$CPointT@M@@ABV?$CRectT@M@@@Z 00450640 f   DXFView.obj
 0001:0004f880       ?OnMouseMove@CDXFView@@IAEXIVCPoint@@@Z 00450880 f   DXFView.obj
 0001:0004fcc0       ?OnMouseMove_Vector@CDXFView@@AAEXPAVCDC@@ABV?$CPointT@M@@ABV?$CRectT@M@@@Z 00450cc0 f   DXFView.obj
 0001:0004fd80       ?OnMouseMove_Start@CDXFView@@AAEXPAVCDC@@ABV?$CPointT@M@@ABV?$CRectT@M@@@Z 00450d80 f   DXFView.obj
 0001:0004fe30       ?OnMouseMove_Outline@CDXFView@@AAEXPAVCDC@@ABV?$CPointT@M@@ABV?$CRectT@M@@@Z 00450e30 f   DXFView.obj
 0001:0004feb0       ?OnMouseWheel@CDXFView@@IAEHIFVCPoint@@@Z 00450eb0 f   DXFView.obj
 0001:0004ff10       ?OnKeyDown@CDXFView@@IAEXIII@Z 00450f10 f   DXFView.obj
 0001:0004ffc0       ?OnEraseBkgnd@CDXFView@@IAEHPAVCDC@@@Z 00450fc0 f   DXFView.obj
 0001:00050010       ?OnNcHitTest@CDXFView@@IAEJVCPoint@@@Z 00451010 f   DXFView.obj
 0001:00050060       ?OnToolTipNotify@CDXFView@@IAEHIPAUtagNMHDR@@PAJ@Z 00451060 f   DXFView.obj
 0001:00050110       ?OnToolHitTest@CDXFView@@UBEHVCPoint@@PAUtagTOOLINFOA@@@Z 00451110 f   DXFView.obj
 0001:00050170       ??1?$vector@V?$vector@V?$CPointT@M@@V?$allocator@V?$CPointT@M@@@std@@@std@@V?$allocator@V?$vector@V?$CPointT@M@@V?$allocator@V?$CPointT@M@@@std@@@std@@@2@@std@@QAE@XZ 00451170 f i DXFView.obj
 0001:000501f0       ??1?$vector@USELECTBIND@@V?$allocator@USELECTBIND@@@std@@@std@@QAE@XZ 004511f0 f i DXFView.obj
 0001:00050260       ??$construct@V?$vector@V?$CPointT@M@@V?$allocator@V?$CPointT@M@@@std@@@std@@ABV12@@?$_Default_allocator_traits@V?$allocator@V?$vector@V?$CPointT@M@@V?$allocator@V?$CPointT@M@@@std@@@std@@@std@@@std@@SAXAAV?$allocator@V?$vector@V?$CPointT@M@@V?$allocator@V?$CPointT@M@@@std@@@std@@@1@QAV?$vector@V?$CPointT@M@@V?$allocator@V?$CPointT@M@@@std@@@1@ABV31@@Z 00451260 f i DXFView.obj
 0001:000502e0       ??$_Emplace_reallocate@ABV?$vector@V?$CPointT@M@@V?$allocator@V?$CPointT@M@@@std@@@std@@@?$vector@V?$vector@V?$CPointT@M@@V?$allocator@V?$CPointT@M@@@std@@@std@@V?$allocator@V?$vector@V?$CPointT@M@@V?$allocator@V?$CPointT@M@@@std@@@std@@@2@@std@@QAEPAV?$vector@V?$CPointT@M@@V?$allocator@V?$CPointT@M@@@std@@@1@QAV21@ABV21@@Z 004512e0 f i DXFView.obj
 0001:00050500       ??$_Emplace_reallocate@ABUSELECTBIND@@@?$vector@USELECTBIND@@V?$allocator@USELECTBIND@@@std@@@std@@QAEPAUSELECTBIND@@QAU2@ABU2@@Z 00451500 f i DXFView.obj
 0001:00050750       ??$_Destroy_range@V?$allocator@V?$vector@V?$CPointT@M@@V?$allocator@V?$CPointT@M@@@std@@@std@@@std@@@std@@YAXPAV?$vector@V?$CPointT@M@@V?$allocator@V?$CPointT@M@@@std@@@0@QAV10@AAV?$allocator@V?$vector@V?$CPointT@M@@V?$allocator@V?$CPointT@M@@@std@@@std@@@0@@Z 00451750 f i DXFView.obj
 0001:00050780       ??$_Uninitialized_move@PAV?$vector@IV?$allocator@I@std@@@std@@V?$allocator@V?$vector@IV?$allocator@I@std@@@std@@@2@@std@@YAPAV?$vector@IV?$allocator@I@std@@@0@QAV10@0PAV10@AAV?$allocator@V?$vector@IV?$allocator@I@std@@@std@@@0@@Z 00451780 f i NCViewGL_Lathe.obj
 0001:00050780       ??$_Uninitialized_move@PAV?$vector@V?$CPointT@M@@V?$allocator@V?$CPointT@M@@@std@@@std@@V?$allocator@V?$vector@V?$CPointT@M@@V?$allocator@V?$CPointT@M@@@std@@@std@@@2@@std@@YAPAV?$vector@V?$CPointT@M@@V?$allocator@V?$CPointT@M@@@std@@@0@QAV10@0PAV10@AAV?$allocator@V?$vector@V?$CPointT@M@@V?$allocator@V?$CPointT@M@@@std@@@std@@@0@@Z 00451780 f i DXFView.obj
 0001:000507d0       ??$_Sort_unchecked@PAUSELECTBIND@@U?$less@X@std@@@std@@YAXPAUSELECTBIND@@0HU?$less@X@0@@Z 004517d0 f i DXFView.obj
 0001:00050aa0       ??$apply_visitor@U?$get_visitor@PAVCDXFshape@@@variant@detail@boost@@@?$variant@KPAVCLayerData@@PAVCDXFshape@@PAVCDXFworking@@@boost@@QGAEPAPAVCDXFshape@@AAU?$get_visitor@PAVCDXFshape@@@variant@detail@1@@Z 00451aa0 f i DXFView.obj
 0001:00050c00       ??$apply_visitor@U?$get_visitor@PAVCDXFworking@@@variant@detail@boost@@@?$variant@KPAVCLayerData@@PAVCDXFshape@@PAVCDXFworking@@@boost@@QGAEPAPAVCDXFworking@@AAU?$get_visitor@PAVCDXFworking@@@variant@detail@1@@Z 00451c00 f i DXFView.obj
 0001:00050d60       ??$_Partition_by_median_guess_unchecked@PAUSELECTBIND@@U?$less@X@std@@@std@@YA?AU?$pair@PAUSELECTBIND@@PAU1@@0@PAUSELECTBIND@@0U?$less@X@0@@Z 00451d60 f i DXFView.obj
 0001:00051080       ??$_Pop_heap_hole_by_index@PAUSELECTBIND@@U1@U?$less@X@std@@@std@@YAXPAUSELECTBIND@@HH$$QAU1@U?$less@X@0@@Z 00452080 f i DXFView.obj
 0001:000511c0       ??$_Med3_unchecked@PAUSELECTBIND@@U?$less@X@std@@@std@@YAXPAUSELECTBIND@@00U?$less@X@0@@Z 004521c0 f i DXFView.obj
 0001:00051260       ??0CExecOption@@QAE@ABV?$CStringT@DV?$StrTraitMFC_DLL@DV?$ChTraitsCRT@D@ATL@@@@@ATL@@@Z 00452260 f   ExecOption.obj
 0001:000517f0       ??0CExecOption@@QAE@ABV?$CStringT@DV?$StrTraitMFC_DLL@DV?$ChTraitsCRT@D@ATL@@@@@ATL@@00HHH@Z 004527f0 f   ExecOption.obj
 0001:000518a0       ??0CExecOption@@QAE@ABV?$CStringT@DV?$StrTraitMFC_DLL@DV?$ChTraitsCRT@D@ATL@@@@@ATL@@W4DOCTYPE@@@Z 004528a0 f   ExecOption.obj
 0001:00051b10       ?GetStringData@CExecOption@@QBE?AV?$CStringT@DV?$StrTraitMFC_DLL@DV?$ChTraitsCRT@D@ATL@@@@@ATL@@XZ 00452b10 f   ExecOption.obj
 0001:00051fa0       ?GetMessageMap@CExecSetupDlg@@MBEPBUAFX_MSGMAP@@XZ 00452fa0 f   ExecSetupDlg.obj
 0001:00051fb0       ??_ECExecSetupDlg@@UAEPAXI@Z 00452fb0 f i * CIL library *:* CIL module *
 0001:00051fb0       ??_GCExecSetupDlg@@UAEPAXI@Z 00452fb0 f i ExecSetupDlg.obj
 0001:00051ff0       ??1CExecSetupDlg@@UAE@XZ   00452ff0 f i ExecSetupDlg.obj
 0001:00052050       ?DoDataExchange@CExecSetupDlg@@MAEXPAVCDataExchange@@@Z 00453050 f   ExecSetupDlg.obj
 0001:000520f0       ?SetDetailData@CExecSetupDlg@@AAEXPBVCExecOption@@@Z 004530f0 f   ExecSetupDlg.obj
 0001:00052190       ?CheckData@CExecSetupDlg@@AAEHXZ 00453190 f   ExecSetupDlg.obj
 0001:00052270       ?SwapObject@CExecSetupDlg@@AAEXHH@Z 00453270 f   ExecSetupDlg.obj
 0001:00052320       ?OnInitDialog@CExecSetupDlg@@MAEHXZ 00453320 f   ExecSetupDlg.obj
 0001:000524c0       ?OnOK@CExecSetupDlg@@MAEXXZ 004534c0 f   ExecSetupDlg.obj
 0001:00052590       ?OnCancel@CExecSetupDlg@@MAEXXZ 00453590 f   ExecSetupDlg.obj
 0001:00052610       ?OnItemChangedExeList@CExecSetupDlg@@IAEXPAUtagNMHDR@@PAJ@Z 00453610 f   ExecSetupDlg.obj
 0001:00052630       ?OnGetDispInfoExeList@CExecSetupDlg@@IAEXPAUtagNMHDR@@PAJ@Z 00453630 f   ExecSetupDlg.obj
 0001:00052670       ?OnKeyDownList@CExecSetupDlg@@IAEXPAUtagNMHDR@@PAJ@Z 00453670 f   ExecSetupDlg.obj
 0001:00052690       ?OnAdd@CExecSetupDlg@@IAEXXZ 00453690 f   ExecSetupDlg.obj
 0001:00052a10       ?OnMod@CExecSetupDlg@@IAEXXZ 00453a10 f   ExecSetupDlg.obj
 0001:00052d40       ?OnDel@CExecSetupDlg@@IAEXXZ 00453d40 f   ExecSetupDlg.obj
 0001:00052da0       ?OnUp@CExecSetupDlg@@IAEXXZ 00453da0 f   ExecSetupDlg.obj
 0001:00052df0       ?OnDown@CExecSetupDlg@@IAEXXZ 00453df0 f   ExecSetupDlg.obj
 0001:00052e50       ?OnFileUP@CExecSetupDlg@@IAEXXZ 00453e50 f   ExecSetupDlg.obj
 0001:00053010       ?OnDropFiles@CExecSetupDlg@@IAEXPAUHDROP__@@@Z 00454010 f   ExecSetupDlg.obj
 0001:000531c0       ?GetMessageMap@CExtensionDlg@@MBEPBUAFX_MSGMAP@@XZ 004541c0 f   ExtensionDlg.obj
 0001:000531d0       ??_GCExtensionDlg@@UAEPAXI@Z 004541d0 f i ExtensionDlg.obj
 0001:000531d0       ??_ECExtensionDlg@@UAEPAXI@Z 004541d0 f i * CIL library *:* CIL module *
 0001:00053210       ??1CExtensionDlg@@UAE@XZ   00454210 f i ExtensionDlg.obj
 0001:000532d0       ?DoDataExchange@CExtensionDlg@@MAEXPAVCDataExchange@@@Z 004542d0 f   ExtensionDlg.obj
 0001:00053390       ?OnInitDialog@CExtensionDlg@@MAEHXZ 00454390 f   ExtensionDlg.obj
 0001:00053540       ?OnOK@CExtensionDlg@@MAEXXZ 00454540 f   ExtensionDlg.obj
 0001:00053710       ?OnExtAdd@CExtensionDlg@@IAEXXZ 00454710 f   ExtensionDlg.obj
 0001:00053880       ?OnExtDel@CExtensionDlg@@IAEXXZ 00454880 f   ExtensionDlg.obj
 0001:000539d0       ?OnExtDefault@CExtensionDlg@@IAEXXZ 004549d0 f   ExtensionDlg.obj
 0001:00053a80       ?OnExtSelchangeList@CExtensionDlg@@IAEXXZ 00454a80 f   ExtensionDlg.obj
 0001:00053b90       ?Bind@CFrameBuffer@@QAEHH@Z 00454b90 f   FrameBuffer.obj
 0001:00053c10       ?CreateObject@CLayerData@@SGPAVCObject@@XZ 00454c10 f   Layer.obj
 0001:00053d50       ?GetRuntimeClass@CLayerData@@UBEPAUCRuntimeClass@@XZ 00454d50 f   Layer.obj
 0001:00053d60       ??_GCLayerData@@UAEPAXI@Z  00454d60 f i Layer.obj
 0001:00053d60       ??_ECLayerData@@UAEPAXI@Z  00454d60 f i * CIL library *:* CIL module *
 0001:00053da0       ??0CLayerData@@QAE@PBV0@H@Z 00454da0 f   Layer.obj
 0001:00053f10       ??1CLayerData@@UAE@XZ      00454f10 f   Layer.obj
 0001:00054040       ?SetInitFile@CLayerData@@QAEXPBD@Z 00455040 f   Layer.obj
 0001:00054160       ?SetLayerInfo@CLayerData@@QAEXABV?$CStringT@DV?$StrTraitMFC_DLL@DV?$ChTraitsCRT@D@ATL@@@@@ATL@@@Z 00455160 f   Layer.obj
 0001:00054860       ?FormatLayerInfo@CLayerData@@QAE?AV?$CStringT@DV?$StrTraitMFC_DLL@DV?$ChTraitsCRT@D@ATL@@@@@ATL@@PBD@Z 00455860 f   Layer.obj
 0001:00054a40       ?Serialize@CLayerData@@UAEXAAVCArchive@@@Z 00455a40 f   Layer.obj
 0001:00054dd0       ?GetMessageMap@CLayerDlg@@MBEPBUAFX_MSGMAP@@XZ 00455dd0 f   LayerDlg.obj
 0001:00054de0       ??_GCLayerDlg@@UAEPAXI@Z   00455de0 f i LayerDlg.obj
 0001:00054de0       ??_ECLayerDlg@@UAEPAXI@Z   00455de0 f i * CIL library *:* CIL module *
 0001:00054e40       ?DoDataExchange@CLayerDlg@@MAEXPAVCDataExchange@@@Z 00455e40 f   LayerDlg.obj
 0001:00054e70       ?SetLayerTree@CLayerDlg@@AAEXPBVCDXFDoc@@@Z 00455e70 f   LayerDlg.obj
 0001:00055000       ?SetChildCheck@CLayerDlg@@AAEXPAU_TREEITEM@@@Z 00456000 f   LayerDlg.obj
 0001:00055070       ?SetParentCheck@CLayerDlg@@AAEXPAU_TREEITEM@@@Z 00456070 f   LayerDlg.obj
 0001:00055150       ?OnInitDialog@CLayerDlg@@MAEHXZ 00456150 f   LayerDlg.obj
 0001:00055260       ?OnOK@CLayerDlg@@MAEXXZ    00456260 f   LayerDlg.obj
 0001:00055480       ?OnCancel@CLayerDlg@@MAEXXZ 00456480 f   LayerDlg.obj
 0001:000554a0       ?PostNcDestroy@CLayerDlg@@MAEXXZ 004564a0 f   LayerDlg.obj
 0001:000554e0       ?OnUserSwitchDocument@CLayerDlg@@IAEJIJ@Z 004564e0 f   LayerDlg.obj
 0001:00055750       ?OnLayerTreeKeydown@CLayerDlg@@IAEXPAUtagNMHDR@@PAJ@Z 00456750 f   LayerDlg.obj
 0001:000557c0       ?OnLayerTreeClick@CLayerDlg@@IAEXPAUtagNMHDR@@PAJ@Z 004567c0 f   LayerDlg.obj
 0001:00055860       ?OnLayerTreeGetdispinfo@CLayerDlg@@IAEXPAUtagNMHDR@@PAJ@Z 00456860 f   LayerDlg.obj
 0001:000558b0       ??_ECTreeCtrl@@UAEPAXI@Z   004568b0 f i * CIL library *:* CIL module *
 0001:000558b0       ??_GCTreeCtrl@@UAEPAXI@Z   004568b0 f i LayerDlg.obj
 0001:000558f0       ?LoadToolBar@CCustomMenu@@QAEHI@Z 004568f0 f i MainFrm.obj
 0001:000559e0       ?_GetBaseClass@CMainFrame@@KGPAUCRuntimeClass@@XZ 004569e0 f   MainFrm.obj
 0001:000559f0       ?GetRuntimeClass@CMainFrame@@UBEPAUCRuntimeClass@@XZ 004569f0 f   MainFrm.obj
 0001:00055a00       ?GetMessageMap@CMainFrame@@MBEPBUAFX_MSGMAP@@XZ 00456a00 f   MainFrm.obj
 0001:00055a10       ??0CMainFrame@@QAE@XZ      00456a10 f   MainFrm.obj
 0001:00055e50       ??_GCMainFrame@@UAEPAXI@Z  00456e50 f i MainFrm.obj
 0001:00055e50       ??_ECMainFrame@@UAEPAXI@Z  00456e50 f i * CIL library *:* CIL module *
 0001:00055ff0       ??1CMainStatusBar@@UAE@XZ  00456ff0 f i MainFrm.obj
 0001:00056010       ??1CMachineToolBar@@UAE@XZ 00457010 f i MainFrm.obj
 0001:00056030       ??_GCMachineToolBar@@UAEPAXI@Z 00457030 f i MainFrm.obj
 0001:00056030       ??_ECMachineToolBar@@UAEPAXI@Z 00457030 f i * CIL library *:* CIL module *
 0001:00056080       ?OnCommand@CMainFrame@@MAEHIJ@Z 00457080 f   MainFrm.obj
 0001:000562b0       ?SaveWindowState@CMainFrame@@AAEXXZ 004572b0 f   MainFrm.obj
 0001:00056340       ?ChangeViewOption@CMainFrame@@QAEXXZ 00457340 f   MainFrm.obj
 0001:000567e0       ?GetIconHandle@CMainFrame@@QAEPAUHICON__@@HPBD@Z 004577e0 f   MainFrm.obj
 0001:000568b0       ?CreateDisableToolBar@CMainFrame@@AAEXW4EN_TOOLBARIMAGE@@@Z 004578b0 f   MainFrm.obj
 0001:00056ac0       ?CommandReplace@CMainFrame@@AAE?AV?$CStringT@DV?$StrTraitMFC_DLL@DV?$ChTraitsCRT@D@ATL@@@@@ATL@@PBVCExecOption@@PBVCDocument@@@Z 00457ac0 f   MainFrm.obj
 0001:00056e30       ?CreateOutsideProcess@CMainFrame@@QAEHPBD0HH@Z 00457e30 f   MainFrm.obj
 0001:00057080       ?SetExecButtons@CMainFrame@@QAEXH@Z 00458080 f   MainFrm.obj
 0001:000575c0       ?SetAddinButtons@CMainFrame@@QAEXXZ 004585c0 f   MainFrm.obj
 0001:00057920       ?StatusBarEventTimerProc@CMainFrame@@SGXPAUHWND__@@IIK@Z 00458920 f   MainFrm.obj
 0001:00057940       ?OnCreate@CMainFrame@@IAEHPAUtagCREATESTRUCTA@@@Z 00458940 f   MainFrm.obj
 0001:00057f90       ?OnSize@CMainFrame@@IAEXIHH@Z 00458f90 f   MainFrm.obj
 0001:00057fe0       ?OnClose@CMainFrame@@IAEXXZ 00458fe0 f   MainFrm.obj
 0001:00058080       ?OnDestroy@CMainFrame@@IAEXXZ 00459080 f   MainFrm.obj
 0001:00058130       ?OnEndSession@CMainFrame@@IAEXH@Z 00459130 f   MainFrm.obj
 0001:000581d0       ?OnMenuSelect@CMainFrame@@IAEXIIPAUHMENU__@@@Z 004591d0 f   MainFrm.obj
 0001:00058250       ?OnInitMenuPopup@CMainFrame@@IAEXPAVCMenu@@IH@Z 00459250 f   MainFrm.obj
 0001:00058420       ?OnUserFileChange@CMainFrame@@IAEJIJ@Z 00459420 f   MainFrm.obj
 0001:00058510       ?OnDrawItem@CMainFrame@@IAEXHPAUtagDRAWITEMSTRUCT@@@Z 00459510 f   MainFrm.obj
 0001:00058690       ?OnMeasureItem@CMainFrame@@IAEXHPAUtagMEASUREITEMSTRUCT@@@Z 00459690 f   MainFrm.obj
 0001:000587e0       ?OnSysColorChange@CMainFrame@@IAEXXZ 004597e0 f   MainFrm.obj
 0001:00058880       ?OnToolTipText@CMainFrame@@IAEHIPAUtagNMHDR@@PAJ@Z 00459880 f   MainFrm.obj
 0001:00058970       ?OnUpdateExecButtonCheck@CMainFrame@@IAEXPAVCCmdUI@@@Z 00459970 f   MainFrm.obj
 0001:00058a60       ?OnUpdateAddinButtonCheck@CMainFrame@@IAEXPAVCCmdUI@@@Z 00459a60 f   MainFrm.obj
 0001:00058b50       ?OnUpdateDate@CMainFrame@@IAEXPAVCCmdUI@@@Z 00459b50 f   MainFrm.obj
 0001:00058c10       ?OnUpdateTime@CMainFrame@@IAEXPAVCCmdUI@@@Z 00459c10 f   MainFrm.obj
 0001:00058cd0       ?OnNextPane@CMainFrame@@IAEXXZ 00459cd0 f   MainFrm.obj
 0001:00058cf0       ?OnUpdateRoundKey@CNCViewBase@@QAEXPAVCCmdUI@@@Z 00459cf0 f   NCViewBase.obj
 0001:00058cf0       ?OnUpdateEditPaste@CMainFrame@@IAEXPAVCCmdUI@@@Z 00459cf0 f   MainFrm.obj
 0001:00058cf0       ?OnUpdateEditCopy@CNCViewGL@@IAEXPAVCCmdUI@@@Z 00459cf0 f   NCViewGL.obj
 0001:00058cf0       ?OnUpdateMoveRoundKey@CNCListView@@IAEXPAVCCmdUI@@@Z 00459cf0 f   NCListView.obj
 0001:00058cf0       ?OnUpdateMoveRoundKey@CNCInfoBase@@QAEXPAVCCmdUI@@@Z 00459cf0 f   NCInfoView.obj
 0001:00058cf0       ?OnUpdateEditCopy@CNCListView@@IAEXPAVCCmdUI@@@Z 00459cf0 f   NCListView.obj
 0001:00058cf0       ?OnUpdateEditCut@CMainFrame@@IAEXPAVCCmdUI@@@Z 00459cf0 f   MainFrm.obj
 0001:00058d00       ?OnViewToolbarCustom@CMainFrame@@IAEXXZ 00459d00 f   MainFrm.obj
 0001:00058e60       ??1CMakeBindOptDlg@@UAE@XZ 00459e60 f i MakeBindOptDlg.obj
 0001:00058e60       ??1CToolBarSetupDlg@@UAE@XZ 00459e60 f i MainFrm.obj
 0001:00058e70       ?OnContextMenu@CMainFrame@@IAEXPAVCWnd@@VCPoint@@@Z 00459e70 f   MainFrm.obj
 0001:00058ea0       ?GetMessageMap@CMachineToolBar@@MBEPBUAFX_MSGMAP@@XZ 00459ea0 f   MainFrm.obj
 0001:00058eb0       ?OnCreate@CMachineToolBar@@IAEHPAUtagCREATESTRUCTA@@@Z 00459eb0 f   MainFrm.obj
 0001:00059030       ?OnSelchangeMC@CMachineToolBar@@IAEXXZ 0045a030 f   MainFrm.obj
 0001:00059210       ?ChangeMachine@CMachineToolBar@@QAEXXZ 0045a210 f   MainFrm.obj
 0001:00059340       ??_G?$CTypedPtrMap@VCMapWordToPtr@@GPAVCNCVCaddinMap@@@@UAEPAXI@Z 0045a340 f i NCVC.obj
 0001:00059340       ??_E?$CTypedPtrMap@VCMapWordToPtr@@GPAUCUSTMENUINFO@@@@UAEPAXI@Z 0045a340 f i * CIL library *:* CIL module *
 0001:00059340       ??_G?$CTypedPtrMap@VCMapWordToPtr@@GPAVCExecOption@@@@UAEPAXI@Z 0045a340 f i NCVC.obj
 0001:00059340       ??_E?$CTypedPtrMap@VCMapWordToPtr@@GPAVCNCVCaddinMap@@@@UAEPAXI@Z 0045a340 f i * CIL library *:* CIL module *
 0001:00059340       ??_E?$CTypedPtrMap@VCMapWordToPtr@@GPAVCExecOption@@@@UAEPAXI@Z 0045a340 f i * CIL library *:* CIL module *
 0001:00059340       ??_G?$CTypedPtrMap@VCMapWordToPtr@@GPAUCUSTMENUINFO@@@@UAEPAXI@Z 0045a340 f i MainFrm.obj
 0001:00059380       ?GetTrackingID@CFrameWnd@@UAEIXZ 0045a380 f i MainFrm.obj
 0001:00059390       ?Format@CTime@ATL@@QBE?AV?$CStringT@DV?$StrTraitMFC_DLL@DV?$ChTraitsCRT@D@ATL@@@@@2@PBD@Z 0045a390 f i MainFrm.obj
 0001:00059430       ?GetTickCount@CTime@ATL@@SG?AV12@XZ 0045a430 f i MainFrm.obj
 0001:00059460       ??1CBitmap@@UAE@XZ         0045a460 f i MainFrm.obj
 0001:00059470       ??_GCBitmap@@UAEPAXI@Z     0045a470 f i MainFrm.obj
 0001:00059470       ??_ECBitmap@@UAEPAXI@Z     0045a470 f i * CIL library *:* CIL module *
 0001:000594b0       ??0CBrush@@QAE@XZ          0045a4b0 f i MainFrm.obj
 0001:000594c0       ??0CPen@@QAE@XZ            0045a4c0 f i MainFrm.obj
 0001:000594d0       ??_GCPen@@UAEPAXI@Z        0045a4d0 f i MainFrm.obj
 0001:000594d0       ??_ECPen@@UAEPAXI@Z        0045a4d0 f i * CIL library *:* CIL module *
 0001:00059510       ??1CPen@@UAE@XZ            0045a510 f i MainFrm.obj
 0001:00059520       ?GetMessageMap@CMainStatusBar@@MBEPBUAFX_MSGMAP@@XZ 0045a520 f   MainStatusBar.obj
 0001:00059530       ??_GCMainStatusBar@@UAEPAXI@Z 0045a530 f i MainStatusBar.obj
 0001:00059530       ??_ECMainStatusBar@@UAEPAXI@Z 0045a530 f i * CIL library *:* CIL module *
 0001:00059580       ?OnCreate@CMainStatusBar@@IAEHPAUtagCREATESTRUCTA@@@Z 0045a580 f   MainStatusBar.obj
 0001:00059640       ?ChangeProgressSize@CMainStatusBar@@QAEXHH@Z 0045a640 f   MainStatusBar.obj
 0001:000596c0       ?OnUserProgressPos@CMainStatusBar@@IAEJIJ@Z 0045a6c0 f   MainStatusBar.obj
 0001:000596e0       ??_ECProgressCtrl@@UAEPAXI@Z 0045a6e0 f i * CIL library *:* CIL module *
 0001:000596e0       ??_GCProgressCtrl@@UAEPAXI@Z 0045a6e0 f i MainStatusBar.obj
 0001:00059720       ??_GCMakeBindOptDlg@@UAEPAXI@Z 0045a720 f i MakeBindOptDlg.obj
 0001:00059720       ??_ECMakeBindOptDlg@@UAEPAXI@Z 0045a720 f i * CIL library *:* CIL module *
 0001:00059760       ?DoDataExchange@CMakeBindOptDlg@@MAEXPAVCDataExchange@@@Z 0045a760 f   MakeBindOptDlg.obj
 0001:000597a0       ?OnOK@CMakeBindOptDlg@@MAEXXZ 0045a7a0 f   MakeBindOptDlg.obj
 0001:000597e0       ?ReplaceCustomCode@CMakeCustomCode@@QBE?AV?$tuple@HV?$CStringT@DV?$StrTraitMFC_DLL@DV?$ChTraitsCRT@D@ATL@@@@@ATL@@Unull_type@tuples@boost@@U345@U345@U345@U345@U345@U345@U345@@tuples@boost@@ABV?$basic_string@DU?$char_traits@D@std@@V?$allocator@D@2@@std@@@Z 0045a7e0 f   MakeCustomCode.obj
 0001:00059c40       ?substr@?$basic_string@DU?$char_traits@D@std@@V?$allocator@D@2@@std@@QBE?AV12@II@Z 0045ac40 f i MakeCustomCode.obj
 0001:00059cb0       ?AddElement@CStringKeyIndex@@QAEXIQAPBD@Z 0045acb0 f i MakeCustomCode.obj
 0001:00059d50       ?SetElement@CStringKeyIndex@@QAEXIQAPBD@Z 0045ad50 f i MakeCustomCode.obj
 0001:00059db0       ??1CStringKeyIndex@@UAE@XZ 0045adb0 f i MakeCustomCode.obj
 0001:00059dc0       ??_GCStringKeyIndex@@UAEPAXI@Z 0045adc0 f i MakeCustomCode.obj
 0001:00059dc0       ??_ECStringKeyIndex@@UAEPAXI@Z 0045adc0 f i * CIL library *:* CIL module *
 0001:00059e00       ?GetMessageMap@CMakeNCDlgEx@@MBEPBUAFX_MSGMAP@@XZ 0045ae00 f   MakeNCDlgEx.obj
 0001:00059e00       ?GetMessageMap@CMakeDXFDlg@@MBEPBUAFX_MSGMAP@@XZ 0045ae00 f   MakeDXFDlg.obj
 0001:00059e10       ??0CMakeDXFDlg@@QAE@PAVCNCDoc@@@Z 0045ae10 f   MakeDXFDlg.obj
 0001:0005a080       ??_GCMakeDXFDlg@@UAEPAXI@Z 0045b080 f i MakeDXFDlg.obj
 0001:0005a080       ??_ECMakeDXFDlg@@UAEPAXI@Z 0045b080 f i * CIL library *:* CIL module *
 0001:0005a0c0       ??1CMakeDXFDlg@@UAE@XZ     0045b0c0 f i MakeDXFDlg.obj
 0001:0005a160       ??1CMakeDXFDlg1@@UAE@XZ    0045b160 f i MakeDXFDlg.obj
 0001:0005a210       ??1CMakeDXFDlg2@@UAE@XZ    0045b210 f i MakeDXFDlg.obj
 0001:0005a240       ?GetMessageMap@CMakeDXFDlg1@@MBEPBUAFX_MSGMAP@@XZ 0045b240 f   MakeDXFDlg1.obj
 0001:0005a250       ??_GCMakeDXFDlg1@@UAEPAXI@Z 0045b250 f i MakeDXFDlg1.obj
 0001:0005a250       ??_ECMakeDXFDlg1@@UAEPAXI@Z 0045b250 f i * CIL library *:* CIL module *
 0001:0005a290       ?DoDataExchange@CMakeDXFDlg1@@MAEXPAVCDataExchange@@@Z 0045b290 f   MakeDXFDlg1.obj
 0001:0005a3e0       ?OnInitDialog@CMakeDXFDlg1@@MAEHXZ 0045b3e0 f   MakeDXFDlg1.obj
 0001:0005a6f0       ?OnKillFocusDXFFile@CMakeDXFDlg1@@IAEXXZ 0045b6f0 f   MakeDXFDlg1.obj
 0001:0005a720       ?OnMKDXFileUp@CMakeDXFDlg1@@IAEXXZ 0045b720 f   MakeDXFDlg1.obj
 0001:0005a7f0       ?OnApply@CMakeDXFDlg1@@UAEHXZ 0045b7f0 f   MakeDXFDlg1.obj
 0001:0005a890       ?OnKillActive@CMakeDXFDlg1@@UAEHXZ 0045b890 f   MakeDXFDlg1.obj
 0001:0005a9b0       ??HATL@@YA?AV?$CStringT@DV?$StrTraitMFC_DLL@DV?$ChTraitsCRT@D@ATL@@@@@0@DABV10@@Z 0045b9b0 f i MakeDXFDlg1.obj
 0001:0005aa40       ?GetMessageMap@CMakeDXFDlg2@@MBEPBUAFX_MSGMAP@@XZ 0045ba40 f   MakeDXFDlg2.obj
 0001:0005aa50       ??_ECMakeDXFDlg2@@UAEPAXI@Z 0045ba50 f i * CIL library *:* CIL module *
 0001:0005aa50       ??_GCMakeDXFDlg2@@UAEPAXI@Z 0045ba50 f i MakeDXFDlg2.obj
 0001:0005aab0       ?DoDataExchange@CMakeDXFDlg2@@MAEXPAVCDataExchange@@@Z 0045bab0 f   MakeDXFDlg2.obj
 0001:0005ab20       ?OnInitDialog@CMakeDXFDlg2@@MAEHXZ 0045bb20 f   MakeDXFDlg2.obj
 0001:0005abc0       ?OnSelchangeCycle@CMakeDXFDlg2@@IAEXXZ 0045bbc0 f   MakeDXFDlg2.obj
 0001:0005abf0       ?OnApply@CMakeDXFDlg2@@UAEHXZ 0045bbf0 f   MakeDXFDlg2.obj
 0001:0005ad00       ?OnKillActive@CMakeDXFDlg2@@UAEHXZ 0045bd00 f   MakeDXFDlg2.obj
 0001:0005aeb0       ?GetUserDefaultExt@CNCVCDocTemplate@@QBE?AV?$CStringT@DV?$StrTraitMFC_DLL@DV?$ChTraitsCRT@D@ATL@@@@@ATL@@XZ 0045beb0 f i MakeNCDlg.obj
 0001:0005af90       ?GetFilterString@CNCVCApp@@QAE?AV?$CStringT@DV?$StrTraitMFC_DLL@DV?$ChTraitsCRT@D@ATL@@@@@ATL@@W4DOCTYPE@@@Z 0045bf90 f i MakeNCDlg.obj
 0001:0005b030       ?GetMessageMap@CMakeNCDlg@@MBEPBUAFX_MSGMAP@@XZ 0045c030 f   MakeNCDlg.obj
 0001:0005b040       ??_GCMakeNCDlg@@UAEPAXI@Z  0045c040 f i MakeNCDlg.obj
 0001:0005b040       ??_ECMakeNCDlg@@UAEPAXI@Z  0045c040 f i * CIL library *:* CIL module *
 0001:0005b080       ?DoDataExchange@CMakeNCDlg@@MAEXPAVCDataExchange@@@Z 0045c080 f   MakeNCDlg.obj
 0001:0005b110       ?OnInitDialog@CMakeNCDlg@@MAEHXZ 0045c110 f   MakeNCDlg.obj
 0001:0005b200       ?OnOK@CMakeNCDlg@@MAEXXZ   0045c200 f   MakeNCDlg.obj
 0001:0005b3f0       ?OnMKNCFileUp@CMakeNCDlg@@IAEXXZ 0045c3f0 f   MakeNCDlg.obj
 0001:0005b4c0       ?OnMKNCInitUp@CMakeNCDlg@@IAEXXZ 0045c4c0 f   MakeNCDlg.obj
 0001:0005b590       ?OnMKNCInitEdit@CMakeNCDlg@@IAEXXZ 0045c590 f   MakeNCDlg.obj
 0001:0005b980       ?OnBindOpt@CMakeNCDlg@@IAEXXZ 0045c980 f   MakeNCDlg.obj
 0001:0005ba20       ?OnSelChangeInit@CMakeNCDlg@@IAEXXZ 0045ca20 f   MakeNCDlg.obj
 0001:0005bb70       ?OnKillFocusNCFile@CMakeNCDlg@@IAEXXZ 0045cb70 f   MakeNCDlg.obj
 0001:0005bbb0       ?OnKillFocusInit@CMakeNCDlg@@IAEXXZ 0045cbb0 f   MakeNCDlg.obj
 0001:0005bbf0       ?CreateNCFile@@YAXPBVCDXFDoc@@AAV?$CStringT@DV?$StrTraitMFC_DLL@DV?$ChTraitsCRT@D@ATL@@@@@ATL@@1@Z 0045cbf0 f   MakeNCDlg.obj
 0001:0005be20       ?CreateLayerFile@@YAXPBVCDXFDoc@@AAV?$CStringT@DV?$StrTraitMFC_DLL@DV?$ChTraitsCRT@D@ATL@@@@@ATL@@1@Z 0045ce20 f   MakeNCDlg.obj
 0001:0005bf50       ?CheckMakeDlgFileExt@@YAHW4DOCTYPE@@AAV?$CStringT@DV?$StrTraitMFC_DLL@DV?$ChTraitsCRT@D@ATL@@@@@ATL@@@Z 0045cf50 f   MakeNCDlg.obj
 0001:0005c110       ?MakeDlgFileRefer@@YA?AV?$CStringT@DV?$StrTraitMFC_DLL@DV?$ChTraitsCRT@D@ATL@@@@@ATL@@HABV12@PAVCDialog@@HAAV12@2H@Z 0045d110 f   MakeNCDlg.obj
 0001:0005c240       ?MakeNCDlgInitFileEdit@@YAXAAV?$CStringT@DV?$StrTraitMFC_DLL@DV?$ChTraitsCRT@D@ATL@@@@@ATL@@0PAVCDialog@@HAAVCComboBox@@@Z 0045d240 f   MakeNCDlg.obj
 0001:0005c3d0       ?MakeDlgKillFocus@@YAXAAV?$CStringT@DV?$StrTraitMFC_DLL@DV?$ChTraitsCRT@D@ATL@@@@@ATL@@0PAVCDialog@@H@Z 0045d3d0 f   MakeNCDlg.obj
 0001:0005c490       ?InitialMakeNCDlgComboBox@@YAHPBVCStringList@@AAVCComboBox@@@Z 0045d490 f   MakeNCDlg.obj
 0001:0005c550       ?AddDialogTitle2File@@YA?AV?$CStringT@DV?$StrTraitMFC_DLL@DV?$ChTraitsCRT@D@ATL@@@@@ATL@@ABV12@0@Z 0045d550 f i MakeNCDlg.obj
 0001:0005c660       ??0CMakeNCDlgEx@@QAE@IPAVCDXFDoc@@@Z 0045d660 f   MakeNCDlgEx.obj
 0001:0005cae0       ??_ECMakeNCDlgEx@@UAEPAXI@Z 0045dae0 f i * CIL library *:* CIL module *
 0001:0005cae0       ??_GCMakeNCDlgEx@@UAEPAXI@Z 0045dae0 f i MakeNCDlgEx.obj
 0001:0005cb20       ?GetMessageMap@CMakeNCDlgEx11@@MBEPBUAFX_MSGMAP@@XZ 0045db20 f   MakeNCDlgEx11.obj
 0001:0005cb30       ??0CMakeNCDlgEx11@@QAE@PAVCMakeNCDlgEx@@H@Z 0045db30 f   MakeNCDlgEx11.obj
 0001:0005cf60       ??_ECMakeNCDlgEx11@@UAEPAXI@Z 0045df60 f i * CIL library *:* CIL module *
 0001:0005cf60       ??_GCMakeNCDlgEx11@@UAEPAXI@Z 0045df60 f i MakeNCDlgEx11.obj
 0001:0005cfa0       ??1CMakeNCDlgEx11@@UAE@XZ  0045dfa0 f   MakeNCDlgEx11.obj
 0001:0005d100       ?DoDataExchange@CMakeNCDlgEx11@@MAEXPAVCDataExchange@@@Z 0045e100 f   MakeNCDlgEx11.obj
 0001:0005d220       ?GetNowState@CMakeNCDlgEx11@@AAEXXZ 0045e220 f   MakeNCDlgEx11.obj
 0001:0005d3b0       ?SetNowState@CMakeNCDlgEx11@@AAEXH@Z 0045e3b0 f   MakeNCDlgEx11.obj
 0001:0005d4c0       ?EnablePartOut@CMakeNCDlgEx11@@AAEXXZ 0045e4c0 f   MakeNCDlgEx11.obj
 0001:0005d7c0       ?OnInitDialog@CMakeNCDlgEx11@@MAEHXZ 0045e7c0 f   MakeNCDlgEx11.obj
 0001:0005d960       ?OnOK@CMakeNCDlgEx11@@MAEXXZ 0045e960 f   MakeNCDlgEx11.obj
 0001:0005dc00       ?OnNewLayer@CMakeNCDlgEx11@@IAEXXZ 0045ec00 f   MakeNCDlgEx11.obj
 0001:0005dda0       ?OnSetFocusLayer@CMakeNCDlgEx11@@IAEXXZ 0045eda0 f   MakeNCDlgEx11.obj
 0001:0005ddc0       ?OnSelChangeLayer@CMakeNCDlgEx11@@IAEXXZ 0045edc0 f   MakeNCDlgEx11.obj
 0001:0005de60       ?OnMKNCInitUp@CMakeNCDlgEx11@@IAEXXZ 0045ee60 f   MakeNCDlgEx11.obj
 0001:0005df30       ?OnMKNCInitEdit@CMakeNCDlgEx11@@IAEXXZ 0045ef30 f   MakeNCDlgEx11.obj
 0001:0005df70       ?OnSelChangeInit@CMakeNCDlgEx11@@IAEXXZ 0045ef70 f   MakeNCDlgEx11.obj
 0001:0005e0c0       ?OnMKNCFileUp@CMakeNCDlgEx11@@IAEXXZ 0045f0c0 f   MakeNCDlgEx11.obj
 0001:0005e1a0       ?OnKillFocusInit@CMakeNCDlgEx11@@IAEXXZ 0045f1a0 f   MakeNCDlgEx11.obj
 0001:0005e1d0       ?OnKillFocusNCFile@CMakeNCDlgEx11@@IAEXXZ 0045f1d0 f   MakeNCDlgEx11.obj
 0001:0005e200       ?OnCopy@CMakeNCDlgEx11@@IAEXXZ 0045f200 f   MakeNCDlgEx11.obj
 0001:0005e630       ?OnPartOut@CMakeNCDlgEx11@@IAEXXZ 0045f630 f   MakeNCDlgEx11.obj
 0001:0005e6b0       ?GetMessageMap@CMakeNCDlgEx2@@MBEPBUAFX_MSGMAP@@XZ 0045f6b0 f   MakeNCDlgEx2.obj
 0001:0005e6c0       ??_ECMakeNCDlgEx2@@UAEPAXI@Z 0045f6c0 f i * CIL library *:* CIL module *
 0001:0005e6c0       ??_GCMakeNCDlgEx2@@UAEPAXI@Z 0045f6c0 f i MakeNCDlgEx2.obj
 0001:0005e700       ?DoDataExchange@CMakeNCDlgEx2@@MAEXPAVCDataExchange@@@Z 0045f700 f   MakeNCDlgEx2.obj
 0001:0005e7f0       ?CheckNewLayer@CMakeNCDlgEx2@@AAEXXZ 0045f7f0 f   MakeNCDlgEx2.obj
 0001:0005e900       ?OnInitDialog@CMakeNCDlgEx2@@MAEHXZ 0045f900 f   MakeNCDlgEx2.obj
 0001:0005ec50       ?OnSetActive@CMakeNCDlgEx2@@UAEHXZ 0045fc50 f   MakeNCDlgEx2.obj
 0001:0005ec80       ?OnWizardNext@CMakeNCDlgEx2@@UAEJXZ 0045fc80 f   MakeNCDlgEx2.obj
 0001:0005ef90       ?OnMKNCFileUp@CMakeNCDlgEx2@@IAEXXZ 0045ff90 f   MakeNCDlgEx2.obj
 0001:0005f060       ?OnMKNCInitUp@CMakeNCDlgEx2@@IAEXXZ 00460060 f   MakeNCDlgEx2.obj
 0001:0005f120       ?OnMKNCLayerUp@CMakeNCDlgEx2@@IAEXXZ 00460120 f   MakeNCDlgEx2.obj
 0001:0005f1f0       ?OnMKNCInitEdit@CMakeNCDlgEx2@@IAEXXZ 004601f0 f   MakeNCDlgEx2.obj
 0001:0005f220       ?OnMKNCLayerEdit@CMakeNCDlgEx2@@IAEXXZ 00460220 f   MakeNCDlgEx2.obj
 0001:0005f450       ?OnSelChangeInit@CMakeNCDlgEx2@@IAEXXZ 00460450 f   MakeNCDlgEx2.obj
 0001:0005f5a0       ?OnSelChangeLayerToInit@CMakeNCDlgEx2@@IAEXXZ 004605a0 f   MakeNCDlgEx2.obj
 0001:0005f600       ?OnKillFocusNCFile@CMakeNCDlgEx2@@IAEXXZ 00460600 f   MakeNCDlgEx2.obj
 0001:0005f640       ?OnKillFocusInit@CMakeNCDlgEx2@@IAEXXZ 00460640 f   MakeNCDlgEx2.obj
 0001:0005f680       ?OnKillFocusLayerToInit@CMakeNCDlgEx2@@IAEXXZ 00460680 f   MakeNCDlgEx2.obj
 0001:0005f820       ?GetMessageMap@CMakeNCDlgEx21@@MBEPBUAFX_MSGMAP@@XZ 00460820 f   MakeNCDlgEx21.obj
 0001:0005f830       ??0CMakeNCDlgEx21@@QAE@PAVCMakeNCDlgEx@@H@Z 00460830 f   MakeNCDlgEx21.obj
 0001:0005fc30       ??_GCMakeNCDlgEx21@@UAEPAXI@Z 00460c30 f i MakeNCDlgEx21.obj
 0001:0005fc30       ??_ECMakeNCDlgEx21@@UAEPAXI@Z 00460c30 f i * CIL library *:* CIL module *
 0001:0005fc70       ??1CMakeNCDlgEx21@@UAE@XZ  00460c70 f   MakeNCDlgEx21.obj
 0001:0005fdc0       ?DoDataExchange@CMakeNCDlgEx21@@MAEXPAVCDataExchange@@@Z 00460dc0 f   MakeNCDlgEx21.obj
 0001:0005fed0       ?GetNowState@CMakeNCDlgEx21@@AAEXXZ 00460ed0 f   MakeNCDlgEx21.obj
 0001:00060060       ?SetNowState@CMakeNCDlgEx21@@AAEXH@Z 00461060 f   MakeNCDlgEx21.obj
 0001:00060140       ?EnablePartOut@CMakeNCDlgEx21@@AAEXXZ 00461140 f   MakeNCDlgEx21.obj
 0001:00060440       ?OnInitDialog@CMakeNCDlgEx21@@MAEHXZ 00461440 f   MakeNCDlgEx21.obj
 0001:000605d0       ?OnOK@CMakeNCDlgEx21@@MAEXXZ 004615d0 f   MakeNCDlgEx21.obj
 0001:00060790       ?OnNewLayer@CMakeNCDlgEx21@@IAEXXZ 00461790 f   MakeNCDlgEx21.obj
 0001:00060930       ?OnSetFocusLayer@CMakeNCDlgEx21@@IAEXXZ 00461930 f   MakeNCDlgEx21.obj
 0001:00060950       ?OnSelChangeLayer@CMakeNCDlgEx21@@IAEXXZ 00461950 f   MakeNCDlgEx21.obj
 0001:00060a00       ?OnMKNCFileUp@CMakeNCDlgEx21@@IAEXXZ 00461a00 f   MakeNCDlgEx21.obj
 0001:00060ae0       ?OnKillFocusNCFile@CMakeNCDlgEx21@@IAEXXZ 00461ae0 f   MakeNCDlgEx21.obj
 0001:00060b10       ?OnCopy@CMakeNCDlgEx21@@IAEXXZ 00461b10 f   MakeNCDlgEx21.obj
 0001:00060f40       ?OnStep@CMakeNCDlgEx21@@IAEXXZ 00461f40 f   MakeNCDlgEx21.obj
 0001:00061040       ?OnPartOut@CMakeNCDlgEx21@@IAEXXZ 00462040 f   MakeNCDlgEx21.obj
 0001:000610c0       ?GetMessageMap@CMakeNCDlgEx3@@MBEPBUAFX_MSGMAP@@XZ 004620c0 f   MakeNCDlgEx3.obj
 0001:000610d0       ??_GCMakeNCDlgEx3@@UAEPAXI@Z 004620d0 f i MakeNCDlgEx3.obj
 0001:000610d0       ??_ECMakeNCDlgEx3@@UAEPAXI@Z 004620d0 f i * CIL library *:* CIL module *
 0001:00061120       ?DoDataExchange@CMakeNCDlgEx3@@MAEXPAVCDataExchange@@@Z 00462120 f   MakeNCDlgEx3.obj
 0001:00061140       ?OnInitDialog@CMakeNCDlgEx3@@MAEHXZ 00462140 f   MakeNCDlgEx3.obj
 0001:00061480       ?OnSetActive@CMakeNCDlgEx3@@UAEHXZ 00462480 f   MakeNCDlgEx3.obj
 0001:000614a0       ?OnWizardFinish@CMakeNCDlgEx3@@UAEHXZ 004624a0 f   MakeNCDlgEx3.obj
 0001:00061930       ?OnKillActive@CMakeNCDlgEx3@@UAEHXZ 00462930 f   MakeNCDlgEx3.obj
 0001:00061b00       ?OnGetDispInfoLayerList@CMakeNCDlgEx3@@IAEXPAUtagNMHDR@@PAJ@Z 00462b00 f   MakeNCDlgEx3.obj
 0001:00061c20       ?OnDblClkLayerList@CMakeNCDlgEx3@@IAEXPAUtagNMHDR@@PAJ@Z 00462c20 f   MakeNCDlgEx3.obj
 0001:00061d40       ?OnColumnClickLayerList@CMakeNCDlgEx3@@IAEXPAUtagNMHDR@@PAJ@Z 00462d40 f   MakeNCDlgEx3.obj
 0001:00061d90       ?OnEndScrollLayerList@CMakeNCDlgEx3@@IAEXPAUtagNMHDR@@PAJ@Z 00462d90 f   MakeNCDlgEx3.obj
 0001:00061db0       ?CompareFunc@CMakeNCDlgEx3@@KGHJJJ@Z 00462db0 f   MakeNCDlgEx3.obj
 0001:00061e80       ?OnUp@CMakeNCDlgEx3@@IAEXXZ 00462e80 f   MakeNCDlgEx3.obj
 0001:00061f30       ?OnDown@CMakeNCDlgEx3@@IAEXXZ 00462f30 f   MakeNCDlgEx3.obj
 0001:00062000       ?SwapObject@CMakeNCDlgEx3@@AAEXHH@Z 00463000 f   MakeNCDlgEx3.obj
 0001:000620b0       ?OnQuerySiblings@CMakeNCDlgEx3@@IAEJIJ@Z 004630b0 f   MakeNCDlgEx3.obj
 0001:00062200       ?SetHeaderMark@CMakeNCDlgEx3@@AAEXH@Z 00463200 f   MakeNCDlgEx3.obj
 0001:000622d0       ??0CMCOption@@QAE@XZ       004632d0 f   MCOption.obj
 0001:000627b0       ??1?$CTypedPtrList@VCPtrList@@PAVCMCTOOLINFO@@@@UAE@XZ 004637b0 f i MCOption.obj
 0001:000627b0       ??1?$CTypedPtrList@VCPtrList@@PAVCRecentViewInfo@@@@UAE@XZ 004637b0 f i NCVC.obj
 0001:000627b0       ??1?$CTypedPtrList@VCPtrList@@PAVCExecOption@@@@UAE@XZ 004637b0 f i NCVC.obj
 0001:000627c0       ??1CMCOption@@QAE@XZ       004637c0 f   MCOption.obj
 0001:00062980       ??1CMCTOOLINFO@@QAE@XZ     00463980 f i MCOption.obj
 0001:00062990       ?Convert@CMCOption@@AAEXXZ 00463990 f   MCOption.obj
 0001:00062c30       ?ReadMCoption@CMCOption@@QAEHPBDH@Z 00463c30 f   MCOption.obj
 0001:00064010       ?SaveMCoption@CMCOption@@QAEHPBD@Z 00465010 f   MCOption.obj
 0001:00064a20       ?ConvertWorkOffset@CMCOption@@AAEXIPBD@Z 00465a20 f   MCOption.obj
 0001:00064c90       ?AddMCListHistory@CMCOption@@AAEHPBD@Z 00465c90 f   MCOption.obj
 0001:00064da0       ?AddTool@CMCOption@@QAEHHMH@Z 00465da0 f   MCOption.obj
 0001:00064f30       ?ReductionTools@CMCOption@@QAEXH@Z 00465f30 f   MCOption.obj
 0001:00064f90       ?GetMCHeadFileName@CMCOption@@QBE?AV?$CStringT@DV?$StrTraitMFC_DLL@DV?$ChTraitsCRT@D@ATL@@@@@ATL@@XZ 00465f90 f i MCSetup.obj
 0001:00065010       ?GetMessageMap@CMCSetup@@MBEPBUAFX_MSGMAP@@XZ 00466010 f   MCSetup.obj
 0001:00065020       ??0CMCSetup@@QAE@PBD0@Z    00466020 f   MCSetup.obj
 0001:00065580       ??_ECMCSetup@@UAEPAXI@Z    00466580 f i * CIL library *:* CIL module *
 0001:00065580       ??_GCMCSetup@@UAEPAXI@Z    00466580 f i MCSetup.obj
 0001:000655c0       ??1CMCSetup@@UAE@XZ        004665c0 f i MCSetup.obj
 0001:00065700       ??1CMCSetup1@@UAE@XZ       00466700 f i MCSetup.obj
 0001:00065790       ??1CMCSetup2@@UAE@XZ       00466790 f i MCSetup.obj
 0001:00065810       ??1CMCSetup3@@UAE@XZ       00466810 f i MCSetup.obj
 0001:00065870       ??1CMCSetup4@@UAE@XZ       00466870 f i MCSetup.obj
 0001:000658f0       ??1CMCSetup5@@UAE@XZ       004668f0 f i MCSetup.obj
 0001:00065940       ?OnInitDialog@CMCSetup@@UAEHXZ 00466940 f   MCSetup.obj
 0001:000659e0       ?OnDestroy@CMCSetup@@IAEXXZ 004669e0 f   MCSetup.obj
 0001:00065a00       ?OnApplyNow@CMCSetup@@IAEXXZ 00466a00 f   MCSetup.obj
 0001:00065c20       ?GetMessageMap@CMCSetup1@@MBEPBUAFX_MSGMAP@@XZ 00466c20 f   MCSetup1.obj
 0001:00065c20       ?GetMessageMap@CMKWISetup2@@MBEPBUAFX_MSGMAP@@XZ 00466c20 f   MKWISetup2.obj
 0001:00065c20       ?GetMessageMap@CMCSetup2@@MBEPBUAFX_MSGMAP@@XZ 00466c20 f   MCSetup2.obj
 0001:00065c20       ?GetMessageMap@CMKNCSetup8@@MBEPBUAFX_MSGMAP@@XZ 00466c20 f   MKNCSetup8.obj
 0001:00065c20       ?GetMessageMap@CMKLASetup5@@MBEPBUAFX_MSGMAP@@XZ 00466c20 f   MKLASetup5.obj
 0001:00065c30       ??_GCMCSetup1@@UAEPAXI@Z   00466c30 f i MCSetup1.obj
 0001:00065c30       ??_ECMCSetup1@@UAEPAXI@Z   00466c30 f i * CIL library *:* CIL module *
 0001:00065c70       ?DoDataExchange@CMCSetup1@@MAEXPAVCDataExchange@@@Z 00466c70 f   MCSetup1.obj
 0001:00065d20       ?OnInitDialog@CMCSetup1@@MAEHXZ 00466d20 f   MCSetup1.obj
 0001:00065df0       ?OnApply@CMCSetup1@@UAEHXZ 00466df0 f   MCSetup1.obj
 0001:000660f0       ?OnKillActive@CMCSetup1@@UAEHXZ 004670f0 f   MCSetup1.obj
 0001:00066330       ??_GCMCSetup2@@UAEPAXI@Z   00467330 f i MCSetup2.obj
 0001:00066330       ??_ECMCSetup2@@UAEPAXI@Z   00467330 f i * CIL library *:* CIL module *
 0001:000663f0       ?DoDataExchange@CMCSetup2@@MAEXPAVCDataExchange@@@Z 004673f0 f   MCSetup2.obj
 0001:00066460       ?OnInitDialog@CMCSetup2@@MAEHXZ 00467460 f   MCSetup2.obj
 0001:00066510       ?OnApply@CMCSetup2@@UAEHXZ 00467510 f   MCSetup2.obj
 0001:00066710       ?GetMessageMap@CMCSetup3@@MBEPBUAFX_MSGMAP@@XZ 00467710 f   MCSetup3.obj
 0001:00066720       ??_ECMCSetup3@@UAEPAXI@Z   00467720 f i * CIL library *:* CIL module *
 0001:00066720       ??_GCMCSetup3@@UAEPAXI@Z   00467720 f i MCSetup3.obj
 0001:00066760       ?DoDataExchange@CMCSetup3@@MAEXPAVCDataExchange@@@Z 00467760 f   MCSetup3.obj
 0001:000667f0       ?SetDetailData@CMCSetup3@@AAEXPBVCMCTOOLINFO@@@Z 004677f0 f   MCSetup3.obj
 0001:00066890       ?CheckData@CMCSetup3@@AAEHXZ 00467890 f   MCSetup3.obj
 0001:00066980       ?SetHeaderMark@CMCSetup3@@AAEXH@Z 00467980 f   MCSetup3.obj
 0001:00066a50       ?OnInitDialog@CMCSetup3@@MAEHXZ 00467a50 f   MCSetup3.obj
 0001:00066d60       ?OnApply@CMCSetup3@@UAEHXZ 00467d60 f   MCSetup3.obj
 0001:00066e50       ?OnCancel@CMCSetup3@@UAEXXZ 00467e50 f   MCSetup3.obj
 0001:00066e80       ?OnItemChangedToolList@CMCSetup3@@IAEXPAUtagNMHDR@@PAJ@Z 00467e80 f   MCSetup3.obj
 0001:00066ea0       ?OnGetDispInfoToolList@CMCSetup3@@IAEXPAUtagNMHDR@@PAJ@Z 00467ea0 f   MCSetup3.obj
 0001:00067020       ?OnColumnClickToolList@CMCSetup3@@IAEXPAUtagNMHDR@@PAJ@Z 00468020 f   MCSetup3.obj
 0001:00067070       ?CompareToolListFunc@CMCSetup3@@KGHJJJ@Z 00468070 f   MCSetup3.obj
 0001:00067130       ?OnKeyDownToolList@CMCSetup3@@IAEXPAUtagNMHDR@@PAJ@Z 00468130 f   MCSetup3.obj
 0001:00067150       ?OnAdd@CMCSetup3@@IAEXXZ   00468150 f   MCSetup3.obj
 0001:000674b0       ?OnMod@CMCSetup3@@IAEXXZ   004684b0 f   MCSetup3.obj
 0001:00067800       ?OnDel@CMCSetup3@@IAEXXZ   00468800 f   MCSetup3.obj
 0001:000678a0       ?GetMessageMap@CMCSetup4@@MBEPBUAFX_MSGMAP@@XZ 004688a0 f   MCSetup4.obj
 0001:000678b0       ??_ECMCSetup4@@UAEPAXI@Z   004688b0 f i * CIL library *:* CIL module *
 0001:000678b0       ??_GCMCSetup4@@UAEPAXI@Z   004688b0 f i MCSetup4.obj
 0001:00067970       ?DoDataExchange@CMCSetup4@@MAEXPAVCDataExchange@@@Z 00468970 f   MCSetup4.obj
 0001:000679c0       ?OnFolder@CMCSetup4@@IAEXXZ 004689c0 f   MCSetup4.obj
 0001:00067a90       ?OnMacroIF@CMCSetup4@@IAEXXZ 00468a90 f   MCSetup4.obj
 0001:00067ba0       ?OnKillFocusMacroCode@CMCSetup4@@IAEXXZ 00468ba0 f   MCSetup4.obj
 0001:00067d00       ?OnApply@CMCSetup4@@UAEHXZ 00468d00 f   MCSetup4.obj
 0001:00067d90       ?OnKillActive@CMCSetup4@@UAEHXZ 00468d90 f   MCSetup4.obj
 0001:00067e00       ?GetMessageMap@CMCSetup5@@MBEPBUAFX_MSGMAP@@XZ 00468e00 f   MCSetup5.obj
 0001:00067e10       ??_GCMCSetup5@@UAEPAXI@Z   00468e10 f i MCSetup5.obj
 0001:00067e10       ??_ECMCSetup5@@UAEPAXI@Z   00468e10 f i * CIL library *:* CIL module *
 0001:00067e90       ?DoDataExchange@CMCSetup5@@MAEXPAVCDataExchange@@@Z 00468e90 f   MCSetup5.obj
 0001:00067f40       ?EnableControl_ViewMode@CMCSetup5@@AAEXXZ 00468f40 f   MCSetup5.obj
 0001:00067fb0       ?OnInitDialog@CMCSetup5@@MAEHXZ 00468fb0 f   MCSetup5.obj
 0001:00067ff0       ?OnApply@CMCSetup5@@UAEHXZ 00468ff0 f   MCSetup5.obj
 0001:00068260       ?OnSelchangeViewMode@CMCSetup5@@IAEXXZ 00469260 f   MCSetup5.obj
 0001:00068280       ?OnAllON@CMCSetup5@@IAEXXZ 00469280 f   MCSetup5.obj
 0001:000682f0       ?OnAllOFF@CMCSetup5@@IAEXXZ 004692f0 f   MCSetup5.obj
 0001:00068360       ?GetMessageMap@CMKLASetup@@MBEPBUAFX_MSGMAP@@XZ 00469360 f   MKLASetup.obj
 0001:00068370       ?_GetBaseClass@CMKWISetup@@KGPAUCRuntimeClass@@XZ 00469370 f   MKWISetup.obj
 0001:00068370       ?_GetBaseClass@CMKNCSetup@@KGPAUCRuntimeClass@@XZ 00469370 f   MKNCSetup.obj
 0001:00068370       ?_GetBaseClass@CNCWorkDlg@@KGPAUCRuntimeClass@@XZ 00469370 f   NCWorkDlg.obj
 0001:00068370       ?_GetBaseClass@CMKLASetup@@KGPAUCRuntimeClass@@XZ 00469370 f   MKLASetup.obj
 0001:00068380       ?GetRuntimeClass@CMKLASetup@@UBEPAUCRuntimeClass@@XZ 00469380 f   MKLASetup.obj
 0001:00068390       ??0CMKLASetup@@QAE@PBD0@Z  00469390 f   MKLASetup.obj
 0001:00068c40       ??_ECMKLASetup@@UAEPAXI@Z  00469c40 f i * CIL library *:* CIL module *
 0001:00068c40       ??_GCMKLASetup@@UAEPAXI@Z  00469c40 f i MKLASetup.obj
 0001:00068c80       ??1CMKLASetup0@@UAE@XZ     00469c80 f i MKLASetup.obj
 0001:00068cf0       ??1CMKNCSetup2@@UAE@XZ     00469cf0 f i MKLASetup.obj
 0001:00068d70       ??1CMKNCSetup6@@UAE@XZ     00469d70 f i MKLASetup.obj
 0001:00068dd0       ??1CMKLASetup4@@UAE@XZ     00469dd0 f i MKLASetup.obj
 0001:00068e50       ??1CMKLASetup2@@UAE@XZ     00469e50 f i MKLASetup.obj
 0001:00068f00       ??1CMKLASetup3@@UAE@XZ     00469f00 f i MKLASetup.obj
 0001:00068f00       ??1CMKLASetup1@@UAE@XZ     00469f00 f i MKLASetup.obj
 0001:00068f90       ??1CMKLASetup5@@UAE@XZ     00469f90 f i MKLASetup.obj
 0001:00069010       ??1CMKLASetup@@UAE@XZ      0046a010 f   MKLASetup.obj
 0001:00069090       ?OnInitDialog@CMKLASetup@@MAEHXZ 0046a090 f   MKLASetup.obj
 0001:00069090       ?OnInitDialog@CMKNCSetup@@UAEHXZ 0046a090 f   MKNCSetup.obj
 0001:00069090       ?OnInitDialog@CMKWISetup@@MAEHXZ 0046a090 f   MKWISetup.obj
 0001:00069150       ?OnDestroy@CMKLASetup@@IAEXXZ 0046a150 f   MKLASetup.obj
 0001:00069170       ?OnApplyNow@CMKLASetup@@IAEXXZ 0046a170 f   MKLASetup.obj
 0001:00069380       ?GetMessageMap@CMKLASetup0@@MBEPBUAFX_MSGMAP@@XZ 0046a380 f   MKLASetup0.obj
 0001:00069390       ??_GCMKLASetup0@@UAEPAXI@Z 0046a390 f i MKLASetup0.obj
 0001:00069390       ??_ECMKLASetup0@@UAEPAXI@Z 0046a390 f i * CIL library *:* CIL module *
 0001:000693d0       ?DoDataExchange@CMKLASetup0@@MAEXPAVCDataExchange@@@Z 0046a3d0 f   MKLASetup0.obj
 0001:00069450       ?OnInitDialog@CMKLASetup0@@MAEHXZ 0046a450 f   MKLASetup0.obj
 0001:00069530       ?OnApply@CMKLASetup0@@MAEHXZ 0046a530 f   MKLASetup0.obj
 0001:00069660       ?OnKillActive@CMKLASetup0@@MAEHXZ 0046a660 f   MKLASetup0.obj
 0001:00069850       ?OnHeaderLoopup@CMKLASetup0@@IAEXXZ 0046a850 f   MKLASetup0.obj
 0001:00069960       ?OnFooterLoopup@CMKLASetup0@@IAEXXZ 0046a960 f   MKLASetup0.obj
 0001:00069a70       ?OnHeaderEdit@CMKLASetup0@@IAEXXZ 0046aa70 f   MKLASetup0.obj
 0001:00069c00       ?OnFooterEdit@CMKLASetup0@@IAEXXZ 0046ac00 f   MKLASetup0.obj
 0001:00069d90       ?GetMessageMap@CMKLASetup1@@MBEPBUAFX_MSGMAP@@XZ 0046ad90 f   MKLASetup1.obj
 0001:00069da0       ??_ECMKLASetup1@@UAEPAXI@Z 0046ada0 f i * CIL library *:* CIL module *
 0001:00069da0       ??_GCMKLASetup3@@UAEPAXI@Z 0046ada0 f i MKLASetup3.obj
 0001:00069da0       ??_GCMKLASetup1@@UAEPAXI@Z 0046ada0 f i MKLASetup1.obj
 0001:00069da0       ??_ECMKLASetup3@@UAEPAXI@Z 0046ada0 f i * CIL library *:* CIL module *
 0001:00069de0       ?DoDataExchange@CMKLASetup3@@MAEXPAVCDataExchange@@@Z 0046ade0 f   MKLASetup3.obj
 0001:00069de0       ?DoDataExchange@CMKLASetup1@@MAEXPAVCDataExchange@@@Z 0046ade0 f   MKLASetup1.obj
 0001:00069e80       ?OnInitDialog@CMKLASetup1@@MAEHXZ 0046ae80 f   MKLASetup1.obj
 0001:00069f80       ?OnApply@CMKLASetup1@@MAEHXZ 0046af80 f   MKLASetup1.obj
 0001:0006a270       ?OnKillActive@CMKLASetup3@@MAEHXZ 0046b270 f   MKLASetup3.obj
 0001:0006a270       ?OnKillActive@CMKLASetup1@@MAEHXZ 0046b270 f   MKLASetup1.obj
 0001:0006a740       ?OnCopyFromIn@CMKLASetup1@@IAEXXZ 0046b740 f   MKLASetup1.obj
 0001:0006ab30       ?GetMessageMap@CMKLASetup2@@MBEPBUAFX_MSGMAP@@XZ 0046bb30 f   MKLASetup2.obj
 0001:0006ab40       ??_GCMKLASetup2@@UAEPAXI@Z 0046bb40 f i MKLASetup2.obj
 0001:0006ab40       ??_ECMKLASetup2@@UAEPAXI@Z 0046bb40 f i * CIL library *:* CIL module *
 0001:0006ab80       ?DoDataExchange@CMKLASetup2@@MAEXPAVCDataExchange@@@Z 0046bb80 f   MKLASetup2.obj
 0001:0006ac60       ?OnInitDialog@CMKLASetup2@@MAEHXZ 0046bc60 f   MKLASetup2.obj
 0001:0006adc0       ?OnApply@CMKLASetup2@@MAEHXZ 0046bdc0 f   MKLASetup2.obj
 0001:0006b060       ?OnKillActive@CMKLASetup2@@MAEHXZ 0046c060 f   MKLASetup2.obj
 0001:0006b400       ?OnCycle@CMKLASetup2@@IAEXXZ 0046c400 f   MKLASetup2.obj
 0001:0006b440       ?GetMessageMap@CMKLASetup3@@MBEPBUAFX_MSGMAP@@XZ 0046c440 f   MKLASetup3.obj
 0001:0006b450       ?OnInitDialog@CMKLASetup3@@MAEHXZ 0046c450 f   MKLASetup3.obj
 0001:0006b550       ?OnApply@CMKLASetup3@@MAEHXZ 0046c550 f   MKLASetup3.obj
 0001:0006b840       ?OnCopyFromOut@CMKLASetup3@@IAEXXZ 0046c840 f   MKLASetup3.obj
 0001:0006bc30       ?GetMessageMap@CMKLASetup4@@MBEPBUAFX_MSGMAP@@XZ 0046cc30 f   MKLASetup4.obj
 0001:0006bc40       ??_ECMKLASetup4@@UAEPAXI@Z 0046cc40 f i * CIL library *:* CIL module *
 0001:0006bc40       ??_GCMKLASetup4@@UAEPAXI@Z 0046cc40 f i MKLASetup4.obj
 0001:0006bc80       ?DoDataExchange@CMKLASetup4@@MAEXPAVCDataExchange@@@Z 0046cc80 f   MKLASetup4.obj
 0001:0006bd30       ?EnableControl@CMKLASetup4@@AAEXXZ 0046cd30 f   MKLASetup4.obj
 0001:0006bda0       ?OnInitDialog@CMKLASetup4@@MAEHXZ 0046cda0 f   MKLASetup4.obj
 0001:0006be80       ?OnApply@CMKLASetup4@@MAEHXZ 0046ce80 f   MKLASetup4.obj
 0001:0006c0c0       ?OnKillActive@CMKLASetup4@@MAEHXZ 0046d0c0 f   MKLASetup4.obj
 0001:0006c460       ?OnCheck@CMKLASetup4@@IAEXXZ 0046d460 f   MKLASetup4.obj
 0001:0006c480       ??_GCMKLASetup5@@UAEPAXI@Z 0046d480 f i MKLASetup5.obj
 0001:0006c480       ??_ECMKLASetup5@@UAEPAXI@Z 0046d480 f i * CIL library *:* CIL module *
 0001:0006c4c0       ?DoDataExchange@CMKLASetup5@@MAEXPAVCDataExchange@@@Z 0046d4c0 f   MKLASetup5.obj
 0001:0006c560       ?OnInitDialog@CMKLASetup5@@MAEHXZ 0046d560 f   MKLASetup5.obj
 0001:0006c640       ?OnApply@CMKLASetup5@@MAEHXZ 0046d640 f   MKLASetup5.obj
 0001:0006c890       ?OnKillActive@CMKLASetup5@@MAEHXZ 0046d890 f   MKLASetup5.obj
 0001:0006cad0       ?GetMessageMap@CMKNCSetup@@MBEPBUAFX_MSGMAP@@XZ 0046dad0 f   MKNCSetup.obj
 0001:0006cae0       ?GetRuntimeClass@CMKNCSetup@@UBEPAUCRuntimeClass@@XZ 0046dae0 f   MKNCSetup.obj
 0001:0006caf0       ??0CMKNCSetup@@QAE@PBD0@Z  0046daf0 f   MKNCSetup.obj
 0001:0006ce50       ??_GCMKNCSetup@@UAEPAXI@Z  0046de50 f i MKNCSetup.obj
 0001:0006ce50       ??_ECMKNCSetup@@UAEPAXI@Z  0046de50 f i * CIL library *:* CIL module *
 0001:0006ce90       ??1CMKNCSetup1@@UAE@XZ     0046de90 f i MKNCSetup.obj
 0001:0006cf90       ??1CMKNCSetup3@@UAE@XZ     0046df90 f i MKNCSetup.obj
 0001:0006d060       ??1CMKNCSetup4@@UAE@XZ     0046e060 f i MKNCSetup.obj
 0001:0006d110       ??1CMKNCSetup5@@UAE@XZ     0046e110 f i MKNCSetup.obj
 0001:0006d180       ??1CMKNCSetup8@@UAE@XZ     0046e180 f i MKNCSetup.obj
 0001:0006d1b0       ??1CMKNCSetup@@UAE@XZ      0046e1b0 f   MKNCSetup.obj
 0001:0006d240       ?OnDestroy@CMKNCSetup@@IAEXXZ 0046e240 f   MKNCSetup.obj
 0001:0006d260       ?OnApplyNow@CMKNCSetup@@IAEXXZ 0046e260 f   MKNCSetup.obj
 0001:0006d470       ?GetMessageMap@CMKNCSetup1@@MBEPBUAFX_MSGMAP@@XZ 0046e470 f   MKNCSetup1.obj
 0001:0006d480       ??0CMKNCSetup1@@QAE@XZ     0046e480 f   MKNCSetup1.obj
 0001:0006d650       ??_GCMKNCSetup1@@UAEPAXI@Z 0046e650 f i MKNCSetup1.obj
 0001:0006d650       ??_ECMKNCSetup1@@UAEPAXI@Z 0046e650 f i * CIL library *:* CIL module *
 0001:0006d690       ?DoDataExchange@CMKNCSetup1@@MAEXPAVCDataExchange@@@Z 0046e690 f   MKNCSetup1.obj
 0001:0006d7a0       ?OnInitDialog@CMKNCSetup1@@MAEHXZ 0046e7a0 f   MKNCSetup1.obj
 0001:0006d920       ?OnHeaderLoopup@CMKNCSetup1@@IAEXXZ 0046e920 f   MKNCSetup1.obj
 0001:0006da30       ?OnFooterLoopup@CMKNCSetup1@@IAEXXZ 0046ea30 f   MKNCSetup1.obj
 0001:0006db40       ?OnHeaderEdit@CMKNCSetup1@@IAEXXZ 0046eb40 f   MKNCSetup1.obj
 0001:0006dcd0       ?OnFooterEdit@CMKNCSetup1@@IAEXXZ 0046ecd0 f   MKNCSetup1.obj
 0001:0006de60       ?OnApply@CMKNCSetup1@@UAEHXZ 0046ee60 f   MKNCSetup1.obj
 0001:0006e470       ?OnKillActive@CMKNCSetup1@@UAEHXZ 0046f470 f   MKNCSetup1.obj
 0001:0006e8a0       ?GetMessageMap@CMKNCSetup2@@MBEPBUAFX_MSGMAP@@XZ 0046f8a0 f   MKNCSetup2.obj
 0001:0006e8b0       ??0CMKNCSetup2@@QAE@XZ     0046f8b0 f   MKNCSetup2.obj
 0001:0006ea30       ??_GCMKNCSetup2@@UAEPAXI@Z 0046fa30 f i MKNCSetup2.obj
 0001:0006ea30       ??_ECMKNCSetup2@@UAEPAXI@Z 0046fa30 f i * CIL library *:* CIL module *
 0001:0006ea70       ?DoDataExchange@CMKNCSetup2@@MAEXPAVCDataExchange@@@Z 0046fa70 f   MKNCSetup2.obj
 0001:0006eba0       ?OnInitDialog@CMKNCSetup2@@MAEHXZ 0046fba0 f   MKNCSetup2.obj
 0001:0006ee00       ?OnProgNo@CMKNCSetup2@@IAEXXZ 0046fe00 f   MKNCSetup2.obj
 0001:0006ee50       ?OnLineAdd@CMKNCSetup2@@IAEXXZ 0046fe50 f   MKNCSetup2.obj
 0001:0006ee90       ?OnApply@CMKNCSetup2@@UAEHXZ 0046fe90 f   MKNCSetup2.obj
 0001:0006f120       ?OnKillActive@CMKNCSetup2@@UAEHXZ 00470120 f   MKNCSetup2.obj
 0001:0006f230       ?GetMessageMap@CMKNCSetup3@@MBEPBUAFX_MSGMAP@@XZ 00470230 f   MKNCSetup3.obj
 0001:0006f240       ??0CMKNCSetup3@@QAE@XZ     00470240 f   MKNCSetup3.obj
 0001:0006f480       ??_ECMKNCSetup3@@UAEPAXI@Z 00470480 f i * CIL library *:* CIL module *
 0001:0006f480       ??_GCMKNCSetup3@@UAEPAXI@Z 00470480 f i MKNCSetup3.obj
 0001:0006f4c0       ?DoDataExchange@CMKNCSetup3@@MAEXPAVCDataExchange@@@Z 004704c0 f   MKNCSetup3.obj
 0001:0006f620       ?EnableControl_Deep@CMKNCSetup3@@AAEXXZ 00470620 f   MKNCSetup3.obj
 0001:0006f6e0       ?OnInitDialog@CMKNCSetup3@@MAEHXZ 004706e0 f   MKNCSetup3.obj
 0001:0006f940       ?OnSelchangeMakeEnd@CMKNCSetup3@@IAEXXZ 00470940 f   MKNCSetup3.obj
 0001:0006f9a0       ?OnSelchangeProcess@CMKNCSetup3@@IAEXXZ 004709a0 f   MKNCSetup3.obj
 0001:0006f9f0       ?OnDeep@CMKNCSetup3@@IAEXXZ 004709f0 f   MKNCSetup3.obj
 0001:0006fa10       ?OnDeepFinish@CMKNCSetup3@@IAEXXZ 00470a10 f   MKNCSetup3.obj
 0001:0006fa60       ?OnSetActive@CMKNCSetup3@@UAEHXZ 00470a60 f   MKNCSetup3.obj
 0001:0006fba0       ?OnApply@CMKNCSetup3@@UAEHXZ 00470ba0 f   MKNCSetup3.obj
 0001:000700c0       ?OnKillActive@CMKNCSetup3@@UAEHXZ 004710c0 f   MKNCSetup3.obj
 0001:000704b0       ?GetMessageMap@CMKNCSetup4@@MBEPBUAFX_MSGMAP@@XZ 004714b0 f   MKNCSetup4.obj
 0001:000704c0       ??0CMKNCSetup4@@QAE@XZ     004714c0 f   MKNCSetup4.obj
 0001:000706d0       ??_GCMKNCSetup4@@UAEPAXI@Z 004716d0 f i MKNCSetup4.obj
 0001:000706d0       ??_ECMKNCSetup4@@UAEPAXI@Z 004716d0 f i * CIL library *:* CIL module *
 0001:00070710       ?DoDataExchange@CMKNCSetup4@@MAEXPAVCDataExchange@@@Z 00471710 f   MKNCSetup4.obj
 0001:00070860       ?OnInitDialog@CMKNCSetup4@@MAEHXZ 00471860 f   MKNCSetup4.obj
 0001:00070a20       ?OnSelchangeDwellFormat@CMKNCSetup4@@IAEXXZ 00471a20 f   MKNCSetup4.obj
 0001:00070a80       ?OnSelchangeZProcess@CMKNCSetup4@@IAEXXZ 00471a80 f   MKNCSetup4.obj
 0001:00070ab0       ?OnCircle@CMKNCSetup4@@IAEXXZ 00471ab0 f   MKNCSetup4.obj
 0001:00070b00       ?OnApply@CMKNCSetup4@@UAEHXZ 00471b00 f   MKNCSetup4.obj
 0001:00070dc0       ?OnKillActive@CMKNCSetup4@@UAEHXZ 00471dc0 f   MKNCSetup4.obj
 0001:00071190       ?GetMessageMap@CMKNCSetup5@@MBEPBUAFX_MSGMAP@@XZ 00472190 f   MKNCSetup5.obj
 0001:000711a0       ??_GCMKNCSetup5@@UAEPAXI@Z 004721a0 f i MKNCSetup5.obj
 0001:000711a0       ??_ECMKNCSetup5@@UAEPAXI@Z 004721a0 f i * CIL library *:* CIL module *
 0001:000711e0       ?DoDataExchange@CMKNCSetup5@@MAEXPAVCDataExchange@@@Z 004721e0 f   MKNCSetup5.obj
 0001:00071280       ?OnInitDialog@CMKNCSetup5@@MAEHXZ 00472280 f   MKNCSetup5.obj
 0001:00071380       ?OnSelchangeDrill@CMKNCSetup5@@IAEXXZ 00472380 f   MKNCSetup5.obj
 0001:000713b0       ?OnScriptLookup@CMKNCSetup5@@IAEXXZ 004723b0 f   MKNCSetup5.obj
 0001:000714c0       ?OnApply@CMKNCSetup5@@UAEHXZ 004724c0 f   MKNCSetup5.obj
 0001:000716f0       ?OnKillActive@CMKNCSetup5@@UAEHXZ 004726f0 f   MKNCSetup5.obj
 0001:00071950       ?GetMessageMap@CMKNCSetup6@@MBEPBUAFX_MSGMAP@@XZ 00472950 f   MKNCSetup6.obj
 0001:00071960       ??0CMKNCSetup6@@QAE@XZ     00472960 f   MKNCSetup6.obj
 0001:00071ac0       ??_ECMKNCSetup6@@UAEPAXI@Z 00472ac0 f i * CIL library *:* CIL module *
 0001:00071ac0       ??_GCMKNCSetup6@@UAEPAXI@Z 00472ac0 f i MKNCSetup6.obj
 0001:00071b00       ?DoDataExchange@CMKNCSetup6@@MAEXPAVCDataExchange@@@Z 00472b00 f   MKNCSetup6.obj
 0001:00071c00       ?OnInitDialog@CMKNCSetup6@@MAEHXZ 00472c00 f   MKNCSetup6.obj
 0001:00071de0       ?OnCircleR@CMKNCSetup6@@IAEXXZ 00472de0 f   MKNCSetup6.obj
 0001:00071e10       ?OnCircleIJ@CMKNCSetup6@@IAEXXZ 00472e10 f   MKNCSetup6.obj
 0001:00071e40       ?OnApply@CMKNCSetup6@@UAEHXZ 00472e40 f   MKNCSetup6.obj
 0001:00072070       ?OnKillActive@CMKNCSetup6@@UAEHXZ 00473070 f   MKNCSetup6.obj
 0001:00072170       ??_GCMKNCSetup8@@UAEPAXI@Z 00473170 f i MKNCSetup8.obj
 0001:00072170       ??_ECMKNCSetup8@@UAEPAXI@Z 00473170 f i * CIL library *:* CIL module *
 0001:000721d0       ?DoDataExchange@CMKNCSetup8@@MAEXPAVCDataExchange@@@Z 004731d0 f   MKNCSetup8.obj
 0001:00072240       ?OnInitDialog@CMKNCSetup8@@MAEHXZ 00473240 f   MKNCSetup8.obj
 0001:000722d0       ?OnApply@CMKNCSetup8@@UAEHXZ 004732d0 f   MKNCSetup8.obj
 0001:00072350       ?GetMessageMap@CMKWISetup@@MBEPBUAFX_MSGMAP@@XZ 00473350 f   MKWISetup.obj
 0001:00072360       ?GetRuntimeClass@CMKWISetup@@UBEPAUCRuntimeClass@@XZ 00473360 f   MKWISetup.obj
 0001:00072370       ??0CMKWISetup@@QAE@PBD0@Z  00473370 f   MKWISetup.obj
 0001:00072590       ??_GCMKWISetup@@UAEPAXI@Z  00473590 f i MKWISetup.obj
 0001:00072590       ??_ECMKWISetup@@UAEPAXI@Z  00473590 f i * CIL library *:* CIL module *
 0001:000725d0       ??1CMKWISetup1@@UAE@XZ     004735d0 f i MKWISetup.obj
 0001:00072690       ??1CMKWISetup2@@UAE@XZ     00473690 f i MKWISetup.obj
 0001:000726e0       ??1CMKWISetup@@UAE@XZ      004736e0 f   MKWISetup.obj
 0001:00072770       ?OnDestroy@CMKWISetup@@IAEXXZ 00473770 f   MKWISetup.obj
 0001:00072790       ?OnApplyNow@CMKWISetup@@IAEXXZ 00473790 f   MKWISetup.obj
 0001:000729a0       ?GetMessageMap@CMKWISetup1@@MBEPBUAFX_MSGMAP@@XZ 004739a0 f   MKWISetup1.obj
 0001:000729b0       ??0CMKWISetup1@@QAE@XZ     004739b0 f   MKWISetup1.obj
 0001:00072b60       ??_ECMKWISetup1@@UAEPAXI@Z 00473b60 f i * CIL library *:* CIL module *
 0001:00072b60       ??_GCMKWISetup1@@UAEPAXI@Z 00473b60 f i MKWISetup1.obj
 0001:00072ba0       ?DoDataExchange@CMKWISetup1@@MAEXPAVCDataExchange@@@Z 00473ba0 f   MKWISetup1.obj
 0001:00072c70       ?OnInitDialog@CMKWISetup1@@MAEHXZ 00473c70 f   MKWISetup1.obj
 0001:00072dd0       ?OnHeaderLoopup@CMKWISetup1@@IAEXXZ 00473dd0 f   MKWISetup1.obj
 0001:00072ee0       ?OnFooterLoopup@CMKWISetup1@@IAEXXZ 00473ee0 f   MKWISetup1.obj
 0001:00072ff0       ?OnHeaderEdit@CMKWISetup1@@IAEXXZ 00473ff0 f   MKWISetup1.obj
 0001:00073180       ?OnFooterEdit@CMKWISetup1@@IAEXXZ 00474180 f   MKWISetup1.obj
 0001:00073310       ?OnApply@CMKWISetup1@@MAEHXZ 00474310 f   MKWISetup1.obj
 0001:000735e0       ?OnKillActive@CMKWISetup1@@MAEHXZ 004745e0 f   MKWISetup1.obj
 0001:000739d0       ??_GCMKWISetup2@@UAEPAXI@Z 004749d0 f i MKWISetup2.obj
 0001:000739d0       ??_ECMKWISetup2@@UAEPAXI@Z 004749d0 f i * CIL library *:* CIL module *
 0001:00073a50       ?DoDataExchange@CMKWISetup2@@MAEXPAVCDataExchange@@@Z 00474a50 f   MKWISetup2.obj
 0001:00073ad0       ?OnInitDialog@CMKWISetup2@@MAEHXZ 00474ad0 f   MKWISetup2.obj
 0001:00073b80       ?OnApply@CMKWISetup2@@MAEHXZ 00474b80 f   MKWISetup2.obj
 0001:00073cc0       ?OnKillActive@CMKWISetup2@@MAEHXZ 00474cc0 f   MKWISetup2.obj
 0001:00073e10       ?CreateObject@CNCChild@@SGPAVCObject@@XZ 00474e10 f   NCChild.obj
 0001:00073f60       ?GetRuntimeClass@CNCChild@@UBEPAUCRuntimeClass@@XZ 00474f60 f   NCChild.obj
 0001:00073f70       ?GetMessageMap@CNCChild@@MBEPBUAFX_MSGMAP@@XZ 00474f70 f   NCChild.obj
 0001:00073f80       ?GetMessageMap@CNCFrameSplit@@MBEPBUAFX_MSGMAP@@XZ 00474f80 f   NCChild.obj
 0001:00073f90       ??_GCNCChild@@UAEPAXI@Z    00474f90 f i NCChild.obj
 0001:00073f90       ??_ECNCChild@@UAEPAXI@Z    00474f90 f i * CIL library *:* CIL module *
 0001:00074000       ?OnCreateClient@CNCChild@@MAEHPAUtagCREATESTRUCTA@@PAUCCreateContext@@@Z 00475000 f   NCChild.obj
 0001:000740e0       ?OnCmdMsg@CNCChild@@UAEHIHPAXPAUAFX_CMDHANDLERINFO@@@Z 004750e0 f   NCChild.obj
 0001:000741e0       ?SetFactorInfo@CNCChild@@QAEXMABV?$CStringT@DV?$StrTraitMFC_DLL@DV?$ChTraitsCRT@D@ATL@@@@@ATL@@H@Z 004751e0 f   NCChild.obj
 0001:000742a0       ?OnCreate@CNCChild@@IAEHPAUtagCREATESTRUCTA@@@Z 004752a0 f   NCChild.obj
 0001:00074310       ?OnSize@CNCChild@@IAEXIHH@Z 00475310 f   NCChild.obj
 0001:000743a0       ?OnUpdateStatusLineNo@CNCChild@@IAEJIJ@Z 004753a0 f   NCChild.obj
 0001:00074670       ?OnUserInitialUpdate@CNCFrameSplit@@IAEJIJ@Z 00475670 f   NCChild.obj
 0001:00074830       ?OnDestroy@CNCFrameSplit@@IAEXXZ 00475830 f   NCChild.obj
 0001:00074920       ?OnLButtonDblClk@CNCFrameSplit@@IAEXIVCPoint@@@Z 00475920 f   NCChild.obj
 0001:00074970       ??0CNCline@@IAE@W4ENNCDTYPE@@PBVCNCdata@@PAUtagNCARGV@@ABV?$CPoint3T@M@@@Z 00475970 f i NCdata.obj
 0001:00074a50       ??_GCNCline@@UAEPAXI@Z     00475a50 f i NCdata.obj
 0001:00074a50       ??_ECNCline@@UAEPAXI@Z     00475a50 f i * CIL library *:* CIL module *
 0001:00074a80       ??1CNCline@@UAE@XZ         00475a80 f i NCdata.obj
 0001:00074a90       ?Constracter@CNCdata@@AAEXPAUtagNCARGV@@@Z 00475a90 f i NCdata.obj
 0001:00074c90       ??_GCNCread@@UAEPAXI@Z     00475c90 f i NCdata.obj
 0001:00074c90       ??_ECNCread@@UAEPAXI@Z     00475c90 f i * CIL library *:* CIL module *
 0001:00074ce0       ?GetMaxCutRect@CNCdata@@UBE?AV?$CRect3T@M@@XZ 00475ce0 f i NCdata.obj
 0001:00074ce0       ?GetMaxRect@CNCdata@@UBE?AV?$CRect3T@M@@XZ 00475ce0 f i NCdata.obj
 0001:00074d10       ?CalcRoundPoint@CNCcycle@@UBE?AV?$tuple@HV?$CPointT@M@@MMUnull_type@tuples@boost@@U234@U234@U234@U234@U234@@tuples@boost@@PBVCNCdata@@M@Z 00475d10 f i NCdata.obj
 0001:00074d10       ?CalcRoundPoint@CNCdata@@UBE?AV?$tuple@HV?$CPointT@M@@MMUnull_type@tuples@boost@@U234@U234@U234@U234@U234@@tuples@boost@@PBV1@M@Z 00475d10 f i NCdata.obj
 0001:00074d50       ?SetChamferingPoint@CNCcycle@@UAE?AV?$optional@V?$CPointT@M@@@boost@@HM@Z 00475d50 f i NCdata.obj
 0001:00074d50       ?SetChamferingPoint@CNCdata@@UAE?AV?$optional@V?$CPointT@M@@@boost@@HM@Z 00475d50 f i NCdata.obj
 0001:00074d60       ?CalcBetweenAngle@CNCdata@@UBEMPBV1@@Z 00475d60 f i NCdata.obj
 0001:00074d60       ?CalcBetweenAngle@CNCcycle@@UBEMPBVCNCdata@@@Z 00475d60 f i NCdata.obj
 0001:00074d70       ?CalcOffsetIntersectionPoint@CNCdata@@UBE?AV?$optional@V?$CPointT@M@@@boost@@PBV1@MMH@Z 00475d70 f i NCdata.obj
 0001:00074d70       ?CalcOffsetIntersectionPoint@CNCcycle@@UBE?AV?$optional@V?$CPointT@M@@@boost@@PBVCNCdata@@MMH@Z 00475d70 f i NCdata.obj
 0001:00074d80       ?SetCalcLength@CNCdata@@UAEMXZ 00475d80 f i NCdata.obj
 0001:00074db0       ?GetMaxRect@CNCline@@UBE?AV?$CRect3T@M@@XZ 00475db0 f i NCdata.obj
 0001:00074ea0       ?GetMaxCutRect@CNCline@@UBE?AV?$CRect3T@M@@XZ 00475ea0 f i NCdata.obj
 0001:00074f10       ?GetDrawStartPoint@CNCline@@UBE?AVCPoint@@I@Z 00475f10 f i NCdata.obj
 0001:00074f30       ?GetDrawEndPoint@CNCline@@UBE?AVCPoint@@I@Z 00475f30 f i NCdata.obj
 0001:00074f50       ?DrawTuning@PTCYCLE@@QAEXM@Z 00475f50 f i NCdata.obj
 0001:000750b0       ?GetMaxRect@CNCcycle@@UBE?AV?$CRect3T@M@@XZ 004760b0 f i NCdata.obj
 0001:000751c0       ?GetMaxCutRect@CNCcycle@@UBE?AV?$CRect3T@M@@XZ 004761c0 f i NCdata.obj
 0001:000752f0       ?SetCalcLength@CNCcycle@@UAEMXZ 004762f0 f i NCdata.obj
 0001:00075300       ?GetMaxCutRect@CNCcircle@@UBE?AV?$CRect3T@M@@XZ 00476300 f i NCdata.obj
 0001:00075310       ??0CNCdata@@QAE@PAUtagNCARGV@@@Z 00476310 f   NCdata.obj
 0001:00075570       ??_ECNCdata@@UAEPAXI@Z     00476570 f i * CIL library *:* CIL module *
 0001:00075570       ??_GCNCdata@@UAEPAXI@Z     00476570 f i NCdata.obj
 0001:000755a0       ??0CNCdata@@QAE@PBV0@PAUtagNCARGV@@ABV?$CPoint3T@M@@@Z 004765a0 f   NCdata.obj
 0001:000759d0       ??0CNCdata@@IAE@W4ENNCDTYPE@@PBV0@PAUtagNCARGV@@ABV?$CPoint3T@M@@@Z 004769d0 f   NCdata.obj
 0001:00075ba0       ??0CNCdata@@IAE@PBV0@@Z    00476ba0 f   NCdata.obj
 0001:00075e90       ??1CNCdata@@UAE@XZ         00476e90 f   NCdata.obj
 0001:00075f40       ?DeleteReadData@CNCdata@@QAEXXZ 00476f40 f   NCdata.obj
 0001:00075fa0       ?GetPlaneValueOrg@CNCdata@@QBE?AV?$CPointT@M@@ABV?$CPoint3T@M@@0@Z 00476fa0 f   NCdata.obj
 0001:000760f0       ?CalcG68Round@CNCdata@@IBEXPAUtagG68ROUND@@AAV?$CPoint3T@M@@@Z 004770f0 f   NCdata.obj
 0001:00076210       ?NC_CopyObject@CNCdata@@QAEPAV1@XZ 00477210 f   NCdata.obj
 0001:00076400       ?DrawTuning@CNCdata@@UAEXM@Z 00477400 f   NCdata.obj
 0001:00076470       ?DrawTuningXY@CNCdata@@UAEXM@Z 00477470 f   NCdata.obj
 0001:000764e0       ?DrawTuningXZ@CNCdata@@UAEXM@Z 004774e0 f   NCdata.obj
 0001:00076550       ?DrawTuningYZ@CNCdata@@UAEXM@Z 00477550 f   NCdata.obj
 0001:000765c0       ?Draw@CNCdata@@UBEXPAVCDC@@H@Z 004775c0 f   NCdata.obj
 0001:00076610       ?DrawXY@CNCdata@@UBEXPAVCDC@@H@Z 00477610 f   NCdata.obj
 0001:00076660       ?DrawXZ@CNCdata@@UBEXPAVCDC@@H@Z 00477660 f   NCdata.obj
 0001:000766b0       ?DrawYZ@CNCdata@@UBEXPAVCDC@@H@Z 004776b0 f   NCdata.obj
 0001:00076700       ?GetDrawStartPoint@CNCdata@@UBE?AVCPoint@@I@Z 00477700 f   NCdata.obj
 0001:00076700       ?GetDrawEndPoint@CNCdata@@UBE?AVCPoint@@I@Z 00477700 f   NCdata.obj
 0001:00076720       ??0CNCline@@QAE@PBVCNCdata@@PAUtagNCARGV@@ABV?$CPoint3T@M@@@Z 00477720 f   NCdata.obj
 0001:00076970       ??0CNCline@@QAE@PBVCNCdata@@@Z 00477970 f   NCdata.obj
 0001:00076ba0       ?SetCalcLength@CNCline@@UAEMXZ 00477ba0 f   NCdata.obj
 0001:00076db0       ?DrawTuning@CNCline@@UAEXM@Z 00477db0 f   NCdata.obj
 0001:00076e50       ?DrawTuningXY@CNCline@@UAEXM@Z 00477e50 f   NCdata.obj
 0001:00076ed0       ?DrawTuningXZ@CNCline@@UAEXM@Z 00477ed0 f   NCdata.obj
 0001:00076f50       ?DrawTuningYZ@CNCline@@UAEXM@Z 00477f50 f   NCdata.obj
 0001:00076fd0       ?Draw@CNCline@@UBEXPAVCDC@@H@Z 00477fd0 f   NCdata.obj
 0001:00077020       ?DrawXY@CNCline@@UBEXPAVCDC@@H@Z 00478020 f   NCdata.obj
 0001:00077070       ?DrawXZ@CNCline@@UBEXPAVCDC@@H@Z 00478070 f   NCdata.obj
 0001:000770c0       ?DrawYZ@CNCline@@UBEXPAVCDC@@H@Z 004780c0 f   NCdata.obj
 0001:00077110       ?DrawWire@CNCline@@UBEXPAVCDC@@H@Z 00478110 f   NCdata.obj
 0001:00077110       ?DrawWire@CNCcircle@@UBEXPAVCDC@@H@Z 00478110 f   NCdata.obj
 0001:00077130       ?DrawWireXY@CNCcircle@@UBEXPAVCDC@@H@Z 00478130 f   NCdata.obj
 0001:00077130       ?DrawWireXY@CNCline@@UBEXPAVCDC@@H@Z 00478130 f   NCdata.obj
 0001:00077150       ?DrawWireXZ@CNCcircle@@UBEXPAVCDC@@H@Z 00478150 f   NCdata.obj
 0001:00077150       ?DrawWireXZ@CNCline@@UBEXPAVCDC@@H@Z 00478150 f   NCdata.obj
 0001:00077170       ?DrawWireYZ@CNCcircle@@UBEXPAVCDC@@H@Z 00478170 f   NCdata.obj
 0001:00077170       ?DrawWireYZ@CNCline@@UBEXPAVCDC@@H@Z 00478170 f   NCdata.obj
 0001:00077190       ?DrawLine@CNCline@@ABEXW4ENNCDRAWVIEW@@PAVCDC@@H@Z 00478190 f   NCdata.obj
 0001:00077280       ?DrawWireLine@CNCline@@UBEXW4ENNCDRAWVIEW@@PAVCDC@@H@Z 00478280 f   NCdata.obj
 0001:00077400       ?CalcRoundPoint@CNCline@@UBE?AV?$tuple@HV?$CPointT@M@@MMUnull_type@tuples@boost@@U234@U234@U234@U234@U234@@tuples@boost@@PBVCNCdata@@M@Z 00478400 f   NCdata.obj
 0001:00077900       ?SetChamferingPoint@CNCline@@UAE?AV?$optional@V?$CPointT@M@@@boost@@HM@Z 00478900 f   NCdata.obj
 0001:00077ed0       ?CalcBetweenAngle@CNCline@@UBEMPBVCNCdata@@@Z 00478ed0 f   NCdata.obj
 0001:00078020       ?CalcOffsetSign@CNCline@@UBEHXZ 00479020 f   NCdata.obj
 0001:00078100       ?CalcPerpendicularPoint@CNCline@@UBE?AV?$optional@V?$CPointT@M@@@boost@@W4ENPOINTORDER@@MH@Z 00479100 f   NCdata.obj
 0001:00078250       ?CalcOffsetIntersectionPoint@CNCline@@UBE?AV?$optional@V?$CPointT@M@@@boost@@PBVCNCdata@@MMH@Z 00479250 f   NCdata.obj
 0001:00078420       ?CalcOffsetIntersectionPoint2@CNCline@@UBE?AV?$optional@V?$CPointT@M@@@boost@@PBVCNCdata@@MH@Z 00479420 f   NCdata.obj
 0001:00078600       ?SetCorrectPoint@CNCline@@UAEXW4ENPOINTORDER@@ABV?$CPointT@M@@M@Z 00479600 f   NCdata.obj
 0001:00078710       ??0CNCcycle@@QAE@PBVCNCdata@@PAUtagNCARGV@@ABV?$CPoint3T@M@@HW4enMAKETYPE@@@Z 00479710 f   NCdata.obj
 0001:000798e0       ??_ECNCcycle@@UAEPAXI@Z    0047a8e0 f i * CIL library *:* CIL module *
 0001:000798e0       ??_GCNCcycle@@UAEPAXI@Z    0047a8e0 f i NCdata.obj
 0001:00079950       ?DrawTuning@CNCcycle@@UAEXM@Z 0047a950 f   NCdata.obj
 0001:00079b70       ?DrawTuningXY@CNCcycle@@UAEXM@Z 0047ab70 f   NCdata.obj
 0001:00079c80       ?DrawTuningXZ@CNCcycle@@UAEXM@Z 0047ac80 f   NCdata.obj
 0001:00079d90       ?DrawTuningYZ@CNCcycle@@UAEXM@Z 0047ad90 f   NCdata.obj
 0001:00079ea0       ?Draw@CNCcycle@@UBEXPAVCDC@@H@Z 0047aea0 f   NCdata.obj
 0001:00079ec0       ?DrawXY@CNCcycle@@UBEXPAVCDC@@H@Z 0047aec0 f   NCdata.obj
 0001:00079f30       ?DrawXZ@CNCcycle@@UBEXPAVCDC@@H@Z 0047af30 f   NCdata.obj
 0001:00079fb0       ?DrawYZ@CNCcycle@@UBEXPAVCDC@@H@Z 0047afb0 f   NCdata.obj
 0001:0007a020       ?DrawCyclePlane@CNCcycle@@ABEXW4ENNCDRAWVIEW@@PAVCDC@@H@Z 0047b020 f   NCdata.obj
 0001:0007a130       ?DrawCycle@CNCcycle@@ABEXW4ENNCDRAWVIEW@@PAVCDC@@H@Z 0047b130 f   NCdata.obj
 0001:0007a310       ??0CNCcircle@@QAE@PBVCNCdata@@PAUtagNCARGV@@ABV?$CPoint3T@M@@W4enMAKETYPE@@@Z 0047b310 f   NCdata.obj
 0001:0007a860       ??_ECNCcircle@@UAEPAXI@Z   0047b860 f i * CIL library *:* CIL module *
 0001:0007a860       ??_GCNCcircle@@UAEPAXI@Z   0047b860 f i NCdata.obj
 0001:0007a890       ?Constracter@CNCcircle@@AAEXXZ 0047b890 f   NCdata.obj
 0001:0007a940       ?CalcCenter@CNCcircle@@AAEHABV?$CPointT@M@@0@Z 0047b940 f   NCdata.obj
 0001:0007abe0       ?SetCenter@CNCcircle@@AAEXABV?$CPointT@M@@@Z 0047bbe0 f   NCdata.obj
 0001:0007ac60       ?CalcAngle@CNCcircle@@ABE?AV?$tuple@MMUnull_type@tuples@boost@@U123@U123@U123@U123@U123@U123@U123@@tuples@boost@@HABV?$CPointT@M@@0@Z 0047bc60 f   NCdata.obj
 0001:0007ae70       ?AngleTuning@CNCcircle@@AAEXABV?$CPointT@M@@0@Z 0047be70 f   NCdata.obj
 0001:0007aeb0       ?SetCalcLength@CNCcircle@@UAEMXZ 0047beb0 f   NCdata.obj
 0001:0007af80       ?DrawTuning@CNCcircle@@UAEXM@Z 0047bf80 f   NCdata.obj
 0001:0007b1d0       ?DrawTuningXY@CNCcircle@@UAEXM@Z 0047c1d0 f   NCdata.obj
 0001:0007b300       ?DrawTuningXZ@CNCcircle@@UAEXM@Z 0047c300 f   NCdata.obj
 0001:0007b410       ?DrawTuningYZ@CNCcircle@@UAEXM@Z 0047c410 f   NCdata.obj
 0001:0007b520       ?Draw@CNCcircle@@UBEXPAVCDC@@H@Z 0047c520 f   NCdata.obj
 0001:0007b6d0       ?DrawXY@CNCcircle@@UBEXPAVCDC@@H@Z 0047c6d0 f   NCdata.obj
 0001:0007b7f0       ?DrawXZ@CNCcircle@@UBEXPAVCDC@@H@Z 0047c7f0 f   NCdata.obj
 0001:0007b910       ?DrawYZ@CNCcircle@@UBEXPAVCDC@@H@Z 0047c910 f   NCdata.obj
 0001:0007ba30       ?DrawWireLine@CNCcircle@@UBEXW4ENNCDRAWVIEW@@PAVCDC@@H@Z 0047ca30 f   NCdata.obj
 0001:0007bb80       ?DrawG17@CNCcircle@@ABEXW4ENNCDRAWVIEW@@PAVCDC@@@Z 0047cb80 f   NCdata.obj
 0001:0007c590       ?DrawG18@CNCcircle@@ABEXW4ENNCDRAWVIEW@@PAVCDC@@@Z 0047d590 f   NCdata.obj
 0001:0007cfa0       ?DrawG19@CNCcircle@@ABEXW4ENNCDRAWVIEW@@PAVCDC@@@Z 0047dfa0 f   NCdata.obj
 0001:0007d9c0       ?GetMaxRect@CNCcircle@@UBE?AV?$CRect3T@M@@XZ 0047e9c0 f   NCdata.obj
 0001:0007de20       ?CalcRoundPoint@CNCcircle@@UBE?AV?$tuple@HV?$CPointT@M@@MMUnull_type@tuples@boost@@U234@U234@U234@U234@U234@@tuples@boost@@PBVCNCdata@@M@Z 0047ee20 f   NCdata.obj
 0001:0007e5f0       ?SetChamferingPoint@CNCcircle@@UAE?AV?$optional@V?$CPointT@M@@@boost@@HM@Z 0047f5f0 f   NCdata.obj
 0001:0007ee80       ?CalcBetweenAngle@CNCcircle@@UBEMPBVCNCdata@@@Z 0047fe80 f   NCdata.obj
 0001:0007f010       ?CalcOffsetSign@CNCcircle@@UBEHXZ 00480010 f   NCdata.obj
 0001:0007f030       ?CalcPerpendicularPoint@CNCcircle@@UBE?AV?$optional@V?$CPointT@M@@@boost@@W4ENPOINTORDER@@MH@Z 00480030 f   NCdata.obj
 0001:0007f170       ?CalcOffsetIntersectionPoint@CNCcircle@@UBE?AV?$optional@V?$CPointT@M@@@boost@@PBVCNCdata@@MMH@Z 00480170 f   NCdata.obj
 0001:0007f5c0       ?CalcOffsetIntersectionPoint2@CNCcircle@@UBE?AV?$optional@V?$CPointT@M@@@boost@@PBVCNCdata@@MH@Z 004805c0 f   NCdata.obj
 0001:0007f7e0       ?SetCorrectPoint@CNCcircle@@UAEXW4ENPOINTORDER@@ABV?$CPointT@M@@M@Z 004807e0 f   NCdata.obj
 0001:0007fcd0       ?Draw@CVBtmDraw@@QAEXXZ    00480cd0 f   NCdataGL.obj
 0001:0007feb0       ?DrawGLWirePass@CNCdata@@UBEXXZ 00480eb0 f   NCdataGL.obj
 0001:0007fef0       ?AddGLBottomFaceVertex@CNCdata@@UBEHAAVCVBtmDraw@@H@Z 00480ef0 f   NCdataGL.obj
 0001:0007ff50       ?AddGLWireVertex@CNCdata@@UBEHAAV?$vector@MV?$allocator@M@std@@@std@@0AAV?$vector@IV?$allocator@I@std@@@3@AAUWIRELINE@@H@Z 00480f50 f   NCdataGL.obj
 0001:000800a0       ?AddGLWireTexture@CNCcycle@@UBEHIAAMMPAM@Z 004810a0 f   NCdataGL.obj
 0001:000800a0       ?AddGLWireTexture@CNCdata@@UBEHIAAMMPAM@Z 004810a0 f   NCdataGL.obj
 0001:000800b0       ?SetChamfermillOrg@CNCdata@@QBEXABV?$CPoint3T@M@@AAV?$vector@MV?$allocator@M@std@@@std@@@Z 004810b0 f   NCdataGL.obj
 0001:00080110       ?SetDrillOrg@CNCdata@@QBEXABV?$CPoint3T@M@@AAV?$vector@MV?$allocator@M@std@@@std@@@Z 00481110 f   NCdataGL.obj
 0001:00080180       ?AddEndmillSphere@CNCdata@@QBEXABV?$CPoint3T@M@@AAUBOTTOMDRAW@@AAVCVBtmDraw@@@Z 00481180 f   NCdataGL.obj
 0001:00080350       ?DrawGLWirePass@CNCline@@UBEXXZ 00481350 f   NCdataGL.obj
 0001:00080410       ?DrawGLLatheDepth@CNCline@@UBEXXZ 00481410 f   NCdataGL.obj
 0001:00080d20       ?AddGLBottomFaceVertex@CNCline@@UBEHAAVCVBtmDraw@@H@Z 00481d20 f   NCdataGL.obj
 0001:00081690       ??1BOTTOMDRAW@@QAE@XZ      00482690 f i NCdataGL.obj
 0001:000816b0       ?AddGLWireVertex@CNCline@@UBEHAAV?$vector@MV?$allocator@M@std@@@std@@0AAV?$vector@IV?$allocator@I@std@@@3@AAUWIRELINE@@H@Z 004826b0 f   NCdataGL.obj
 0001:000819d0       ?AddGLWireTexture@CNCline@@UBEHIAAMMPAM@Z 004829d0 f   NCdataGL.obj
 0001:00081a30       ?DrawGLWirePass@CNCcycle@@UBEXXZ 00482a30 f   NCdataGL.obj
 0001:00081b90       ?DrawGLLatheDepth@CNCcycle@@UBEXXZ 00482b90 f   NCdataGL.obj
 0001:00081de0       ?AddGLBottomFaceVertex@CNCcycle@@UBEHAAVCVBtmDraw@@H@Z 00482de0 f   NCdataGL.obj
 0001:00082070       ?AddGLWireVertex@CNCcycle@@UBEHAAV?$vector@MV?$allocator@M@std@@@std@@0AAV?$vector@IV?$allocator@I@std@@@3@AAUWIRELINE@@H@Z 00483070 f   NCdataGL.obj
 0001:00082080       ?DrawGLWirePass@CNCcircle@@UBEXXZ 00483080 f   NCdataGL.obj
 0001:00082110       ?DrawGLLatheDepth@CNCcircle@@UBEXXZ 00483110 f   NCdataGL.obj
 0001:000822d0       ?DrawGLWirePassCircle@CNCcircle@@ABEXABV?$CPoint3T@M@@0@Z 004832d0 f   NCdataGL.obj
 0001:00082360       ?DrawGLWirePassCircle@CNCcircle@@ABEXPAUDRAWGLWIRECIRCLE@@@Z 00483360 f   NCdataGL.obj
 0001:00082880       ?AddGLBottomFaceVertex@CNCcircle@@UBEHAAVCVBtmDraw@@H@Z 00483880 f   NCdataGL.obj
 0001:00082c70       ?SetEndmillXYPath@CNCcircle@@ABEXAAV?$vector@MV?$allocator@M@std@@@std@@@Z 00483c70 f   NCdataGL.obj
 0001:00082fd0       ?SetEndmillSquare@CNCcircle@@ABEXAAUBOTTOMDRAW@@AAVCVBtmDraw@@@Z 00483fd0 f   NCdataGL.obj
 0001:00083530       ?SetEndmillBall@CNCcircle@@ABEXAAUBOTTOMDRAW@@AAVCVBtmDraw@@@Z 00484530 f   NCdataGL.obj
 0001:00083f30       ?SetEndmillChamferAndDrill@CNCcircle@@ABEXAAUBOTTOMDRAW@@AAVCVBtmDraw@@@Z 00484f30 f   NCdataGL.obj
 0001:000842e0       ?SetEndmillSpherePathCircle@CNCcircle@@ABEXMABV?$CPoint3T@M@@AAV?$vector@MV?$allocator@M@std@@@std@@@Z 004852e0 f   NCdataGL.obj
 0001:000843f0       ?SetEndmillPathXZ_Sphere@CNCcircle@@ABEXMABV?$CPoint3T@M@@AAV?$vector@MV?$allocator@M@std@@@std@@@Z 004853f0 f   NCdataGL.obj
 0001:000844b0       ?SetEndmillPathYZ_Sphere@CNCcircle@@ABEXMABV?$CPoint3T@M@@AAV?$vector@MV?$allocator@M@std@@@std@@@Z 004854b0 f   NCdataGL.obj
 0001:00084570       ?AddEndmillPipe@CNCcircle@@ABEXIAAUBOTTOMDRAW@@AAVCVBtmDraw@@@Z 00485570 f   NCdataGL.obj
 0001:000847a0       ?AddEndmillChamferAndDrill@CNCcircle@@ABEXAAUBOTTOMDRAW@@AAVCVBtmDraw@@@Z 004857a0 f   NCdataGL.obj
 0001:00084930       ?AddGLWireVertex@CNCcircle@@UBEHAAV?$vector@MV?$allocator@M@std@@@std@@0AAV?$vector@IV?$allocator@I@std@@@3@AAUWIRELINE@@H@Z 00485930 f   NCdataGL.obj
 0001:000851f0       ?AddGLWireTexture@CNCcircle@@UBEHIAAMMPAM@Z 004861f0 f   NCdataGL.obj
 0001:000852d0       ??1?$vector@V?$CPoint3T@M@@V?$allocator@V?$CPoint3T@M@@@std@@@std@@QAE@XZ 004862d0 f i NCdataGL.obj
 0001:000852d0       ?_Tidy@?$vector@U?$sub_match@V?$_String_const_iterator@V?$_String_val@U?$_Simple_types@D@std@@@std@@@std@@@boost@@V?$allocator@U?$sub_match@V?$_String_const_iterator@V?$_String_val@U?$_Simple_types@D@std@@@std@@@std@@@boost@@@std@@@std@@AAEXXZ 004862d0 f i NCDoc.obj
 0001:000852d0       ??1?$vector@ULATHEDRILLINFO@@V?$allocator@ULATHEDRILLINFO@@@std@@@std@@QAE@XZ 004862d0 f i NCMakeLathe.obj
 0001:000852d0       ?_Tidy@?$vector@U?$sub_match@PBD@boost@@V?$allocator@U?$sub_match@PBD@boost@@@std@@@std@@AAEXXZ 004862d0 f i NCDoc.obj
 0001:00085340       ?insert@?$vector@MV?$allocator@M@std@@@std@@QAE?AV?$_Vector_iterator@V?$_Vector_val@U?$_Simple_types@M@std@@@std@@@2@V?$_Vector_const_iterator@V?$_Vector_val@U?$_Simple_types@M@std@@@std@@@2@IABM@Z 00486340 f i NCdataGL.obj
 0001:000854d0       ?_Reallocate_exactly@?$vector@MV?$allocator@M@std@@@std@@AAEXI@Z 004864d0 f i NCdataGL.obj
 0001:00085510       ??$_Emplace_reallocate@ABV?$CPoint3T@M@@@?$vector@V?$CPoint3T@M@@V?$allocator@V?$CPoint3T@M@@@std@@@std@@QAEPAV?$CPoint3T@M@@QAV2@ABV2@@Z 00486510 f i NCdataGL.obj
 0001:00085710       ??$construct@UBOTTOMDRAW@@ABU1@@?$_Default_allocator_traits@V?$allocator@UBOTTOMDRAW@@@std@@@std@@SAXAAV?$allocator@UBOTTOMDRAW@@@1@QAUBOTTOMDRAW@@ABU3@@Z 00486710 f i NCdataGL.obj
 0001:000857e0       ??$_Emplace_reallocate@ABUBOTTOMDRAW@@@?$vector@UBOTTOMDRAW@@V?$allocator@UBOTTOMDRAW@@@std@@@std@@QAEPAUBOTTOMDRAW@@QAU2@ABU2@@Z 004867e0 f i NCdataGL.obj
 0001:00085a00       ??$_Uninitialized_fill_n@V?$allocator@M@std@@@std@@YAPAMPAMIABMAAV?$allocator@M@0@@Z 00486a00 f i NCdataGL.obj
 0001:00085a80       ??$fill@PAMM@std@@YAXQAM0ABM@Z 00486a80 f i NCdataGL.obj
 0001:00085b40       ?deallocate@?$allocator@UBOTTOMDRAW@@@std@@QAEXQAUBOTTOMDRAW@@I@Z 00486b40 f i NCdataGL.obj
 0001:00085b80       ??0?$vector@IV?$allocator@I@std@@@std@@QAE@ABV01@@Z 00486b80 f i NCdataGL.obj
 0001:00085c00       ??$_Insert_range@PBM@?$vector@MV?$allocator@M@std@@@std@@AAEXV?$_Vector_const_iterator@V?$_Vector_val@U?$_Simple_types@M@std@@@std@@@1@PBM1Uforward_iterator_tag@1@@Z 00486c00 f i NCdataGL.obj
 0001:00085c00       ??$_Insert_range@PAM@?$vector@MV?$allocator@M@std@@@std@@AAEXV?$_Vector_const_iterator@V?$_Vector_val@U?$_Simple_types@M@std@@@std@@@1@PAM1Uforward_iterator_tag@1@@Z 00486c00 f i NCdataGL.obj
 0001:00085dd0       ??$_Uninitialized_move@PAUBOTTOMDRAW@@V?$allocator@UBOTTOMDRAW@@@std@@@std@@YAPAUBOTTOMDRAW@@QAU1@0PAU1@AAV?$allocator@UBOTTOMDRAW@@@0@@Z 00486dd0 f i NCdataGL.obj
 0001:00085e70       ??$_Destroy_range@V?$allocator@UBOTTOMDRAW@@@std@@@std@@YAXPAUBOTTOMDRAW@@QAU1@AAV?$allocator@UBOTTOMDRAW@@@0@@Z 00486e70 f i NCdataGL.obj
 0001:00085ea0       ?_Clear_and_reserve_geometric@?$vector@IV?$allocator@I@std@@@std@@AAEXI@Z 00486ea0 f i NCdataGL.obj
 0001:00085f40       ??0CNCblock@@QAE@ABV?$CStringT@DV?$StrTraitMFC_DLL@DV?$ChTraitsCRT@D@ATL@@@@@ATL@@K@Z 00486f40 f i NCDoc.obj
 0001:00086010       ?SetMaxRect@CNCDoc@@AAEXPBVCNCdata@@@Z 00487010 f i NCDoc.obj
 0001:00086160       ?CreateObject@CNCDoc@@SGPAVCObject@@XZ 00487160 f   NCDoc.obj
 0001:000861d0       ?GetRuntimeClass@CNCDoc@@UBEPAUCRuntimeClass@@XZ 004871d0 f   NCDoc.obj
 0001:000861e0       ?GetMessageMap@CNCDoc@@MBEPBUAFX_MSGMAP@@XZ 004871e0 f   NCDoc.obj
 0001:000861f0       ??0CNCDoc@@IAE@XZ          004871f0 f   NCDoc.obj
 0001:00086690       ??_ECNCDoc@@UAEPAXI@Z      00487690 f i * CIL library *:* CIL module *
 0001:00086690       ??_GCNCDoc@@UAEPAXI@Z      00487690 f i NCDoc.obj
 0001:000866d0       ??1CNCDoc@@UAE@XZ          004876d0 f   NCDoc.obj
 0001:000868a0       ?ReadWorkFile@CNCDoc@@QAEHPBD@Z 004878a0 f   NCDoc.obj
 0001:00086ca0       ?ReadMCFile@CNCDoc@@QAEHPBD@Z 00487ca0 f   NCDoc.obj
 0001:00086ef0       ?DataOperation@CNCDoc@@QAEPAVCNCdata@@PBV2@PAUtagNCARGV@@HW4ENNCOPERATION@@@Z 00487ef0 f   NCDoc.obj
 0001:000877d0       ?StrOperation@CNCDoc@@QAEXPBDHW4ENNCOPERATION@@@Z 004887d0 f   NCDoc.obj
 0001:00087930       ?RemoveObj@CNCDoc@@QAEXHH@Z 00488930 f   NCDoc.obj
 0001:00087a10       ?ClearBlockData@CNCDoc@@AAEXXZ 00488a10 f   NCDoc.obj
 0001:00087a80       ?SetCommentStr@CNCDoc@@QAEXABV?$CStringT@DV?$StrTraitMFC_DLL@DV?$ChTraitsCRT@D@ATL@@@@@ATL@@@Z 00488a80 f   NCDoc.obj
 0001:00088160       ?CreateCutcalcThread@CNCDoc@@QAEXXZ 00489160 f   NCDoc.obj
 0001:00088260       ?SearchBlockRegex@CNCDoc@@QAEHAAV?$basic_regex@DU?$regex_traits@DV?$w32_regex_traits@D@boost@@@boost@@@boost@@HHH@Z 00489260 f   NCDoc.obj
 0001:00088630       ?IncrementTrace@CNCDoc@@QAEHAAH@Z 00489630 f   NCDoc.obj
 0001:000887c0       ?SetLineToTrace@CNCDoc@@QAEHHH@Z 004897c0 f   NCDoc.obj
 0001:000888b0       ?InsertBlock@CNCDoc@@QAEXHABV?$CStringT@DV?$StrTraitMFC_DLL@DV?$ChTraitsCRT@D@ATL@@@@@ATL@@@Z 004898b0 f   NCDoc.obj
 0001:00088a00       ?MakeDXF@CNCDoc@@AAEXPBVCDXFMakeOption@@@Z 00489a00 f   NCDoc.obj
 0001:00088f90       ?AddMacroFile@CNCDoc@@QAEXABV?$CStringT@DV?$StrTraitMFC_DLL@DV?$ChTraitsCRT@D@ATL@@@@@ATL@@@Z 00489f90 f   NCDoc.obj
 0001:00089010       ?ReadThumbnail@CNCDoc@@QAEXPBD@Z 0048a010 f   NCDoc.obj
 0001:00089230       ?OnOpenDocument@CNCDoc@@UAEHPBD@Z 0048a230 f   NCDoc.obj
 0001:00089330       ?OnSaveDocument@CNCDoc@@UAEHPBD@Z 0048a330 f   NCDoc.obj
 0001:000893e0       ?OnCloseDocument@CNCDoc@@UAEXXZ 0048a3e0 f   NCDoc.obj
 0001:00089490       ?SetPathName@CNCDoc@@UAEXPBDH@Z 0048a490 f   NCDoc.obj
 0001:00089550       ?OnChangedViewList@CNCDoc@@UAEXXZ 0048a550 f   NCDoc.obj
 0001:00089570       ?Serialize@CNCDoc@@UAEXAAVCArchive@@@Z 0048a570 f   NCDoc.obj
 0001:00089790       ?SerializeBlock@CNCDoc@@AAEXAAVCArchive@@AAV?$CTypedPtrArrayEx@VCPtrArray@@PAVCNCblock@@@@K@Z 0048a790 f   NCDoc.obj
 0001:000899d0       ?SerializeAfterCheck@CNCDoc@@AAEHXZ 0048a9d0 f   NCDoc.obj
 0001:00089fd0       ?SerializeInsertBlock@CNCDoc@@QAEHPBDHK@Z 0048afd0 f   NCDoc.obj
 0001:0008a160       ?OnUpdateFileSave@CNCDoc@@IAEXPAVCCmdUI@@@Z 0048b160 f   NCDoc.obj
 0001:0008a180       ?OnFileNCD2DXF@CNCDoc@@IAEXXZ 0048b180 f   NCDoc.obj
 0001:0008a440       ?OnUpdateWorkRect@CNCDoc@@IAEXPAVCCmdUI@@@Z 0048b440 f   NCDoc.obj
 0001:0008a480       ?OnWorkRect@CNCDoc@@IAEXXZ 0048b480 f   NCDoc.obj
 0001:0008a5d0       ?OnUpdateMaxRect@CNCDoc@@IAEXPAVCCmdUI@@@Z 0048b5d0 f   NCDoc.obj
 0001:0008a610       ?OnMaxRect@CNCDoc@@IAEXXZ  0048b610 f   NCDoc.obj
 0001:0008a630       ??$regex_search@U?$char_traits@D@std@@V?$allocator@D@2@DU?$regex_traits@DV?$w32_regex_traits@D@boost@@@boost@@@boost@@YA_NABV?$basic_string@DU?$char_traits@D@std@@V?$allocator@D@2@@std@@ABV?$basic_regex@DU?$regex_traits@DV?$w32_regex_traits@D@boost@@@boost@@@0@W4_match_flags@regex_constants@0@@Z 0048b630 f i NCDoc.obj
 0001:0008a750       ??$regex_search@PBDDU?$regex_traits@DV?$w32_regex_traits@D@boost@@@boost@@@boost@@YA_NPBD0ABV?$basic_regex@DU?$regex_traits@DV?$w32_regex_traits@D@boost@@@boost@@@0@W4_match_flags@regex_constants@0@@Z 0048b750 f i NCDoc.obj
 0001:0008a910       ??$regex_replace@V?$string_out_iterator@V?$basic_string@DU?$char_traits@D@std@@V?$allocator@D@2@@std@@@re_detail_500@boost@@V?$_String_const_iterator@V?$_String_val@U?$_Simple_types@D@std@@@std@@@std@@U?$regex_traits@DV?$w32_regex_traits@D@boost@@@3@DPBD@boost@@YA?AV?$string_out_iterator@V?$basic_string@DU?$char_traits@D@std@@V?$allocator@D@2@@std@@@re_detail_500@0@V120@V?$_String_const_iterator@V?$_String_val@U?$_Simple_types@D@std@@@std@@@std@@1ABV?$basic_regex@DU?$regex_traits@DV?$w32_regex_traits@D@boost@@@boost@@@0@PBDW4_match_flags@regex_constants@0@@Z 0048b910 f i NCDoc.obj
 0001:0008ab30       ??1?$perl_matcher@PBDV?$allocator@U?$sub_match@PBD@boost@@@std@@U?$regex_traits@DV?$w32_regex_traits@D@boost@@@boost@@@re_detail_500@boost@@QAE@XZ 0048bb30 f i NCDoc.obj
 0001:0008ab30       ??1?$perl_matcher@V?$_String_const_iterator@V?$_String_val@U?$_Simple_types@D@std@@@std@@@std@@V?$allocator@U?$sub_match@V?$_String_const_iterator@V?$_String_val@U?$_Simple_types@D@std@@@std@@@std@@@boost@@@2@U?$regex_traits@DV?$w32_regex_traits@D@boost@@@boost@@@re_detail_500@boost@@QAE@XZ 0048bb30 f i NCDoc.obj
 0001:0008ab90       ??1?$vector@U?$recursion_info@V?$match_results@PBDV?$allocator@U?$sub_match@PBD@boost@@@std@@@boost@@@re_detail_500@boost@@V?$allocator@U?$recursion_info@V?$match_results@PBDV?$allocator@U?$sub_match@PBD@boost@@@std@@@boost@@@re_detail_500@boost@@@std@@@std@@QAE@XZ 0048bb90 f i NCDoc.obj
 0001:0008ab90       ??1?$vector@U?$recursion_info@V?$match_results@V?$_String_const_iterator@V?$_String_val@U?$_Simple_types@D@std@@@std@@@std@@V?$allocator@U?$sub_match@V?$_String_const_iterator@V?$_String_val@U?$_Simple_types@D@std@@@std@@@std@@@boost@@@2@@boost@@@re_detail_500@boost@@V?$allocator@U?$recursion_info@V?$match_results@V?$_String_const_iterator@V?$_String_val@U?$_Simple_types@D@std@@@std@@@std@@V?$allocator@U?$sub_match@V?$_String_const_iterator@V?$_String_val@U?$_Simple_types@D@std@@@std@@@std@@@boost@@@2@@boost@@@re_detail_500@boost@@@std@@@std@@QAE@XZ 0048bb90 f i NCDoc.obj
 0001:0008ac10       ??1?$repeater_count@V?$_String_const_iterator@V?$_String_val@U?$_Simple_types@D@std@@@std@@@std@@@re_detail_500@boost@@QAE@XZ 0048bc10 f i NCDoc.obj
 0001:0008ac10       ??1?$repeater_count@PBD@re_detail_500@boost@@QAE@XZ 0048bc10 f i NCDoc.obj
 0001:0008ac20       ??1?$unique_ptr@V?$match_results@V?$_String_const_iterator@V?$_String_val@U?$_Simple_types@D@std@@@std@@@std@@V?$allocator@U?$sub_match@V?$_String_const_iterator@V?$_String_val@U?$_Simple_types@D@std@@@std@@@std@@@boost@@@2@@boost@@U?$default_delete@V?$match_results@V?$_String_const_iterator@V?$_String_val@U?$_Simple_types@D@std@@@std@@@std@@V?$allocator@U?$sub_match@V?$_String_const_iterator@V?$_String_val@U?$_Simple_types@D@std@@@std@@@std@@@boost@@@2@@boost@@@std@@@std@@QAE@XZ 0048bc20 f i NCDoc.obj
 0001:0008ac20       ??1?$unique_ptr@V?$match_results@PBDV?$allocator@U?$sub_match@PBD@boost@@@std@@@boost@@U?$default_delete@V?$match_results@PBDV?$allocator@U?$sub_match@PBD@boost@@@std@@@boost@@@std@@@std@@QAE@XZ 0048bc20 f i NCDoc.obj
 0001:0008ac70       ??0?$perl_matcher@V?$_String_const_iterator@V?$_String_val@U?$_Simple_types@D@std@@@std@@@std@@V?$allocator@U?$sub_match@V?$_String_const_iterator@V?$_String_val@U?$_Simple_types@D@std@@@std@@@std@@@boost@@@2@U?$regex_traits@DV?$w32_regex_traits@D@boost@@@boost@@@re_detail_500@boost@@QAE@V?$_String_const_iterator@V?$_String_val@U?$_Simple_types@D@std@@@std@@@std@@0AAV?$match_results@V?$_String_const_iterator@V?$_String_val@U?$_Simple_types@D@std@@@std@@@std@@V?$allocator@U?$sub_match@V?$_String_const_iterator@V?$_String_val@U?$_Simple_types@D@std@@@std@@@std@@@boost@@@2@@2@ABV?$basic_regex@DU?$regex_traits@DV?$w32_regex_traits@D@boost@@@boost@@@2@W4_match_flags@regex_constants@2@0@Z 0048bc70 f i NCDoc.obj
 0001:0008ad50       ??A?$match_results@PBDV?$allocator@U?$sub_match@PBD@boost@@@std@@@boost@@QBEABU?$sub_match@PBD@1@H@Z 0048bd50 f i NCDoc.obj
 0001:0008ad50       ??A?$match_results@V?$_String_const_iterator@V?$_String_val@U?$_Simple_types@D@std@@@std@@@std@@V?$allocator@U?$sub_match@V?$_String_const_iterator@V?$_String_val@U?$_Simple_types@D@std@@@std@@@std@@@boost@@@2@@boost@@QBEABU?$sub_match@V?$_String_const_iterator@V?$_String_val@U?$_Simple_types@D@std@@@std@@@std@@@1@H@Z 0048bd50 f i NCDoc.obj
 0001:0008adb0       ??1?$match_results@PBDV?$allocator@U?$sub_match@PBD@boost@@@std@@@boost@@QAE@XZ 0048bdb0 f i NCDoc.obj
 0001:0008adb0       ??1?$match_results@V?$_String_const_iterator@V?$_String_val@U?$_Simple_types@D@std@@@std@@@std@@V?$allocator@U?$sub_match@V?$_String_const_iterator@V?$_String_val@U?$_Simple_types@D@std@@@std@@@std@@@boost@@@2@@boost@@QAE@XZ 0048bdb0 f i NCDoc.obj
 0001:0008adf0       ??E?$regex_iterator@V?$_String_const_iterator@V?$_String_val@U?$_Simple_types@D@std@@@std@@@std@@DU?$regex_traits@DV?$w32_regex_traits@D@boost@@@boost@@@boost@@QAEAAV01@XZ 0048bdf0 f i NCDoc.obj
 0001:0008b020       ??8?$regex_iterator@V?$_String_const_iterator@V?$_String_val@U?$_Simple_types@D@std@@@std@@@std@@DU?$regex_traits@DV?$w32_regex_traits@D@boost@@@boost@@@boost@@QBE_NABV01@@Z 0048c020 f i NCDoc.obj
 0001:0008b160       ??0?$regex_iterator@V?$_String_const_iterator@V?$_String_val@U?$_Simple_types@D@std@@@std@@@std@@DU?$regex_traits@DV?$w32_regex_traits@D@boost@@@boost@@@boost@@QAE@V?$_String_const_iterator@V?$_String_val@U?$_Simple_types@D@std@@@std@@@std@@0ABV?$basic_regex@DU?$regex_traits@DV?$w32_regex_traits@D@boost@@@boost@@@1@W4_match_flags@regex_constants@1@@Z 0048c160 f i NCDoc.obj
 0001:0008b300       ?raise_logic_error@?$match_results@PBDV?$allocator@U?$sub_match@PBD@boost@@@std@@@boost@@CAXXZ 0048c300 f i NCDoc.obj
 0001:0008b300       ?raise_logic_error@?$match_results@V?$_String_const_iterator@V?$_String_val@U?$_Simple_types@D@std@@@std@@@std@@V?$allocator@U?$sub_match@V?$_String_const_iterator@V?$_String_val@U?$_Simple_types@D@std@@@std@@@std@@@boost@@@2@@boost@@CAXXZ 0048c300 f i NCDoc.obj
 0001:0008b350       ?deallocate@?$allocator@U?$recursion_info@V?$match_results@PBDV?$allocator@U?$sub_match@PBD@boost@@@std@@@boost@@@re_detail_500@boost@@@std@@QAEXQAU?$recursion_info@V?$match_results@PBDV?$allocator@U?$sub_match@PBD@boost@@@std@@@boost@@@re_detail_500@boost@@I@Z 0048c350 f i NCDoc.obj
 0001:0008b350       ?deallocate@?$allocator@U?$recursion_info@V?$match_results@V?$_String_const_iterator@V?$_String_val@U?$_Simple_types@D@std@@@std@@@std@@V?$allocator@U?$sub_match@V?$_String_const_iterator@V?$_String_val@U?$_Simple_types@D@std@@@std@@@std@@@boost@@@2@@boost@@@re_detail_500@boost@@@std@@QAEXQAU?$recursion_info@V?$match_results@V?$_String_const_iterator@V?$_String_val@U?$_Simple_types@D@std@@@std@@@std@@V?$allocator@U?$sub_match@V?$_String_const_iterator@V?$_String_val@U?$_Simple_types@D@std@@@std@@@std@@@boost@@@2@@boost@@@re_detail_500@boost@@I@Z 0048c350 f i NCDoc.obj
 0001:0008b390       ??0?$match_results@V?$_String_const_iterator@V?$_String_val@U?$_Simple_types@D@std@@@std@@@std@@V?$allocator@U?$sub_match@V?$_String_const_iterator@V?$_String_val@U?$_Simple_types@D@std@@@std@@@std@@@boost@@@2@@boost@@QAE@ABV01@@Z 0048c390 f i NCDoc.obj
 0001:0008b390       ??0?$match_results@PBDV?$allocator@U?$sub_match@PBD@boost@@@std@@@boost@@QAE@ABV01@@Z 0048c390 f i NCDoc.obj
 0001:0008b4a0       ?construct_init@?$perl_matcher@V?$_String_const_iterator@V?$_String_val@U?$_Simple_types@D@std@@@std@@@std@@V?$allocator@U?$sub_match@V?$_String_const_iterator@V?$_String_val@U?$_Simple_types@D@std@@@std@@@std@@@boost@@@2@U?$regex_traits@DV?$w32_regex_traits@D@boost@@@boost@@@re_detail_500@boost@@AAEXABV?$basic_regex@DU?$regex_traits@DV?$w32_regex_traits@D@boost@@@boost@@@3@W4_match_flags@regex_constants@3@@Z 0048c4a0 f i NCDoc.obj
 0001:0008b4a0       ?construct_init@?$perl_matcher@PBDV?$allocator@U?$sub_match@PBD@boost@@@std@@U?$regex_traits@DV?$w32_regex_traits@D@boost@@@boost@@@re_detail_500@boost@@AAEXABV?$basic_regex@DU?$regex_traits@DV?$w32_regex_traits@D@boost@@@boost@@@3@W4_match_flags@regex_constants@3@@Z 0048c4a0 f i NCDoc.obj
 0001:0008b720       ??$regex_search@V?$_String_const_iterator@V?$_String_val@U?$_Simple_types@D@std@@@std@@@std@@V?$allocator@U?$sub_match@V?$_String_const_iterator@V?$_String_val@U?$_Simple_types@D@std@@@std@@@std@@@boost@@@2@DU?$regex_traits@DV?$w32_regex_traits@D@boost@@@boost@@@boost@@YA_NV?$_String_const_iterator@V?$_String_val@U?$_Simple_types@D@std@@@std@@@std@@0AAV?$match_results@V?$_String_const_iterator@V?$_String_val@U?$_Simple_types@D@std@@@std@@@std@@V?$allocator@U?$sub_match@V?$_String_const_iterator@V?$_String_val@U?$_Simple_types@D@std@@@std@@@std@@@boost@@@2@@0@ABV?$basic_regex@DU?$regex_traits@DV?$w32_regex_traits@D@boost@@@boost@@@0@W4_match_flags@regex_constants@0@0@Z 0048c720 f i NCDoc.obj
 0001:0008b7c0       ??$_Destroy_range@V?$allocator@U?$recursion_info@V?$match_results@V?$_String_const_iterator@V?$_String_val@U?$_Simple_types@D@std@@@std@@@std@@V?$allocator@U?$sub_match@V?$_String_const_iterator@V?$_String_val@U?$_Simple_types@D@std@@@std@@@std@@@boost@@@2@@boost@@@re_detail_500@boost@@@std@@@std@@YAXPAU?$recursion_info@V?$match_results@V?$_String_const_iterator@V?$_String_val@U?$_Simple_types@D@std@@@std@@@std@@V?$allocator@U?$sub_match@V?$_String_const_iterator@V?$_String_val@U?$_Simple_types@D@std@@@std@@@std@@@boost@@@2@@boost@@@re_detail_500@boost@@QAU123@AAV?$allocator@U?$recursion_info@V?$match_results@V?$_String_const_iterator@V?$_String_val@U?$_Simple_types@D@std@@@std@@@std@@V?$allocator@U?$sub_match@V?$_String_const_iterator@V?$_String_val@U?$_Simple_types@D@std@@@std@@@std@@@boost@@@2@@boost@@@re_detail_500@boost@@@0@@Z 0048c7c0 f i NCDoc.obj
 0001:0008b7c0       ??$_Destroy_range@V?$allocator@U?$recursion_info@V?$match_results@PBDV?$allocator@U?$sub_match@PBD@boost@@@std@@@boost@@@re_detail_500@boost@@@std@@@std@@YAXPAU?$recursion_info@V?$match_results@PBDV?$allocator@U?$sub_match@PBD@boost@@@std@@@boost@@@re_detail_500@boost@@QAU123@AAV?$allocator@U?$recursion_info@V?$match_results@PBDV?$allocator@U?$sub_match@PBD@boost@@@std@@@boost@@@re_detail_500@boost@@@0@@Z 0048c7c0 f i NCDoc.obj
 0001:0008b810       ?_Destroy@?$_Ref_count@V?$regex_iterator_implementation@V?$_String_const_iterator@V?$_String_val@U?$_Simple_types@D@std@@@std@@@std@@DU?$regex_traits@DV?$w32_regex_traits@D@boost@@@boost@@@boost@@@std@@EAEXXZ 0048c810 f i NCDoc.obj
 0001:0008b820       ??1?$_Temporary_owner@V?$regex_iterator_implementation@V?$_String_const_iterator@V?$_String_val@U?$_Simple_types@D@std@@@std@@@std@@DU?$regex_traits@DV?$w32_regex_traits@D@boost@@@boost@@@boost@@@std@@QAE@XZ 0048c820 f i NCDoc.obj
 0001:0008b830       ??_G?$regex_iterator_implementation@V?$_String_const_iterator@V?$_String_val@U?$_Simple_types@D@std@@@std@@@std@@DU?$regex_traits@DV?$w32_regex_traits@D@boost@@@boost@@@boost@@QAEPAXI@Z 0048c830 f i NCDoc.obj
 0001:0008b8a0       ?allocate@?$allocator@U?$sub_match@PBD@boost@@@std@@QAEPAU?$sub_match@PBD@boost@@I@Z 0048c8a0 f i NCDoc.obj
 0001:0008b8a0       ?allocate@?$allocator@U?$sub_match@V?$_String_const_iterator@V?$_String_val@U?$_Simple_types@D@std@@@std@@@std@@@boost@@@std@@QAEPAU?$sub_match@V?$_String_const_iterator@V?$_String_val@U?$_Simple_types@D@std@@@std@@@std@@@boost@@I@Z 0048c8a0 f i NCDoc.obj
 0001:0008b900       ?find_imp@?$perl_matcher@PBDV?$allocator@U?$sub_match@PBD@boost@@@std@@U?$regex_traits@DV?$w32_regex_traits@D@boost@@@boost@@@re_detail_500@boost@@AAE_NXZ 0048c900 f i NCDoc.obj
 0001:0008bc00       ?find_imp@?$perl_matcher@V?$_String_const_iterator@V?$_String_val@U?$_Simple_types@D@std@@@std@@@std@@V?$allocator@U?$sub_match@V?$_String_const_iterator@V?$_String_val@U?$_Simple_types@D@std@@@std@@@std@@@boost@@@2@U?$regex_traits@DV?$w32_regex_traits@D@boost@@@boost@@@re_detail_500@boost@@AAE_NXZ 0048cc00 f i NCDoc.obj
 0001:0008bf00       ??$throw_exception@Vinvalid_argument@std@@@boost@@YAXABVinvalid_argument@std@@@Z 0048cf00 f i NCDoc.obj
 0001:0008bf20       ??0?$wrapexcept@Vinvalid_argument@std@@@boost@@QAE@ABU01@@Z 0048cf20 f i NCDoc.obj
 0001:0008bfe0       ??0invalid_argument@std@@QAE@ABV01@@Z 0048cfe0 f i NCDoc.obj
 0001:0008c020       ??1?$recursion_info@V?$match_results@PBDV?$allocator@U?$sub_match@PBD@boost@@@std@@@boost@@@re_detail_500@boost@@QAE@XZ 0048d020 f i NCDoc.obj
 0001:0008c020       ??1?$recursion_info@V?$match_results@V?$_String_const_iterator@V?$_String_val@U?$_Simple_types@D@std@@@std@@@std@@V?$allocator@U?$sub_match@V?$_String_const_iterator@V?$_String_val@U?$_Simple_types@D@std@@@std@@@std@@@boost@@@2@@boost@@@re_detail_500@boost@@QAE@XZ 0048d020 f i NCDoc.obj
 0001:0008c060       ?rethrow@?$wrapexcept@Vinvalid_argument@std@@@boost@@UBEXXZ 0048d060 f i NCDoc.obj
 0001:0008c080       ?clone@?$wrapexcept@Vinvalid_argument@std@@@boost@@UBEPBVclone_base@exception_detail@2@XZ 0048d080 f i NCDoc.obj
 0001:0008c110       ??0?$wrapexcept@Vinvalid_argument@std@@@boost@@QAE@ABVinvalid_argument@std@@@Z 0048d110 f i NCDoc.obj
 0001:0008c180       ?set_size@?$match_results@V?$_String_const_iterator@V?$_String_val@U?$_Simple_types@D@std@@@std@@@std@@V?$allocator@U?$sub_match@V?$_String_const_iterator@V?$_String_val@U?$_Simple_types@D@std@@@std@@@std@@@boost@@@2@@boost@@QAEXIV?$_String_const_iterator@V?$_String_val@U?$_Simple_types@D@std@@@std@@@std@@0@Z 0048d180 f i NCDoc.obj
 0001:0008c230       ?set_size@?$match_results@PBDV?$allocator@U?$sub_match@PBD@boost@@@std@@@boost@@QAEXIPBD0@Z 0048d230 f i NCDoc.obj
 0001:0008c2f0       ?insert@?$vector@U?$sub_match@PBD@boost@@V?$allocator@U?$sub_match@PBD@boost@@@std@@@std@@QAE?AV?$_Vector_iterator@V?$_Vector_val@U?$_Simple_types@U?$sub_match@PBD@boost@@@std@@@std@@@2@V?$_Vector_const_iterator@V?$_Vector_val@U?$_Simple_types@U?$sub_match@PBD@boost@@@std@@@std@@@2@IABU?$sub_match@PBD@boost@@@Z 0048d2f0 f i NCDoc.obj
 0001:0008c2f0       ?insert@?$vector@U?$sub_match@V?$_String_const_iterator@V?$_String_val@U?$_Simple_types@D@std@@@std@@@std@@@boost@@V?$allocator@U?$sub_match@V?$_String_const_iterator@V?$_String_val@U?$_Simple_types@D@std@@@std@@@std@@@boost@@@std@@@std@@QAE?AV?$_Vector_iterator@V?$_Vector_val@U?$_Simple_types@U?$sub_match@V?$_String_const_iterator@V?$_String_val@U?$_Simple_types@D@std@@@std@@@std@@@boost@@@std@@@std@@@2@V?$_Vector_const_iterator@V?$_Vector_val@U?$_Simple_types@U?$sub_match@V?$_String_const_iterator@V?$_String_val@U?$_Simple_types@D@std@@@std@@@std@@@boost@@@std@@@std@@@2@IABU?$sub_match@V?$_String_const_iterator@V?$_String_val@U?$_Simple_types@D@std@@@std@@@std@@@boost@@@Z 0048d2f0 f i NCDoc.obj
 0001:0008c6c0       ?match_prefix@?$perl_matcher@PBDV?$allocator@U?$sub_match@PBD@boost@@@std@@U?$regex_traits@DV?$w32_regex_traits@D@boost@@@boost@@@re_detail_500@boost@@AAE_NXZ 0048d6c0 f i NCDoc.obj
 0001:0008c770       ?find_restart_any@?$perl_matcher@PBDV?$allocator@U?$sub_match@PBD@boost@@@std@@U?$regex_traits@DV?$w32_regex_traits@D@boost@@@boost@@@re_detail_500@boost@@AAE_NXZ 0048d770 f i NCDoc.obj
 0001:0008c7e0       ?find_restart_word@?$perl_matcher@PBDV?$allocator@U?$sub_match@PBD@boost@@@std@@U?$regex_traits@DV?$w32_regex_traits@D@boost@@@boost@@@re_detail_500@boost@@AAE_NXZ 0048d7e0 f i NCDoc.obj
 0001:0008c8f0       ?find_restart_line@?$perl_matcher@PBDV?$allocator@U?$sub_match@PBD@boost@@@std@@U?$regex_traits@DV?$w32_regex_traits@D@boost@@@boost@@@re_detail_500@boost@@AAE_NXZ 0048d8f0 f i NCDoc.obj
 0001:0008c990       ?find_restart_buf@?$perl_matcher@PBDV?$allocator@U?$sub_match@PBD@boost@@@std@@U?$regex_traits@DV?$w32_regex_traits@D@boost@@@boost@@@re_detail_500@boost@@AAE_NXZ 0048d990 f i NCDoc.obj
 0001:0008c9b0       ?unwind@?$perl_matcher@PBDV?$allocator@U?$sub_match@PBD@boost@@@std@@U?$regex_traits@DV?$w32_regex_traits@D@boost@@@boost@@@re_detail_500@boost@@AAE_N_N@Z 0048d9b0 f i NCDoc.obj
 0001:0008c9f0       ?match_prefix@?$perl_matcher@V?$_String_const_iterator@V?$_String_val@U?$_Simple_types@D@std@@@std@@@std@@V?$allocator@U?$sub_match@V?$_String_const_iterator@V?$_String_val@U?$_Simple_types@D@std@@@std@@@std@@@boost@@@2@U?$regex_traits@DV?$w32_regex_traits@D@boost@@@boost@@@re_detail_500@boost@@AAE_NXZ 0048d9f0 f i NCDoc.obj
 0001:0008caa0       ?find_restart_any@?$perl_matcher@V?$_String_const_iterator@V?$_String_val@U?$_Simple_types@D@std@@@std@@@std@@V?$allocator@U?$sub_match@V?$_String_const_iterator@V?$_String_val@U?$_Simple_types@D@std@@@std@@@std@@@boost@@@2@U?$regex_traits@DV?$w32_regex_traits@D@boost@@@boost@@@re_detail_500@boost@@AAE_NXZ 0048daa0 f i NCDoc.obj
 0001:0008cb10       ?find_restart_word@?$perl_matcher@V?$_String_const_iterator@V?$_String_val@U?$_Simple_types@D@std@@@std@@@std@@V?$allocator@U?$sub_match@V?$_String_const_iterator@V?$_String_val@U?$_Simple_types@D@std@@@std@@@std@@@boost@@@2@U?$regex_traits@DV?$w32_regex_traits@D@boost@@@boost@@@re_detail_500@boost@@AAE_NXZ 0048db10 f i NCDoc.obj
 0001:0008cc00       ?find_restart_line@?$perl_matcher@V?$_String_const_iterator@V?$_String_val@U?$_Simple_types@D@std@@@std@@@std@@V?$allocator@U?$sub_match@V?$_String_const_iterator@V?$_String_val@U?$_Simple_types@D@std@@@std@@@std@@@boost@@@2@U?$regex_traits@DV?$w32_regex_traits@D@boost@@@boost@@@re_detail_500@boost@@AAE_NXZ 0048dc00 f i NCDoc.obj
 0001:0008cca0       ?find_restart_buf@?$perl_matcher@V?$_String_const_iterator@V?$_String_val@U?$_Simple_types@D@std@@@std@@@std@@V?$allocator@U?$sub_match@V?$_String_const_iterator@V?$_String_val@U?$_Simple_types@D@std@@@std@@@std@@@boost@@@2@U?$regex_traits@DV?$w32_regex_traits@D@boost@@@boost@@@re_detail_500@boost@@AAE_NXZ 0048dca0 f i NCDoc.obj
 0001:0008ccc0       ?unwind@?$perl_matcher@V?$_String_const_iterator@V?$_String_val@U?$_Simple_types@D@std@@@std@@@std@@V?$allocator@U?$sub_match@V?$_String_const_iterator@V?$_String_val@U?$_Simple_types@D@std@@@std@@@std@@@boost@@@2@U?$regex_traits@DV?$w32_regex_traits@D@boost@@@boost@@@re_detail_500@boost@@AAE_N_N@Z 0048dcc0 f i NCDoc.obj
 0001:0008cd00       ?set_first@?$match_results@V?$_String_const_iterator@V?$_String_val@U?$_Simple_types@D@std@@@std@@@std@@V?$allocator@U?$sub_match@V?$_String_const_iterator@V?$_String_val@U?$_Simple_types@D@std@@@std@@@std@@@boost@@@2@@boost@@QAEXV?$_String_const_iterator@V?$_String_val@U?$_Simple_types@D@std@@@std@@@std@@@Z 0048dd00 f i NCDoc.obj
 0001:0008cd90       ?set_first@?$match_results@PBDV?$allocator@U?$sub_match@PBD@boost@@@std@@@boost@@QAEXPBD@Z 0048dd90 f i NCDoc.obj
 0001:0008ce10       ?maybe_assign@?$match_results@PBDV?$allocator@U?$sub_match@PBD@boost@@@std@@@boost@@QAEXABV12@@Z 0048de10 f i NCDoc.obj
 0001:0008cfe0       ?maybe_assign@?$match_results@V?$_String_const_iterator@V?$_String_val@U?$_Simple_types@D@std@@@std@@@std@@V?$allocator@U?$sub_match@V?$_String_const_iterator@V?$_String_val@U?$_Simple_types@D@std@@@std@@@std@@@boost@@@2@@boost@@QAEXABV12@@Z 0048dfe0 f i NCDoc.obj
 0001:0008d1b0       ?match_all_states@?$perl_matcher@PBDV?$allocator@U?$sub_match@PBD@boost@@@std@@U?$regex_traits@DV?$w32_regex_traits@D@boost@@@boost@@@re_detail_500@boost@@AAE_NXZ 0048e1b0 f i NCDoc.obj
 0001:0008d340       ?unwind_end@?$perl_matcher@V?$_String_const_iterator@V?$_String_val@U?$_Simple_types@D@std@@@std@@@std@@V?$allocator@U?$sub_match@V?$_String_const_iterator@V?$_String_val@U?$_Simple_types@D@std@@@std@@@std@@@boost@@@2@U?$regex_traits@DV?$w32_regex_traits@D@boost@@@boost@@@re_detail_500@boost@@AAE_N_N@Z 0048e340 f i NCDoc.obj
 0001:0008d340       ?unwind_end@?$perl_matcher@PBDV?$allocator@U?$sub_match@PBD@boost@@@std@@U?$regex_traits@DV?$w32_regex_traits@D@boost@@@boost@@@re_detail_500@boost@@AAE_N_N@Z 0048e340 f i NCDoc.obj
 0001:0008d350       ?unwind_paren@?$perl_matcher@PBDV?$allocator@U?$sub_match@PBD@boost@@@std@@U?$regex_traits@DV?$w32_regex_traits@D@boost@@@boost@@@re_detail_500@boost@@AAE_N_N@Z 0048e350 f i NCDoc.obj
 0001:0008d410       ?unwind_recursion_stopper@?$perl_matcher@V?$_String_const_iterator@V?$_String_val@U?$_Simple_types@D@std@@@std@@@std@@V?$allocator@U?$sub_match@V?$_String_const_iterator@V?$_String_val@U?$_Simple_types@D@std@@@std@@@std@@@boost@@@2@U?$regex_traits@DV?$w32_regex_traits@D@boost@@@boost@@@re_detail_500@boost@@AAE_N_N@Z 0048e410 f i NCDoc.obj
 0001:0008d410       ?unwind_recursion_stopper@?$perl_matcher@PBDV?$allocator@U?$sub_match@PBD@boost@@@std@@U?$regex_traits@DV?$w32_regex_traits@D@boost@@@boost@@@re_detail_500@boost@@AAE_N_N@Z 0048e410 f i NCDoc.obj
 0001:0008d420       ?unwind_assertion@?$perl_matcher@V?$_String_const_iterator@V?$_String_val@U?$_Simple_types@D@std@@@std@@@std@@V?$allocator@U?$sub_match@V?$_String_const_iterator@V?$_String_val@U?$_Simple_types@D@std@@@std@@@std@@@boost@@@2@U?$regex_traits@DV?$w32_regex_traits@D@boost@@@boost@@@re_detail_500@boost@@AAE_N_N@Z 0048e420 f i NCDoc.obj
 0001:0008d420       ?unwind_assertion@?$perl_matcher@PBDV?$allocator@U?$sub_match@PBD@boost@@@std@@U?$regex_traits@DV?$w32_regex_traits@D@boost@@@boost@@@re_detail_500@boost@@AAE_N_N@Z 0048e420 f i NCDoc.obj
 0001:0008d470       ?unwind_alt@?$perl_matcher@PBDV?$allocator@U?$sub_match@PBD@boost@@@std@@U?$regex_traits@DV?$w32_regex_traits@D@boost@@@boost@@@re_detail_500@boost@@AAE_N_N@Z 0048e470 f i NCDoc.obj
 0001:0008d470       ?unwind_alt@?$perl_matcher@V?$_String_const_iterator@V?$_String_val@U?$_Simple_types@D@std@@@std@@@std@@V?$allocator@U?$sub_match@V?$_String_const_iterator@V?$_String_val@U?$_Simple_types@D@std@@@std@@@std@@@boost@@@2@U?$regex_traits@DV?$w32_regex_traits@D@boost@@@boost@@@re_detail_500@boost@@AAE_N_N@Z 0048e470 f i NCDoc.obj
 0001:0008d4a0       ?unwind_repeater_counter@?$perl_matcher@V?$_String_const_iterator@V?$_String_val@U?$_Simple_types@D@std@@@std@@@std@@V?$allocator@U?$sub_match@V?$_String_const_iterator@V?$_String_val@U?$_Simple_types@D@std@@@std@@@std@@@boost@@@2@U?$regex_traits@DV?$w32_regex_traits@D@boost@@@boost@@@re_detail_500@boost@@AAE_N_N@Z 0048e4a0 f i NCDoc.obj
 0001:0008d4a0       ?unwind_repeater_counter@?$perl_matcher@PBDV?$allocator@U?$sub_match@PBD@boost@@@std@@U?$regex_traits@DV?$w32_regex_traits@D@boost@@@boost@@@re_detail_500@boost@@AAE_N_N@Z 0048e4a0 f i NCDoc.obj
 0001:0008d4c0       ?unwind_extra_block@?$perl_matcher@PBDV?$allocator@U?$sub_match@PBD@boost@@@std@@U?$regex_traits@DV?$w32_regex_traits@D@boost@@@boost@@@re_detail_500@boost@@AAE_N_N@Z 0048e4c0 f i NCDoc.obj
 0001:0008d4c0       ?unwind_extra_block@?$perl_matcher@V?$_String_const_iterator@V?$_String_val@U?$_Simple_types@D@std@@@std@@@std@@V?$allocator@U?$sub_match@V?$_String_const_iterator@V?$_String_val@U?$_Simple_types@D@std@@@std@@@std@@@boost@@@2@U?$regex_traits@DV?$w32_regex_traits@D@boost@@@boost@@@re_detail_500@boost@@AAE_N_N@Z 0048e4c0 f i NCDoc.obj
 0001:0008d4f0       ?unwind_greedy_single_repeat@?$perl_matcher@PBDV?$allocator@U?$sub_match@PBD@boost@@@std@@U?$regex_traits@DV?$w32_regex_traits@D@boost@@@boost@@@re_detail_500@boost@@AAE_N_N@Z 0048e4f0 f i NCDoc.obj
 0001:0008d580       ?unwind_slow_dot_repeat@?$perl_matcher@PBDV?$allocator@U?$sub_match@PBD@boost@@@std@@U?$regex_traits@DV?$w32_regex_traits@D@boost@@@boost@@@re_detail_500@boost@@AAE_N_N@Z 0048e580 f i NCDoc.obj
 0001:0008d6c0       ?unwind_fast_dot_repeat@?$perl_matcher@PBDV?$allocator@U?$sub_match@PBD@boost@@@std@@U?$regex_traits@DV?$w32_regex_traits@D@boost@@@boost@@@re_detail_500@boost@@AAE_N_N@Z 0048e6c0 f i NCDoc.obj
 0001:0008d7a0       ?unwind_char_repeat@?$perl_matcher@V?$_String_const_iterator@V?$_String_val@U?$_Simple_types@D@std@@@std@@@std@@V?$allocator@U?$sub_match@V?$_String_const_iterator@V?$_String_val@U?$_Simple_types@D@std@@@std@@@std@@@boost@@@2@U?$regex_traits@DV?$w32_regex_traits@D@boost@@@boost@@@re_detail_500@boost@@AAE_N_N@Z 0048e7a0 f i NCDoc.obj
 0001:0008d7a0       ?unwind_char_repeat@?$perl_matcher@PBDV?$allocator@U?$sub_match@PBD@boost@@@std@@U?$regex_traits@DV?$w32_regex_traits@D@boost@@@boost@@@re_detail_500@boost@@AAE_N_N@Z 0048e7a0 f i NCDoc.obj
 0001:0008d8c0       ?unwind_short_set_repeat@?$perl_matcher@PBDV?$allocator@U?$sub_match@PBD@boost@@@std@@U?$regex_traits@DV?$w32_regex_traits@D@boost@@@boost@@@re_detail_500@boost@@AAE_N_N@Z 0048e8c0 f i NCDoc.obj
 0001:0008d9f0       ?unwind_long_set_repeat@?$perl_matcher@PBDV?$allocator@U?$sub_match@PBD@boost@@@std@@U?$regex_traits@DV?$w32_regex_traits@D@boost@@@boost@@@re_detail_500@boost@@AAE_N_N@Z 0048e9f0 f i NCDoc.obj
 0001:0008db30       ?unwind_non_greedy_repeat@?$perl_matcher@V?$_String_const_iterator@V?$_String_val@U?$_Simple_types@D@std@@@std@@@std@@V?$allocator@U?$sub_match@V?$_String_const_iterator@V?$_String_val@U?$_Simple_types@D@std@@@std@@@std@@@boost@@@2@U?$regex_traits@DV?$w32_regex_traits@D@boost@@@boost@@@re_detail_500@boost@@AAE_N_N@Z 0048eb30 f i NCDoc.obj
 0001:0008db30       ?unwind_non_greedy_repeat@?$perl_matcher@PBDV?$allocator@U?$sub_match@PBD@boost@@@std@@U?$regex_traits@DV?$w32_regex_traits@D@boost@@@boost@@@re_detail_500@boost@@AAE_N_N@Z 0048eb30 f i NCDoc.obj
 0001:0008db60       ?unwind_recursion@?$perl_matcher@PBDV?$allocator@U?$sub_match@PBD@boost@@@std@@U?$regex_traits@DV?$w32_regex_traits@D@boost@@@boost@@@re_detail_500@boost@@AAE_N_N@Z 0048eb60 f i NCDoc.obj
 0001:0008dd30       ?unwind_recursion_pop@?$perl_matcher@PBDV?$allocator@U?$sub_match@PBD@boost@@@std@@U?$regex_traits@DV?$w32_regex_traits@D@boost@@@boost@@@re_detail_500@boost@@AAE_N_N@Z 0048ed30 f i NCDoc.obj
 0001:0008dd30       ?unwind_recursion_pop@?$perl_matcher@V?$_String_const_iterator@V?$_String_val@U?$_Simple_types@D@std@@@std@@@std@@V?$allocator@U?$sub_match@V?$_String_const_iterator@V?$_String_val@U?$_Simple_types@D@std@@@std@@@std@@@boost@@@2@U?$regex_traits@DV?$w32_regex_traits@D@boost@@@boost@@@re_detail_500@boost@@AAE_N_N@Z 0048ed30 f i NCDoc.obj
 0001:0008ddb0       ?unwind_commit@?$perl_matcher@PBDV?$allocator@U?$sub_match@PBD@boost@@@std@@U?$regex_traits@DV?$w32_regex_traits@D@boost@@@boost@@@re_detail_500@boost@@AAE_N_N@Z 0048edb0 f i NCDoc.obj
 0001:0008de50       ?unwind_then@?$perl_matcher@PBDV?$allocator@U?$sub_match@PBD@boost@@@std@@U?$regex_traits@DV?$w32_regex_traits@D@boost@@@boost@@@re_detail_500@boost@@AAE_N_N@Z 0048ee50 f i NCDoc.obj
 0001:0008de90       ?unwind_case@?$perl_matcher@PBDV?$allocator@U?$sub_match@PBD@boost@@@std@@U?$regex_traits@DV?$w32_regex_traits@D@boost@@@boost@@@re_detail_500@boost@@AAE_N_N@Z 0048ee90 f i NCDoc.obj
 0001:0008de90       ?unwind_case@?$perl_matcher@V?$_String_const_iterator@V?$_String_val@U?$_Simple_types@D@std@@@std@@@std@@V?$allocator@U?$sub_match@V?$_String_const_iterator@V?$_String_val@U?$_Simple_types@D@std@@@std@@@std@@@boost@@@2@U?$regex_traits@DV?$w32_regex_traits@D@boost@@@boost@@@re_detail_500@boost@@AAE_N_N@Z 0048ee90 f i NCDoc.obj
 0001:0008deb0       ?match_all_states@?$perl_matcher@V?$_String_const_iterator@V?$_String_val@U?$_Simple_types@D@std@@@std@@@std@@V?$allocator@U?$sub_match@V?$_String_const_iterator@V?$_String_val@U?$_Simple_types@D@std@@@std@@@std@@@boost@@@2@U?$regex_traits@DV?$w32_regex_traits@D@boost@@@boost@@@re_detail_500@boost@@AAE_NXZ 0048eeb0 f i NCDoc.obj
 0001:0008e040       ?unwind_paren@?$perl_matcher@V?$_String_const_iterator@V?$_String_val@U?$_Simple_types@D@std@@@std@@@std@@V?$allocator@U?$sub_match@V?$_String_const_iterator@V?$_String_val@U?$_Simple_types@D@std@@@std@@@std@@@boost@@@2@U?$regex_traits@DV?$w32_regex_traits@D@boost@@@boost@@@re_detail_500@boost@@AAE_N_N@Z 0048f040 f i NCDoc.obj
 0001:0008e100       ?unwind_greedy_single_repeat@?$perl_matcher@V?$_String_const_iterator@V?$_String_val@U?$_Simple_types@D@std@@@std@@@std@@V?$allocator@U?$sub_match@V?$_String_const_iterator@V?$_String_val@U?$_Simple_types@D@std@@@std@@@std@@@boost@@@2@U?$regex_traits@DV?$w32_regex_traits@D@boost@@@boost@@@re_detail_500@boost@@AAE_N_N@Z 0048f100 f i NCDoc.obj
 0001:0008e190       ?unwind_slow_dot_repeat@?$perl_matcher@V?$_String_const_iterator@V?$_String_val@U?$_Simple_types@D@std@@@std@@@std@@V?$allocator@U?$sub_match@V?$_String_const_iterator@V?$_String_val@U?$_Simple_types@D@std@@@std@@@std@@@boost@@@2@U?$regex_traits@DV?$w32_regex_traits@D@boost@@@boost@@@re_detail_500@boost@@AAE_N_N@Z 0048f190 f i NCDoc.obj
 0001:0008e2f0       ?unwind_fast_dot_repeat@?$perl_matcher@V?$_String_const_iterator@V?$_String_val@U?$_Simple_types@D@std@@@std@@@std@@V?$allocator@U?$sub_match@V?$_String_const_iterator@V?$_String_val@U?$_Simple_types@D@std@@@std@@@std@@@boost@@@2@U?$regex_traits@DV?$w32_regex_traits@D@boost@@@boost@@@re_detail_500@boost@@AAE_N_N@Z 0048f2f0 f i NCDoc.obj
 0001:0008e3d0       ?unwind_short_set_repeat@?$perl_matcher@V?$_String_const_iterator@V?$_String_val@U?$_Simple_types@D@std@@@std@@@std@@V?$allocator@U?$sub_match@V?$_String_const_iterator@V?$_String_val@U?$_Simple_types@D@std@@@std@@@std@@@boost@@@2@U?$regex_traits@DV?$w32_regex_traits@D@boost@@@boost@@@re_detail_500@boost@@AAE_N_N@Z 0048f3d0 f i NCDoc.obj
 0001:0008e500       ?unwind_long_set_repeat@?$perl_matcher@V?$_String_const_iterator@V?$_String_val@U?$_Simple_types@D@std@@@std@@@std@@V?$allocator@U?$sub_match@V?$_String_const_iterator@V?$_String_val@U?$_Simple_types@D@std@@@std@@@std@@@boost@@@2@U?$regex_traits@DV?$w32_regex_traits@D@boost@@@boost@@@re_detail_500@boost@@AAE_N_N@Z 0048f500 f i NCDoc.obj
 0001:0008e620       ?unwind_recursion@?$perl_matcher@V?$_String_const_iterator@V?$_String_val@U?$_Simple_types@D@std@@@std@@@std@@V?$allocator@U?$sub_match@V?$_String_const_iterator@V?$_String_val@U?$_Simple_types@D@std@@@std@@@std@@@boost@@@2@U?$regex_traits@DV?$w32_regex_traits@D@boost@@@boost@@@re_detail_500@boost@@AAE_N_N@Z 0048f620 f i NCDoc.obj
 0001:0008e7f0       ?unwind_commit@?$perl_matcher@V?$_String_const_iterator@V?$_String_val@U?$_Simple_types@D@std@@@std@@@std@@V?$allocator@U?$sub_match@V?$_String_const_iterator@V?$_String_val@U?$_Simple_types@D@std@@@std@@@std@@@boost@@@2@U?$regex_traits@DV?$w32_regex_traits@D@boost@@@boost@@@re_detail_500@boost@@AAE_N_N@Z 0048f7f0 f i NCDoc.obj
 0001:0008e890       ?unwind_then@?$perl_matcher@V?$_String_const_iterator@V?$_String_val@U?$_Simple_types@D@std@@@std@@@std@@V?$allocator@U?$sub_match@V?$_String_const_iterator@V?$_String_val@U?$_Simple_types@D@std@@@std@@@std@@@boost@@@2@U?$regex_traits@DV?$w32_regex_traits@D@boost@@@boost@@@re_detail_500@boost@@AAE_N_N@Z 0048f890 f i NCDoc.obj
 0001:0008e8d0       ?match_dot_repeat_dispatch@?$perl_matcher@V?$_String_const_iterator@V?$_String_val@U?$_Simple_types@D@std@@@std@@@std@@V?$allocator@U?$sub_match@V?$_String_const_iterator@V?$_String_val@U?$_Simple_types@D@std@@@std@@@std@@@boost@@@2@U?$regex_traits@DV?$w32_regex_traits@D@boost@@@boost@@@re_detail_500@boost@@AAE_NXZ 0048f8d0 f i NCDoc.obj
 0001:0008e9e0       ??4?$match_results@PBDV?$allocator@U?$sub_match@PBD@boost@@@std@@@boost@@QAEAAV01@ABV01@@Z 0048f9e0 f i NCDoc.obj
 0001:0008e9e0       ??4?$match_results@V?$_String_const_iterator@V?$_String_val@U?$_Simple_types@D@std@@@std@@@std@@V?$allocator@U?$sub_match@V?$_String_const_iterator@V?$_String_val@U?$_Simple_types@D@std@@@std@@@std@@@boost@@@2@@boost@@QAEAAV01@ABV01@@Z 0048f9e0 f i NCDoc.obj
 0001:0008ea70       ?match_dot_repeat_dispatch@?$perl_matcher@PBDV?$allocator@U?$sub_match@PBD@boost@@@std@@U?$regex_traits@DV?$w32_regex_traits@D@boost@@@boost@@@re_detail_500@boost@@AAE_NXZ 0048fa70 f i NCDoc.obj
 0001:0008eb80       ?match_startmark@?$perl_matcher@PBDV?$allocator@U?$sub_match@PBD@boost@@@std@@U?$regex_traits@DV?$w32_regex_traits@D@boost@@@boost@@@re_detail_500@boost@@AAE_NXZ 0048fb80 f i NCDoc.obj
 0001:0008eea0       ?match_endmark@?$perl_matcher@PBDV?$allocator@U?$sub_match@PBD@boost@@@std@@U?$regex_traits@DV?$w32_regex_traits@D@boost@@@boost@@@re_detail_500@boost@@AAE_NXZ 0048fea0 f i NCDoc.obj
 0001:0008efc0       ?match_literal@?$perl_matcher@PBDV?$allocator@U?$sub_match@PBD@boost@@@std@@U?$regex_traits@DV?$w32_regex_traits@D@boost@@@boost@@@re_detail_500@boost@@AAE_NXZ 0048ffc0 f i NCDoc.obj
 0001:0008f020       ?match_start_line@?$perl_matcher@V?$_String_const_iterator@V?$_String_val@U?$_Simple_types@D@std@@@std@@@std@@V?$allocator@U?$sub_match@V?$_String_const_iterator@V?$_String_val@U?$_Simple_types@D@std@@@std@@@std@@@boost@@@2@U?$regex_traits@DV?$w32_regex_traits@D@boost@@@boost@@@re_detail_500@boost@@AAE_NXZ 00490020 f i NCDoc.obj
 0001:0008f020       ?match_start_line@?$perl_matcher@PBDV?$allocator@U?$sub_match@PBD@boost@@@std@@U?$regex_traits@DV?$w32_regex_traits@D@boost@@@boost@@@re_detail_500@boost@@AAE_NXZ 00490020 f i NCDoc.obj
 0001:0008f080       ?match_end_line@?$perl_matcher@PBDV?$allocator@U?$sub_match@PBD@boost@@@std@@U?$regex_traits@DV?$w32_regex_traits@D@boost@@@boost@@@re_detail_500@boost@@AAE_NXZ 00490080 f i NCDoc.obj
 0001:0008f080       ?match_end_line@?$perl_matcher@V?$_String_const_iterator@V?$_String_val@U?$_Simple_types@D@std@@@std@@@std@@V?$allocator@U?$sub_match@V?$_String_const_iterator@V?$_String_val@U?$_Simple_types@D@std@@@std@@@std@@@boost@@@2@U?$regex_traits@DV?$w32_regex_traits@D@boost@@@boost@@@re_detail_500@boost@@AAE_NXZ 00490080 f i NCDoc.obj
 0001:0008f0e0       ?match_wild@?$perl_matcher@PBDV?$allocator@U?$sub_match@PBD@boost@@@std@@U?$regex_traits@DV?$w32_regex_traits@D@boost@@@boost@@@re_detail_500@boost@@AAE_NXZ 004900e0 f i NCDoc.obj
 0001:0008f0e0       ?match_wild@?$perl_matcher@V?$_String_const_iterator@V?$_String_val@U?$_Simple_types@D@std@@@std@@@std@@V?$allocator@U?$sub_match@V?$_String_const_iterator@V?$_String_val@U?$_Simple_types@D@std@@@std@@@std@@@boost@@@2@U?$regex_traits@DV?$w32_regex_traits@D@boost@@@boost@@@re_detail_500@boost@@AAE_NXZ 004900e0 f i NCDoc.obj
 0001:0008f130       ?match_match@?$perl_matcher@PBDV?$allocator@U?$sub_match@PBD@boost@@@std@@U?$regex_traits@DV?$w32_regex_traits@D@boost@@@boost@@@re_detail_500@boost@@AAE_NXZ 00490130 f i NCDoc.obj
 0001:0008f280       ?match_word_boundary@?$perl_matcher@PBDV?$allocator@U?$sub_match@PBD@boost@@@std@@U?$regex_traits@DV?$w32_regex_traits@D@boost@@@boost@@@re_detail_500@boost@@AAE_NXZ 00490280 f i NCDoc.obj
 0001:0008f300       ?match_within_word@?$perl_matcher@PBDV?$allocator@U?$sub_match@PBD@boost@@@std@@U?$regex_traits@DV?$w32_regex_traits@D@boost@@@boost@@@re_detail_500@boost@@AAE_NXZ 00490300 f i NCDoc.obj
 0001:0008f320       ?match_word_start@?$perl_matcher@PBDV?$allocator@U?$sub_match@PBD@boost@@@std@@U?$regex_traits@DV?$w32_regex_traits@D@boost@@@boost@@@re_detail_500@boost@@AAE_NXZ 00490320 f i NCDoc.obj
 0001:0008f320       ?match_word_start@?$perl_matcher@V?$_String_const_iterator@V?$_String_val@U?$_Simple_types@D@std@@@std@@@std@@V?$allocator@U?$sub_match@V?$_String_const_iterator@V?$_String_val@U?$_Simple_types@D@std@@@std@@@std@@@boost@@@2@U?$regex_traits@DV?$w32_regex_traits@D@boost@@@boost@@@re_detail_500@boost@@AAE_NXZ 00490320 f i NCDoc.obj
 0001:0008f380       ?match_word_end@?$perl_matcher@PBDV?$allocator@U?$sub_match@PBD@boost@@@std@@U?$regex_traits@DV?$w32_regex_traits@D@boost@@@boost@@@re_detail_500@boost@@AAE_NXZ 00490380 f i NCDoc.obj
 0001:0008f380       ?match_word_end@?$perl_matcher@V?$_String_const_iterator@V?$_String_val@U?$_Simple_types@D@std@@@std@@@std@@V?$allocator@U?$sub_match@V?$_String_const_iterator@V?$_String_val@U?$_Simple_types@D@std@@@std@@@std@@@boost@@@2@U?$regex_traits@DV?$w32_regex_traits@D@boost@@@boost@@@re_detail_500@boost@@AAE_NXZ 00490380 f i NCDoc.obj
 0001:0008f3e0       ?match_buffer_start@?$perl_matcher@PBDV?$allocator@U?$sub_match@PBD@boost@@@std@@U?$regex_traits@DV?$w32_regex_traits@D@boost@@@boost@@@re_detail_500@boost@@AAE_NXZ 004903e0 f i NCDoc.obj
 0001:0008f3e0       ?match_buffer_start@?$perl_matcher@V?$_String_const_iterator@V?$_String_val@U?$_Simple_types@D@std@@@std@@@std@@V?$allocator@U?$sub_match@V?$_String_const_iterator@V?$_String_val@U?$_Simple_types@D@std@@@std@@@std@@@boost@@@2@U?$regex_traits@DV?$w32_regex_traits@D@boost@@@boost@@@re_detail_500@boost@@AAE_NXZ 004903e0 f i NCDoc.obj
 0001:0008f400       ?match_buffer_end@?$perl_matcher@PBDV?$allocator@U?$sub_match@PBD@boost@@@std@@U?$regex_traits@DV?$w32_regex_traits@D@boost@@@boost@@@re_detail_500@boost@@AAE_NXZ 00490400 f i NCDoc.obj
 0001:0008f400       ?match_buffer_end@?$perl_matcher@V?$_String_const_iterator@V?$_String_val@U?$_Simple_types@D@std@@@std@@@std@@V?$allocator@U?$sub_match@V?$_String_const_iterator@V?$_String_val@U?$_Simple_types@D@std@@@std@@@std@@@boost@@@2@U?$regex_traits@DV?$w32_regex_traits@D@boost@@@boost@@@re_detail_500@boost@@AAE_NXZ 00490400 f i NCDoc.obj
 0001:0008f420       ?match_backref@?$perl_matcher@PBDV?$allocator@U?$sub_match@PBD@boost@@@std@@U?$regex_traits@DV?$w32_regex_traits@D@boost@@@boost@@@re_detail_500@boost@@AAE_NXZ 00490420 f i NCDoc.obj
 0001:0008f570       ?match_long_set@?$perl_matcher@PBDV?$allocator@U?$sub_match@PBD@boost@@@std@@U?$regex_traits@DV?$w32_regex_traits@D@boost@@@boost@@@re_detail_500@boost@@AAE_NXZ 00490570 f i NCDoc.obj
 0001:0008f5b0       ?match_set@?$perl_matcher@PBDV?$allocator@U?$sub_match@PBD@boost@@@std@@U?$regex_traits@DV?$w32_regex_traits@D@boost@@@boost@@@re_detail_500@boost@@AAE_NXZ 004905b0 f i NCDoc.obj
 0001:0008f5b0       ?match_set@?$perl_matcher@V?$_String_const_iterator@V?$_String_val@U?$_Simple_types@D@std@@@std@@@std@@V?$allocator@U?$sub_match@V?$_String_const_iterator@V?$_String_val@U?$_Simple_types@D@std@@@std@@@std@@@boost@@@2@U?$regex_traits@DV?$w32_regex_traits@D@boost@@@boost@@@re_detail_500@boost@@AAE_NXZ 004905b0 f i NCDoc.obj
 0001:0008f600       ?match_jump@?$perl_matcher@PBDV?$allocator@U?$sub_match@PBD@boost@@@std@@U?$regex_traits@DV?$w32_regex_traits@D@boost@@@boost@@@re_detail_500@boost@@AAE_NXZ 00490600 f i NCDoc.obj
 0001:0008f600       ?match_jump@?$perl_matcher@V?$_String_const_iterator@V?$_String_val@U?$_Simple_types@D@std@@@std@@@std@@V?$allocator@U?$sub_match@V?$_String_const_iterator@V?$_String_val@U?$_Simple_types@D@std@@@std@@@std@@@boost@@@2@U?$regex_traits@DV?$w32_regex_traits@D@boost@@@boost@@@re_detail_500@boost@@AAE_NXZ 00490600 f i NCDoc.obj
 0001:0008f610       ?match_alt@?$perl_matcher@PBDV?$allocator@U?$sub_match@PBD@boost@@@std@@U?$regex_traits@DV?$w32_regex_traits@D@boost@@@boost@@@re_detail_500@boost@@AAE_NXZ 00490610 f i NCDoc.obj
 0001:0008f670       ?match_rep@?$perl_matcher@PBDV?$allocator@U?$sub_match@PBD@boost@@@std@@U?$regex_traits@DV?$w32_regex_traits@D@boost@@@boost@@@re_detail_500@boost@@AAE_NXZ 00490670 f i NCDoc.obj
 0001:0008f840       ?match_combining@?$perl_matcher@PBDV?$allocator@U?$sub_match@PBD@boost@@@std@@U?$regex_traits@DV?$w32_regex_traits@D@boost@@@boost@@@re_detail_500@boost@@AAE_NXZ 00490840 f i NCDoc.obj
 0001:0008f840       ?match_combining@?$perl_matcher@V?$_String_const_iterator@V?$_String_val@U?$_Simple_types@D@std@@@std@@@std@@V?$allocator@U?$sub_match@V?$_String_const_iterator@V?$_String_val@U?$_Simple_types@D@std@@@std@@@std@@@boost@@@2@U?$regex_traits@DV?$w32_regex_traits@D@boost@@@boost@@@re_detail_500@boost@@AAE_NXZ 00490840 f i NCDoc.obj
 0001:0008f860       ?match_soft_buffer_end@?$perl_matcher@PBDV?$allocator@U?$sub_match@PBD@boost@@@std@@U?$regex_traits@DV?$w32_regex_traits@D@boost@@@boost@@@re_detail_500@boost@@AAE_NXZ 00490860 f i NCDoc.obj
 0001:0008f8c0       ?match_restart_continue@?$perl_matcher@PBDV?$allocator@U?$sub_match@PBD@boost@@@std@@U?$regex_traits@DV?$w32_regex_traits@D@boost@@@boost@@@re_detail_500@boost@@AAE_NXZ 004908c0 f i NCDoc.obj
 0001:0008f8c0       ?match_restart_continue@?$perl_matcher@V?$_String_const_iterator@V?$_String_val@U?$_Simple_types@D@std@@@std@@@std@@V?$allocator@U?$sub_match@V?$_String_const_iterator@V?$_String_val@U?$_Simple_types@D@std@@@std@@@std@@@boost@@@2@U?$regex_traits@DV?$w32_regex_traits@D@boost@@@boost@@@re_detail_500@boost@@AAE_NXZ 004908c0 f i NCDoc.obj
 0001:0008f8e0       ?match_long_set_repeat@?$perl_matcher@PBDV?$allocator@U?$sub_match@PBD@boost@@@std@@U?$regex_traits@DV?$w32_regex_traits@D@boost@@@boost@@@re_detail_500@boost@@AAE_NXZ 004908e0 f i NCDoc.obj
 0001:0008fa30       ?match_set_repeat@?$perl_matcher@PBDV?$allocator@U?$sub_match@PBD@boost@@@std@@U?$regex_traits@DV?$w32_regex_traits@D@boost@@@boost@@@re_detail_500@boost@@AAE_NXZ 00490a30 f i NCDoc.obj
 0001:0008fb90       ?match_char_repeat@?$perl_matcher@PBDV?$allocator@U?$sub_match@PBD@boost@@@std@@U?$regex_traits@DV?$w32_regex_traits@D@boost@@@boost@@@re_detail_500@boost@@AAE_NXZ 00490b90 f i NCDoc.obj
 0001:0008fcf0       ?match_dot_repeat_slow@?$perl_matcher@PBDV?$allocator@U?$sub_match@PBD@boost@@@std@@U?$regex_traits@DV?$w32_regex_traits@D@boost@@@boost@@@re_detail_500@boost@@AAE_NXZ 00490cf0 f i NCDoc.obj
 0001:0008feb0       ?match_backstep@?$perl_matcher@V?$_String_const_iterator@V?$_String_val@U?$_Simple_types@D@std@@@std@@@std@@V?$allocator@U?$sub_match@V?$_String_const_iterator@V?$_String_val@U?$_Simple_types@D@std@@@std@@@std@@@boost@@@2@U?$regex_traits@DV?$w32_regex_traits@D@boost@@@boost@@@re_detail_500@boost@@AAE_NXZ 00490eb0 f i NCDoc.obj
 0001:0008feb0       ?match_backstep@?$perl_matcher@PBDV?$allocator@U?$sub_match@PBD@boost@@@std@@U?$regex_traits@DV?$w32_regex_traits@D@boost@@@boost@@@re_detail_500@boost@@AAE_NXZ 00490eb0 f i NCDoc.obj
 0001:0008fee0       ?match_assert_backref@?$perl_matcher@PBDV?$allocator@U?$sub_match@PBD@boost@@@std@@U?$regex_traits@DV?$w32_regex_traits@D@boost@@@boost@@@re_detail_500@boost@@AAE_NXZ 00490ee0 f i NCDoc.obj
 0001:0008fee0       ?match_assert_backref@?$perl_matcher@V?$_String_const_iterator@V?$_String_val@U?$_Simple_types@D@std@@@std@@@std@@V?$allocator@U?$sub_match@V?$_String_const_iterator@V?$_String_val@U?$_Simple_types@D@std@@@std@@@std@@@boost@@@2@U?$regex_traits@DV?$w32_regex_traits@D@boost@@@boost@@@re_detail_500@boost@@AAE_NXZ 00490ee0 f i NCDoc.obj
 0001:000900a0       ?match_toggle_case@?$perl_matcher@V?$_String_const_iterator@V?$_String_val@U?$_Simple_types@D@std@@@std@@@std@@V?$allocator@U?$sub_match@V?$_String_const_iterator@V?$_String_val@U?$_Simple_types@D@std@@@std@@@std@@@boost@@@2@U?$regex_traits@DV?$w32_regex_traits@D@boost@@@boost@@@re_detail_500@boost@@AAE_NXZ 004910a0 f i NCDoc.obj
 0001:000900a0       ?match_toggle_case@?$perl_matcher@PBDV?$allocator@U?$sub_match@PBD@boost@@@std@@U?$regex_traits@DV?$w32_regex_traits@D@boost@@@boost@@@re_detail_500@boost@@AAE_NXZ 004910a0 f i NCDoc.obj
 0001:00090120       ?match_recursion@?$perl_matcher@PBDV?$allocator@U?$sub_match@PBD@boost@@@std@@U?$regex_traits@DV?$w32_regex_traits@D@boost@@@boost@@@re_detail_500@boost@@AAE_NXZ 00491120 f i NCDoc.obj
 0001:00090330       ?match_accept@?$perl_matcher@PBDV?$allocator@U?$sub_match@PBD@boost@@@std@@U?$regex_traits@DV?$w32_regex_traits@D@boost@@@boost@@@re_detail_500@boost@@AAE_NXZ 00491330 f i NCDoc.obj
 0001:00090360       ?match_commit@?$perl_matcher@PBDV?$allocator@U?$sub_match@PBD@boost@@@std@@U?$regex_traits@DV?$w32_regex_traits@D@boost@@@boost@@@re_detail_500@boost@@AAE_NXZ 00491360 f i NCDoc.obj
 0001:00090360       ?match_commit@?$perl_matcher@V?$_String_const_iterator@V?$_String_val@U?$_Simple_types@D@std@@@std@@@std@@V?$allocator@U?$sub_match@V?$_String_const_iterator@V?$_String_val@U?$_Simple_types@D@std@@@std@@@std@@@boost@@@2@U?$regex_traits@DV?$w32_regex_traits@D@boost@@@boost@@@re_detail_500@boost@@AAE_NXZ 00491360 f i NCDoc.obj
 0001:000903f0       ?match_then@?$perl_matcher@PBDV?$allocator@U?$sub_match@PBD@boost@@@std@@U?$regex_traits@DV?$w32_regex_traits@D@boost@@@boost@@@re_detail_500@boost@@AAE_NXZ 004913f0 f i NCDoc.obj
 0001:000903f0       ?match_then@?$perl_matcher@V?$_String_const_iterator@V?$_String_val@U?$_Simple_types@D@std@@@std@@@std@@V?$allocator@U?$sub_match@V?$_String_const_iterator@V?$_String_val@U?$_Simple_types@D@std@@@std@@@std@@@boost@@@2@U?$regex_traits@DV?$w32_regex_traits@D@boost@@@boost@@@re_detail_500@boost@@AAE_NXZ 004913f0 f i NCDoc.obj
 0001:00090460       ?match_startmark@?$perl_matcher@V?$_String_const_iterator@V?$_String_val@U?$_Simple_types@D@std@@@std@@@std@@V?$allocator@U?$sub_match@V?$_String_const_iterator@V?$_String_val@U?$_Simple_types@D@std@@@std@@@std@@@boost@@@2@U?$regex_traits@DV?$w32_regex_traits@D@boost@@@boost@@@re_detail_500@boost@@AAE_NXZ 00491460 f i NCDoc.obj
 0001:00090770       ?match_endmark@?$perl_matcher@V?$_String_const_iterator@V?$_String_val@U?$_Simple_types@D@std@@@std@@@std@@V?$allocator@U?$sub_match@V?$_String_const_iterator@V?$_String_val@U?$_Simple_types@D@std@@@std@@@std@@@boost@@@2@U?$regex_traits@DV?$w32_regex_traits@D@boost@@@boost@@@re_detail_500@boost@@AAE_NXZ 00491770 f i NCDoc.obj
 0001:00090890       ?match_literal@?$perl_matcher@V?$_String_const_iterator@V?$_String_val@U?$_Simple_types@D@std@@@std@@@std@@V?$allocator@U?$sub_match@V?$_String_const_iterator@V?$_String_val@U?$_Simple_types@D@std@@@std@@@std@@@boost@@@2@U?$regex_traits@DV?$w32_regex_traits@D@boost@@@boost@@@re_detail_500@boost@@AAE_NXZ 00491890 f i NCDoc.obj
 0001:000908f0       ?match_match@?$perl_matcher@V?$_String_const_iterator@V?$_String_val@U?$_Simple_types@D@std@@@std@@@std@@V?$allocator@U?$sub_match@V?$_String_const_iterator@V?$_String_val@U?$_Simple_types@D@std@@@std@@@std@@@boost@@@2@U?$regex_traits@DV?$w32_regex_traits@D@boost@@@boost@@@re_detail_500@boost@@AAE_NXZ 004918f0 f i NCDoc.obj
 0001:00090a40       ?match_word_boundary@?$perl_matcher@V?$_String_const_iterator@V?$_String_val@U?$_Simple_types@D@std@@@std@@@std@@V?$allocator@U?$sub_match@V?$_String_const_iterator@V?$_String_val@U?$_Simple_types@D@std@@@std@@@std@@@boost@@@2@U?$regex_traits@DV?$w32_regex_traits@D@boost@@@boost@@@re_detail_500@boost@@AAE_NXZ 00491a40 f i NCDoc.obj
 0001:00090ac0       ?match_within_word@?$perl_matcher@V?$_String_const_iterator@V?$_String_val@U?$_Simple_types@D@std@@@std@@@std@@V?$allocator@U?$sub_match@V?$_String_const_iterator@V?$_String_val@U?$_Simple_types@D@std@@@std@@@std@@@boost@@@2@U?$regex_traits@DV?$w32_regex_traits@D@boost@@@boost@@@re_detail_500@boost@@AAE_NXZ 00491ac0 f i NCDoc.obj
 0001:00090ae0       ?match_backref@?$perl_matcher@V?$_String_const_iterator@V?$_String_val@U?$_Simple_types@D@std@@@std@@@std@@V?$allocator@U?$sub_match@V?$_String_const_iterator@V?$_String_val@U?$_Simple_types@D@std@@@std@@@std@@@boost@@@2@U?$regex_traits@DV?$w32_regex_traits@D@boost@@@boost@@@re_detail_500@boost@@AAE_NXZ 00491ae0 f i NCDoc.obj
 0001:00090c40       ?match_long_set@?$perl_matcher@V?$_String_const_iterator@V?$_String_val@U?$_Simple_types@D@std@@@std@@@std@@V?$allocator@U?$sub_match@V?$_String_const_iterator@V?$_String_val@U?$_Simple_types@D@std@@@std@@@std@@@boost@@@2@U?$regex_traits@DV?$w32_regex_traits@D@boost@@@boost@@@re_detail_500@boost@@AAE_NXZ 00491c40 f i NCDoc.obj
 0001:00090c90       ?match_alt@?$perl_matcher@V?$_String_const_iterator@V?$_String_val@U?$_Simple_types@D@std@@@std@@@std@@V?$allocator@U?$sub_match@V?$_String_const_iterator@V?$_String_val@U?$_Simple_types@D@std@@@std@@@std@@@boost@@@2@U?$regex_traits@DV?$w32_regex_traits@D@boost@@@boost@@@re_detail_500@boost@@AAE_NXZ 00491c90 f i NCDoc.obj
 0001:00090cf0       ?match_rep@?$perl_matcher@V?$_String_const_iterator@V?$_String_val@U?$_Simple_types@D@std@@@std@@@std@@V?$allocator@U?$sub_match@V?$_String_const_iterator@V?$_String_val@U?$_Simple_types@D@std@@@std@@@std@@@boost@@@2@U?$regex_traits@DV?$w32_regex_traits@D@boost@@@boost@@@re_detail_500@boost@@AAE_NXZ 00491cf0 f i NCDoc.obj
 0001:00090ec0       ?match_soft_buffer_end@?$perl_matcher@V?$_String_const_iterator@V?$_String_val@U?$_Simple_types@D@std@@@std@@@std@@V?$allocator@U?$sub_match@V?$_String_const_iterator@V?$_String_val@U?$_Simple_types@D@std@@@std@@@std@@@boost@@@2@U?$regex_traits@DV?$w32_regex_traits@D@boost@@@boost@@@re_detail_500@boost@@AAE_NXZ 00491ec0 f i NCDoc.obj
 0001:00090f30       ?match_long_set_repeat@?$perl_matcher@V?$_String_const_iterator@V?$_String_val@U?$_Simple_types@D@std@@@std@@@std@@V?$allocator@U?$sub_match@V?$_String_const_iterator@V?$_String_val@U?$_Simple_types@D@std@@@std@@@std@@@boost@@@2@U?$regex_traits@DV?$w32_regex_traits@D@boost@@@boost@@@re_detail_500@boost@@AAE_NXZ 00491f30 f i NCDoc.obj
 0001:000910a0       ?match_set_repeat@?$perl_matcher@V?$_String_const_iterator@V?$_String_val@U?$_Simple_types@D@std@@@std@@@std@@V?$allocator@U?$sub_match@V?$_String_const_iterator@V?$_String_val@U?$_Simple_types@D@std@@@std@@@std@@@boost@@@2@U?$regex_traits@DV?$w32_regex_traits@D@boost@@@boost@@@re_detail_500@boost@@AAE_NXZ 004920a0 f i NCDoc.obj
 0001:00091220       ?match_char_repeat@?$perl_matcher@V?$_String_const_iterator@V?$_String_val@U?$_Simple_types@D@std@@@std@@@std@@V?$allocator@U?$sub_match@V?$_String_const_iterator@V?$_String_val@U?$_Simple_types@D@std@@@std@@@std@@@boost@@@2@U?$regex_traits@DV?$w32_regex_traits@D@boost@@@boost@@@re_detail_500@boost@@AAE_NXZ 00492220 f i NCDoc.obj
 0001:00091390       ?match_dot_repeat_slow@?$perl_matcher@V?$_String_const_iterator@V?$_String_val@U?$_Simple_types@D@std@@@std@@@std@@V?$allocator@U?$sub_match@V?$_String_const_iterator@V?$_String_val@U?$_Simple_types@D@std@@@std@@@std@@@boost@@@2@U?$regex_traits@DV?$w32_regex_traits@D@boost@@@boost@@@re_detail_500@boost@@AAE_NXZ 00492390 f i NCDoc.obj
 0001:00091510       ?match_recursion@?$perl_matcher@V?$_String_const_iterator@V?$_String_val@U?$_Simple_types@D@std@@@std@@@std@@V?$allocator@U?$sub_match@V?$_String_const_iterator@V?$_String_val@U?$_Simple_types@D@std@@@std@@@std@@@boost@@@2@U?$regex_traits@DV?$w32_regex_traits@D@boost@@@boost@@@re_detail_500@boost@@AAE_NXZ 00492510 f i NCDoc.obj
 0001:00091730       ?match_accept@?$perl_matcher@V?$_String_const_iterator@V?$_String_val@U?$_Simple_types@D@std@@@std@@@std@@V?$allocator@U?$sub_match@V?$_String_const_iterator@V?$_String_val@U?$_Simple_types@D@std@@@std@@@std@@@boost@@@2@U?$regex_traits@DV?$w32_regex_traits@D@boost@@@boost@@@re_detail_500@boost@@AAE_NXZ 00492730 f i NCDoc.obj
 0001:00091760       ?format_all@?$basic_regex_formatter@V?$string_out_iterator@V?$basic_string@DU?$char_traits@D@std@@V?$allocator@D@2@@std@@@re_detail_500@boost@@V?$match_results@V?$_String_const_iterator@V?$_String_val@U?$_Simple_types@D@std@@@std@@@std@@V?$allocator@U?$sub_match@V?$_String_const_iterator@V?$_String_val@U?$_Simple_types@D@std@@@std@@@std@@@boost@@@2@@3@U?$regex_traits_wrapper@U?$regex_traits@DV?$w32_regex_traits@D@boost@@@boost@@@3@PBD@re_detail_500@boost@@AAEXXZ 00492760 f i NCDoc.obj
 0001:00091940       ??$raise_error@U?$regex_traits_wrapper@U?$regex_traits@DV?$w32_regex_traits@D@boost@@@boost@@@boost@@@re_detail_500@boost@@YAXABU?$regex_traits_wrapper@U?$regex_traits@DV?$w32_regex_traits@D@boost@@@boost@@@1@W4error_type@regex_constants@1@@Z 00492940 f i NCDoc.obj
 0001:000919a0       ??$re_is_set_member@V?$_String_const_iterator@V?$_String_val@U?$_Simple_types@D@std@@@std@@@std@@DU?$regex_traits@DV?$w32_regex_traits@D@boost@@@boost@@I@re_detail_500@boost@@YA?AV?$_String_const_iterator@V?$_String_val@U?$_Simple_types@D@std@@@std@@@std@@V23@0PBU?$re_set_long@I@01@ABU?$regex_data@DU?$regex_traits@DV?$w32_regex_traits@D@boost@@@boost@@@01@_N@Z 004929a0 f i NCDoc.obj
 0001:00091eb0       ??$_Emplace_reallocate@U?$recursion_info@V?$match_results@V?$_String_const_iterator@V?$_String_val@U?$_Simple_types@D@std@@@std@@@std@@V?$allocator@U?$sub_match@V?$_String_const_iterator@V?$_String_val@U?$_Simple_types@D@std@@@std@@@std@@@boost@@@2@@boost@@@re_detail_500@boost@@@?$vector@U?$recursion_info@V?$match_results@V?$_String_const_iterator@V?$_String_val@U?$_Simple_types@D@std@@@std@@@std@@V?$allocator@U?$sub_match@V?$_String_const_iterator@V?$_String_val@U?$_Simple_types@D@std@@@std@@@std@@@boost@@@2@@boost@@@re_detail_500@boost@@V?$allocator@U?$recursion_info@V?$match_results@V?$_String_const_iterator@V?$_String_val@U?$_Simple_types@D@std@@@std@@@std@@V?$allocator@U?$sub_match@V?$_String_const_iterator@V?$_String_val@U?$_Simple_types@D@std@@@std@@@std@@@boost@@@2@@boost@@@re_detail_500@boost@@@std@@@std@@QAEPAU?$recursion_info@V?$match_results@V?$_String_const_iterator@V?$_String_val@U?$_Simple_types@D@std@@@std@@@std@@V?$allocator@U?$sub_match@V?$_String_const_iterator@V?$_String_val@U?$_Simple_types@D@std@@@std@@@std@@@boost@@@2@@boost@@@re_detail_500@boost@@QAU234@$$QAU234@@Z 00492eb0 f i NCDoc.obj
 0001:00091eb0       ??$_Emplace_reallocate@U?$recursion_info@V?$match_results@PBDV?$allocator@U?$sub_match@PBD@boost@@@std@@@boost@@@re_detail_500@boost@@@?$vector@U?$recursion_info@V?$match_results@PBDV?$allocator@U?$sub_match@PBD@boost@@@std@@@boost@@@re_detail_500@boost@@V?$allocator@U?$recursion_info@V?$match_results@PBDV?$allocator@U?$sub_match@PBD@boost@@@std@@@boost@@@re_detail_500@boost@@@std@@@std@@QAEPAU?$recursion_info@V?$match_results@PBDV?$allocator@U?$sub_match@PBD@boost@@@std@@@boost@@@re_detail_500@boost@@QAU234@$$QAU234@@Z 00492eb0 f i NCDoc.obj
 0001:00092040       ?_Change_array@?$vector@U?$recursion_info@V?$match_results@V?$_String_const_iterator@V?$_String_val@U?$_Simple_types@D@std@@@std@@@std@@V?$allocator@U?$sub_match@V?$_String_const_iterator@V?$_String_val@U?$_Simple_types@D@std@@@std@@@std@@@boost@@@2@@boost@@@re_detail_500@boost@@V?$allocator@U?$recursion_info@V?$match_results@V?$_String_const_iterator@V?$_String_val@U?$_Simple_types@D@std@@@std@@@std@@V?$allocator@U?$sub_match@V?$_String_const_iterator@V?$_String_val@U?$_Simple_types@D@std@@@std@@@std@@@boost@@@2@@boost@@@re_detail_500@boost@@@std@@@std@@AAEXQAU?$recursion_info@V?$match_results@V?$_String_const_iterator@V?$_String_val@U?$_Simple_types@D@std@@@std@@@std@@V?$allocator@U?$sub_match@V?$_String_const_iterator@V?$_String_val@U?$_Simple_types@D@std@@@std@@@std@@@boost@@@2@@boost@@@re_detail_500@boost@@II@Z 00493040 f i NCDoc.obj
 0001:00092040       ?_Change_array@?$vector@U?$recursion_info@V?$match_results@PBDV?$allocator@U?$sub_match@PBD@boost@@@std@@@boost@@@re_detail_500@boost@@V?$allocator@U?$recursion_info@V?$match_results@PBDV?$allocator@U?$sub_match@PBD@boost@@@std@@@boost@@@re_detail_500@boost@@@std@@@std@@AAEXQAU?$recursion_info@V?$match_results@PBDV?$allocator@U?$sub_match@PBD@boost@@@std@@@boost@@@re_detail_500@boost@@II@Z 00493040 f i NCDoc.obj
 0001:000920e0       ?allocate@?$allocator@U?$recursion_info@V?$match_results@PBDV?$allocator@U?$sub_match@PBD@boost@@@std@@@boost@@@re_detail_500@boost@@@std@@QAEPAU?$recursion_info@V?$match_results@PBDV?$allocator@U?$sub_match@PBD@boost@@@std@@@boost@@@re_detail_500@boost@@I@Z 004930e0 f i NCDoc.obj
 0001:000920e0       ?allocate@?$allocator@U?$recursion_info@V?$match_results@V?$_String_const_iterator@V?$_String_val@U?$_Simple_types@D@std@@@std@@@std@@V?$allocator@U?$sub_match@V?$_String_const_iterator@V?$_String_val@U?$_Simple_types@D@std@@@std@@@std@@@boost@@@2@@boost@@@re_detail_500@boost@@@std@@QAEPAU?$recursion_info@V?$match_results@V?$_String_const_iterator@V?$_String_val@U?$_Simple_types@D@std@@@std@@@std@@V?$allocator@U?$sub_match@V?$_String_const_iterator@V?$_String_val@U?$_Simple_types@D@std@@@std@@@std@@@boost@@@2@@boost@@@re_detail_500@boost@@I@Z 004930e0 f i NCDoc.obj
 0001:00092150       ?_Reallocate_exactly@?$vector@U?$recursion_info@V?$match_results@PBDV?$allocator@U?$sub_match@PBD@boost@@@std@@@boost@@@re_detail_500@boost@@V?$allocator@U?$recursion_info@V?$match_results@PBDV?$allocator@U?$sub_match@PBD@boost@@@std@@@boost@@@re_detail_500@boost@@@std@@@std@@AAEXI@Z 00493150 f i NCDoc.obj
 0001:00092150       ?_Reallocate_exactly@?$vector@U?$recursion_info@V?$match_results@V?$_String_const_iterator@V?$_String_val@U?$_Simple_types@D@std@@@std@@@std@@V?$allocator@U?$sub_match@V?$_String_const_iterator@V?$_String_val@U?$_Simple_types@D@std@@@std@@@std@@@boost@@@2@@boost@@@re_detail_500@boost@@V?$allocator@U?$recursion_info@V?$match_results@V?$_String_const_iterator@V?$_String_val@U?$_Simple_types@D@std@@@std@@@std@@V?$allocator@U?$sub_match@V?$_String_const_iterator@V?$_String_val@U?$_Simple_types@D@std@@@std@@@std@@@boost@@@2@@boost@@@re_detail_500@boost@@@std@@@std@@AAEXI@Z 00493150 f i NCDoc.obj
 0001:000921f0       ?skip_until_paren@?$perl_matcher@PBDV?$allocator@U?$sub_match@PBD@boost@@@std@@U?$regex_traits@DV?$w32_regex_traits@D@boost@@@boost@@@re_detail_500@boost@@AAE_NH_N@Z 004931f0 f i NCDoc.obj
 0001:000922b0       ?push_matched_paren@?$perl_matcher@PBDV?$allocator@U?$sub_match@PBD@boost@@@std@@U?$regex_traits@DV?$w32_regex_traits@D@boost@@@boost@@@re_detail_500@boost@@AAEXHABU?$sub_match@PBD@3@@Z 004932b0 f i NCDoc.obj
 0001:000922b0       ?push_matched_paren@?$perl_matcher@V?$_String_const_iterator@V?$_String_val@U?$_Simple_types@D@std@@@std@@@std@@V?$allocator@U?$sub_match@V?$_String_const_iterator@V?$_String_val@U?$_Simple_types@D@std@@@std@@@std@@@boost@@@2@U?$regex_traits@DV?$w32_regex_traits@D@boost@@@boost@@@re_detail_500@boost@@AAEXHABU?$sub_match@V?$_String_const_iterator@V?$_String_val@U?$_Simple_types@D@std@@@std@@@std@@@3@@Z 004932b0 f i NCDoc.obj
 0001:00092330       ?push_alt@?$perl_matcher@PBDV?$allocator@U?$sub_match@PBD@boost@@@std@@U?$regex_traits@DV?$w32_regex_traits@D@boost@@@boost@@@re_detail_500@boost@@AAEXPBUre_syntax_base@23@@Z 00493330 f i NCDoc.obj
 0001:000923a0       ?push_repeater_count@?$perl_matcher@V?$_String_const_iterator@V?$_String_val@U?$_Simple_types@D@std@@@std@@@std@@V?$allocator@U?$sub_match@V?$_String_const_iterator@V?$_String_val@U?$_Simple_types@D@std@@@std@@@std@@@boost@@@2@U?$regex_traits@DV?$w32_regex_traits@D@boost@@@boost@@@re_detail_500@boost@@AAEXHPAPAV?$repeater_count@V?$_String_const_iterator@V?$_String_val@U?$_Simple_types@D@std@@@std@@@std@@@23@@Z 004933a0 f i NCDoc.obj
 0001:000923a0       ?push_repeater_count@?$perl_matcher@PBDV?$allocator@U?$sub_match@PBD@boost@@@std@@U?$regex_traits@DV?$w32_regex_traits@D@boost@@@boost@@@re_detail_500@boost@@AAEXHPAPAV?$repeater_count@PBD@23@@Z 004933a0 f i NCDoc.obj
 0001:00092480       ?push_single_repeat@?$perl_matcher@V?$_String_const_iterator@V?$_String_val@U?$_Simple_types@D@std@@@std@@@std@@V?$allocator@U?$sub_match@V?$_String_const_iterator@V?$_String_val@U?$_Simple_types@D@std@@@std@@@std@@@boost@@@2@U?$regex_traits@DV?$w32_regex_traits@D@boost@@@boost@@@re_detail_500@boost@@AAEXIPBUre_repeat@23@V?$_String_const_iterator@V?$_String_val@U?$_Simple_types@D@std@@@std@@@std@@H@Z 00493480 f i NCDoc.obj
 0001:00092480       ?push_single_repeat@?$perl_matcher@PBDV?$allocator@U?$sub_match@PBD@boost@@@std@@U?$regex_traits@DV?$w32_regex_traits@D@boost@@@boost@@@re_detail_500@boost@@AAEXIPBUre_repeat@23@PBDH@Z 00493480 f i NCDoc.obj
 0001:00092500       ?push_recursion@?$perl_matcher@V?$_String_const_iterator@V?$_String_val@U?$_Simple_types@D@std@@@std@@@std@@V?$allocator@U?$sub_match@V?$_String_const_iterator@V?$_String_val@U?$_Simple_types@D@std@@@std@@@std@@@boost@@@2@U?$regex_traits@DV?$w32_regex_traits@D@boost@@@boost@@@re_detail_500@boost@@AAEXHPBUre_syntax_base@23@PAV?$match_results@V?$_String_const_iterator@V?$_String_val@U?$_Simple_types@D@std@@@std@@@std@@V?$allocator@U?$sub_match@V?$_String_const_iterator@V?$_String_val@U?$_Simple_types@D@std@@@std@@@std@@@boost@@@2@@3@1@Z 00493500 f i NCDoc.obj
 0001:00092500       ?push_recursion@?$perl_matcher@PBDV?$allocator@U?$sub_match@PBD@boost@@@std@@U?$regex_traits@DV?$w32_regex_traits@D@boost@@@boost@@@re_detail_500@boost@@AAEXHPBUre_syntax_base@23@PAV?$match_results@PBDV?$allocator@U?$sub_match@PBD@boost@@@std@@@3@1@Z 00493500 f i NCDoc.obj
 0001:000925c0       ?skip_until_paren@?$perl_matcher@V?$_String_const_iterator@V?$_String_val@U?$_Simple_types@D@std@@@std@@@std@@V?$allocator@U?$sub_match@V?$_String_const_iterator@V?$_String_val@U?$_Simple_types@D@std@@@std@@@std@@@boost@@@2@U?$regex_traits@DV?$w32_regex_traits@D@boost@@@boost@@@re_detail_500@boost@@AAE_NH_N@Z 004935c0 f i NCDoc.obj
 0001:00092680       ?push_alt@?$perl_matcher@V?$_String_const_iterator@V?$_String_val@U?$_Simple_types@D@std@@@std@@@std@@V?$allocator@U?$sub_match@V?$_String_const_iterator@V?$_String_val@U?$_Simple_types@D@std@@@std@@@std@@@boost@@@2@U?$regex_traits@DV?$w32_regex_traits@D@boost@@@boost@@@re_detail_500@boost@@AAEXPBUre_syntax_base@23@@Z 00493680 f i NCDoc.obj
 0001:000926f0       ?put@?$basic_regex_formatter@V?$string_out_iterator@V?$basic_string@DU?$char_traits@D@std@@V?$allocator@D@2@@std@@@re_detail_500@boost@@V?$match_results@V?$_String_const_iterator@V?$_String_val@U?$_Simple_types@D@std@@@std@@@std@@V?$allocator@U?$sub_match@V?$_String_const_iterator@V?$_String_val@U?$_Simple_types@D@std@@@std@@@std@@@boost@@@2@@3@U?$regex_traits_wrapper@U?$regex_traits@DV?$w32_regex_traits@D@boost@@@boost@@@3@PBD@re_detail_500@boost@@AAEXD@Z 004936f0 f i NCDoc.obj
 0001:00092800       ?format_perl@?$basic_regex_formatter@V?$string_out_iterator@V?$basic_string@DU?$char_traits@D@std@@V?$allocator@D@2@@std@@@re_detail_500@boost@@V?$match_results@V?$_String_const_iterator@V?$_String_val@U?$_Simple_types@D@std@@@std@@@std@@V?$allocator@U?$sub_match@V?$_String_const_iterator@V?$_String_val@U?$_Simple_types@D@std@@@std@@@std@@@boost@@@2@@3@U?$regex_traits_wrapper@U?$regex_traits@DV?$w32_regex_traits@D@boost@@@boost@@@3@PBD@re_detail_500@boost@@AAEXXZ 00493800 f i NCDoc.obj
 0001:00092bf0       ?format_escape@?$basic_regex_formatter@V?$string_out_iterator@V?$basic_string@DU?$char_traits@D@std@@V?$allocator@D@2@@std@@@re_detail_500@boost@@V?$match_results@V?$_String_const_iterator@V?$_String_val@U?$_Simple_types@D@std@@@std@@@std@@V?$allocator@U?$sub_match@V?$_String_const_iterator@V?$_String_val@U?$_Simple_types@D@std@@@std@@@std@@@boost@@@2@@3@U?$regex_traits_wrapper@U?$regex_traits@DV?$w32_regex_traits@D@boost@@@boost@@@3@PBD@re_detail_500@boost@@AAEXXZ 00493bf0 f i NCDoc.obj
 0001:00092f20       ?format_conditional@?$basic_regex_formatter@V?$string_out_iterator@V?$basic_string@DU?$char_traits@D@std@@V?$allocator@D@2@@std@@@re_detail_500@boost@@V?$match_results@V?$_String_const_iterator@V?$_String_val@U?$_Simple_types@D@std@@@std@@@std@@V?$allocator@U?$sub_match@V?$_String_const_iterator@V?$_String_val@U?$_Simple_types@D@std@@@std@@@std@@@boost@@@2@@3@U?$regex_traits_wrapper@U?$regex_traits@DV?$w32_regex_traits@D@boost@@@boost@@@3@PBD@re_detail_500@boost@@AAEXXZ 00493f20 f i NCDoc.obj
 0001:00093150       ??$_Uninitialized_move@PAU?$recursion_info@V?$match_results@V?$_String_const_iterator@V?$_String_val@U?$_Simple_types@D@std@@@std@@@std@@V?$allocator@U?$sub_match@V?$_String_const_iterator@V?$_String_val@U?$_Simple_types@D@std@@@std@@@std@@@boost@@@2@@boost@@@re_detail_500@boost@@V?$allocator@U?$recursion_info@V?$match_results@V?$_String_const_iterator@V?$_String_val@U?$_Simple_types@D@std@@@std@@@std@@V?$allocator@U?$sub_match@V?$_String_const_iterator@V?$_String_val@U?$_Simple_types@D@std@@@std@@@std@@@boost@@@2@@boost@@@re_detail_500@boost@@@std@@@std@@YAPAU?$recursion_info@V?$match_results@V?$_String_const_iterator@V?$_String_val@U?$_Simple_types@D@std@@@std@@@std@@V?$allocator@U?$sub_match@V?$_String_const_iterator@V?$_String_val@U?$_Simple_types@D@std@@@std@@@std@@@boost@@@2@@boost@@@re_detail_500@boost@@QAU123@0PAU123@AAV?$allocator@U?$recursion_info@V?$match_results@V?$_String_const_iterator@V?$_String_val@U?$_Simple_types@D@std@@@std@@@std@@V?$allocator@U?$sub_match@V?$_String_const_iterator@V?$_String_val@U?$_Simple_types@D@std@@@std@@@std@@@boost@@@2@@boost@@@re_detail_500@boost@@@0@@Z 00494150 f i NCDoc.obj
 0001:00093150       ??$_Uninitialized_copy@PAU?$recursion_info@V?$match_results@PBDV?$allocator@U?$sub_match@PBD@boost@@@std@@@boost@@@re_detail_500@boost@@V?$allocator@U?$recursion_info@V?$match_results@PBDV?$allocator@U?$sub_match@PBD@boost@@@std@@@boost@@@re_detail_500@boost@@@std@@@std@@YAPAU?$recursion_info@V?$match_results@PBDV?$allocator@U?$sub_match@PBD@boost@@@std@@@boost@@@re_detail_500@boost@@QAU123@0PAU123@AAV?$allocator@U?$recursion_info@V?$match_results@PBDV?$allocator@U?$sub_match@PBD@boost@@@std@@@boost@@@re_detail_500@boost@@@0@@Z 00494150 f i NCDoc.obj
 0001:00093150       ??$_Uninitialized_move@PAU?$recursion_info@V?$match_results@PBDV?$allocator@U?$sub_match@PBD@boost@@@std@@@boost@@@re_detail_500@boost@@V?$allocator@U?$recursion_info@V?$match_results@PBDV?$allocator@U?$sub_match@PBD@boost@@@std@@@boost@@@re_detail_500@boost@@@std@@@std@@YAPAU?$recursion_info@V?$match_results@PBDV?$allocator@U?$sub_match@PBD@boost@@@std@@@boost@@@re_detail_500@boost@@QAU123@0PAU123@AAV?$allocator@U?$recursion_info@V?$match_results@PBDV?$allocator@U?$sub_match@PBD@boost@@@std@@@boost@@@re_detail_500@boost@@@0@@Z 00494150 f i NCDoc.obj
 0001:00093150       ??$_Uninitialized_copy@PAU?$recursion_info@V?$match_results@V?$_String_const_iterator@V?$_String_val@U?$_Simple_types@D@std@@@std@@@std@@V?$allocator@U?$sub_match@V?$_String_const_iterator@V?$_String_val@U?$_Simple_types@D@std@@@std@@@std@@@boost@@@2@@boost@@@re_detail_500@boost@@V?$allocator@U?$recursion_info@V?$match_results@V?$_String_const_iterator@V?$_String_val@U?$_Simple_types@D@std@@@std@@@std@@V?$allocator@U?$sub_match@V?$_String_const_iterator@V?$_String_val@U?$_Simple_types@D@std@@@std@@@std@@@boost@@@2@@boost@@@re_detail_500@boost@@@std@@@std@@YAPAU?$recursion_info@V?$match_results@V?$_String_const_iterator@V?$_String_val@U?$_Simple_types@D@std@@@std@@@std@@V?$allocator@U?$sub_match@V?$_String_const_iterator@V?$_String_val@U?$_Simple_types@D@std@@@std@@@std@@@boost@@@2@@boost@@@re_detail_500@boost@@QAU123@0PAU123@AAV?$allocator@U?$recursion_info@V?$match_results@V?$_String_const_iterator@V?$_String_val@U?$_Simple_types@D@std@@@std@@@std@@V?$allocator@U?$sub_match@V?$_String_const_iterator@V?$_String_val@U?$_Simple_types@D@std@@@std@@@std@@@boost@@@2@@boost@@@re_detail_500@boost@@@0@@Z 00494150 f i NCDoc.obj
 0001:000931f0       ??$_Assign_range@PAU?$sub_match@V?$_String_const_iterator@V?$_String_val@U?$_Simple_types@D@std@@@std@@@std@@@boost@@@?$vector@U?$sub_match@V?$_String_const_iterator@V?$_String_val@U?$_Simple_types@D@std@@@std@@@std@@@boost@@V?$allocator@U?$sub_match@V?$_String_const_iterator@V?$_String_val@U?$_Simple_types@D@std@@@std@@@std@@@boost@@@std@@@std@@AAEXPAU?$sub_match@V?$_String_const_iterator@V?$_String_val@U?$_Simple_types@D@std@@@std@@@std@@@boost@@0Uforward_iterator_tag@1@@Z 004941f0 f i NCDoc.obj
 0001:000931f0       ??$_Assign_range@PAU?$sub_match@PBD@boost@@@?$vector@U?$sub_match@PBD@boost@@V?$allocator@U?$sub_match@PBD@boost@@@std@@@std@@AAEXPAU?$sub_match@PBD@boost@@0Uforward_iterator_tag@1@@Z 004941f0 f i NCDoc.obj
 0001:00093350       ??1?$_Uninitialized_backout_al@V?$allocator@U?$recursion_info@V?$match_results@V?$_String_const_iterator@V?$_String_val@U?$_Simple_types@D@std@@@std@@@std@@V?$allocator@U?$sub_match@V?$_String_const_iterator@V?$_String_val@U?$_Simple_types@D@std@@@std@@@std@@@boost@@@2@@boost@@@re_detail_500@boost@@@std@@@std@@QAE@XZ 00494350 f i NCDoc.obj
 0001:00093350       ??1?$_Uninitialized_backout_al@V?$allocator@U?$recursion_info@V?$match_results@PBDV?$allocator@U?$sub_match@PBD@boost@@@std@@@boost@@@re_detail_500@boost@@@std@@@std@@QAE@XZ 00494350 f i NCDoc.obj
 0001:00093360       ?toi@?$basic_regex_formatter@V?$string_out_iterator@V?$basic_string@DU?$char_traits@D@std@@V?$allocator@D@2@@std@@@re_detail_500@boost@@V?$match_results@V?$_String_const_iterator@V?$_String_val@U?$_Simple_types@D@std@@@std@@@std@@V?$allocator@U?$sub_match@V?$_String_const_iterator@V?$_String_val@U?$_Simple_types@D@std@@@std@@@std@@@boost@@@2@@3@U?$regex_traits_wrapper@U?$regex_traits@DV?$w32_regex_traits@D@boost@@@boost@@@3@PBD@re_detail_500@boost@@AAEHAAPBDPBDH@Z 00494360 f i NCDoc.obj
 0001:00093420       ?unwind_until@?$repeater_count@PBD@re_detail_500@boost@@AAEPAV123@HPAV123@H@Z 00494420 f i NCDoc.obj
 0001:00093420       ?unwind_until@?$repeater_count@V?$_String_const_iterator@V?$_String_val@U?$_Simple_types@D@std@@@std@@@std@@@re_detail_500@boost@@AAEPAV123@HPAV123@H@Z 00494420 f i NCDoc.obj
 0001:00093480       ?handle_perl_verb@?$basic_regex_formatter@V?$string_out_iterator@V?$basic_string@DU?$char_traits@D@std@@V?$allocator@D@2@@std@@@re_detail_500@boost@@V?$match_results@V?$_String_const_iterator@V?$_String_val@U?$_Simple_types@D@std@@@std@@@std@@V?$allocator@U?$sub_match@V?$_String_const_iterator@V?$_String_val@U?$_Simple_types@D@std@@@std@@@std@@@boost@@@2@@3@U?$regex_traits_wrapper@U?$regex_traits@DV?$w32_regex_traits@D@boost@@@boost@@@3@PBD@re_detail_500@boost@@AAE_N_N@Z 00494480 f i NCDoc.obj
 0001:00093850       ??$_Copy_unchecked@PAU?$sub_match@PBD@boost@@PAU12@@std@@YAPAU?$sub_match@PBD@boost@@PAU12@00@Z 00494850 f i NCDoc.obj
 0001:00093850       ??$_Copy_unchecked@PAU?$sub_match@V?$_String_const_iterator@V?$_String_val@U?$_Simple_types@D@std@@@std@@@std@@@boost@@PAU12@@std@@YAPAU?$sub_match@V?$_String_const_iterator@V?$_String_val@U?$_Simple_types@D@std@@@std@@@std@@@boost@@PAU12@00@Z 00494850 f i NCDoc.obj
 0001:00093885       ??_9CNCdata@@$BBA@AE       00494885 f i NCDoc.obj
 0001:0009388a       ??_9CNCdata@@$B3AE         0049488a f i NCDoc.obj
 0001:0009388f       ??_9CNCdata@@$B7AE         0049488f f i NCDoc.obj
 0001:00093894       ??_9CNCdata@@$BM@AE        00494894 f i NCDoc.obj
 0001:000938a0       ??$equal_range@V?$_Vector_const_iterator@V?$_Vector_val@U?$_Simple_types@Uname@named_subexpressions@re_detail_500@boost@@@std@@@std@@@std@@Uname@named_subexpressions@re_detail_500@boost@@@std@@YA?AU?$pair@V?$_Vector_const_iterator@V?$_Vector_val@U?$_Simple_types@Uname@named_subexpressions@re_detail_500@boost@@@std@@@std@@@std@@V12@@0@V?$_Vector_const_iterator@V?$_Vector_val@U?$_Simple_types@Uname@named_subexpressions@re_detail_500@boost@@@std@@@std@@@0@0ABUname@named_subexpressions@re_detail_500@boost@@@Z 004948a0 f i NCDoc.obj
 0001:00093970       ??1incrementer@re_detail_500@boost@@QAE@XZ 00494970 f i NCDoc.obj
 0001:00093980       ?put_mem_block@re_detail_500@boost@@YAXPAX@Z 00494980 f i NCDoc.obj
 0001:000939c0       ??1save_state_init@re_detail_500@boost@@QAE@XZ 004949c0 f i NCDoc.obj
 0001:000939e0       ?instance@mem_block_cache@re_detail_500@boost@@SAAAU123@XZ 004949e0 f i NCDoc.obj
 0001:00093a40       ?get_mem_block@re_detail_500@boost@@YAPAXXZ 00494a40 f i NCDoc.obj
 0001:00093a90       ??0invalid_argument@std@@QAE@PBD@Z 00494a90 f i NCDoc.obj
 0001:00093ae0       ??0?$wrapexcept@Vlogic_error@std@@@boost@@QAE@ABVlogic_error@std@@@Z 00494ae0 f i NCDoc.obj
 0001:00093b50       ?clone@?$wrapexcept@Vlogic_error@std@@@boost@@UBEPBVclone_base@exception_detail@2@XZ 00494b50 f i NCDoc.obj
 0001:00093be0       ?rethrow@?$wrapexcept@Vlogic_error@std@@@boost@@UBEXXZ 00494be0 f i NCDoc.obj
 0001:00093c00       ??0?$wrapexcept@Vlogic_error@std@@@boost@@QAE@ABU01@@Z 00494c00 f i NCDoc.obj
 0001:00093cc0       ??0logic_error@std@@QAE@ABV01@@Z 00494cc0 f i NCDoc.obj
 0001:00093d00       ??$throw_exception@Vlogic_error@std@@@boost@@YAXABVlogic_error@std@@@Z 00494d00 f i NCDoc.obj
 0001:00093d20       ??0logic_error@std@@QAE@PBD@Z 00494d20 f i NCDoc.obj
 0001:00093d70       ??1CFileException@@UAE@XZ  00494d70 f i NCDoc.obj
 0001:00093d80       ??_ECFileException@@UAEPAXI@Z 00494d80 f i * CIL library *:* CIL module *
 0001:00093d80       ??_GCFileException@@UAEPAXI@Z 00494d80 f i NCDoc.obj
 0001:00093dc0       ?GetMessageMap@CNCFindDlg@@MBEPBUAFX_MSGMAP@@XZ 00494dc0 f   NCFindDlg.obj
 0001:00093dd0       ??_GCNCFindDlg@@UAEPAXI@Z  00494dd0 f i NCFindDlg.obj
 0001:00093dd0       ??_ECNCFindDlg@@UAEPAXI@Z  00494dd0 f i * CIL library *:* CIL module *
 0001:00093e50       ?DoDataExchange@CNCFindDlg@@MAEXPAVCDataExchange@@@Z 00494e50 f   NCFindDlg.obj
 0001:00093ed0       ?PreTranslateMessage@CNCFindDlg@@MAEHPAUtagMSG@@@Z 00494ed0 f   NCFindDlg.obj
 0001:00093ed0       ?PreTranslateMessage@COBSdlg@@MAEHPAUtagMSG@@@Z 00494ed0 f   OBSdlg.obj
 0001:00093f20       ?OnInitDialog@CNCFindDlg@@MAEHXZ 00494f20 f   NCFindDlg.obj
 0001:00093f90       ?OnOK@CNCFindDlg@@MAEXXZ   00494f90 f   NCFindDlg.obj
 0001:000940d0       ?OnCancel@CNCFindDlg@@MAEXXZ 004950d0 f   NCFindDlg.obj
 0001:000940f0       ?PostNcDestroy@CNCFindDlg@@MAEXXZ 004950f0 f   NCFindDlg.obj
 0001:00094130       ?OnUserSwitchDocument@CNCFindDlg@@IAEJIJ@Z 00495130 f   NCFindDlg.obj
 0001:000941b0       ??_ECNCInfoTab@@UAEPAXI@Z  004951b0 f i * CIL library *:* CIL module *
 0001:000941b0       ??_GCNCInfoTab@@UAEPAXI@Z  004951b0 f i NCInfoTab.obj
 0001:000941b0       ??_ECTabViewBase@@UAEPAXI@Z 004951b0 f i * CIL library *:* CIL module *
 0001:000941b0       ??_GCTabViewBase@@UAEPAXI@Z 004951b0 f i NCInfoTab.obj
 0001:00094200       ??1CTabViewBase@@UAE@XZ    00495200 f i NCInfoTab.obj
 0001:00094220       ?CreateObject@CNCInfoTab@@SGPAVCObject@@XZ 00495220 f   NCInfoTab.obj
 0001:000942d0       ?GetRuntimeClass@CTabViewBase@@UBEPAUCRuntimeClass@@XZ 004952d0 f   TabView.obj
 0001:000942d0       ?_GetBaseClass@CNCInfoTab@@KGPAUCRuntimeClass@@XZ 004952d0 f   NCInfoTab.obj
 0001:000942d0       ?_GetBaseClass@CNCViewTab@@KGPAUCRuntimeClass@@XZ 004952d0 f   NCViewTab.obj
 0001:000942e0       ?GetRuntimeClass@CNCInfoTab@@UBEPAUCRuntimeClass@@XZ 004952e0 f   NCInfoTab.obj
 0001:000942f0       ?GetMessageMap@CNCInfoTab@@MBEPBUAFX_MSGMAP@@XZ 004952f0 f   NCInfoTab.obj
 0001:00094300       ?OnInitialUpdate@CNCInfoTab@@UAEXXZ 00495300 f   NCInfoTab.obj
 0001:000943d0       ?OnUpdate@CNCViewTab@@MAEXPAVCView@@JPAVCObject@@@Z 004953d0 f   NCViewTab.obj
 0001:000943d0       ?OnUpdate@CNCInfoTab@@MAEXPAVCView@@JPAVCObject@@@Z 004953d0 f   NCInfoTab.obj
 0001:000944a0       ?OnCmdMsg@CNCInfoTab@@UAEHIHPAXPAUAFX_CMDHANDLERINFO@@@Z 004954a0 f   NCInfoTab.obj
 0001:000945e0       ?OnActivatePage@CNCInfoTab@@MAEXH@Z 004955e0 f   NCInfoTab.obj
 0001:00094640       ?OnCreate@CNCInfoTab@@IAEHPAUtagCREATESTRUCTA@@@Z 00495640 f   NCInfoTab.obj
 0001:00094780       ?OnDestroy@CNCInfoTab@@IAEXXZ 00495780 f   NCInfoTab.obj
 0001:00094850       ?OnMoveTab@CNCViewTab@@IAEXI@Z 00495850 f   NCViewTab.obj
 0001:00094850       ?OnMoveTab@CNCInfoTab@@IAEXI@Z 00495850 f   NCInfoTab.obj
 0001:000948e0       ?destroy@sp_counted_base@detail@boost@@UAEXXZ 004958e0 f i NCInfoView.obj
 0001:000948f0       ??_Gsp_counted_base@detail@boost@@UAEPAXI@Z 004958f0 f i NCInfoView.obj
 0001:000948f0       ??_Esp_counted_base@detail@boost@@UAEPAXI@Z 004958f0 f i * CIL library *:* CIL module *
 0001:00094920       ?what@format_error@io@boost@@UBEPBDXZ 00495920 f i NCInfoView.obj
 0001:00094930       ??0bad_format_string@io@boost@@QAE@II@Z 00495930 f i NCInfoView.obj
 0001:00094960       ?what@bad_format_string@io@boost@@UBEPBDXZ 00495960 f i NCInfoView.obj
 0001:00094970       ??0too_few_args@io@boost@@QAE@II@Z 00495970 f i NCInfoView.obj
 0001:000949a0       ?what@too_few_args@io@boost@@UBEPBDXZ 004959a0 f i NCInfoView.obj
 0001:000949b0       ??0too_many_args@io@boost@@QAE@II@Z 004959b0 f i NCInfoView.obj
 0001:000949e0       ?what@too_many_args@io@boost@@UBEPBDXZ 004959e0 f i NCInfoView.obj
 0001:000949f0       ?_GetBaseClass@CNCViewGL@@KGPAUCRuntimeClass@@XZ 004959f0 f   NCViewGL.obj
 0001:000949f0       ?_GetBaseClass@CViewBase@@KGPAUCRuntimeClass@@XZ 004959f0 f   ViewBase.obj
 0001:000949f0       ?_GetBaseClass@CNCInfoBase@@KGPAUCRuntimeClass@@XZ 004959f0 f   NCInfoView.obj
 0001:00094a00       ?GetThisMessageMap@CNCInfoBase@@KGPBUAFX_MSGMAP@@XZ 00495a00 f   NCInfoView.obj
 0001:00094a10       ?PreCreateWindow@CNCInfoBase@@UAEHAAUtagCREATESTRUCTA@@@Z 00495a10 f   NCInfoView.obj
 0001:00094a50       ?OnCmdMsg@CNCInfoBase@@UAEHIHPAXPAUAFX_CMDHANDLERINFO@@@Z 00495a50 f   NCInfoView.obj
 0001:00094a50       ?OnCmdMsg@CNCViewBase@@UAEHIHPAXPAUAFX_CMDHANDLERINFO@@@Z 00495a50 f   NCViewBase.obj
 0001:00094a50       ?OnCmdMsg@CNCViewGL@@UAEHIHPAXPAUAFX_CMDHANDLERINFO@@@Z 00495a50 f   NCViewGL.obj
 0001:00094a50       ?OnCmdMsg@CNCListView@@UAEHIHPAXPAUAFX_CMDHANDLERINFO@@@Z 00495a50 f   NCListView.obj
 0001:00094a60       ?OnUpdate@CNCInfoBase@@UAEXPAVCView@@JPAVCObject@@@Z 00495a60 f   NCInfoView.obj
 0001:00094b80       ?OnUpdateEditCopy@CNCInfoBase@@QAEXPAVCCmdUI@@@Z 00495b80 f   NCInfoView.obj
 0001:00094bb0       ?OnEditCopy@CNCInfoBase@@QAEXXZ 00495bb0 f   NCInfoView.obj
 0001:00094bc0       ?OnContextMenu@CNCInfoBase@@QAEXPAVCWnd@@VCPoint@@@Z 00495bc0 f   NCInfoView.obj
 0001:00094be0       ?OnKeyDown@CNCInfoBase@@QAEXIII@Z 00495be0 f   NCInfoView.obj
 0001:00094c40       ?OnEraseBkgnd@CNCInfoBase@@QAEHPAVCDC@@@Z 00495c40 f   NCInfoView.obj
 0001:00094c70       ?CreateObject@CNCInfoView1@@SGPAVCObject@@XZ 00495c70 f   NCInfoView.obj
 0001:00094cf0       ?_GetBaseClass@CNCInfoView1@@KGPAUCRuntimeClass@@XZ 00495cf0 f   NCInfoView.obj
 0001:00094cf0       ?_GetBaseClass@CNCInfoView2@@KGPAUCRuntimeClass@@XZ 00495cf0 f   NCInfoView.obj
 0001:00094d00       ?GetRuntimeClass@CNCInfoView1@@UBEPAUCRuntimeClass@@XZ 00495d00 f   NCInfoView.obj
 0001:00094d10       ??_ECNCInfoView2@@UAEPAXI@Z 00495d10 f i * CIL library *:* CIL module *
 0001:00094d10       ??_GCNCInfoView1@@UAEPAXI@Z 00495d10 f i NCInfoView.obj
 0001:00094d10       ??_ECViewBase@@UAEPAXI@Z   00495d10 f i * CIL library *:* CIL module *
 0001:00094d10       ??_GCNCInfoView2@@UAEPAXI@Z 00495d10 f i NCInfoView.obj
 0001:00094d10       ??_ECNCInfoView1@@UAEPAXI@Z 00495d10 f i * CIL library *:* CIL module *
 0001:00094d10       ??_GCViewBase@@UAEPAXI@Z   00495d10 f i ViewBase.obj
 0001:00094d50       ?GetMessageMap@CNCInfoView1@@MBEPBUAFX_MSGMAP@@XZ 00495d50 f   NCInfoView.obj
 0001:00094d60       ?OnUserCalcMsg@CNCInfoView1@@IAEJIJ@Z 00495d60 f   NCInfoView.obj
 0001:00094dc0       ?CreateObject@CNCInfoView2@@SGPAVCObject@@XZ 00495dc0 f   NCInfoView.obj
 0001:00094e40       ?GetRuntimeClass@CNCInfoView2@@UBEPAUCRuntimeClass@@XZ 00495e40 f   NCInfoView.obj
 0001:00094e50       ?GetMessageMap@CNCInfoView2@@MBEPBUAFX_MSGMAP@@XZ 00495e50 f   NCInfoView.obj
 0001:00094e60       ?OnDraw@CNCInfoView1@@MAEXPAVCDC@@@Z 00495e60 f   NCInfoView.obj
 0001:00095990       ??1?$basic_format@DU?$char_traits@D@std@@V?$allocator@D@2@@boost@@QAE@XZ 00496990 f i NCInfoView.obj
 0001:00095a20       ??1?$optional@Vlocale@std@@@boost@@QAE@XZ 00496a20 f i NCInfoView.obj
 0001:00095a50       ?OnDraw@CNCInfoView2@@MAEXPAVCDC@@@Z 00496a50 f   NCInfoView.obj
 0001:000988d0       ??1?$basic_altstringbuf@DU?$char_traits@D@std@@V?$allocator@D@2@@io@boost@@UAE@XZ 004998d0 f i NCInfoView.obj
 0001:00098980       ??1?$vector@U?$format_item@DU?$char_traits@D@std@@V?$allocator@D@2@@detail@io@boost@@V?$allocator@U?$format_item@DU?$char_traits@D@std@@V?$allocator@D@2@@detail@io@boost@@@std@@@std@@QAE@XZ 00499980 f i NCInfoView.obj
 0001:00098a10       ??_E?$basic_altstringbuf@DU?$char_traits@D@std@@V?$allocator@D@2@@io@boost@@UAEPAXI@Z 00499a10 f i * CIL library *:* CIL module *
 0001:00098a10       ??_G?$basic_altstringbuf@DU?$char_traits@D@std@@V?$allocator@D@2@@io@boost@@UAEPAXI@Z 00499a10 f i NCInfoView.obj
 0001:00098a30       ?deallocate@?$allocator@U?$format_item@DU?$char_traits@D@std@@V?$allocator@D@2@@detail@io@boost@@@std@@QAEXQAU?$format_item@DU?$char_traits@D@std@@V?$allocator@D@2@@detail@io@boost@@I@Z 00499a30 f i NCInfoView.obj
 0001:00098a70       ??0?$basic_format@DU?$char_traits@D@std@@V?$allocator@D@2@@boost@@QAE@PBD@Z 00499a70 f i NCInfoView.obj
 0001:00098bf0       ??$throw_exception@Vbad_format_string@io@boost@@@boost@@YAXABVbad_format_string@io@0@@Z 00499bf0 f i NCInfoView.obj
 0001:00098c10       ?seekoff@?$basic_altstringbuf@DU?$char_traits@D@std@@V?$allocator@D@2@@io@boost@@MAE?AV?$fpos@U_Mbstatet@@@std@@_JHH@Z 00499c10 f i NCInfoView.obj
 0001:00098d70       ?seekpos@?$basic_altstringbuf@DU?$char_traits@D@std@@V?$allocator@D@2@@io@boost@@MAE?AV?$fpos@U_Mbstatet@@@std@@V45@H@Z 00499d70 f i NCInfoView.obj
 0001:00098eb0       ?underflow@?$basic_altstringbuf@DU?$char_traits@D@std@@V?$allocator@D@2@@io@boost@@MAEHXZ 00499eb0 f i NCInfoView.obj
 0001:00098f20       ?pbackfail@?$basic_altstringbuf@DU?$char_traits@D@std@@V?$allocator@D@2@@io@boost@@MAEHH@Z 00499f20 f i NCInfoView.obj
 0001:00098f70       ?overflow@?$basic_altstringbuf@DU?$char_traits@D@std@@V?$allocator@D@2@@io@boost@@MAEHH@Z 00499f70 f i NCInfoView.obj
 0001:00099170       ??$lexical_cast@V?$basic_string@DU?$char_traits@D@std@@V?$allocator@D@2@@std@@_K@boost@@YA?AV?$basic_string@DU?$char_traits@D@std@@V?$allocator@D@2@@std@@AB_K@Z 0049a170 f i NCInfoView.obj
 0001:00099200       ??$_Destroy_range@V?$allocator@U?$format_item@DU?$char_traits@D@std@@V?$allocator@D@2@@detail@io@boost@@@std@@@std@@YAXPAU?$format_item@DU?$char_traits@D@std@@V?$allocator@D@2@@detail@io@boost@@QAU1234@AAV?$allocator@U?$format_item@DU?$char_traits@D@std@@V?$allocator@D@2@@detail@io@boost@@@0@@Z 0049a200 f i NCInfoView.obj
 0001:00099230       ??0?$wrapexcept@Vbad_format_string@io@boost@@@boost@@QAE@ABU01@@Z 0049a230 f i NCInfoView.obj
 0001:00099300       ??0bad_format_string@io@boost@@QAE@ABV012@@Z 0049a300 f i NCInfoView.obj
 0001:00099340       ??0format_error@io@boost@@QAE@ABV012@@Z 0049a340 f i NCInfoView.obj
 0001:00099380       ?rethrow@?$wrapexcept@Vbad_format_string@io@boost@@@boost@@UBEXXZ 0049a380 f i NCInfoView.obj
 0001:000993a0       ?clone@?$wrapexcept@Vbad_format_string@io@boost@@@boost@@UBEPBVclone_base@exception_detail@2@XZ 0049a3a0 f i NCInfoView.obj
 0001:00099430       ??0?$wrapexcept@Vbad_format_string@io@boost@@@boost@@QAE@ABVbad_format_string@io@1@@Z 0049a430 f i NCInfoView.obj
 0001:000994b0       ?parse@?$basic_format@DU?$char_traits@D@std@@V?$allocator@D@2@@boost@@QAEAAV12@ABV?$basic_string@DU?$char_traits@D@std@@V?$allocator@D@2@@std@@@Z 0049a4b0 f i NCInfoView.obj
 0001:000998b0       ?str@?$basic_format@DU?$char_traits@D@std@@V?$allocator@D@2@@boost@@QBE?AV?$basic_string@DU?$char_traits@D@std@@V?$allocator@D@2@@std@@XZ 0049a8b0 f i NCInfoView.obj
 0001:00099ac0       ??$throw_bad_cast@_KV?$basic_string@DU?$char_traits@D@std@@V?$allocator@D@2@@std@@@detail@conversion@boost@@YAXXZ 0049aac0 f i NCInfoView.obj
 0001:00099b10       ??1?$format_item@DU?$char_traits@D@std@@V?$allocator@D@2@@detail@io@boost@@QAE@XZ 0049ab10 f i NCInfoView.obj
 0001:00099bd0       ?try_convert@?$lexical_converter_impl@V?$basic_string@DU?$char_traits@D@std@@V?$allocator@D@2@@std@@_K@detail@boost@@SA_NAB_KAAV?$basic_string@DU?$char_traits@D@std@@V?$allocator@D@2@@std@@@Z 0049abd0 f i NCInfoView.obj
 0001:00099c50       ??0?$format_item@DU?$char_traits@D@std@@V?$allocator@D@2@@detail@io@boost@@QAE@D@Z 0049ac50 f i NCInfoView.obj
 0001:00099ce0       ?resize@?$vector@U?$format_item@DU?$char_traits@D@std@@V?$allocator@D@2@@detail@io@boost@@V?$allocator@U?$format_item@DU?$char_traits@D@std@@V?$allocator@D@2@@detail@io@boost@@@std@@@std@@QAEXIABU?$format_item@DU?$char_traits@D@std@@V?$allocator@D@2@@detail@io@boost@@@Z 0049ace0 f i NCInfoView.obj
 0001:00099d90       ?reserve@?$basic_string@DU?$char_traits@D@std@@V?$allocator@D@2@@std@@QAEXI@Z 0049ad90 f i NCInfoView.obj
 0001:00099ee0       ?make_or_reuse_data@?$basic_format@DU?$char_traits@D@std@@V?$allocator@D@2@@boost@@AAEXI@Z 0049aee0 f i NCInfoView.obj
 0001:0009a100       ??$upper_bound_from_fstring@V?$basic_string@DU?$char_traits@D@std@@V?$allocator@D@2@@std@@V?$ctype@D@2@@detail@io@boost@@YAHABV?$basic_string@DU?$char_traits@D@std@@V?$allocator@D@2@@std@@DABV?$ctype@D@4@E@Z 0049b100 f i NCInfoView.obj
 0001:0009a260       ??$parse_printf_directive@DU?$char_traits@D@std@@V?$allocator@D@2@V?$_String_const_iterator@V?$_String_val@U?$_Simple_types@D@std@@@std@@@2@V?$ctype@D@2@@detail@io@boost@@YA_NAAV?$_String_const_iterator@V?$_String_val@U?$_Simple_types@D@std@@@std@@@std@@ABV34@PAU?$format_item@DU?$char_traits@D@std@@V?$allocator@D@2@@012@ABV?$ctype@D@4@IE@Z 0049b260 f i NCInfoView.obj
 0001:0009ab30       ??$throw_exception@Vtoo_few_args@io@boost@@@boost@@YAXABVtoo_few_args@io@0@@Z 0049bb30 f i NCInfoView.obj
 0001:0009ab50       ??$feed_impl@DU?$char_traits@D@std@@V?$allocator@D@2@ABU?$put_holder@DU?$char_traits@D@std@@@detail@io@boost@@@detail@io@boost@@YAAAV?$basic_format@DU?$char_traits@D@std@@V?$allocator@D@2@@2@AAV32@ABU?$put_holder@DU?$char_traits@D@std@@@012@@Z 0049bb50 f i NCInfoView.obj
 0001:0009ad60       ??0?$wrapexcept@Vtoo_few_args@io@boost@@@boost@@QAE@ABU01@@Z 0049bd60 f i NCInfoView.obj
 0001:0009ae30       ??0too_few_args@io@boost@@QAE@ABV012@@Z 0049be30 f i NCInfoView.obj
 0001:0009ae70       ?convert@?$lcast_put_unsigned@U?$char_traits@D@std@@_KD@detail@boost@@QAEPADXZ 0049be70 f i NCInfoView.obj
 0001:0009b010       ?rethrow@?$wrapexcept@Vtoo_few_args@io@boost@@@boost@@UBEXXZ 0049c010 f i NCInfoView.obj
 0001:0009b030       ?clone@?$wrapexcept@Vtoo_few_args@io@boost@@@boost@@UBEPBVclone_base@exception_detail@2@XZ 0049c030 f i NCInfoView.obj
 0001:0009b0c0       ??0?$wrapexcept@Vtoo_few_args@io@boost@@@boost@@QAE@ABVtoo_few_args@io@1@@Z 0049c0c0 f i NCInfoView.obj
 0001:0009b140       ?assign@?$vector@U?$format_item@DU?$char_traits@D@std@@V?$allocator@D@2@@detail@io@boost@@V?$allocator@U?$format_item@DU?$char_traits@D@std@@V?$allocator@D@2@@detail@io@boost@@@std@@@std@@QAEXIABU?$format_item@DU?$char_traits@D@std@@V?$allocator@D@2@@detail@io@boost@@@Z 0049c140 f i NCInfoView.obj
 0001:0009b2e0       ?resize@?$vector@_NV?$allocator@_N@std@@@std@@QAEXI_N@Z 0049c2e0 f i NCInfoView.obj
 0001:0009b350       ?main_convert_iteration@?$lcast_put_unsigned@U?$char_traits@D@std@@_KD@detail@boost@@AAE_NXZ 0049c350 f i NCInfoView.obj
 0001:0009b3f0       ?erase@?$vector@_NV?$allocator@_N@std@@@std@@QAE?AV?$_Vb_iterator@U?$_Wrap_alloc@V?$allocator@I@std@@@std@@@2@V?$_Vb_const_iterator@U?$_Wrap_alloc@V?$allocator@I@std@@@std@@@2@0@Z 0049c3f0 f i NCInfoView.obj
 0001:0009b590       ??Y?$_Vb_iterator@U?$_Wrap_alloc@V?$allocator@I@std@@@std@@@std@@QAEAAV01@H@Z 0049c590 f i NCInfoView.obj
 0001:0009b5f0       ?allocate@?$allocator@U?$format_item@DU?$char_traits@D@std@@V?$allocator@D@2@@detail@io@boost@@@std@@QAEPAU?$format_item@DU?$char_traits@D@std@@V?$allocator@D@2@@detail@io@boost@@I@Z 0049c5f0 f i NCInfoView.obj
 0001:0009b660       ?_Xlen@?$vector@_NV?$allocator@_N@std@@@std@@QBEXXZ 0049c660 f i NCInfoView.obj
 0001:0009b670       ??$str2int@_JV?$_String_const_iterator@V?$_String_val@U?$_Simple_types@D@std@@@std@@@std@@V?$ctype@D@2@@detail@io@boost@@YA?AV?$_String_const_iterator@V?$_String_val@U?$_Simple_types@D@std@@@std@@@std@@ABV34@0AA_JABV?$ctype@D@4@@Z 0049c670 f i NCInfoView.obj
 0001:0009b710       ??$call_put_last@DU?$char_traits@D@std@@$$CBH@detail@io@boost@@YAXAAV?$basic_ostream@DU?$char_traits@D@std@@@std@@PBX@Z 0049c710 f i NCInfoView.obj
 0001:0009b730       ??$_Resize_reallocate@U?$format_item@DU?$char_traits@D@std@@V?$allocator@D@2@@detail@io@boost@@@?$vector@U?$format_item@DU?$char_traits@D@std@@V?$allocator@D@2@@detail@io@boost@@V?$allocator@U?$format_item@DU?$char_traits@D@std@@V?$allocator@D@2@@detail@io@boost@@@std@@@std@@AAEXIABU?$format_item@DU?$char_traits@D@std@@V?$allocator@D@2@@detail@io@boost@@@Z 0049c730 f i NCInfoView.obj
 0001:0009b9f0       ??$_Uninitialized_fill_n@V?$allocator@U?$format_item@DU?$char_traits@D@std@@V?$allocator@D@2@@detail@io@boost@@@std@@@std@@YAPAU?$format_item@DU?$char_traits@D@std@@V?$allocator@D@2@@detail@io@boost@@PAU1234@IABU1234@AAV?$allocator@U?$format_item@DU?$char_traits@D@std@@V?$allocator@D@2@@detail@io@boost@@@0@@Z 0049c9f0 f i NCInfoView.obj
 0001:0009baf0       ??$fill@PAU?$format_item@DU?$char_traits@D@std@@V?$allocator@D@2@@detail@io@boost@@U1234@@std@@YAXQAU?$format_item@DU?$char_traits@D@std@@V?$allocator@D@2@@detail@io@boost@@0ABU1234@@Z 0049caf0 f i NCInfoView.obj
 0001:0009bc10       ??1?$_Uninitialized_backout_al@V?$allocator@U?$format_item@DU?$char_traits@D@std@@V?$allocator@D@2@@detail@io@boost@@@std@@@std@@QAE@XZ 0049cc10 f i NCInfoView.obj
 0001:0009bc40       ??$throw_exception@Vtoo_many_args@io@boost@@@boost@@YAXABVtoo_many_args@io@0@@Z 0049cc40 f i NCInfoView.obj
 0001:0009bc60       ??$put@DU?$char_traits@D@std@@V?$allocator@D@2@ABU?$put_holder@DU?$char_traits@D@std@@@detail@io@boost@@@detail@io@boost@@YAXABU?$put_holder@DU?$char_traits@D@std@@@012@ABU?$format_item@DU?$char_traits@D@std@@V?$allocator@D@2@@012@AAV?$basic_string@DU?$char_traits@D@std@@V?$allocator@D@2@@std@@AAV?$basic_altstringbuf@DU?$char_traits@D@std@@V?$allocator@D@2@@12@PAVlocale@6@@Z 0049cc60 f i NCInfoView.obj
 0001:0009c270       ??0?$wrapexcept@Vtoo_many_args@io@boost@@@boost@@QAE@ABU01@@Z 0049d270 f i NCInfoView.obj
 0001:0009c340       ??0too_many_args@io@boost@@QAE@ABV012@@Z 0049d340 f i NCInfoView.obj
 0001:0009c380       ??_D?$basic_oaltstringstream@DU?$char_traits@D@std@@V?$allocator@D@2@@io@boost@@QAEXXZ 0049d380 f i NCInfoView.obj
 0001:0009c3d0       ??1?$base_from_member@V?$shared_ptr@V?$basic_altstringbuf@DU?$char_traits@D@std@@V?$allocator@D@2@@io@boost@@@boost@@$0A@@boost@@QAE@XZ 0049d3d0 f i NCInfoView.obj
 0001:0009c410       ??0?$basic_oaltstringstream@DU?$char_traits@D@std@@V?$allocator@D@2@@io@boost@@QAE@PAV?$basic_altstringbuf@DU?$char_traits@D@std@@V?$allocator@D@2@@12@@Z 0049d410 f i NCInfoView.obj
 0001:0009c4d0       ?rethrow@?$wrapexcept@Vtoo_many_args@io@boost@@@boost@@UBEXXZ 0049d4d0 f i NCInfoView.obj
 0001:0009c4f0       ?clone@?$wrapexcept@Vtoo_many_args@io@boost@@@boost@@UBEPBVclone_base@exception_detail@2@XZ 0049d4f0 f i NCInfoView.obj
 0001:0009c580       ??0?$wrapexcept@Vtoo_many_args@io@boost@@@boost@@QAE@ABVtoo_many_args@io@1@@Z 0049d580 f i NCInfoView.obj
 0001:0009c600       ??_G?$basic_oaltstringstream@DU?$char_traits@D@std@@V?$allocator@D@2@@io@boost@@UAEPAXI@Z 0049d600 f i NCInfoView.obj
 0001:0009c600       ??_E?$basic_oaltstringstream@DU?$char_traits@D@std@@V?$allocator@D@2@@io@boost@@UAEPAXI@Z 0049d600 f i * CIL library *:* CIL module *
 0001:0009c670       ??1sentry@?$basic_ostream@DU?$char_traits@D@std@@@std@@QAE@XZ 0049d670 f i NCInfoView.obj
 0001:0009c6e0       ??1_Sentry_base@?$basic_ostream@DU?$char_traits@D@std@@@std@@QAE@XZ 0049d6e0 f i NCInfoView.obj
 0001:0009c730       ?clear_buffer@?$basic_altstringbuf@DU?$char_traits@D@std@@V?$allocator@D@2@@io@boost@@QAEXXZ 0049d730 f i NCInfoView.obj
 0001:0009c7d0       ?apply_on@?$stream_format_state@DU?$char_traits@D@std@@@detail@io@boost@@QBEXAAV?$basic_ios@DU?$char_traits@D@std@@@std@@PAVlocale@6@@Z 0049d7d0 f i NCInfoView.obj
 0001:0009c870       ??$?6U?$char_traits@D@std@@@std@@YAAAV?$basic_ostream@DU?$char_traits@D@std@@@0@AAV10@D@Z 0049d870 f i NCInfoView.obj
 0001:0009ca80       ??$?0PAV?$basic_altstringbuf@DU?$char_traits@D@std@@V?$allocator@D@2@@io@boost@@VNo_Op@?$basic_oaltstringstream@DU?$char_traits@D@std@@V?$allocator@D@2@@12@@shared_count@detail@boost@@QAE@PAV?$basic_altstringbuf@DU?$char_traits@D@std@@V?$allocator@D@2@@io@2@VNo_Op@?$basic_oaltstringstream@DU?$char_traits@D@std@@V?$allocator@D@2@@42@@Z 0049da80 f i NCInfoView.obj
 0001:0009cb10       ?get_untyped_deleter@?$sp_counted_impl_pd@PAV?$basic_altstringbuf@DU?$char_traits@D@std@@V?$allocator@D@2@@io@boost@@VNo_Op@?$basic_oaltstringstream@DU?$char_traits@D@std@@V?$allocator@D@2@@23@@detail@boost@@UAEPAXXZ 0049db10 f i NCInfoView.obj
 0001:0009cb20       ?get_local_deleter@?$sp_counted_impl_pd@PAV?$basic_altstringbuf@DU?$char_traits@D@std@@V?$allocator@D@2@@io@boost@@VNo_Op@?$basic_oaltstringstream@DU?$char_traits@D@std@@V?$allocator@D@2@@23@@detail@boost@@UAEPAXABVtype_info@@@Z 0049db20 f i NCInfoView.obj
 0001:0009cb40       ?get_deleter@?$sp_counted_impl_pd@PAV?$basic_altstringbuf@DU?$char_traits@D@std@@V?$allocator@D@2@@io@boost@@VNo_Op@?$basic_oaltstringstream@DU?$char_traits@D@std@@V?$allocator@D@2@@23@@detail@boost@@UAEPAXABVtype_info@@@Z 0049db40 f i NCInfoView.obj
 0001:0009cb70       ??_G?$sp_counted_impl_pd@PAV?$basic_altstringbuf@DU?$char_traits@D@std@@V?$allocator@D@2@@io@boost@@VNo_Op@?$basic_oaltstringstream@DU?$char_traits@D@std@@V?$allocator@D@2@@23@@detail@boost@@UAEPAXI@Z 0049db70 f i NCInfoView.obj
 0001:0009cb70       ??_E?$sp_counted_impl_pd@PAV?$basic_altstringbuf@DU?$char_traits@D@std@@V?$allocator@D@2@@io@boost@@VNo_Op@?$basic_oaltstringstream@DU?$char_traits@D@std@@V?$allocator@D@2@@23@@detail@boost@@UAEPAXI@Z 0049db70 f i * CIL library *:* CIL module *
 0001:0009cb91       ??_E?$basic_oaltstringstream@DU?$char_traits@D@std@@V?$allocator@D@2@@io@boost@@$4PPPPPPPM@A@AEPAXI@Z 0049db91 f i NCInfoView.obj
 0001:0009cba0       ?GetMessageMap@CNCJumpDlg@@MBEPBUAFX_MSGMAP@@XZ 0049dba0 f   NCJumpDlg.obj
 0001:0009cbb0       ??_ECNCJumpDlg@@UAEPAXI@Z  0049dbb0 f i * CIL library *:* CIL module *
 0001:0009cbb0       ??_GCNCJumpDlg@@UAEPAXI@Z  0049dbb0 f i NCJumpDlg.obj
 0001:0009cc10       ?DoDataExchange@CNCJumpDlg@@MAEXPAVCDataExchange@@@Z 0049dc10 f   NCJumpDlg.obj
 0001:0009cc40       ?OnInitDialog@CNCJumpDlg@@MAEHXZ 0049dc40 f   NCJumpDlg.obj
 0001:0009cd80       ?OnOK@CNCJumpDlg@@MAEXXZ   0049dd80 f   NCJumpDlg.obj
 0001:0009cea0       ?OnCancel@CNCJumpDlg@@MAEXXZ 0049dea0 f   NCJumpDlg.obj
 0001:0009cec0       ?PostNcDestroy@CNCJumpDlg@@MAEXXZ 0049dec0 f   NCJumpDlg.obj
 0001:0009cf00       ?OnUserSwitchDocument@CNCJumpDlg@@IAEJIJ@Z 0049df00 f   NCJumpDlg.obj
 0001:0009cf70       ??_GCNCListView@@UAEPAXI@Z 0049df70 f i NCListView.obj
 0001:0009cf70       ??_ECNCListView@@UAEPAXI@Z 0049df70 f i * CIL library *:* CIL module *
 0001:0009cfe0       ?CreateObject@CNCListView@@SGPAVCObject@@XZ 0049dfe0 f   NCListView.obj
 0001:0009d080       ?_GetBaseClass@CNCListView@@KGPAUCRuntimeClass@@XZ 0049e080 f   NCListView.obj
 0001:0009d090       ?GetRuntimeClass@CNCListView@@UBEPAUCRuntimeClass@@XZ 0049e090 f   NCListView.obj
 0001:0009d0a0       ?GetMessageMap@CNCListView@@MBEPBUAFX_MSGMAP@@XZ 0049e0a0 f   NCListView.obj
 0001:0009d0b0       ?PreCreateWindow@CNCListView@@MAEHAAUtagCREATESTRUCTA@@@Z 0049e0b0 f   NCListView.obj
 0001:0009d0d0       ?OnInitialUpdate@CNCListView@@UAEXXZ 0049e0d0 f   NCListView.obj
 0001:0009d1a0       ?OnUpdate@CNCListView@@MAEXPAVCView@@JPAVCObject@@@Z 0049e1a0 f   NCListView.obj
 0001:0009d310       ?PreTranslateMessage@CNCListView@@UAEHPAUtagMSG@@@Z 0049e310 f   NCListView.obj
 0001:0009d3f0       ?SetFindList@CNCListView@@QAEXHABV?$CStringT@DV?$StrTraitMFC_DLL@DV?$ChTraitsCRT@D@ATL@@@@@ATL@@@Z 0049e3f0 f   NCListView.obj
 0001:0009d5a0       ?OnUpdateViewJump@CNCListView@@IAEXPAVCCmdUI@@@Z 0049e5a0 f   NCListView.obj
 0001:0009d5e0       ?OnViewJump@CNCListView@@IAEXXZ 0049e5e0 f   NCListView.obj
 0001:0009d710       ?OnUpdateViewFind@CNCListView@@IAEXPAVCCmdUI@@@Z 0049e710 f   NCListView.obj
 0001:0009d750       ?OnViewFind@CNCListView@@IAEXXZ 0049e750 f   NCListView.obj
 0001:0009d960       ?OnUpdateTraceBreak@CNCListView@@IAEXPAVCCmdUI@@@Z 0049e960 f   NCListView.obj
 0001:0009d960       ?OnUpdateFileInsert@CNCListView@@IAEXPAVCCmdUI@@@Z 0049e960 f   NCListView.obj
 0001:0009d990       ?OnTraceBreak@CNCListView@@IAEXXZ 0049e990 f   NCListView.obj
 0001:0009da00       ?OnTraceBreakOFF@CNCListView@@IAEXXZ 0049ea00 f   NCListView.obj
 0001:0009da50       ?OnFileInsert@CNCListView@@IAEXXZ 0049ea50 f   NCListView.obj
 0001:0009db50       ?OnCreate@CNCListView@@IAEHPAUtagCREATESTRUCTA@@@Z 0049eb50 f   NCListView.obj
 0001:0009dc40       ?OnContextMenu@CNCListView@@IAEXPAVCWnd@@VCPoint@@@Z 0049ec40 f   NCListView.obj
 0001:0009dd10       ?OnGetDispInfo@CNCListView@@IAEXPAUtagNMHDR@@PAJ@Z 0049ed10 f   NCListView.obj
 0001:0009de00       ?OnItemChanged@CNCListView@@IAEXPAUtagNMHDR@@PAJ@Z 0049ee00 f   NCListView.obj
 0001:0009df00       ?OnSelectTrace@CNCListView@@IAEJIJ@Z 0049ef00 f   NCListView.obj
 0001:0009dfd0       ?OnKeyDown@CNCListView@@IAEXPAUtagNMHDR@@PAJ@Z 0049efd0 f   NCListView.obj
 0001:0009e030       ?str@?$basic_regex@DU?$regex_traits@DV?$w32_regex_traits@D@boost@@@boost@@@boost@@QBE?AV?$basic_string@DU?$char_traits@D@std@@V?$allocator@D@2@@std@@XZ 0049f030 f i NCListView.obj
 0001:0009e150       ?str@?$basic_regex_implementation@DU?$regex_traits@DV?$w32_regex_traits@D@boost@@@boost@@@re_detail_500@boost@@QBE?AV?$basic_string@DU?$char_traits@D@std@@V?$allocator@D@2@@std@@XZ 0049f150 f i NCListView.obj
 0001:0009e250       ?AddGcode@CNCMakeBase@@IAEXABV?$CStringT@DV?$StrTraitMFC_DLL@DV?$ChTraitsCRT@D@ATL@@@@@ATL@@@Z 0049f250 f i NCMakeBase.obj
 0001:0009e350       ?MakeEllipse@CNCMakeBase@@IAEXPBVCDXFellipse@@M@Z 0049f350 f   NCMakeBase.obj
 0001:0009e660       ?MakeEllipse_Tolerance@CNCMakeBase@@IAE?AV?$CStringT@DV?$StrTraitMFC_DLL@DV?$ChTraitsCRT@D@ATL@@@@@ATL@@PBVCDXFellipse@@M@Z 0049f660 f   NCMakeBase.obj
 0001:0009e820       ?MakePolylineCut@CNCMakeBase@@IAEXPBVCDXFpolyline@@M@Z 0049f820 f   NCMakeBase.obj
 0001:0009eb40       ?MakeCustomString@CNCMakeBase@@SA?AV?$CStringT@DV?$StrTraitMFC_DLL@DV?$ChTraitsCRT@D@ATL@@@@@ATL@@HKPAMH@Z 0049fb40 f   NCMakeBase.obj
 0001:0009ed90       ?GetChangeEnter@CNCMakeBase@@KA?AV?$CStringT@DV?$StrTraitMFC_DLL@DV?$ChTraitsCRT@D@ATL@@@@@ATL@@ABV23@@Z 0049fd90 f   NCMakeBase.obj
 0001:0009ef50       ?GetSpindleString@CNCMakeBase@@KA?AV?$CStringT@DV?$StrTraitMFC_DLL@DV?$ChTraitsCRT@D@ATL@@@@@ATL@@H@Z 0049ff50 f   NCMakeBase.obj
 0001:0009f0e0       ?GetSpindleString_Clip@CNCMakeBase@@KA?AV?$CStringT@DV?$StrTraitMFC_DLL@DV?$ChTraitsCRT@D@ATL@@@@@ATL@@H@Z 004a00e0 f   NCMakeBase.obj
 0001:0009f0e0       ?GetLineNoString_Clip@CNCMakeBase@@KA?AV?$CStringT@DV?$StrTraitMFC_DLL@DV?$ChTraitsCRT@D@ATL@@@@@ATL@@XZ 004a00e0 f   NCMakeBase.obj
 0001:0009f0f0       ?GetFeedString@CNCMakeBase@@KA?AV?$CStringT@DV?$StrTraitMFC_DLL@DV?$ChTraitsCRT@D@ATL@@@@@ATL@@M@Z 004a00f0 f   NCMakeBase.obj
 0001:0009f200       ?GetFeedString_Integer@CNCMakeBase@@KA?AV?$CStringT@DV?$StrTraitMFC_DLL@DV?$ChTraitsCRT@D@ATL@@@@@ATL@@M@Z 004a0200 f   NCMakeBase.obj
 0001:0009f2d0       ?GetLineNoString@CNCMakeBase@@KA?AV?$CStringT@DV?$StrTraitMFC_DLL@DV?$ChTraitsCRT@D@ATL@@@@@ATL@@XZ 004a02d0 f   NCMakeBase.obj
 0001:0009f370       ?GetGString@CNCMakeBase@@KA?AV?$CStringT@DV?$StrTraitMFC_DLL@DV?$ChTraitsCRT@D@ATL@@@@@ATL@@H@Z 004a0370 f   NCMakeBase.obj
 0001:0009f3e0       ?GetGString_Clip@CNCMakeBase@@KA?AV?$CStringT@DV?$StrTraitMFC_DLL@DV?$ChTraitsCRT@D@ATL@@@@@ATL@@H@Z 004a03e0 f   NCMakeBase.obj
 0001:0009f4f0       ?GetValString_Normal@CNCMakeBase@@KA?AV?$CStringT@DV?$StrTraitMFC_DLL@DV?$ChTraitsCRT@D@ATL@@@@@ATL@@M@Z 004a04f0 f   NCMakeBase.obj
 0001:0009f570       ?GetValString_UZeroCut@CNCMakeBase@@KA?AV?$CStringT@DV?$StrTraitMFC_DLL@DV?$ChTraitsCRT@D@ATL@@@@@ATL@@M@Z 004a0570 f   NCMakeBase.obj
 0001:0009f6b0       ?GetValString_Multi1000@CNCMakeBase@@KA?AV?$CStringT@DV?$StrTraitMFC_DLL@DV?$ChTraitsCRT@D@ATL@@@@@ATL@@M@Z 004a06b0 f   NCMakeBase.obj
 0001:0009f7b0       ?MakeCircleSub_R@CNCMakeBase@@KA?AV?$CStringT@DV?$StrTraitMFC_DLL@DV?$ChTraitsCRT@D@ATL@@@@@ATL@@HABV?$CPointT@M@@0M@Z 004a07b0 f   NCMakeBase.obj
 0001:0009f900       ?MakeCircleSub_IJ@CNCMakeBase@@KA?AV?$CStringT@DV?$StrTraitMFC_DLL@DV?$ChTraitsCRT@D@ATL@@@@@ATL@@HABV?$CPointT@M@@0M@Z 004a0900 f   NCMakeBase.obj
 0001:0009fab0       ?MakeCircleSub_Helical@CNCMakeBase@@KA?AV?$CStringT@DV?$StrTraitMFC_DLL@DV?$ChTraitsCRT@D@ATL@@@@@ATL@@HABV?$CPoint3T@M@@@Z 004a0ab0 f   NCMakeBase.obj
 0001:0009fc40       ?MakeCircle_R@CNCMakeBase@@KA?AV?$CStringT@DV?$StrTraitMFC_DLL@DV?$ChTraitsCRT@D@ATL@@@@@ATL@@PBVCDXFcircle@@M@Z 004a0c40 f   NCMakeBase.obj
 0001:0009ff60       ?MakeCircle_IJ@CNCMakeBase@@KA?AV?$CStringT@DV?$StrTraitMFC_DLL@DV?$ChTraitsCRT@D@ATL@@@@@ATL@@PBVCDXFcircle@@M@Z 004a0f60 f   NCMakeBase.obj
 0001:000a01b0       ?MakeCircle_IJHALF@CNCMakeBase@@KA?AV?$CStringT@DV?$StrTraitMFC_DLL@DV?$ChTraitsCRT@D@ATL@@@@@ATL@@PBVCDXFcircle@@M@Z 004a11b0 f   NCMakeBase.obj
 0001:000a05d0       ?MakeCircle_R_Helical@CNCMakeBase@@KA?AV?$CStringT@DV?$StrTraitMFC_DLL@DV?$ChTraitsCRT@D@ATL@@@@@ATL@@PBVCDXFcircle@@MM@Z 004a15d0 f   NCMakeBase.obj
 0001:000a0900       ?MakeCircle_IJ_Helical@CNCMakeBase@@KA?AV?$CStringT@DV?$StrTraitMFC_DLL@DV?$ChTraitsCRT@D@ATL@@@@@ATL@@PBVCDXFcircle@@MM@Z 004a1900 f   NCMakeBase.obj
 0001:000a0ba0       ?MakeCircle_IJHALF_Helical@CNCMakeBase@@KA?AV?$CStringT@DV?$StrTraitMFC_DLL@DV?$ChTraitsCRT@D@ATL@@@@@ATL@@PBVCDXFcircle@@MM@Z 004a1ba0 f   NCMakeBase.obj
 0001:000a1060       ?MakeArc_R@CNCMakeBase@@KA?AV?$CStringT@DV?$StrTraitMFC_DLL@DV?$ChTraitsCRT@D@ATL@@@@@ATL@@PBVCDXFarc@@M@Z 004a2060 f   NCMakeBase.obj
 0001:000a1220       ?MakeArc_IJ@CNCMakeBase@@KA?AV?$CStringT@DV?$StrTraitMFC_DLL@DV?$ChTraitsCRT@D@ATL@@@@@ATL@@PBVCDXFarc@@M@Z 004a2220 f   NCMakeBase.obj
 0001:000a14b0       ??1CNCMakeBase@@QAE@XZ     004a24b0 f i NCMakeLathe.obj
 0001:000a14b0       ??1CNCMakeMill@@QAE@XZ     004a24b0 f i NCMakeWire.obj
 0001:000a14d0       ??0CNCMakeLathe@@QAE@PBVCDXFdata@@M@Z 004a24d0 f   NCMakeLathe.obj
 0001:000a1810       ??0CNCMakeLathe@@QAE@HABV?$CPointT@M@@M@Z 004a2810 f   NCMakeLathe.obj
 0001:000a1a30       ??0CNCMakeLathe@@QAE@W4TWOMOVEMODE@@ABV?$CPointT@M@@M@Z 004a2a30 f   NCMakeLathe.obj
 0001:000a1e40       ??0CNCMakeLathe@@QAE@HHMM@Z 004a2e40 f   NCMakeLathe.obj
 0001:000a2040       ?CreateEndFace@CNCMakeLathe@@QAEXABV?$CPointT@M@@@Z 004a3040 f   NCMakeLathe.obj
 0001:000a2920       ?CreatePilotHole@CNCMakeLathe@@QAEXXZ 004a3920 f   NCMakeLathe.obj
 0001:000a35f0       ?CreateGroove@CNCMakeLathe@@QAEXABV?$CPointT@M@@M@Z 004a45f0 f   NCMakeLathe.obj
 0001:000a3a50       ?CreateGroove@CNCMakeLathe@@QAEXABV?$CPointT@M@@0M@Z 004a4a50 f   NCMakeLathe.obj
 0001:000a40e0       ?GetValString@CNCMakeLathe@@CA?AV?$CStringT@DV?$StrTraitMFC_DLL@DV?$ChTraitsCRT@D@ATL@@@@@ATL@@HMH@Z 004a50e0 f   NCMakeLathe.obj
 0001:000a4430       ?SetStaticOption@CNCMakeLathe@@SAXPBVCNCMakeLatheOpt@@@Z 004a5430 f   NCMakeLathe.obj
 0001:000a4720       ??_ECNCMakeLatheOpt@@UAEPAXI@Z 004a5720 f i * CIL library *:* CIL module *
 0001:000a4720       ??_ECNCMakeMillOpt@@UAEPAXI@Z 004a5720 f i * CIL library *:* CIL module *
 0001:000a4720       ??_GCNCMakeOption@@UAEPAXI@Z 004a5720 f i NCMakeOption.obj
 0001:000a4720       ??_ECNCMakeWireOpt@@UAEPAXI@Z 004a5720 f i * CIL library *:* CIL module *
 0001:000a4720       ??_GCNCMakeLatheOpt@@UAEPAXI@Z 004a5720 f i NCMakeLatheOpt.obj
 0001:000a4720       ??_ECNCMakeOption@@UAEPAXI@Z 004a5720 f i * CIL library *:* CIL module *
 0001:000a4720       ??_GCNCMakeWireOpt@@UAEPAXI@Z 004a5720 f i NCMakeWireOpt.obj
 0001:000a4720       ??_GCNCMakeMillOpt@@UAEPAXI@Z 004a5720 f i NCMakeMillOpt.obj
 0001:000a4770       ?InitialDefault@CNCMakeLatheOpt@@MAEXXZ 004a5770 f   NCMakeLatheOpt.obj
 0001:000a4900       ?IsPathID@CNCMakeWireOpt@@MAEHH@Z 004a5900 f   NCMakeWireOpt.obj
 0001:000a4900       ?IsPathID@CNCMakeLatheOpt@@MAEHH@Z 004a5900 f   NCMakeLatheOpt.obj
 0001:000a4920       ?GetLineNoForm@CNCMakeLatheOpt@@UBE?AV?$CStringT@DV?$StrTraitMFC_DLL@DV?$ChTraitsCRT@D@ATL@@@@@ATL@@XZ 004a5920 f   NCMakeLatheOpt.obj
 0001:000a4920       ?GetLineNoForm@CNCMakeWireOpt@@UBE?AV?$CStringT@DV?$StrTraitMFC_DLL@DV?$ChTraitsCRT@D@ATL@@@@@ATL@@XZ 004a5920 f   NCMakeWireOpt.obj
 0001:000a4920       ?GetLineNoForm@CNCMakeMillOpt@@UBE?AV?$CStringT@DV?$StrTraitMFC_DLL@DV?$ChTraitsCRT@D@ATL@@@@@ATL@@XZ 004a5920 f   NCMakeMillOpt.obj
 0001:000a4950       ?GetDrillInfo@CNCMakeLatheOpt@@QBEHAAV?$vector@ULATHEDRILLINFO@@V?$allocator@ULATHEDRILLINFO@@@std@@@std@@@Z 004a5950 f   NCMakeLatheOpt.obj
 0001:000a5470       ??$?EV?$token_iterator@V?$char_separator@DU?$char_traits@D@std@@@boost@@V?$_String_const_iterator@V?$_String_val@U?$_Simple_types@D@std@@@std@@@std@@V?$basic_string@DU?$char_traits@D@std@@V?$allocator@D@2@@4@@boost@@V?$basic_string@DU?$char_traits@D@std@@V?$allocator@D@2@@std@@Uforward_traversal_tag@iterators@1@ABV23@H@iterators@boost@@YA?AV?$token_iterator@V?$char_separator@DU?$char_traits@D@std@@@boost@@V?$_String_const_iterator@V?$_String_val@U?$_Simple_types@D@std@@@std@@@std@@V?$basic_string@DU?$char_traits@D@std@@V?$allocator@D@2@@4@@1@AAV?$iterator_facade@V?$token_iterator@V?$char_separator@DU?$char_traits@D@std@@@boost@@V?$_String_const_iterator@V?$_String_val@U?$_Simple_types@D@std@@@std@@@std@@V?$basic_string@DU?$char_traits@D@std@@V?$allocator@D@2@@4@@boost@@V?$basic_string@DU?$char_traits@D@std@@V?$allocator@D@2@@std@@Uforward_traversal_tag@iterators@2@ABV34@H@01@H@Z 004a6470 f i NCMakeLatheOpt.obj
 0001:000a5540       ??$_Emplace_reallocate@ABULATHEDRILLINFO@@@?$vector@ULATHEDRILLINFO@@V?$allocator@ULATHEDRILLINFO@@@std@@@std@@QAEPAULATHEDRILLINFO@@QAU2@ABU2@@Z 004a6540 f i NCMakeLatheOpt.obj
 0001:000a56f0       ??0CNCMakeMill@@QAE@PBVCDXFdata@@MPBM@Z 004a66f0 f   NCMakeMill.obj
 0001:000a5fd0       ??0CNCMakeMill@@QAE@PBVCDXFdata@@H@Z 004a6fd0 f   NCMakeMill.obj
 0001:000a6650       ??0CNCMakeMill@@QAE@HMM@Z  004a7650 f   NCMakeMill.obj
 0001:000a6860       ??0CNCMakeMill@@QAE@HABV?$CPointT@M@@M@Z 004a7860 f   NCMakeMill.obj
 0001:000a6aa0       ??0CNCMakeMill@@QAE@ABV?$CPoint3T@M@@M@Z 004a7aa0 f   NCMakeMill.obj
 0001:000a6d60       ?MakePolylineMov@CNCMakeMill@@IAEXPBVCDXFpolyline@@H@Z 004a7d60 f   NCMakeMill.obj
 0001:000a70f0       ?MakeSpindle@CNCMakeMill@@SA?AV?$CStringT@DV?$StrTraitMFC_DLL@DV?$ChTraitsCRT@D@ATL@@@@@ATL@@W4ENDXFTYPE@@H@Z 004a80f0 f   NCMakeMill.obj
 0001:000a7250       ?GetValString@CNCMakeMill@@KA?AV?$CStringT@DV?$StrTraitMFC_DLL@DV?$ChTraitsCRT@D@ATL@@@@@ATL@@HMH@Z 004a8250 f   NCMakeMill.obj
 0001:000a7750       ?SetStaticOption@CNCMakeMill@@SAXPBVCNCMakeMillOpt@@@Z 004a8750 f   NCMakeMill.obj
 0001:000a7ab0       ?GetCycleString@CNCMakeMill@@CA?AV?$CStringT@DV?$StrTraitMFC_DLL@DV?$ChTraitsCRT@D@ATL@@@@@ATL@@XZ 004a8ab0 f   NCMakeMill.obj
 0001:000a7b70       ?GetCycleString_Clip@CNCMakeMill@@CA?AV?$CStringT@DV?$StrTraitMFC_DLL@DV?$ChTraitsCRT@D@ATL@@@@@ATL@@XZ 004a8b70 f   NCMakeMill.obj
 0001:000a7c00       ?InitialDefault@CNCMakeMillOpt@@MAEXXZ 004a8c00 f   NCMakeMillOpt.obj
 0001:000a7d80       ?IsPathID@CNCMakeMillOpt@@MAEHH@Z 004a8d80 f   NCMakeMillOpt.obj
 0001:000a7da0       ?Convert@CNCMakeMillOpt@@AAEHXZ 004a8da0 f   NCMakeMillOpt.obj
 0001:000a8090       ??0CNCMakeOption@@IAE@QAUNCMAKEOPTION@@HPAPBDHPAUSAVEORDER@@@Z 004a9090 f   NCMakeOption.obj
 0001:000a81f0       ??1CNCMakeOption@@UAE@XZ   004a91f0 f   NCMakeOption.obj
 0001:000a8230       ?ReadMakeOption@CNCMakeOption@@QAEHPBD@Z 004a9230 f   NCMakeOption.obj
 0001:000a9120       ??1?$escaped_list_separator@DU?$char_traits@D@std@@@boost@@QAE@XZ 004aa120 f i NCMakeOption.obj
 0001:000a9200       ??1?$tokenizer@V?$escaped_list_separator@DU?$char_traits@D@std@@@boost@@V?$_String_const_iterator@V?$_String_val@U?$_Simple_types@D@std@@@std@@@std@@V?$basic_string@DU?$char_traits@D@std@@V?$allocator@D@2@@4@@boost@@QAE@XZ 004aa200 f i NCMakeOption.obj
 0001:000a9210       ??1?$token_iterator@V?$escaped_list_separator@DU?$char_traits@D@std@@@boost@@V?$_String_const_iterator@V?$_String_val@U?$_Simple_types@D@std@@@std@@@std@@V?$basic_string@DU?$char_traits@D@std@@V?$allocator@D@2@@4@@boost@@QAE@XZ 004aa210 f i NCMakeOption.obj
 0001:000a9270       ?SaveMakeOption@CNCMakeOption@@QAEHPBD@Z 004aa270 f   NCMakeOption.obj
 0001:000a96e0       ??$?RV?$_String_const_iterator@V?$_String_val@U?$_Simple_types@D@std@@@std@@@std@@V?$basic_string@DU?$char_traits@D@std@@V?$allocator@D@2@@1@@?$escaped_list_separator@DU?$char_traits@D@std@@@boost@@QAE_NAAV?$_String_const_iterator@V?$_String_val@U?$_Simple_types@D@std@@@std@@@std@@V23@AAV?$basic_string@DU?$char_traits@D@std@@V?$allocator@D@2@@3@@Z 004aa6e0 f i NCMakeOption.obj
 0001:000a98f0       ??$do_escape@V?$_String_const_iterator@V?$_String_val@U?$_Simple_types@D@std@@@std@@@std@@V?$basic_string@DU?$char_traits@D@std@@V?$allocator@D@2@@2@@?$escaped_list_separator@DU?$char_traits@D@std@@@boost@@AAEXAAV?$_String_const_iterator@V?$_String_val@U?$_Simple_types@D@std@@@std@@@std@@V23@AAV?$basic_string@DU?$char_traits@D@std@@V?$allocator@D@2@@3@@Z 004aa8f0 f i NCMakeOption.obj
 0001:000a9aa0       ??$throw_exception@Uescaped_list_error@boost@@@boost@@YAXABUescaped_list_error@0@ABUsource_location@0@@Z 004aaaa0 f i NCMakeOption.obj
 0001:000a9ac0       ??0?$wrapexcept@Uescaped_list_error@boost@@@boost@@QAE@ABU01@@Z 004aaac0 f i NCMakeOption.obj
 0001:000a9b80       ??0escaped_list_error@boost@@QAE@ABU01@@Z 004aab80 f i NCMakeOption.obj
 0001:000a9bc0       ?rethrow@?$wrapexcept@Uescaped_list_error@boost@@@boost@@UBEXXZ 004aabc0 f i NCMakeOption.obj
 0001:000a9be0       ?clone@?$wrapexcept@Uescaped_list_error@boost@@@boost@@UBEPBVclone_base@exception_detail@2@XZ 004aabe0 f i NCMakeOption.obj
 0001:000a9c70       ??0?$wrapexcept@Uescaped_list_error@boost@@@boost@@QAE@ABUescaped_list_error@1@ABUsource_location@1@@Z 004aac70 f i NCMakeOption.obj
 0001:000a9cf0       ??0escaped_list_error@boost@@QAE@ABV?$basic_string@DU?$char_traits@D@std@@V?$allocator@D@2@@std@@@Z 004aacf0 f i NCMakeOption.obj
 0001:000a9d40       ??0source_location@boost@@QAE@PBDI0I@Z 004aad40 f i NCMakeOption.obj
 0001:000a9d60       ??Y?$basic_string@DU?$char_traits@D@std@@V?$allocator@D@2@@std@@QAEAAV01@D@Z 004aad60 f i NCMakeOption.obj
 0001:000a9e70       ??0CNCMakeWire@@QAE@PBVCDXFdata@@0M@Z 004aae70 f   NCMakeWire.obj
 0001:000aaaf0       ??0CNCMakeWire@@QAE@ABV?$vector@V?$CPointT@M@@V?$allocator@V?$CPointT@M@@@std@@@std@@0M@Z 004abaf0 f   NCMakeWire.obj
 0001:000ab260       ??0CNCMakeWire@@QAE@HABV?$CPointT@M@@MM@Z 004ac260 f   NCMakeWire.obj
 0001:000ab630       ??0CNCMakeWire@@QAE@ABV?$CPointT@M@@0M@Z 004ac630 f   NCMakeWire.obj
 0001:000aba30       ?SetStaticOption@CNCMakeWire@@SAXPBVCNCMakeWireOpt@@@Z 004aca30 f   NCMakeWire.obj
 0001:000abcd0       ?InitialDefault@CNCMakeWireOpt@@MAEXXZ 004accd0 f   NCMakeWireOpt.obj
 0001:000abed0       ?GetMessageMap@CNCVCApp@@MBEPBUAFX_MSGMAP@@XZ 004aced0 f   NCVC.obj
 0001:000abee0       ??0CNCVCApp@@QAE@XZ        004acee0 f   NCVC.obj
 0001:000ac140       ??_GCNCVCApp@@UAEPAXI@Z    004ad140 f i NCVC.obj
 0001:000ac140       ??_ECNCVCApp@@UAEPAXI@Z    004ad140 f i * CIL library *:* CIL module *
 0001:000ac180       ??1?$CTypedPtrMap@VCMapWordToPtr@@GPAVCNCVCaddinMap@@@@UAE@XZ 004ad180 f i NCVC.obj
 0001:000ac180       ??1?$CTypedPtrMap@VCMapWordToPtr@@GPAVCExecOption@@@@UAE@XZ 004ad180 f i NCVC.obj
 0001:000ac190       ??1CNCVCApp@@UAE@XZ        004ad190 f   NCVC.obj
 0001:000ac210       ?InitInstance@CNCVCApp@@UAEHXZ 004ad210 f   NCVC.obj
 0001:000ac770       ?ExitInstance@CNCVCApp@@UAEHXZ 004ad770 f   NCVC.obj
 0001:000acb50       ?AddToRecentFileList@CNCVCApp@@UAEXPBD@Z 004adb50 f   NCVC.obj
 0001:000acc90       ?NCVCRegInit@CNCVCApp@@AAEHXZ 004adc90 f   NCVC.obj
 0001:000acf60       ?NCVCRegInit_OldExec@CNCVCApp@@AAEHAAV?$CStringT@DV?$StrTraitMFC_DLL@DV?$ChTraitsCRT@D@ATL@@@@@ATL@@@Z 004adf60 f   NCVC.obj
 0001:000ad260       ?NCVCRegInit_NewExec@CNCVCApp@@AAEHAAV?$CStringT@DV?$StrTraitMFC_DLL@DV?$ChTraitsCRT@D@ATL@@@@@ATL@@H@Z 004ae260 f   NCVC.obj
 0001:000ad420       ?NCVCRegOld@CNCVCApp@@AAEXXZ 004ae420 f   NCVC.obj
 0001:000ad6d0       ?SaveExecData@CNCVCApp@@AAEXXZ 004ae6d0 f   NCVC.obj
 0001:000ad7f0       ?CreateExecMap@CNCVCApp@@AAEHXZ 004ae7f0 f   NCVC.obj
 0001:000ad8d0       ?NCVCAddinInit@CNCVCApp@@AAEHH@Z 004ae8d0 f   NCVC.obj
 0001:000adc50       ?NCVCAddinMenu@CNCVCApp@@AAEHXZ 004aec50 f   NCVC.obj
 0001:000ae0b0       ?SaveWindowState@CNCVCApp@@QAEXABV?$CStringT@DV?$StrTraitMFC_DLL@DV?$ChTraitsCRT@D@ATL@@@@@ATL@@ABUtagWINDOWPLACEMENT@@@Z 004af0b0 f   NCVC.obj
 0001:000ae1d0       ?GetWindowState@CNCVCApp@@QAEHABV?$CStringT@DV?$StrTraitMFC_DLL@DV?$ChTraitsCRT@D@ATL@@@@@ATL@@PAUtagWINDOWPLACEMENT@@@Z 004af1d0 f   NCVC.obj
 0001:000ae360       ?SaveDlgWindow@CNCVCApp@@QAEXHPBVCWnd@@@Z 004af360 f   NCVC.obj
 0001:000ae440       ?GetDlgWindow@CNCVCApp@@QAEHHPAVCPoint@@@Z 004af440 f   NCVC.obj
 0001:000ae550       ?GetAlreadyDocument@CNCVCApp@@QAEPAVCDocument@@W4DOCTYPE@@PBD@Z 004af550 f   NCVC.obj
 0001:000ae5b0       ?GetDXFOpenDocumentCount@CNCVCApp@@QAEHXZ 004af5b0 f   NCVC.obj
 0001:000ae5f0       ?ReloadDXFDocument@CNCVCApp@@QAEXXZ 004af5f0 f   NCVC.obj
 0001:000ae720       ?ChangeViewOption@CNCVCApp@@QAEXXZ 004af720 f   NCVC.obj
 0001:000ae790       ?ChangeMachine@CNCVCApp@@QAEHPBD@Z 004af790 f   NCVC.obj
 0001:000ae810       ?DoPromptFileNameEx@CNCVCApp@@QAEHAAVCStringArray@@H@Z 004af810 f   NCVC.obj
 0001:000aebd0       ?OnFileOpen@CNCVCApp@@QAEXXZ 004afbd0 f   NCVC.obj
 0001:000aecb0       ?OnFileThumbnail@CNCVCApp@@QAEXXZ 004afcb0 f   NCVC.obj
 0001:000aeee0       ?OnFileCADbind@CNCVCApp@@QAEXXZ 004afee0 f   NCVC.obj
 0001:000af400       ?OnFileCloseAndOpen@CNCVCApp@@QAEXXZ 004b0400 f   NCVC.obj
 0001:000af520       ?OnViewSetup@CNCVCApp@@QAEXXZ 004b0520 f   NCVC.obj
 0001:000af610       ??1CViewSetup@@UAE@XZ      004b0610 f i NCVC.obj
 0001:000af660       ??1CViewSetup6@@UAE@XZ     004b0660 f i NCVC.obj
 0001:000af670       ?OnViewSetupInport@CNCVCApp@@QAEXXZ 004b0670 f   NCVC.obj
 0001:000af750       ?OnViewSetupExport@CNCVCApp@@QAEXXZ 004b0750 f   NCVC.obj
 0001:000af850       ?OnWindowAllClose@CNCVCApp@@QAEXXZ 004b0850 f   NCVC.obj
 0001:000af8c0       ?OnOptionMC@CNCVCApp@@QAEXXZ 004b08c0 f   NCVC.obj
 0001:000afbf0       ?OnOptionEditMC@CNCVCApp@@QAEXXZ 004b0bf0 f   NCVC.obj
 0001:000afda0       ?OnUpdateViewOBS@CNCVCApp@@QAEXPAVCCmdUI@@@Z 004b0da0 f   NCVC.obj
 0001:000afde0       ?OnViewOBS@CNCVCApp@@QAEXXZ 004b0de0 f   NCVC.obj
 0001:000aff10       ?OnOptionDXF@CNCVCApp@@QAEXXZ 004b0f10 f   NCVC.obj
 0001:000affa0       ?OnOptionMakeNC@CNCVCApp@@QAEXXZ 004b0fa0 f   NCVC.obj
 0001:000b03d0       ?OnUpdateOptionEdit@CNCVCApp@@QAEXPAVCCmdUI@@@Z 004b13d0 f   NCVC.obj
 0001:000b03f0       ?OnOptionEditNC@CNCVCApp@@QAEXXZ 004b13f0 f   NCVC.obj
 0001:000b05a0       ?OnOptionExec@CNCVCApp@@QAEXXZ 004b15a0 f   NCVC.obj
 0001:000b0a40       ?OnOptionExt@CNCVCApp@@QAEXXZ 004b1a40 f   NCVC.obj
 0001:000b0bc0       ?OnHelp@CNCVCApp@@QAEXXZ   004b1bc0 f   NCVC.obj
 0001:000b0c40       ?OnHelpUsing@CNCVCApp@@QAEXI@Z 004b1c40 f   NCVC.obj
 0001:000b0cf0       ?OnHelpAddin@CNCVCApp@@QAEXXZ 004b1cf0 f   NCVC.obj
 0001:000b0e00       ?OnAppAbout@CNCVCApp@@QAEXXZ 004b1e00 f   NCVC.obj
 0001:000b0ed0       ?NCVC_CriticalErrorMsg@@YAXPBDH@Z 004b1ed0 f   NCVC.obj
 0001:000b0f70       ?NCVC_ControlErrorMsg@@YAXPBDH@Z 004b1f70 f   NCVC.obj
 0001:000b1020       ?NCVC_FileDlgCommon@@YAHHABV?$CStringT@DV?$StrTraitMFC_DLL@DV?$ChTraitsCRT@D@ATL@@@@@ATL@@HAAV12@PBDHK@Z 004b2020 f   NCVC.obj
 0001:000b12a0       ??0CRecentViewInfo@@QAE@PBD@Z 004b22a0 f   NCVC.obj
 0001:000b1380       ?SetViewInfo@CRecentViewInfo@@QAEXQAY03$$CBNABV?$CRect3T@M@@ABV?$CPointT@M@@@Z 004b2380 f   NCVC.obj
 0001:000b1420       ?GetViewInfo@CRecentViewInfo@@QBEHQAY03NAAV?$CRect3T@M@@AAV?$CPointT@M@@@Z 004b2420 f   NCVC.obj
 0001:000b14c0       ??0CNCVCDocTemplate@@QAE@IPAUCRuntimeClass@@00@Z 004b24c0 f   NCVC.obj
 0001:000b1ba0       ??_GCNCVCDocTemplate@@UAEPAXI@Z 004b2ba0 f i NCVC.obj
 0001:000b1ba0       ??_ECNCVCDocTemplate@@UAEPAXI@Z 004b2ba0 f i * CIL library *:* CIL module *
 0001:000b1c50       ??_FCMapStringToPtr@@QAEXXZ 004b2c50 f i NCVC.obj
 0001:000b1c60       ?AddExtensionFunc@CNCVCDocTemplate@@QAEHPBDPAX@Z 004b2c60 f   NCVC.obj
 0001:000b1d50       ?MatchDocType@CNCVCDocTemplate@@UAE?AW4Confidence@CDocTemplate@@PBDAAPAVCDocument@@@Z 004b2d50 f   NCVC.obj
 0001:000b1e50       ?IsExtension@CNCVCDocTemplate@@QAEHPBDPAPAX@Z 004b2e50 f   NCVC.obj
 0001:000b1f90       ?SaveExt@CNCVCDocTemplate@@QAEHXZ 004b2f90 f   NCVC.obj
 0001:000b2180       ?GetFilterString@CNCVCDocTemplate@@QAE?AV?$CStringT@DV?$StrTraitMFC_DLL@DV?$ChTraitsCRT@D@ATL@@@@@ATL@@XZ 004b3180 f   NCVC.obj
 0001:000b2320       ?_GetBaseClass@CNCVCDocTemplate@@KGPAUCRuntimeClass@@XZ 004b3320 f   NCVC.obj
 0001:000b2330       ?GetRuntimeClass@CNCVCDocTemplate@@UBEPAUCRuntimeClass@@XZ 004b3330 f   NCVC.obj
 0001:000b2340       ?GetApplicationRecoveryPingInterval@CWinApp@@UAEKXZ 004b3340 f i NCVC.obj
 0001:000b2350       ?RestoreAutosavedFilesAtRestart@CWinApp@@UBEHXZ 004b3350 f i NCVC.obj
 0001:000b2360       ?ReopenPreviousFilesAtRestart@CWinApp@@UBEHXZ 004b3360 f i NCVC.obj
 0001:000b2370       ?SupportsAutosaveAtInterval@CWinApp@@UBEHXZ 004b3370 f i NCVC.obj
 0001:000b2380       ?SupportsAutosaveAtRestart@CWinApp@@UBEHXZ 004b3380 f i NCVC.obj
 0001:000b2390       ?SupportsApplicationRecovery@CWinApp@@UBEHXZ 004b3390 f i NCVC.obj
 0001:000b23a0       ?SupportsRestartManager@CWinApp@@UBEHXZ 004b33a0 f i NCVC.obj
 0001:000b23b0       _NCVC_GetDXFLayerSize@4    004b33b0 f   NCVCaddinDXF.obj
 0001:000b23e0       _NCVC_GetDXFLayerData@16   004b33e0 f   NCVCaddinDXF.obj
 0001:000b2470       _NCVC_GetDXFDataSize@8     004b3470 f   NCVCaddinDXF.obj
 0001:000b24d0       _NCVC_GetDXFTextDataSize@8 004b34d0 f   NCVCaddinDXF.obj
 0001:000b2530       _NCVC_GetDXFData@12        004b3530 f   NCVCaddinDXF.obj
 0001:000b2800       _NCVC_GetDXFTextData@12    004b3800 f   NCVCaddinDXF.obj
 0001:000b2f70       _NCVC_AddDXFData@8         004b3f70 f   NCVCaddinDXF.obj
 0001:000b2f90       _NCVC_InsDXFData@12        004b3f90 f   NCVCaddinDXF.obj
 0001:000b2fc0       _NCVC_ModDXFData@12        004b3fc0 f   NCVCaddinDXF.obj
 0001:000b2ff0       _NCVC_DelDXFData@16        004b3ff0 f   NCVCaddinDXF.obj
 0001:000b3060       _NCVC_DelDXFTextData@16    004b4060 f   NCVCaddinDXF.obj
 0001:000b30d0       _NCVC_GetDXFCutterOrigin@8 004b40d0 f   NCVCaddinDXF.obj
 0001:000b3150       _NCVC_SetDXFCutterOrigin@20 004b4150 f   NCVCaddinDXF.obj
 0001:000b31c0       _NCVC_SetDXFLatheLine@12   004b41c0 f   NCVCaddinDXF.obj
 0001:000b3240       _NCVC_SetDXFReady@8        004b4240 f   NCVCaddinDXF.obj
 0001:000b3290       _NCVC_GetDXFoption@4       004b4290 f   NCVCaddinDXF.obj
 0001:000b3370       _NCVC_IsOriginLayer@4      004b4370 f   NCVCaddinDXF.obj
 0001:000b3390       _NCVC_IsCutterLayer@4      004b4390 f   NCVCaddinDXF.obj
 0001:000b33d0       _NCVC_IsStartLayer@4       004b43d0 f   NCVCaddinDXF.obj
 0001:000b3400       _NCVC_IsMoveLayer@4        004b4400 f   NCVCaddinDXF.obj
 0001:000b3430       _NCVC_IsCommentLayer@4     004b4430 f   NCVCaddinDXF.obj
 0001:000b3460       ??0CNCVCaddinIF@@QAE@PAUHINSTANCE__@@PAUtagNCVCINITIALIZE@@PBD@Z 004b4460 f   NCVCaddinIF.obj
 0001:000b3690       ??_GCNCVCaddinIF@@UAEPAXI@Z 004b4690 f i NCVCaddinIF.obj
 0001:000b3690       ??_ECNCVCaddinIF@@UAEPAXI@Z 004b4690 f i * CIL library *:* CIL module *
 0001:000b3760       _NCVC_GetMainWnd@0         004b4760 f   NCVCaddinIF.obj
 0001:000b3780       _NCVC_GetMainInstance@0    004b4780 f   NCVCaddinIF.obj
 0001:000b3790       _NCVC_CreateRegKey@8       004b4790 f   NCVCaddinIF.obj
 0001:000b3860       _NCVC_GetDocument@4        004b4860 f   NCVCaddinIF.obj
 0001:000b38d0       _NCVC_GetDocumentFileName@12 004b48d0 f   NCVCaddinIF.obj
 0001:000b3950       _NCVC_LockDocument@8       004b4950 f   NCVCaddinIF.obj
 0001:000b39a0       _NCVC_UnlockDocument@4     004b49a0 f   NCVCaddinIF.obj
 0001:000b39f0       _NCVC_MainfrmProgressRange@8 004b49f0 f   NCVCaddinIF.obj
 0001:000b3a50       _NCVC_MainfrmProgressPos@4 004b4a50 f   NCVCaddinIF.obj
 0001:000b3a80       _NCVC_GetSelectMachineFileName@8 004b4a80 f   NCVCaddinIF.obj
 0001:000b3b00       _NCVC_SetMachineFile@4     004b4b00 f   NCVCaddinIF.obj
 0001:000b3b10       _NCVC_CreateNCDocument@8   004b4b10 f   NCVCaddinIF.obj
 0001:000b3b60       _NCVC_CreateDXFDocument@8  004b4b60 f   NCVCaddinIF.obj
 0001:000b3bb0       _NCVC_AddNCDExtensionFunc@12 004b4bb0 f   NCVCaddinIF.obj
 0001:000b3bf0       _NCVC_AddDXFExtensionFunc@12 004b4bf0 f   NCVCaddinIF.obj
 0001:000b3c30       _NCVC_CloseDocument@4      004b4c30 f   NCVCaddinIF.obj
 0001:000b3c70       _NCVC_ReDraw@4             004b4c70 f   NCVCaddinIF.obj
 0001:000b3cb0       _NCVC_GetObjectSize@8      004b4cb0 f   NCVCaddinIF.obj
 0001:000b3d80       _NCVC_GetNCBlockDataSize@4 004b4d80 f   NCVCaddinNC.obj
 0001:000b3db0       _NCVC_GetNCBlockData@16    004b4db0 f   NCVCaddinNC.obj
 0001:000b3e70       _NCVC_GetNCBlockFlag@8     004b4e70 f   NCVCaddinNC.obj
 0001:000b3ec0       _NCVC_GetNCDataSize@4      004b4ec0 f   NCVCaddinNC.obj
 0001:000b3ef0       _NCVC_GetNCData@12         004b4ef0 f   NCVCaddinNC.obj
 0001:000b4000       _NCVC_AddNCStrData@8       004b5000 f   NCVCaddinNC.obj
 0001:000b4040       _NCVC_InsNCStrData@12      004b5040 f   NCVCaddinNC.obj
 0001:000b4080       _NCVC_ModNCStrData@12      004b5080 f   NCVCaddinNC.obj
 0001:000b40c0       _NCVC_DelNCStrData@12      004b50c0 f   NCVCaddinNC.obj
 0001:000b4390       _NCVC_AddNCData@8          004b5390 f   NCVCaddinNC.obj
 0001:000b43b0       _NCVC_InsNCData@12         004b53b0 f   NCVCaddinNC.obj
 0001:000b43e0       _NCVC_ModNCData@12         004b53e0 f   NCVCaddinNC.obj
 0001:000b4410       _NCVC_DelNCData@12         004b5410 f   NCVCaddinNC.obj
 0001:000b4440       _NCVC_TraceStart@4         004b5440 f   NCVCaddinNC.obj
 0001:000b44c0       _NCVC_TracePause@4         004b54c0 f   NCVCaddinNC.obj
 0001:000b4540       _NCVC_TraceStop@4          004b5540 f   NCVCaddinNC.obj
 0001:000b45c0       _NCVC_TraceNextDraw@4      004b55c0 f   NCVCaddinNC.obj
 0001:000b4610       ?ConvertRect@CNCViewBase@@EAE?AV?$CRectT@M@@ABV?$CRect3T@M@@@Z 004b5610 f i NCView.obj
 0001:000b4630       ?GetPlaneAxis@CNCViewBase@@EAE?AV?$tuple@IIUnull_type@tuples@boost@@U123@U123@U123@U123@U123@U123@U123@@tuples@boost@@XZ 004b5630 f i NCView.obj
 0001:000b4650       ??0CNCViewBase@@IAE@W4ENNCDRAWVIEW@@@Z 004b5650 f i NCView.obj
 0001:000b47b0       ?ConvertMaxRect@CNCViewBase@@UAEXXZ 004b57b0 f i NCView.obj
 0001:000b4840       ?ConvertWorkRect@CNCViewBase@@UAEXXZ 004b5840 f i NCView.obj
 0001:000b4910       ?ConvertWorkCylinder@CNCViewBase@@UAEXXZ 004b5910 f i NCView.obj
 0001:000b49e0       ?DrawMaxRect@CNCViewBase@@UAEXPAVCDC@@@Z 004b59e0 f i NCView.obj
 0001:000b4a50       ?DrawWorkRect@CNCViewBase@@UAEXPAVCDC@@@Z 004b5a50 f i NCView.obj
 0001:000b4ac0       ?DrawWorkCylinder@CNCViewBase@@UAEXPAVCDC@@@Z 004b5ac0 f i NCView.obj
 0001:000b4b30       ??_GCNCViewYZ@@UAEPAXI@Z   004b5b30 f i NCViewYZ.obj
 0001:000b4b30       ??_GCNCViewBase@@UAEPAXI@Z 004b5b30 f i NCView.obj
 0001:000b4b30       ??_GCNCViewXZ@@UAEPAXI@Z   004b5b30 f i NCViewXZ.obj
 0001:000b4b30       ??_ECNCViewYZ@@UAEPAXI@Z   004b5b30 f i * CIL library *:* CIL module *
 0001:000b4b30       ??_ECNCViewBase@@UAEPAXI@Z 004b5b30 f i * CIL library *:* CIL module *
 0001:000b4b30       ??_ECNCViewXZ@@UAEPAXI@Z   004b5b30 f i * CIL library *:* CIL module *
 0001:000b4b80       ?CreateObject@CNCView@@SGPAVCObject@@XZ 004b5b80 f   NCView.obj
 0001:000b4ed0       ?_GetBaseClass@CNCView@@KGPAUCRuntimeClass@@XZ 004b5ed0 f   NCView.obj
 0001:000b4ed0       ?_GetBaseClass@CNCViewXY@@KGPAUCRuntimeClass@@XZ 004b5ed0 f   NCViewXY.obj
 0001:000b4ed0       ?_GetBaseClass@CNCViewYZ@@KGPAUCRuntimeClass@@XZ 004b5ed0 f   NCViewYZ.obj
 0001:000b4ed0       ?GetRuntimeClass@CNCViewBase@@UBEPAUCRuntimeClass@@XZ 004b5ed0 f   NCViewBase.obj
 0001:000b4ed0       ?_GetBaseClass@CNCViewXZ@@KGPAUCRuntimeClass@@XZ 004b5ed0 f   NCViewXZ.obj
 0001:000b4ee0       ?GetRuntimeClass@CNCView@@UBEPAUCRuntimeClass@@XZ 004b5ee0 f   NCView.obj
 0001:000b4ef0       ?GetMessageMap@CNCView@@MBEPBUAFX_MSGMAP@@XZ 004b5ef0 f   NCView.obj
 0001:000b4ef0       ?GetMessageMap@CNCViewXY@@MBEPBUAFX_MSGMAP@@XZ 004b5ef0 f   NCViewXY.obj
 0001:000b4ef0       ?GetMessageMap@CNCViewXZ@@MBEPBUAFX_MSGMAP@@XZ 004b5ef0 f   NCViewXZ.obj
 0001:000b4ef0       ?GetMessageMap@CNCViewYZ@@MBEPBUAFX_MSGMAP@@XZ 004b5ef0 f   NCViewYZ.obj
 0001:000b4f00       ??_ECNCView@@UAEPAXI@Z     004b5f00 f i * CIL library *:* CIL module *
 0001:000b4f00       ??_GCNCView@@UAEPAXI@Z     004b5f00 f i NCView.obj
 0001:000b4f50       ?OnInitialUpdate@CNCView@@UAEXXZ 004b5f50 f   NCView.obj
 0001:000b5000       ?SetGuideData@CNCView@@UAEXXZ 004b6000 f   NCView.obj
 0001:000b5320       ?SetDataMaxRect@CNCView@@UAEXXZ 004b6320 f   NCView.obj
 0001:000b5880       ?SetWorkRect@CNCView@@UAEXXZ 004b6880 f   NCView.obj
 0001:000b5c00       ?SetWorkCylinder@CNCView@@UAEXXZ 004b6c00 f   NCView.obj
 0001:000b5df0       ?ConvertMaxRect@CNCView@@UAEXXZ 004b6df0 f   NCView.obj
 0001:000b5e70       ?ConvertWorkRect@CNCView@@UAEXXZ 004b6e70 f   NCView.obj
 0001:000b5ef0       ?ConvertWorkCylinder@CNCView@@UAEXXZ 004b6ef0 f   NCView.obj
 0001:000b5f60       ?OnDraw@CNCView@@UAEXPAVCDC@@@Z 004b6f60 f   NCView.obj
 0001:000b6100       ?DrawMaxRect@CNCView@@UAEXPAVCDC@@@Z 004b7100 f   NCView.obj
 0001:000b61b0       ?DrawWorkRect@CNCView@@UAEXPAVCDC@@@Z 004b71b0 f   NCView.obj
 0001:000b6260       ?DrawWorkCylinder@CNCView@@UAEXPAVCDC@@@Z 004b7260 f   NCView.obj
 0001:000b6368       ??_9CNCdata@@$BBE@AE       004b7368 f i NCView.obj
 0001:000b636d       ??_9CNCdata@@$BCE@AE       004b736d f i NCView.obj
 0001:000b6380       ?GetThisMessageMap@CNCViewBase@@KGPBUAFX_MSGMAP@@XZ 004b7380 f   NCViewBase.obj
 0001:000b6380       ?GetMessageMap@CNCViewBase@@MBEPBUAFX_MSGMAP@@XZ 004b7380 f   NCViewBase.obj
 0001:000b6390       ?OnInitialUpdate@CNCViewBase@@UAEXXZ 004b7390 f   NCViewBase.obj
 0001:000b64d0       ?OnUpdate@CNCViewBase@@UAEXPAVCView@@JPAVCObject@@@Z 004b74d0 f   NCViewBase.obj
 0001:000b6750       ?OnDraw@CNCViewBase@@UAEXPAVCDC@@@Z 004b7750 f   NCViewBase.obj
 0001:000b6970       ?DrawGuideDivi@CNCViewBase@@QAEXPAVCDC@@II@Z 004b7970 f   NCViewBase.obj
 0001:000b6c50       ?DrawInfo@CNCViewBase@@QAEXPAVCDC@@@Z 004b7c50 f   NCViewBase.obj
 0001:000b6d30       ?DrawNCdata@CNCViewBase@@QAEXPAVCDC@@@Z 004b7d30 f   NCViewBase.obj
 0001:000b6e00       ?DrawSupportRect@CNCViewBase@@QAEXPAVCDC@@@Z 004b7e00 f   NCViewBase.obj
 0001:000b6e80       ?OnActivateView@CNCViewBase@@UAEXHPAVCView@@0@Z 004b7e80 f   NCViewBase.obj
 0001:000b6fb0       ?SetDataMaxRect@CNCViewBase@@UAEXXZ 004b7fb0 f   NCViewBase.obj
 0001:000b7110       ?OnViewLensComm@CNCViewBase@@UAEXXZ 004b8110 f   NCViewBase.obj
 0001:000b7310       ?OnContextMenu@CNCViewBase@@QAEXPAVCWnd@@VCPoint@@@Z 004b8310 f   NCViewBase.obj
 0001:000b7330       ?OnKeyDown@CNCViewBase@@QAEXIII@Z 004b8330 f   NCViewBase.obj
 0001:000b7390       ?OnLButtonUp@CNCViewBase@@QAEXIVCPoint@@@Z 004b8390 f   NCViewBase.obj
 0001:000b73d0       ?OnRButtonUp@CNCViewBase@@QAEXIVCPoint@@@Z 004b83d0 f   NCViewBase.obj
 0001:000b7470       ?OnLButtonDblClk@CNCViewBase@@QAEXIVCPoint@@@Z 004b8470 f   NCViewBase.obj
 0001:000b7560       ?OnMouseMove@CNCViewBase@@QAEXIVCPoint@@@Z 004b8560 f   NCViewBase.obj
 0001:000b7580       ?OnMouseActivate@CNCViewBase@@QAEHPAVCWnd@@II@Z 004b8580 f   NCViewBase.obj
 0001:000b75b0       ?OnUpdateMoveKey@CNCViewBase@@QAEXPAVCCmdUI@@@Z 004b85b0 f   NCViewBase.obj
 0001:000b75b0       ?OnUpdateEditCopy@CNCViewBase@@QAEXPAVCCmdUI@@@Z 004b85b0 f   NCViewBase.obj
 0001:000b75b0       ?OnUpdateMoveRoundKey@CNCViewGL@@IAEXPAVCCmdUI@@@Z 004b85b0 f   NCViewGL.obj
 0001:000b75b0       ?OnUpdateMoveKey@CNCViewTab@@IAEXPAVCCmdUI@@@Z 004b85b0 f   NCViewTab.obj
 0001:000b75c0       ?OnMoveKey@CNCViewBase@@QAEXI@Z 004b85c0 f   NCViewBase.obj
 0001:000b75d0       ?OnLensKey@CNCViewBase@@QAEXI@Z 004b85d0 f   NCViewBase.obj
 0001:000b7640       ?OnUserViewFitMsg@CNCViewBase@@QAEJIJ@Z 004b8640 f   NCViewBase.obj
 0001:000b7670       ?OnUserActivatePage@CNCViewBase@@QAEJIJ@Z 004b8670 f   NCViewBase.obj
 0001:000b76d0       ?OnEraseBkgnd@CNCViewBase@@QAEHPAVCDC@@@Z 004b86d0 f   NCViewBase.obj
 0001:000b7700       ??1CVBtmDraw@@QAE@XZ       004b8700 f i NCViewGL.obj
 0001:000b7710       ?CreateObject@CNCViewGL@@SGPAVCObject@@XZ 004b8710 f   NCViewGL.obj
 0001:000b7780       ?GetRuntimeClass@CNCViewGL@@UBEPAUCRuntimeClass@@XZ 004b8780 f   NCViewGL.obj
 0001:000b7790       ?GetMessageMap@CNCViewGL@@MBEPBUAFX_MSGMAP@@XZ 004b8790 f   NCViewGL.obj
 0001:000b77a0       ??0CNCViewGL@@IAE@XZ       004b87a0 f   NCViewGL.obj
 0001:000b7b70       ??_ECNCViewGL@@UAEPAXI@Z   004b8b70 f i * CIL library *:* CIL module *
 0001:000b7b70       ??_GCNCViewGL@@UAEPAXI@Z   004b8b70 f i NCViewGL.obj
 0001:000b7c80       ??1WIREDRAW@@QAE@XZ        004b8c80 f i NCViewGL.obj
 0001:000b7cb0       ??_GCFrameBuffer@@QAEPAXI@Z 004b8cb0 f i NCViewGL.obj
 0001:000b7d70       ?DeleteDepthMemory@CNCViewGL@@AAEXXZ 004b8d70 f   NCViewGL.obj
 0001:000b7e40       ?PreCreateWindow@CNCViewGL@@MAEHAAUtagCREATESTRUCTA@@@Z 004b8e40 f   NCViewGL.obj
 0001:000b7e60       ?OnInitialUpdate@CNCViewGL@@UAEXXZ 004b8e60 f   NCViewGL.obj
 0001:000b7ee0       ?OnUpdate@CNCViewGL@@MAEXPAVCView@@JPAVCObject@@@Z 004b8ee0 f   NCViewGL.obj
 0001:000b8170       ?UpdateViewOption@CNCViewGL@@AAEXXZ 004b9170 f   NCViewGL.obj
 0001:000b88c0       ?ClearObjectForm@CNCViewGL@@AAEXH@Z 004b98c0 f   NCViewGL.obj
 0001:000b8a90       ?CreateTexture@CNCViewGL@@AAEXHPBM@Z 004b9a90 f   NCViewGL.obj
 0001:000b8bb0       ?ClearVBO@CNCViewGL@@AAEXXZ 004b9bb0 f   NCViewGL.obj
 0001:000b8c90       ?ClearTexture@CNCViewGL@@AAEXXZ 004b9c90 f   NCViewGL.obj
 0001:000b8cd0       ?CreateFBO@CNCViewGL@@AAEXXZ 004b9cd0 f   NCViewGL.obj
 0001:000b8e80       ?InitialBoxel@CNCViewGL@@AAEXXZ 004b9e80 f   NCViewGL.obj
 0001:000b8fb0       ?FinalBoxel@CNCViewGL@@AAEXXZ 004b9fb0 f   NCViewGL.obj
 0001:000b90d0       ?RenderCode@CNCViewGL@@AAEXXZ 004ba0d0 f   NCViewGL.obj
 0001:000b9150       ?RenderMill@CNCViewGL@@AAEXPBVCNCdata@@@Z 004ba150 f   NCViewGL.obj
 0001:000b9540       ?BeginTracking@CNCViewGL@@AAEXABVCPoint@@W4ENTRACKINGMODE@@@Z 004ba540 f   NCViewGL.obj
 0001:000b96a0       ?DoTracking@CNCViewGL@@AAEXABVCPoint@@@Z 004ba6a0 f   NCViewGL.obj
 0001:000b99c0       ?DoScale@CNCViewGL@@AAEXH@Z 004ba9c0 f   NCViewGL.obj
 0001:000b9c00       ?DoRotation@CNCViewGL@@AAEXM@Z 004bac00 f   NCViewGL.obj
 0001:000b9cd0       ?OnDraw@CNCViewGL@@UAEXPAVCDC@@@Z 004bacd0 f   NCViewGL.obj
 0001:000ba5d0       ?OnCreate@CNCViewGL@@IAEHPAUtagCREATESTRUCTA@@@Z 004bb5d0 f   NCViewGL.obj
 0001:000ba7e0       ?OnDestroy@CNCViewGL@@IAEXXZ 004bb7e0 f   NCViewGL.obj
 0001:000ba960       ?OnSize@CNCViewGL@@IAEXIHH@Z 004bb960 f   NCViewGL.obj
 0001:000ba9f0       ?OnActivateView@CNCViewGL@@MAEXHPAVCView@@0@Z 004bb9f0 f   NCViewGL.obj
 0001:000baaa0       ?OnUserActivatePage@CNCViewGL@@IAEJIJ@Z 004bbaa0 f   NCViewGL.obj
 0001:000bac70       ?OnUserViewFitMsg@CNCViewGL@@IAEJIJ@Z 004bbc70 f   NCViewGL.obj
 0001:000bb0b0       ?OnSelectTrace@CNCViewGL@@IAEJIJ@Z 004bc0b0 f   NCViewGL.obj
 0001:000bb650       ?OnMoveKey@CNCViewGL@@IAEXI@Z 004bc650 f   NCViewGL.obj
 0001:000bb730       ?OnRoundKey@CNCViewGL@@IAEXI@Z 004bc730 f   NCViewGL.obj
 0001:000bb840       ?OnLensKey@CNCViewGL@@IAEXI@Z 004bc840 f   NCViewGL.obj
 0001:000bb990       ?OnDefViewInfo@CNCViewGL@@IAEXXZ 004bc990 f   NCViewGL.obj
 0001:000bba70       ?OnContextMenu@CNCViewGL@@IAEXPAVCWnd@@VCPoint@@@Z 004bca70 f   NCViewGL.obj
 0001:000bbb40       ?OnLButtonDown@CNCViewGL@@IAEXIVCPoint@@@Z 004bcb40 f   NCViewGL.obj
 0001:000bbb40       ?OnMButtonDown@CNCViewGL@@IAEXIVCPoint@@@Z 004bcb40 f   NCViewGL.obj
 0001:000bbb80       ?OnLButtonUp@CNCViewGL@@IAEXIVCPoint@@@Z 004bcb80 f   NCViewGL.obj
 0001:000bbbe0       ?OnLButtonDblClk@CNCViewGL@@IAEXIVCPoint@@@Z 004bcbe0 f   NCViewGL.obj
 0001:000bbcc0       ?OnRButtonDown@CNCViewGL@@IAEXIVCPoint@@@Z 004bccc0 f   NCViewGL.obj
 0001:000bbd50       ?OnRButtonUp@CNCViewGL@@IAEXIVCPoint@@@Z 004bcd50 f   NCViewGL.obj
 0001:000bbdd0       ?OnMButtonUp@CNCViewGL@@IAEXIVCPoint@@@Z 004bcdd0 f   NCViewGL.obj
 0001:000bbe30       ?OnMouseMove@CNCViewGL@@IAEXIVCPoint@@@Z 004bce30 f   NCViewGL.obj
 0001:000bbe50       ?OnMouseWheel@CNCViewGL@@IAEHIFVCPoint@@@Z 004bce50 f   NCViewGL.obj
 0001:000bbec0       ?OnKeyDown@CNCViewGL@@IAEXIII@Z 004bcec0 f   NCViewGL.obj
 0001:000bbf20       ?OnTimer@CNCViewGL@@IAEXI@Z 004bcf20 f   NCViewGL.obj
 0001:000bc020       ?InitialMillNormal@@YAXXZ  004bd020 f   NCViewGL.obj
 0001:000bc250       ??1?$vector@UWIRELINE@@V?$allocator@UWIRELINE@@@std@@@std@@QAE@XZ 004bd250 f i NCViewGL.obj
 0001:000bc2e0       ??1?$vector@V?$vector@IV?$allocator@I@std@@@std@@V?$allocator@V?$vector@IV?$allocator@I@std@@@std@@@2@@std@@QAE@XZ 004bd2e0 f i NCViewGL.obj
 0001:000bc360       ??1?$vector@UBOTTOMDRAW@@V?$allocator@UBOTTOMDRAW@@@std@@@std@@QAE@XZ 004bd360 f i NCViewGL.obj
 0001:000bc3f0       ?deallocate@?$allocator@UWIRELINE@@@std@@QAEXQAUWIRELINE@@I@Z 004bd3f0 f i NCViewGL.obj
 0001:000bc430       ??$_Destroy_range@V?$allocator@UWIRELINE@@@std@@@std@@YAXPAUWIRELINE@@QAU1@AAV?$allocator@UWIRELINE@@@0@@Z 004bd430 f i NCViewGL.obj
 0001:000bc460       ??$_Destroy_range@V?$allocator@V?$vector@IV?$allocator@I@std@@@std@@@std@@@std@@YAXPAV?$vector@IV?$allocator@I@std@@@0@QAV10@AAV?$allocator@V?$vector@IV?$allocator@I@std@@@std@@@0@@Z 004bd460 f i NCViewGL.obj
 0001:000bc490       ??1WIRELINE@@QAE@XZ        004bd490 f i NCViewGL.obj
 0001:000bc4a0       ?variant_assign@?$variant@PAVCNCdata@@URANGEPARAM@@@boost@@AAEX$$QAV12@@Z 004bd4a0 f i NCViewGL.obj
 0001:000bc7c0       ??$apply_visitor@V?$direct_mover@URANGEPARAM@@@variant@detail@boost@@@?$variant@PAVCNCdata@@URANGEPARAM@@@boost@@QGAE_NAAV?$direct_mover@URANGEPARAM@@@variant@detail@1@@Z 004bd7c0 f i NCViewGL.obj
 0001:000bc950       ??1Bitmap@Gdiplus@@UAE@XZ  004bd950 f i NCViewGL.obj
 0001:000bc960       ??_EImage@Gdiplus@@UAEPAXI@Z 004bd960 f i * CIL library *:* CIL module *
 0001:000bc960       ??_GImage@Gdiplus@@UAEPAXI@Z 004bd960 f i NCViewGL.obj
 0001:000bc960       ??_GBitmap@Gdiplus@@UAEPAXI@Z 004bd960 f i NCViewGL.obj
 0001:000bc960       ??_EBitmap@Gdiplus@@UAEPAXI@Z 004bd960 f i * CIL library *:* CIL module *
 0001:000bc9a0       ?Clone@Image@Gdiplus@@UAEPAV12@XZ 004bd9a0 f i NCViewGL.obj
 0001:000bc9f0       ?CreateLathe@CNCViewGL@@AAEHH@Z 004bd9f0 f   NCViewGL_Lathe.obj
 0001:000bcc50       ?GetClipDepthLathe@CNCViewGL@@AAEHXZ 004bdc50 f   NCViewGL_Lathe.obj
 0001:000bd940       ?CreateVBOLathe@CNCViewGL@@AAEHXZ 004be940 f   NCViewGL_Lathe.obj
 0001:000be770       ?CreateTextureLathe@CNCViewGL@@AAEXXZ 004bf770 f   NCViewGL_Lathe.obj
 0001:000be890       ?_Reallocate_exactly@?$vector@V?$vector@IV?$allocator@I@std@@@std@@V?$allocator@V?$vector@IV?$allocator@I@std@@@std@@@2@@std@@AAEXI@Z 004bf890 f i NCViewGL_Lathe.obj
 0001:000be930       ?_Reallocate_exactly@?$vector@IV?$allocator@I@std@@@std@@AAEXI@Z 004bf930 f i NCViewGL_Lathe.obj
 0001:000be970       ?_Change_array@?$vector@V?$vector@IV?$allocator@I@std@@@std@@V?$allocator@V?$vector@IV?$allocator@I@std@@@std@@@2@@std@@AAEXQAV?$vector@IV?$allocator@I@std@@@2@II@Z 004bf970 f i NCViewGL_Lathe.obj
 0001:000bea00       ??$_Emplace_reallocate@ABV?$vector@IV?$allocator@I@std@@@std@@@?$vector@V?$vector@IV?$allocator@I@std@@@std@@V?$allocator@V?$vector@IV?$allocator@I@std@@@std@@@2@@std@@QAEPAV?$vector@IV?$allocator@I@std@@@1@QAV21@ABV21@@Z 004bfa00 f i NCViewGL_Lathe.obj
 0001:000bebb0       ??0CREATEELEMENTPARAM@@QAE@XZ 004bfbb0 f i NCViewGL_Mill.obj
 0001:000bec50       ?CreateBoxel@CNCViewGL@@AAEHH@Z 004bfc50 f   NCViewGL_Mill.obj
 0001:000bee20       ?CreateBoxel_fromIGES@CNCViewGL@@AAEHPAV?$variant@PAVCNCdata@@URANGEPARAM@@@boost@@@Z 004bfe20 f   NCViewGL_Mill.obj
 0001:000bf140       ?CreateBottomFaceThread@CNCViewGL@@AAEHHH@Z 004c0140 f   NCViewGL_Mill.obj
 0001:000bf6b0       ?GetClipDepthMill@CNCViewGL@@AAEHW4ENCLIPDEPTH@@@Z 004c06b0 f   NCViewGL_Mill.obj
 0001:000bfbb0       ?GetClipDepthMill_All@CNCViewGL@@AAEXABUARGVCLIPDEPTH@@@Z 004c0bb0 f   NCViewGL_Mill.obj
 0001:000bfca0       ?GetClipDepthMill_Zonly@CNCViewGL@@AAEXABUARGVCLIPDEPTH@@@Z 004c0ca0 f   NCViewGL_Mill.obj
 0001:000bfcd0       ?GetClipDepthMill_BottomStencil@CNCViewGL@@AAEXABUARGVCLIPDEPTH@@@Z 004c0cd0 f   NCViewGL_Mill.obj
 0001:000bfd60       ?GetClipDepthMill_TopStencil@CNCViewGL@@AAEXABUARGVCLIPDEPTH@@@Z 004c0d60 f   NCViewGL_Mill.obj
 0001:000bfdf0       ?GetClipDepthCylinder@CNCViewGL@@AAEHXZ 004c0df0 f   NCViewGL_Mill.obj
 0001:000c0750       ?CreateVBOMill@CNCViewGL@@AAEHXZ 004c1750 f   NCViewGL_Mill.obj
 0001:000c10a0       ??1CREATEELEMENTPARAM@@QAE@XZ 004c20a0 f i NCViewGL_Mill.obj
 0001:000c10d0       ?EndOfCreateElementThread@CNCViewGL@@AAEXXZ 004c20d0 f   NCViewGL_Mill.obj
 0001:000c11e0       ?CreateTextureMill@CNCViewGL@@AAEXXZ 004c21e0 f   NCViewGL_Mill.obj
 0001:000c2aa0       ??$get@URANGEPARAM@@PAVCNCdata@@U1@@boost@@YAPAURANGEPARAM@@PAV?$variant@PAVCNCdata@@URANGEPARAM@@@0@@Z 004c3aa0 f i NCViewGL_Mill.obj
 0001:000c2ab0       ?CreateWire@CNCViewGL@@AAEHXZ 004c3ab0 f   NCViewGL_Wire.obj
 0001:000c34d0       ?CreateTextureWire@CNCViewGL@@AAEXXZ 004c44d0 f   NCViewGL_Wire.obj
 0001:000c36f0       ??$_Emplace_reallocate@ABUWIRELINE@@@?$vector@UWIRELINE@@V?$allocator@UWIRELINE@@@std@@@std@@QAEPAUWIRELINE@@QAU2@ABU2@@Z 004c46f0 f i NCViewGL_Wire.obj
 0001:000c3920       ??$_Uninitialized_move@PAUWIRELINE@@V?$allocator@UWIRELINE@@@std@@@std@@YAPAUWIRELINE@@QAU1@0PAU1@AAV?$allocator@UWIRELINE@@@0@@Z 004c4920 f i NCViewGL_Wire.obj
 0001:000c3980       ?GetMessageMap@CNCViewSplit@@MBEPBUAFX_MSGMAP@@XZ 004c4980 f   NCViewSplit.obj
 0001:000c3990       ??_ECNCViewSplit@@UAEPAXI@Z 004c4990 f i * CIL library *:* CIL module *
 0001:000c3990       ??_GCNCViewSplit@@UAEPAXI@Z 004c4990 f i NCViewSplit.obj
 0001:000c39d0       ?DrawData@CNCViewSplit@@QAEXPAVCNCdata@@HQAP82@BEXPAVCDC@@H@Z@Z 004c49d0 f   NCViewSplit.obj
 0001:000c3a70       ?AllPane_PostMessage@CNCViewSplit@@AAEXIIIJ@Z 004c4a70 f   NCViewSplit.obj
 0001:000c3b40       ?CalcPane@CNCViewSplit@@AAEXIH@Z 004c4b40 f   NCViewSplit.obj
 0001:000c3dc0       ?OnUserInitialUpdate@CNCViewSplit@@IAEJIJ@Z 004c4dc0 f   NCViewSplit.obj
 0001:000c4000       ?OnUserActivatePage@CNCViewSplit@@IAEJIJ@Z 004c5000 f   NCViewSplit.obj
 0001:000c4020       ?OnDestroy@CNCViewSplit@@IAEXXZ 004c5020 f   NCViewSplit.obj
 0001:000c4210       ?OnLButtonDblClk@CNCViewSplit@@IAEXIVCPoint@@@Z 004c5210 f   NCViewSplit.obj
 0001:000c4280       ?OnAllFitCmd@CNCViewSplit@@IAEXXZ 004c5280 f   NCViewSplit.obj
 0001:000c42f0       ?OnUserViewFitMsg@CNCViewSplit@@IAEJIJ@Z 004c52f0 f   NCViewSplit.obj
 0001:000c4320       ??_ECTraceThread@@UAEPAXI@Z 004c5320 f i * CIL library *:* CIL module *
 0001:000c4320       ??_GCTraceThread@@UAEPAXI@Z 004c5320 f i NCViewTab.obj
 0001:000c4360       ?CreateObject@CNCViewTab@@SGPAVCObject@@XZ 004c5360 f   NCViewTab.obj
 0001:000c44d0       ?GetRuntimeClass@CNCViewTab@@UBEPAUCRuntimeClass@@XZ 004c54d0 f   NCViewTab.obj
 0001:000c44e0       ?GetMessageMap@CNCViewTab@@MBEPBUAFX_MSGMAP@@XZ 004c54e0 f   NCViewTab.obj
 0001:000c44f0       ??_ECNCViewTab@@UAEPAXI@Z  004c54f0 f i * CIL library *:* CIL module *
 0001:000c44f0       ??_GCNCViewTab@@UAEPAXI@Z  004c54f0 f i NCViewTab.obj
 0001:000c4570       ?OnInitialUpdate@CNCViewTab@@UAEXXZ 004c5570 f   NCViewTab.obj
 0001:000c4770       ?OnCmdMsg@CNCViewTab@@UAEHIHPAXPAUAFX_CMDHANDLERINFO@@@Z 004c5770 f   NCViewTab.obj
 0001:000c48d0       ?OnActivatePage@CNCViewTab@@MAEXH@Z 004c58d0 f   NCViewTab.obj
 0001:000c49a0       ?OnCreate@CNCViewTab@@IAEHPAUtagCREATESTRUCTA@@@Z 004c59a0 f   NCViewTab.obj
 0001:000c4fc0       ?OnDestroy@CNCViewTab@@IAEXXZ 004c5fc0 f   NCViewTab.obj
 0001:000c5070       ?OnUpdateTraceSpeed@CNCViewTab@@IAEXPAVCCmdUI@@@Z 004c6070 f   NCViewTab.obj
 0001:000c50a0       ?OnTraceSpeed@CNCViewTab@@IAEXI@Z 004c60a0 f   NCViewTab.obj
 0001:000c50d0       ?OnUpdateTraceRun@CNCViewTab@@IAEXPAVCCmdUI@@@Z 004c60d0 f   NCViewTab.obj
 0001:000c5120       ?OnTraceRun@CNCViewTab@@IAEXXZ 004c6120 f   NCViewTab.obj
 0001:000c51b0       ?OnUpdateTracePause@CNCViewTab@@IAEXPAVCCmdUI@@@Z 004c61b0 f   NCViewTab.obj
 0001:000c5200       ?OnTracePause@CNCViewTab@@IAEXXZ 004c6200 f   NCViewTab.obj
 0001:000c52c0       ?OnTraceStop@CNCViewTab@@IAEXXZ 004c62c0 f   NCViewTab.obj
 0001:000c5340       ?OnUpdateTraceCursor@CNCViewTab@@IAEXPAVCCmdUI@@@Z 004c6340 f   NCViewTab.obj
 0001:000c5380       ?OnTraceCursor@CNCViewTab@@IAEXI@Z 004c6380 f   NCViewTab.obj
 0001:000c5510       ?OnUpdateAllFitCmd@CNCViewTab@@IAEXPAVCCmdUI@@@Z 004c6510 f   NCViewTab.obj
 0001:000c5540       ?OnUpdateDefViewInfo@CNCViewTab@@IAEXPAVCCmdUI@@@Z 004c6540 f   NCViewTab.obj
 0001:000c5540       ?OnUpdateRoundKey@CNCViewTab@@IAEXPAVCCmdUI@@@Z 004c6540 f   NCViewTab.obj
 0001:000c5570       ?OnUpdateEditCopy@CNCViewTab@@IAEXPAVCCmdUI@@@Z 004c6570 f   NCViewTab.obj
 0001:000c55a0       ?InitInstance@CTraceThread@@UAEHXZ 004c65a0 f   NCViewTab.obj
 0001:000c5b10       ?ExitInstance@CTraceThread@@UAEHXZ 004c6b10 f   NCViewTab.obj
 0001:000c5b19       ??_9CNCdata@@$BCA@AE       004c6b19 f i NCViewTab.obj
 0001:000c5b1e       ??_9CNCdata@@$BDA@AE       004c6b1e f i NCViewTab.obj
 0001:000c5b23       ??_9CNCdata@@$BBI@AE       004c6b23 f i NCViewTab.obj
 0001:000c5b28       ??_9CNCdata@@$BCI@AE       004c6b28 f i NCViewTab.obj
 0001:000c5b2d       ??_9CNCdata@@$BBM@AE       004c6b2d f i NCViewTab.obj
 0001:000c5b32       ??_9CNCdata@@$BCM@AE       004c6b32 f i NCViewTab.obj
 0001:000c5b40       ?CreateObject@CNCViewXY@@SGPAVCObject@@XZ 004c6b40 f   NCViewXY.obj
 0001:000c5c10       ?GetRuntimeClass@CNCViewXY@@UBEPAUCRuntimeClass@@XZ 004c6c10 f   NCViewXY.obj
 0001:000c5c20       ??_ECNCViewXY@@UAEPAXI@Z   004c6c20 f i * CIL library *:* CIL module *
 0001:000c5c20       ??_GCNCViewXY@@UAEPAXI@Z   004c6c20 f i NCViewXY.obj
 0001:000c5c70       ?OnInitialUpdate@CNCViewXY@@UAEXXZ 004c6c70 f   NCViewXY.obj
 0001:000c5d10       ?SetGuideData@CNCViewXY@@UAEXXZ 004c6d10 f   NCViewXY.obj
 0001:000c5dd0       ?SetWorkCylinder@CNCViewXY@@UAEXXZ 004c6dd0 f   NCViewXY.obj
 0001:000c5eb0       ?ConvertWorkCylinder@CNCViewXY@@UAEXXZ 004c6eb0 f   NCViewXY.obj
 0001:000c5f10       ?DrawWorkCylinder@CNCViewXY@@UAEXPAVCDC@@@Z 004c6f10 f   NCViewXY.obj
 0001:000c5fc0       ?ConvertRect@CNCViewXZ@@UAE?AV?$CRectT@M@@ABV?$CRect3T@M@@@Z 004c6fc0 f i NCViewXZ.obj
 0001:000c5ff0       ?GetPlaneAxis@CNCViewXZ@@UAE?AV?$tuple@IIUnull_type@tuples@boost@@U123@U123@U123@U123@U123@U123@U123@@tuples@boost@@XZ 004c6ff0 f i NCViewXZ.obj
 0001:000c6010       ?CreateObject@CNCViewXZ@@SGPAVCObject@@XZ 004c7010 f   NCViewXZ.obj
 0001:000c6090       ?GetRuntimeClass@CNCViewXZ@@UBEPAUCRuntimeClass@@XZ 004c7090 f   NCViewXZ.obj
 0001:000c60a0       ?OnInitialUpdate@CNCViewXZ@@UAEXXZ 004c70a0 f   NCViewXZ.obj
 0001:000c6130       ?SetGuideData@CNCViewXZ@@UAEXXZ 004c7130 f   NCViewXZ.obj
 0001:000c61f0       ?ConvertRect@CNCViewYZ@@UAE?AV?$CRectT@M@@ABV?$CRect3T@M@@@Z 004c71f0 f i NCViewYZ.obj
 0001:000c6220       ?GetPlaneAxis@CNCViewYZ@@UAE?AV?$tuple@IIUnull_type@tuples@boost@@U123@U123@U123@U123@U123@U123@U123@@tuples@boost@@XZ 004c7220 f i NCViewYZ.obj
 0001:000c6240       ?CreateObject@CNCViewYZ@@SGPAVCObject@@XZ 004c7240 f   NCViewYZ.obj
 0001:000c62c0       ?GetRuntimeClass@CNCViewYZ@@UBEPAUCRuntimeClass@@XZ 004c72c0 f   NCViewYZ.obj
 0001:000c62d0       ?OnInitialUpdate@CNCViewYZ@@UAEXXZ 004c72d0 f   NCViewYZ.obj
 0001:000c6350       ?SetGuideData@CNCViewYZ@@UAEXXZ 004c7350 f   NCViewYZ.obj
 0001:000c6410       ?GetMessageMap@CNCWorkDlg@@MBEPBUAFX_MSGMAP@@XZ 004c7410 f   NCWorkDlg.obj
 0001:000c6420       ?GetRuntimeClass@CNCWorkDlg@@UBEPAUCRuntimeClass@@XZ 004c7420 f   NCWorkDlg.obj
 0001:000c6430       ??0CNCWorkDlg@@QAE@II@Z    004c7430 f   NCWorkDlg.obj
 0001:000c6690       ??_GCNCWorkDlg@@UAEPAXI@Z  004c7690 f i NCWorkDlg.obj
 0001:000c6690       ??_ECNCWorkDlg@@UAEPAXI@Z  004c7690 f i * CIL library *:* CIL module *
 0001:000c66f0       ??1CNCWorkDlg1@@UAE@XZ     004c76f0 f i NCWorkDlg.obj
 0001:000c6790       ??1CNCWorkDlg2@@UAE@XZ     004c7790 f i NCWorkDlg.obj
 0001:000c6860       ?GetNCDocument@CNCWorkDlg@@QAEPAVCNCDoc@@XZ 004c7860 f   NCWorkDlg.obj
 0001:000c68d0       ?OnInitDialog@CNCWorkDlg@@UAEHXZ 004c78d0 f   NCWorkDlg.obj
 0001:000c6930       ?PostNcDestroy@CNCWorkDlg@@MAEXXZ 004c7930 f   NCWorkDlg.obj
 0001:000c6970       ?OnDestroy@CNCWorkDlg@@IAEXXZ 004c7970 f   NCWorkDlg.obj
 0001:000c6990       ?OnUserSwitchDocument@CNCWorkDlg@@IAEJIJ@Z 004c7990 f   NCWorkDlg.obj
 0001:000c6a10       ?GetMessageMap@CNCWorkDlg1@@MBEPBUAFX_MSGMAP@@XZ 004c7a10 f   NCWorkDlg1.obj
 0001:000c6a20       ??_ECNCWorkDlg1@@UAEPAXI@Z 004c7a20 f i * CIL library *:* CIL module *
 0001:000c6a20       ??_GCNCWorkDlg1@@UAEPAXI@Z 004c7a20 f i NCWorkDlg1.obj
 0001:000c6a60       ?DoDataExchange@CNCWorkDlg1@@MAEXPAVCDataExchange@@@Z 004c7a60 f   NCWorkDlg1.obj
 0001:000c6b00       ?EnableButton@CNCWorkDlg1@@AAEXHH@Z 004c7b00 f   NCWorkDlg1.obj
 0001:000c6bc0       ?SetValue@CNCWorkDlg1@@AAEXPBVCNCDoc@@ABV?$CRect3T@M@@@Z 004c7bc0 f   NCWorkDlg1.obj
 0001:000c6cb0       ?OnInitDialog@CNCWorkDlg1@@MAEHXZ 004c7cb0 f   NCWorkDlg1.obj
 0001:000c6df0       ?PreTranslateMessage@CNCWorkDlg1@@MAEHPAUtagMSG@@@Z 004c7df0 f   NCWorkDlg1.obj
 0001:000c6e40       ?OnShow@CNCWorkDlg1@@IAEXXZ 004c7e40 f   NCWorkDlg1.obj
 0001:000c71d0       ?OnHide@CNCWorkDlg1@@IAEXXZ 004c81d0 f   NCWorkDlg1.obj
 0001:000c7200       ?OnComment@CNCWorkDlg1@@IAEXXZ 004c8200 f   NCWorkDlg1.obj
 0001:000c7560       ?OnRecover@CNCWorkDlg1@@IAEXXZ 004c8560 f   NCWorkDlg1.obj
 0001:000c75b0       ?OnUserSwitchDocument@CNCWorkDlg1@@IAEJIJ@Z 004c85b0 f   NCWorkDlg1.obj
 0001:000c7640       ?GetMessageMap@CNCWorkDlg2@@MBEPBUAFX_MSGMAP@@XZ 004c8640 f   NCWorkDlg2.obj
 0001:000c7650       ??_ECNCWorkDlg2@@UAEPAXI@Z 004c8650 f i * CIL library *:* CIL module *
 0001:000c7650       ??_GCNCWorkDlg2@@UAEPAXI@Z 004c8650 f i NCWorkDlg2.obj
 0001:000c7690       ?DoDataExchange@CNCWorkDlg2@@MAEXPAVCDataExchange@@@Z 004c8690 f   NCWorkDlg2.obj
 0001:000c7760       ?EnableButton@CNCWorkDlg2@@AAEXH@Z 004c8760 f   NCWorkDlg2.obj
 0001:000c7810       ?SetValue@CNCWorkDlg2@@AAEXABV?$CRect3T@M@@@Z 004c8810 f   NCWorkDlg2.obj
 0001:000c78c0       ?OnInitDialog@CNCWorkDlg2@@MAEHXZ 004c88c0 f   NCWorkDlg2.obj
 0001:000c78e0       ?PreTranslateMessage@CNCWorkDlg2@@MAEHPAUtagMSG@@@Z 004c88e0 f   NCWorkDlg2.obj
 0001:000c7930       ?OnShow@CNCWorkDlg2@@IAEXXZ 004c8930 f   NCWorkDlg2.obj
 0001:000c7b90       ?OnHide@CNCWorkDlg2@@IAEXXZ 004c8b90 f   NCWorkDlg2.obj
 0001:000c7bc0       ?OnComment@CNCWorkDlg2@@IAEXXZ 004c8bc0 f   NCWorkDlg2.obj
 0001:000c7dd0       ?OnRecover@CNCWorkDlg2@@IAEXXZ 004c8dd0 f   NCWorkDlg2.obj
 0001:000c7e20       ?OnUserSwitchDocument@CNCWorkDlg2@@IAEJIJ@Z 004c8e20 f   NCWorkDlg2.obj
 0001:000c7ea0       ?GetMessageMap@COBSdlg@@MBEPBUAFX_MSGMAP@@XZ 004c8ea0 f   OBSdlg.obj
 0001:000c7eb0       ??_ECOBSdlg@@UAEPAXI@Z     004c8eb0 f i * CIL library *:* CIL module *
 0001:000c7eb0       ??_GCOBSdlg@@UAEPAXI@Z     004c8eb0 f i OBSdlg.obj
 0001:000c7f10       ?DoDataExchange@COBSdlg@@MAEXPAVCDataExchange@@@Z 004c8f10 f   OBSdlg.obj
 0001:000c7f70       ?GetOBSdata@COBSdlg@@AAEXXZ 004c8f70 f   OBSdlg.obj
 0001:000c80a0       ?SetOBSdata@COBSdlg@@AAEXXZ 004c90a0 f   OBSdlg.obj
 0001:000c8130       ?OnInitDialog@COBSdlg@@MAEHXZ 004c9130 f   OBSdlg.obj
 0001:000c81a0       ?OnObsWrite@COBSdlg@@IAEXXZ 004c91a0 f   OBSdlg.obj
 0001:000c8270       ?OnOK@COBSdlg@@MAEXXZ      004c9270 f   OBSdlg.obj
 0001:000c82c0       ?OnCancel@COBSdlg@@MAEXXZ  004c92c0 f   OBSdlg.obj
 0001:000c82e0       ?PostNcDestroy@COBSdlg@@MAEXXZ 004c92e0 f   OBSdlg.obj
 0001:000c8320       ?OnAllON@COBSdlg@@IAEXXZ   004c9320 f   OBSdlg.obj
 0001:000c8390       ?OnAllOFF@COBSdlg@@IAEXXZ  004c9390 f   OBSdlg.obj
 0001:000c8400       ?OnUserSwitchDocument@COBSdlg@@IAEJIJ@Z 004c9400 f   OBSdlg.obj
 0001:000c8470       ?OnUserSwitchMachine@COBSdlg@@IAEJIJ@Z 004c9470 f   OBSdlg.obj
 0001:000c8490       ??_GCDXFBlockData@@UAEPAXI@Z 004c9490 f i ReadDXF.obj
 0001:000c8490       ??_ECDXFBlockData@@UAEPAXI@Z 004c9490 f i * CIL library *:* CIL module *
 0001:000ca740       ?SetBlockData@@YAHXZ       004cb740 f   ReadDXF.obj
 0001:000cb450       ?RecursiveSpline@@YAMHHM@Z 004cc450 f   ReadDXF.obj
 0001:000cb940       ?ReadDXF@@YAHPAVCDXFDoc@@PBD@Z 004cc940 f   ReadDXF.obj
 0001:000cc060       ??_E?$CTypedPtrMap@VCMapStringToPtr@@V?$CStringT@DV?$StrTraitMFC_DLL@DV?$ChTraitsCRT@D@ATL@@@@@ATL@@PAVCDXFBlockData@@@@UAEPAXI@Z 004cd060 f i * CIL library *:* CIL module *
 0001:000cc060       ??_G?$CTypedPtrMap@VCMapStringToPtr@@V?$CStringT@DV?$StrTraitMFC_DLL@DV?$ChTraitsCRT@D@ATL@@@@@ATL@@PAVCDXFBlockData@@@@UAEPAXI@Z 004cd060 f i ReadDXF.obj
 0001:000cc0a0       ??$_Emplace_reallocate@ABUPOLYVERTEX@@@?$vector@UPOLYVERTEX@@V?$allocator@UPOLYVERTEX@@@std@@@std@@QAEPAUPOLYVERTEX@@QAU2@ABU2@@Z 004cd0a0 f i ReadDXF.obj
 0001:000cc2b0       ??_GCShapePropDlg@@UAEPAXI@Z 004cd2b0 f i ShapePropDlg.obj
 0001:000cc2b0       ??_ECShapePropDlg@@UAEPAXI@Z 004cd2b0 f i * CIL library *:* CIL module *
 0001:000cc330       ?DoDataExchange@CShapePropDlg@@MAEXPAVCDataExchange@@@Z 004cd330 f   ShapePropDlg.obj
 0001:000cc3c0       ?OnInitDialog@CShapePropDlg@@MAEHXZ 004cd3c0 f   ShapePropDlg.obj
 0001:000cc560       ?OnOK@CShapePropDlg@@MAEXXZ 004cd560 f   ShapePropDlg.obj
 0001:000cc700       ?GetMessageMap@CSplashWnd@@MBEPBUAFX_MSGMAP@@XZ 004cd700 f   SplashWnd.obj
 0001:000cc710       ??_GCSplashWnd@@UAEPAXI@Z  004cd710 f i SplashWnd.obj
 0001:000cc710       ??_ECSplashWnd@@UAEPAXI@Z  004cd710 f i * CIL library *:* CIL module *
 0001:000cc760       ?PreTranslateMessage@CSplashWnd@@UAEHPAUtagMSG@@@Z 004cd760 f   SplashWnd.obj
 0001:000cc7f0       ?PreCreateWindow@CSplashWnd@@MAEHAAUtagCREATESTRUCTA@@@Z 004cd7f0 f   SplashWnd.obj
 0001:000cc810       ?OnCreate@CSplashWnd@@IAEHPAUtagCREATESTRUCTA@@@Z 004cd810 f   SplashWnd.obj
 0001:000cc850       ?OnPaint@CSplashWnd@@IAEXXZ 004cd850 f   SplashWnd.obj
 0001:000cc940       ?OnTimer@CSplashWnd@@IAEXI@Z 004cd940 f   SplashWnd.obj
 0001:000cc980       ?PostNcDestroy@CSplashWnd@@MAEXXZ 004cd980 f   SplashWnd.obj
 0001:000cc990       ?Init@CComCriticalSection@ATL@@QAEJXZ 004cd990 f i stdafx.obj
 0001:000cc9c0       ?MySplitPath@@YAXPBDPADI1I1I1I@Z 004cd9c0 f   stdafx.obj
 0001:000ccb00       ?Path_Name_From_FullPath@@YAXPBDAAV?$CStringT@DV?$StrTraitMFC_DLL@DV?$ChTraitsCRT@D@ATL@@@@@ATL@@1H@Z 004cdb00 f   stdafx.obj
 0001:000ccbf0       ?RelativePath@@YA?AV?$CStringT@DV?$StrTraitMFC_DLL@DV?$ChTraitsCRT@D@ATL@@@@@ATL@@PBD0@Z 004cdbf0 f   stdafx.obj
 0001:000ccd60       ?GetScriptExec@@YA?AV?$CStringT@DV?$StrTraitMFC_DLL@DV?$ChTraitsCRT@D@ATL@@@@@ATL@@ABV12@@Z 004cdd60 f   stdafx.obj
 0001:000cce00       ?CreateObject@CTabViewBase@@SGPAVCObject@@XZ 004cde00 f   TabView.obj
 0001:000ccea0       ?_GetBaseClass@CTabViewBase@@KGPAUCRuntimeClass@@XZ 004cdea0 f   TabView.obj
 0001:000cceb0       ?GetThisMessageMap@CTabViewBase@@KGPBUAFX_MSGMAP@@XZ 004cdeb0 f   TabView.obj
 0001:000cceb0       ?GetMessageMap@CTabViewBase@@MBEPBUAFX_MSGMAP@@XZ 004cdeb0 f   TabView.obj
 0001:000ccec0       ?AddPage@CTabViewBase@@QAEHPBDPAUCRuntimeClass@@PAVCDocument@@PAVCFrameWnd@@@Z 004cdec0 f   TabView.obj
 0001:000ccf70       ?AddPage@CTabViewBase@@QAEHPBDPAVCWnd@@@Z 004cdf70 f   TabView.obj
 0001:000ccff0       ?ActivatePage@CTabViewBase@@QAEXH@Z 004cdff0 f   TabView.obj
 0001:000cd0a0       ?ResizePage@CTabViewBase@@IAEXPAVCWnd@@@Z 004ce0a0 f   TabView.obj
 0001:000cd120       ?OnSize@CTabViewBase@@IAEXIHH@Z 004ce120 f   TabView.obj
 0001:000cd200       ?OnDestroy@CTabViewBase@@IAEXXZ 004ce200 f   TabView.obj
 0001:000cd220       ?OnEraseBkgnd@CTabViewBase@@IAEHPAVCDC@@@Z 004ce220 f   TabView.obj
 0001:000cd280       ?OnSelChanging@CTabViewBase@@IAEXPAUtagNMHDR@@PAJ@Z 004ce280 f   TabView.obj
 0001:000cd2e0       ?OnSelChange@CTabViewBase@@IAEXPAUtagNMHDR@@PAJ@Z 004ce2e0 f   TabView.obj
 0001:000cd3c0       ?AutoWorkingSet_Thread@@YAIPAX@Z 004ce3c0 f   TH_AutoWorkingSet.obj
 0001:000ce250       ??1SEPARATEOUTLINETHREADPARAM@@QAE@XZ 004cf250 f i TH_AutoWorkingSet.obj
 0001:000ce250       ??1CHECKMAPTHREADPARAM@@QAE@XZ 004cf250 f i TH_ShapeSearch.obj
 0001:000d0320       ??$?4P6AXPBVCLayerData@@PAX@Z@?$function@$$A6AXPBVCLayerData@@PAX@Z@boost@@QAEAAV01@P6AXPBVCLayerData@@PAX@Z@Z 004d1320 f i TH_AutoWorkingSet.obj
 0001:000d0420       ??$?4P6APAVCDXFworkingOutline@@PAVCDXFshape@@H@Z@?$function@$$A6APAVCDXFworkingOutline@@PAVCDXFshape@@H@Z@boost@@QAEAAV01@P6APAVCDXFworkingOutline@@PAVCDXFshape@@H@Z@Z 004d1420 f i TH_AutoWorkingSet.obj
 0001:000d0ea0       ?invoke@?$void_function_invoker2@P6AXPBVCLayerData@@PAX@ZXPBV1@PAX@function@detail@boost@@SAXAATfunction_buffer@234@PBVCLayerData@@PAX@Z 004d1ea0 f i TH_AutoWorkingSet.obj
 0001:000d0ea0       ?invoke@?$function_invoker2@P6APAVCDXFdata@@HH@ZPAV1@HH@function@detail@boost@@SAPAVCDXFdata@@AATfunction_buffer@234@HH@Z 004d1ea0 f i TH_MakeNCD.obj
 0001:000d0ea0       ?invoke@?$function_invoker2@P6APAVCDXFworkingOutline@@PAVCDXFshape@@H@ZPAV1@PAV2@H@function@detail@boost@@SAPAVCDXFworkingOutline@@AATfunction_buffer@234@PAVCDXFshape@@H@Z 004d1ea0 f i TH_AutoWorkingSet.obj
 0001:000d0ea0       ?invoke@?$function_invoker2@P6AHABV?$basic_string@DU?$char_traits@D@std@@V?$allocator@D@2@@std@@PAVCNCblock@@@ZHABV12@PAV3@@function@detail@boost@@SAHAATfunction_buffer@234@ABV?$basic_string@DU?$char_traits@D@std@@V?$allocator@D@2@@std@@PAVCNCblock@@@Z 004d1ea0 f i TH_NCRead.obj
 0001:000d0ec0       ?manage@?$functor_manager@P6APAVCDXFworkingOutline@@PAVCDXFshape@@H@Z@function@detail@boost@@SAXABTfunction_buffer@234@AAT5234@W4functor_manager_operation_type@234@@Z 004d1ec0 f i TH_AutoWorkingSet.obj
 0001:000d0f40       ?manage@?$functor_manager@P6AXPBVCLayerData@@PAX@Z@function@detail@boost@@SAXABTfunction_buffer@234@AAT5234@W4functor_manager_operation_type@234@@Z 004d1f40 f i TH_AutoWorkingSet.obj
 0001:000d0fc0       ??$apply_visitor@U?$get_visitor@PAVCLayerData@@@variant@detail@boost@@@?$variant@KPAVCLayerData@@PAVCDXFshape@@PAVCDXFworking@@@boost@@QGAEPAPAVCLayerData@@AAU?$get_visitor@PAVCLayerData@@@variant@detail@1@@Z 004d1fc0 f i TH_AutoWorkingSet.obj
 0001:000d1700       ?CorrectCalc_Thread@@YAIPAX@Z 004d2700 f   TH_Correct.obj
 0001:000d3260       ?CuttimeCalc_Thread@CNCDoc@@CAIPAX@Z 004d4260 f   TH_Cuttime.obj
 0001:000d3780       ?invoke@?$function_invoker1@P6AMPBVCNCdata@@@ZMPBV1@@function@detail@boost@@SAMAATfunction_buffer@234@PBVCNCdata@@@Z 004d4780 f i TH_Cuttime.obj
 0001:000d3780       ?invoke@?$function_invoker1@P6AMABV?$basic_string@DU?$char_traits@D@std@@V?$allocator@D@2@@std@@@ZMABV12@@function@detail@boost@@SAMAATfunction_buffer@234@ABV?$basic_string@DU?$char_traits@D@std@@V?$allocator@D@2@@std@@@Z 004d4780 f i TH_NCRead.obj
 0001:000d37a0       ?manage@?$functor_manager@P6AMPBVCNCdata@@@Z@function@detail@boost@@SAXABTfunction_buffer@234@AAT5234@W4functor_manager_operation_type@234@@Z 004d47a0 f i TH_Cuttime.obj
 0001:000d38d0       ?MakeLathe_Thread@@YAIPAX@Z 004d48d0 f   TH_MakeLathe.obj
 0001:000d6ef0       ?ReplaceCustomCode@CMakeCustomCode_Lathe@@QAE?AV?$CStringT@DV?$StrTraitMFC_DLL@DV?$ChTraitsCRT@D@ATL@@@@@ATL@@ABV?$basic_string@DU?$char_traits@D@std@@V?$allocator@D@2@@std@@@Z 004d7ef0 f i TH_MakeLathe.obj
 0001:000d7380       ??1CMakeCustomCode_Mill@@QAE@XZ 004d8380 f i TH_MakeNCD.obj
 0001:000d7380       ??1CMakeCustomCode@@QAE@XZ 004d8380 f i TH_MakeLathe.obj
 0001:000d7380       ??1CMakeCustomCode_Wire@@QAE@XZ 004d8380 f i TH_MakeWire.obj
 0001:000d7380       ??1CMakeCustomCode_Lathe@@QAE@XZ 004d8380 f i TH_MakeLathe.obj
 0001:000d7750       ??1?$token_iterator@Ucustom_separator@@V?$_String_const_iterator@V?$_String_val@U?$_Simple_types@D@std@@@std@@@std@@V?$basic_string@DU?$char_traits@D@std@@V?$allocator@D@2@@3@@boost@@QAE@XZ 004d8750 f i TH_MakeLathe.obj
 0001:000d7750       ??1?$auto_any@V?$token_iterator@Ucustom_separator@@V?$_String_const_iterator@V?$_String_val@U?$_Simple_types@D@std@@@std@@@std@@V?$basic_string@DU?$char_traits@D@std@@V?$allocator@D@2@@3@@boost@@@foreach_detail_@boost@@QAE@XZ 004d8750 f i TH_MakeLathe.obj
 0001:000d79c0       ??$begin@V?$tokenizer@Ucustom_separator@@V?$_String_const_iterator@V?$_String_val@U?$_Simple_types@D@std@@@std@@@std@@V?$basic_string@DU?$char_traits@D@std@@V?$allocator@D@2@@3@@boost@@U?$bool_@$0A@@mpl@2@@foreach_detail_@boost@@YA?AU?$auto_any@V?$token_iterator@Ucustom_separator@@V?$_String_const_iterator@V?$_String_val@U?$_Simple_types@D@std@@@std@@@std@@V?$basic_string@DU?$char_traits@D@std@@V?$allocator@D@2@@3@@boost@@@01@ABUauto_any_base@01@PAU?$type2type@V?$tokenizer@Ucustom_separator@@V?$_String_const_iterator@V?$_String_val@U?$_Simple_types@D@std@@@std@@@std@@V?$basic_string@DU?$char_traits@D@std@@V?$allocator@D@2@@3@@boost@@U?$bool_@$0A@@mpl@2@@01@PAU?$bool_@$0A@@mpl@1@@Z 004d89c0 f i TH_MakeLathe.obj
 0001:000d7ac0       ??$end@V?$tokenizer@Ucustom_separator@@V?$_String_const_iterator@V?$_String_val@U?$_Simple_types@D@std@@@std@@@std@@V?$basic_string@DU?$char_traits@D@std@@V?$allocator@D@2@@3@@boost@@U?$bool_@$0A@@mpl@2@@foreach_detail_@boost@@YA?AU?$auto_any@V?$token_iterator@Ucustom_separator@@V?$_String_const_iterator@V?$_String_val@U?$_Simple_types@D@std@@@std@@@std@@V?$basic_string@DU?$char_traits@D@std@@V?$allocator@D@2@@3@@boost@@@01@ABUauto_any_base@01@PAU?$type2type@V?$tokenizer@Ucustom_separator@@V?$_String_const_iterator@V?$_String_val@U?$_Simple_types@D@std@@@std@@@std@@V?$basic_string@DU?$char_traits@D@std@@V?$allocator@D@2@@3@@boost@@U?$bool_@$0A@@mpl@2@@01@PAU?$bool_@$0A@@mpl@1@@Z 004d8ac0 f i TH_MakeLathe.obj
 0001:000d7b90       ??$?RV?$_String_const_iterator@V?$_String_val@U?$_Simple_types@D@std@@@std@@@std@@V?$basic_string@DU?$char_traits@D@std@@V?$allocator@D@2@@1@@custom_separator@@QAE_NAAV?$_String_const_iterator@V?$_String_val@U?$_Simple_types@D@std@@@std@@@std@@V12@AAV?$basic_string@DU?$char_traits@D@std@@V?$allocator@D@2@@2@@Z 004d8b90 f i TH_MakeLathe.obj
 0001:000d82c0       ?MakeNCD_Thread@@YAIPAX@Z  004d92c0 f   TH_MakeNCD.obj
 0001:000e2090       ?ReplaceCustomCode@CMakeCustomCode_Mill@@QAE?AV?$CStringT@DV?$StrTraitMFC_DLL@DV?$ChTraitsCRT@D@ATL@@@@@ATL@@ABV?$basic_string@DU?$char_traits@D@std@@V?$allocator@D@2@@std@@@Z 004e3090 f i TH_MakeNCD.obj
 0001:000e35c0       ?QSort@?$CSortArray@VCObArray@@PAVCDXFcircle@@@@AAEXP6AHPAVCDXFcircle@@0@ZHH@Z 004e45c0 f i TH_MakeNCD.obj
 0001:000e3680       ?QSort@?$CSortArray@VCObArray@@PAVCDXFchain@@@@AAEXP6AHPAVCDXFchain@@0@ZHH@Z 004e4680 f i TH_MakeNCD.obj
 0001:000e3740       ??$?4P6AXXZ@?$function@$$A6AXXZ@boost@@QAEAAV01@P6AXXZ@Z 004e4740 f i TH_MakeNCD.obj
 0001:000e3840       ??$?4P6AXPBVCDXFdata@@@Z@?$function@$$A6AXPBVCDXFdata@@@Z@boost@@QAEAAV01@P6AXPBVCDXFdata@@@Z@Z 004e4840 f i TH_MakeNCD.obj
 0001:000e3940       ?invoke@?$void_function_invoker1@P6AXPBVCDXFdata@@@ZXPBV1@@function@detail@boost@@SAXAATfunction_buffer@234@PBVCDXFdata@@@Z 004e4940 f i TH_MakeNCD.obj
 0001:000e3950       ?manage@?$functor_manager@P6AXPBVCDXFdata@@@Z@function@detail@boost@@SAXABTfunction_buffer@234@AAT5234@W4functor_manager_operation_type@234@@Z 004e4950 f i TH_MakeNCD.obj
 0001:000e39d0       ?manage@?$functor_manager@P6APAVCDXFdata@@HH@Z@function@detail@boost@@SAXABTfunction_buffer@234@AAT5234@W4functor_manager_operation_type@234@@Z 004e49d0 f i TH_MakeNCD.obj
 0001:000e3a50       ?invoke@?$void_function_invoker0@P6AXXZX@function@detail@boost@@SAXAATfunction_buffer@234@@Z 004e4a50 f i TH_MakeNCD.obj
 0001:000e3a50       ?invoke@?$function_invoker0@P6AHXZH@function@detail@boost@@SAHAATfunction_buffer@234@@Z 004e4a50 f i TH_NCRead.obj
 0001:000e3a60       ?manage@?$functor_manager@P6AXXZ@function@detail@boost@@SAXABTfunction_buffer@234@AAT5234@W4functor_manager_operation_type@234@@Z 004e4a60 f i TH_MakeNCD.obj
 0001:000e3b90       ?MakeWire_Thread@@YAIPAX@Z 004e4b90 f   TH_MakeWire.obj
 0001:000e6630       ?ReplaceCustomCode@CMakeCustomCode_Wire@@QAE?AV?$CStringT@DV?$StrTraitMFC_DLL@DV?$ChTraitsCRT@D@ATL@@@@@ATL@@ABV?$basic_string@DU?$char_traits@D@std@@V?$allocator@D@2@@std@@@Z 004e7630 f i TH_MakeWire.obj
 0001:000e7360       ?SetWorkCylinderComment@CNCDoc@@QAEXMMABV?$CPoint3T@M@@@Z 004e8360 f i TH_NCRead.obj
 0001:000e74a0       ?ChangeAbs@CYCLE_INTERPOLATE@@QAEXXZ 004e84a0 f i TH_NCRead.obj
 0001:000e7520       ?ChangeInc@CYCLE_INTERPOLATE@@QAEXXZ 004e8520 f i TH_NCRead.obj
 0001:000e76a0       ?NCDtoXYZ_Thread@@YAIPAX@Z 004e86a0 f   TH_NCRead.obj
 0001:000e9900       ??1?$rule@V?$_String_iterator@V?$_String_val@U?$_Simple_types@D@std@@@std@@@std@@U?$rule@V?$_String_iterator@V?$_String_val@U?$_Simple_types@D@std@@@std@@@std@@Uunused_type@spirit@boost@@U345@U345@U345@@qi@spirit@boost@@$$A6A?AV?$basic_string@DU?$char_traits@D@std@@V?$allocator@D@2@@2@XZUunused_type@56@U856@@qi@spirit@boost@@QAE@XZ 004ea900 f i TH_NCRead.obj
 0001:000e9900       ??1?$rule@V?$_String_iterator@V?$_String_val@U?$_Simple_types@D@std@@@std@@@std@@Uunused_type@spirit@boost@@U345@U345@U345@@qi@spirit@boost@@QAE@XZ 004ea900 f i TH_NCRead.obj
 0001:000e9900       ??1?$rule@V?$_String_iterator@V?$_String_val@U?$_Simple_types@D@std@@@std@@@std@@U?$rule@V?$_String_iterator@V?$_String_val@U?$_Simple_types@D@std@@@std@@@std@@Uunused_type@spirit@boost@@U345@U345@U345@@qi@spirit@boost@@Uunused_type@56@U756@U756@@qi@spirit@boost@@QAE@XZ 004ea900 f i TH_NCRead.obj
 0001:000e99c0       ??1?$CCommentParser@V?$_String_iterator@V?$_String_val@U?$_Simple_types@D@std@@@std@@@std@@U?$rule@V?$_String_iterator@V?$_String_val@U?$_Simple_types@D@std@@@std@@@std@@Uunused_type@spirit@boost@@U345@U345@U345@@qi@spirit@boost@@@@QAE@XZ 004ea9c0 f i TH_NCRead.obj
 0001:000e9c20       ??1?$grammar@V?$_String_iterator@V?$_String_val@U?$_Simple_types@D@std@@@std@@@std@@U?$rule@V?$_String_iterator@V?$_String_val@U?$_Simple_types@D@std@@@std@@@std@@Uunused_type@spirit@boost@@U345@U345@U345@@qi@spirit@boost@@Uunused_type@56@U756@U756@@qi@spirit@boost@@QAE@XZ 004eac20 f i TH_NCRead.obj
 0001:000e9c20       ??1?$grammar@V?$_String_iterator@V?$_String_val@U?$_Simple_types@D@std@@@std@@@std@@U?$rule@V?$_String_iterator@V?$_String_val@U?$_Simple_types@D@std@@@std@@@std@@Uunused_type@spirit@boost@@U345@U345@U345@@qi@spirit@boost@@$$A6A?AV?$basic_string@DU?$char_traits@D@std@@V?$allocator@D@2@@2@XZUunused_type@56@U856@@qi@spirit@boost@@QAE@XZ 004eac20 f i TH_NCRead.obj
 0001:000ecd90       ??0?$CCommentParser@V?$_String_iterator@V?$_String_val@U?$_Simple_types@D@std@@@std@@@std@@U?$rule@V?$_String_iterator@V?$_String_val@U?$_Simple_types@D@std@@@std@@@std@@Uunused_type@spirit@boost@@U345@U345@U345@@qi@spirit@boost@@@@QAE@XZ 004edd90 f i TH_NCRead.obj
 0001:000f03a0       ??0?$CGcodeParser@V?$_String_iterator@V?$_String_val@U?$_Simple_types@D@std@@@std@@@std@@U?$rule@V?$_String_iterator@V?$_String_val@U?$_Simple_types@D@std@@@std@@@std@@Uunused_type@spirit@boost@@U345@U345@U345@@qi@spirit@boost@@@@QAE@XZ 004f13a0 f i TH_NCRead.obj
 0001:000f0670       ??R?$function1@MABV?$basic_string@DU?$char_traits@D@std@@V?$allocator@D@2@@std@@@boost@@QBEMABV?$basic_string@DU?$char_traits@D@std@@V?$allocator@D@2@@std@@@Z 004f1670 f i TH_NCRead.obj
 0001:000f06e0       ??0?$rule@V?$_String_iterator@V?$_String_val@U?$_Simple_types@D@std@@@std@@@std@@U?$rule@V?$_String_iterator@V?$_String_val@U?$_Simple_types@D@std@@@std@@@std@@Uunused_type@spirit@boost@@U345@U345@U345@@qi@spirit@boost@@Uunused_type@56@U756@U756@@qi@spirit@boost@@QAE@ABV?$basic_string@DU?$char_traits@D@std@@V?$allocator@D@2@@std@@@Z 004f16e0 f i TH_NCRead.obj
 0001:000f0710       ??$?4P6AHXZ@?$function@$$A6AHXZ@boost@@QAEAAV01@P6AHXZ@Z 004f1710 f i TH_NCRead.obj
 0001:000f0810       ??$?4P6AMABV?$basic_string@DU?$char_traits@D@std@@V?$allocator@D@2@@std@@@Z@?$function@$$A6AMABV?$basic_string@DU?$char_traits@D@std@@V?$allocator@D@2@@std@@@Z@boost@@QAEAAV01@P6AMABV?$basic_string@DU?$char_traits@D@std@@V?$allocator@D@2@@std@@@Z@Z 004f1810 f i TH_NCRead.obj
 0001:000f0910       ??$?4P6A?AW4ENGCODEOBJ@@H@Z@?$function@$$A6A?AW4ENGCODEOBJ@@H@Z@boost@@QAEAAV01@P6A?AW4ENGCODEOBJ@@H@Z@Z 004f1910 f i TH_NCRead.obj
 0001:000f0a10       ??$?4P6AHH@Z@?$function@$$A6AHH@Z@boost@@QAEAAV01@P6AHH@Z@Z 004f1a10 f i TH_NCRead.obj
 0001:000f0b10       ??$?4P6AHABV?$basic_string@DU?$char_traits@D@std@@V?$allocator@D@2@@std@@PAVCNCblock@@@Z@?$function@$$A6AHABV?$basic_string@DU?$char_traits@D@std@@V?$allocator@D@2@@std@@PAVCNCblock@@@Z@boost@@QAEAAV01@P6AHABV?$basic_string@DU?$char_traits@D@std@@V?$allocator@D@2@@std@@PAVCNCblock@@@Z@Z 004f1b10 f i TH_NCRead.obj
 0001:000f0c10       ??@787eedc618213fde4d879bc70b58e12d@ 004f1c10 f i TH_NCRead.obj
 0001:000f0d90       ??@50bad1c6d93225c5d3babcce0945a289@ 004f1d90 f i TH_NCRead.obj
 0001:000f0e20       ??@f773b432d2bf672e2df79adb17f0d7f2@ 004f1e20 f i TH_NCRead.obj
 0001:000f0e40       ??@886d6a34108fa2bd35653aadc9d7a345@ 004f1e40 f i TH_NCRead.obj
 0001:000f0ee0       ??$?RPBD@?$terminal@U?$char_code@Ustring@tag@spirit@boost@@Ustandard_wide@char_encoding@34@@tag@spirit@boost@@@spirit@boost@@QBE?AU?$expr@Uterminal@tag@tagns_@proto@boost@@U?$term@U?$terminal_ex@U?$char_code@Ustring@tag@spirit@boost@@Ustandard_wide@char_encoding@34@@tag@spirit@boost@@U?$vector@PBD@fusion@4@@spirit@boost@@@argsns_@45@$0A@@exprns_@proto@2@ABQBDPAU?$bool_@$0A@@detail@12@@Z 004f1ee0 f i TH_NCRead.obj
 0001:000f0f00       ??$?4U?$expr@Ushift_right@tag@tagns_@proto@boost@@U?$list2@ABU?$expr@Usubscript@tag@tagns_@proto@boost@@U?$list2@ABU?$expr@Uterminal@tag@tagns_@proto@boost@@U?$term@U?$char_code@Uno_case@tag@spirit@boost@@Ustandard_wide@char_encoding@34@@tag@spirit@boost@@@argsns_@45@$0A@@exprns_@proto@boost@@ABU?$expr@Ubitwise_or@tag@tagns_@proto@boost@@U?$list2@ABU?$expr@Ubitwise_or@tag@tagns_@proto@boost@@U?$list2@ABU?$expr@Uterminal@tag@tagns_@proto@boost@@U?$term@U?$terminal_ex@U?$char_code@Ustring@tag@spirit@boost@@Ustandard_wide@char_encoding@34@@tag@spirit@boost@@U?$vector@PBD@fusion@4@@spirit@boost@@@argsns_@45@$0A@@exprns_@proto@boost@@U?$expr@Uterminal@tag@tagns_@proto@boost@@U?$term@AAPBD@argsns_@45@$0A@@234@@argsns_@45@$01@exprns_@proto@boost@@U?$expr@Uterminal@tag@tagns_@proto@boost@@U?$term@AAPBD@argsns_@45@$0A@@234@@argsns_@45@$01@234@@argsns_@45@$01@exprns_@proto@boost@@ABU?$expr@Uterminal@tag@tagns_@proto@boost@@U?$term@U?$terminal_ex@Ulit@tag@spirit@boost@@U?$vector@D@fusion@4@@spirit@boost@@@argsns_@45@$0A@@234@@argsns_@45@$01@exprns_@proto@boost@@@?$rule@V?$_String_iterator@V?$_String_val@U?$_Simple_types@D@std@@@std@@@std@@U?$rule@V?$_String_iterator@V?$_String_val@U?$_Simple_types@D@std@@@std@@@std@@Uunused_type@spirit@boost@@U345@U345@U345@@qi@spirit@boost@@Uunused_type@56@U756@U756@@qi@spirit@boost@@QAEAAU0123@ABU?$expr@Ushift_right@tag@tagns_@proto@boost@@U?$list2@ABU?$expr@Usubscript@tag@tagns_@proto@boost@@U?$list2@ABU?$expr@Uterminal@tag@tagns_@proto@boost@@U?$term@U?$char_code@Uno_case@tag@spirit@boost@@Ustandard_wide@char_encoding@34@@tag@spirit@boost@@@argsns_@45@$0A@@exprns_@proto@boost@@ABU?$expr@Ubitwise_or@tag@tagns_@proto@boost@@U?$list2@ABU?$expr@Ubitwise_or@tag@tagns_@proto@boost@@U?$list2@ABU?$expr@Uterminal@tag@tagns_@proto@boost@@U?$term@U?$terminal_ex@U?$char_code@Ustring@tag@spirit@boost@@Ustandard_wide@char_encoding@34@@tag@spirit@boost@@U?$vector@PBD@fusion@4@@spirit@boost@@@argsns_@45@$0A@@exprns_@proto@boost@@U?$expr@Uterminal@tag@tagns_@proto@boost@@U?$term@AAPBD@argsns_@45@$0A@@234@@argsns_@45@$01@exprns_@proto@boost@@U?$expr@Uterminal@tag@tagns_@proto@boost@@U?$term@AAPBD@argsns_@45@$0A@@234@@argsns_@45@$01@234@@argsns_@45@$01@exprns_@proto@boost@@ABU?$expr@Uterminal@tag@tagns_@proto@boost@@U?$term@U?$terminal_ex@Ulit@tag@spirit@boost@@U?$vector@D@fusion@4@@spirit@boost@@@argsns_@45@$0A@@234@@argsns_@45@$01@exprns_@proto@3@@Z 004f1f00 f i TH_NCRead.obj
 0001:000f1080       ??$?4U?$expr@Ushift_right@tag@tagns_@proto@boost@@U?$list2@ABU?$expr@Ubitwise_or@tag@tagns_@proto@boost@@U?$list2@ABU?$expr@Ubitwise_or@tag@tagns_@proto@boost@@U?$list2@AAU?$rule@V?$_String_iterator@V?$_String_val@U?$_Simple_types@D@std@@@std@@@std@@U?$rule@V?$_String_iterator@V?$_String_val@U?$_Simple_types@D@std@@@std@@@std@@Uunused_type@spirit@boost@@U345@U345@U345@@qi@spirit@boost@@Uunused_type@56@U756@U756@@qi@spirit@boost@@AAU1234@@argsns_@45@$01@exprns_@proto@boost@@AAU?$rule@V?$_String_iterator@V?$_String_val@U?$_Simple_types@D@std@@@std@@@std@@U?$rule@V?$_String_iterator@V?$_String_val@U?$_Simple_types@D@std@@@std@@@std@@Uunused_type@spirit@boost@@U345@U345@U345@@qi@spirit@boost@@Uunused_type@56@U756@U756@@qi@spirit@4@@argsns_@45@$01@exprns_@proto@boost@@AAU?$rule@V?$_String_iterator@V?$_String_val@U?$_Simple_types@D@std@@@std@@@std@@U?$rule@V?$_String_iterator@V?$_String_val@U?$_Simple_types@D@std@@@std@@@std@@Uunused_type@spirit@boost@@U345@U345@U345@@qi@spirit@boost@@Uunused_type@56@U756@U756@@qi@spirit@4@@argsns_@45@$01@exprns_@proto@boost@@@?$rule@V?$_String_iterator@V?$_String_val@U?$_Simple_types@D@std@@@std@@@std@@U?$rule@V?$_String_iterator@V?$_String_val@U?$_Simple_types@D@std@@@std@@@std@@Uunused_type@spirit@boost@@U345@U345@U345@@qi@spirit@boost@@Uunused_type@56@U756@U756@@qi@spirit@boost@@QAEAAU0123@ABU?$expr@Ushift_right@tag@tagns_@proto@boost@@U?$list2@ABU?$expr@Ubitwise_or@tag@tagns_@proto@boost@@U?$list2@ABU?$expr@Ubitwise_or@tag@tagns_@proto@boost@@U?$list2@AAU?$rule@V?$_String_iterator@V?$_String_val@U?$_Simple_types@D@std@@@std@@@std@@U?$rule@V?$_String_iterator@V?$_String_val@U?$_Simple_types@D@std@@@std@@@std@@Uunused_type@spirit@boost@@U345@U345@U345@@qi@spirit@boost@@Uunused_type@56@U756@U756@@qi@spirit@boost@@AAU1234@@argsns_@45@$01@exprns_@proto@boost@@AAU?$rule@V?$_String_iterator@V?$_String_val@U?$_Simple_types@D@std@@@std@@@std@@U?$rule@V?$_String_iterator@V?$_String_val@U?$_Simple_types@D@std@@@std@@@std@@Uunused_type@spirit@boost@@U345@U345@U345@@qi@spirit@boost@@Uunused_type@56@U756@U756@@qi@spirit@4@@argsns_@45@$01@exprns_@proto@boost@@AAU?$rule@V?$_String_iterator@V?$_String_val@U?$_Simple_types@D@std@@@std@@@std@@U?$rule@V?$_String_iterator@V?$_String_val@U?$_Simple_types@D@std@@@std@@@std@@Uunused_type@spirit@boost@@U345@U345@U345@@qi@spirit@boost@@Uunused_type@56@U756@U756@@qi@spirit@4@@argsns_@45@$01@exprns_@proto@3@@Z 004f2080 f i TH_NCRead.obj
 0001:000f10a0       ??$?4U?$expr@Usubscript@tag@tagns_@proto@boost@@U?$list2@ABU?$terminal@Ufloat_@tag@spirit@boost@@@spirit@boost@@U?$expr@Uterminal@tag@tagns_@proto@boost@@U?$term@ABU_SetEndmill@?$CCommentParser@V?$_String_iterator@V?$_String_val@U?$_Simple_types@D@std@@@std@@@std@@U?$rule@V?$_String_iterator@V?$_String_val@U?$_Simple_types@D@std@@@std@@@std@@Uunused_type@spirit@boost@@U345@U345@U345@@qi@spirit@boost@@@@@argsns_@45@$0A@@exprns_@proto@3@@argsns_@45@$01@exprns_@proto@boost@@@?$rule@V?$_String_iterator@V?$_String_val@U?$_Simple_types@D@std@@@std@@@std@@U?$rule@V?$_String_iterator@V?$_String_val@U?$_Simple_types@D@std@@@std@@@std@@Uunused_type@spirit@boost@@U345@U345@U345@@qi@spirit@boost@@Uunused_type@56@U756@U756@@qi@spirit@boost@@QAEAAU0123@ABU?$expr@Usubscript@tag@tagns_@proto@boost@@U?$list2@ABU?$terminal@Ufloat_@tag@spirit@boost@@@spirit@boost@@U?$expr@Uterminal@tag@tagns_@proto@boost@@U?$term@ABU_SetEndmill@?$CCommentParser@V?$_String_iterator@V?$_String_val@U?$_Simple_types@D@std@@@std@@@std@@U?$rule@V?$_String_iterator@V?$_String_val@U?$_Simple_types@D@std@@@std@@@std@@Uunused_type@spirit@boost@@U345@U345@U345@@qi@spirit@boost@@@@@argsns_@45@$0A@@exprns_@proto@3@@argsns_@45@$01@exprns_@proto@3@@Z 004f20a0 f i TH_NCRead.obj
 0001:000f1160       ??$?RD@?$terminal@U?$char_code@Uchar_@tag@spirit@boost@@Ustandard_wide@char_encoding@34@@tag@spirit@boost@@@spirit@boost@@QBE?AU?$expr@Uterminal@tag@tagns_@proto@boost@@U?$term@U?$terminal_ex@U?$char_code@Uchar_@tag@spirit@boost@@Ustandard_wide@char_encoding@34@@tag@spirit@boost@@U?$vector@D@fusion@4@@spirit@boost@@@argsns_@45@$0A@@exprns_@proto@2@ABDPAU?$bool_@$0A@@detail@12@@Z 004f2160 f i TH_NCRead.obj
 0001:000f1180       ??$?4U?$expr@Ushift_right@tag@tagns_@proto@boost@@U?$list2@ABU?$expr@Ubitwise_or@tag@tagns_@proto@boost@@U?$list2@ABU?$expr@Uterminal@tag@tagns_@proto@boost@@U?$term@U?$terminal_ex@U?$char_code@Uchar_@tag@spirit@boost@@Ustandard_wide@char_encoding@34@@tag@spirit@boost@@U?$vector@D@fusion@4@@spirit@boost@@@argsns_@45@$0A@@exprns_@proto@boost@@U?$expr@Uterminal@tag@tagns_@proto@boost@@U?$term@ABD@argsns_@45@$0A@@234@@argsns_@45@$01@exprns_@proto@boost@@ABU?$expr@Usubscript@tag@tagns_@proto@boost@@U?$list2@ABU?$terminal@Ufloat_@tag@spirit@boost@@@spirit@boost@@U?$expr@Uterminal@tag@tagns_@proto@boost@@U?$term@ABU_SetBallMill@?$CCommentParser@V?$_String_iterator@V?$_String_val@U?$_Simple_types@D@std@@@std@@@std@@U?$rule@V?$_String_iterator@V?$_String_val@U?$_Simple_types@D@std@@@std@@@std@@Uunused_type@spirit@boost@@U345@U345@U345@@qi@spirit@boost@@@@@argsns_@45@$0A@@exprns_@proto@3@@argsns_@45@$01@234@@argsns_@45@$01@exprns_@proto@boost@@@?$rule@V?$_String_iterator@V?$_String_val@U?$_Simple_types@D@std@@@std@@@std@@U?$rule@V?$_String_iterator@V?$_String_val@U?$_Simple_types@D@std@@@std@@@std@@Uunused_type@spirit@boost@@U345@U345@U345@@qi@spirit@boost@@Uunused_type@56@U756@U756@@qi@spirit@boost@@QAEAAU0123@ABU?$expr@Ushift_right@tag@tagns_@proto@boost@@U?$list2@ABU?$expr@Ubitwise_or@tag@tagns_@proto@boost@@U?$list2@ABU?$expr@Uterminal@tag@tagns_@proto@boost@@U?$term@U?$terminal_ex@U?$char_code@Uchar_@tag@spirit@boost@@Ustandard_wide@char_encoding@34@@tag@spirit@boost@@U?$vector@D@fusion@4@@spirit@boost@@@argsns_@45@$0A@@exprns_@proto@boost@@U?$expr@Uterminal@tag@tagns_@proto@boost@@U?$term@ABD@argsns_@45@$0A@@234@@argsns_@45@$01@exprns_@proto@boost@@ABU?$expr@Usubscript@tag@tagns_@proto@boost@@U?$list2@ABU?$terminal@Ufloat_@tag@spirit@boost@@@spirit@boost@@U?$expr@Uterminal@tag@tagns_@proto@boost@@U?$term@ABU_SetBallMill@?$CCommentParser@V?$_String_iterator@V?$_String_val@U?$_Simple_types@D@std@@@std@@@std@@U?$rule@V?$_String_iterator@V?$_String_val@U?$_Simple_types@D@std@@@std@@@std@@Uunused_type@spirit@boost@@U345@U345@U345@@qi@spirit@boost@@@@@argsns_@45@$0A@@exprns_@proto@3@@argsns_@45@$01@234@@argsns_@45@$01@exprns_@proto@3@@Z 004f2180 f i TH_NCRead.obj
 0001:000f11a0       ??$?4U?$expr@Ushift_right@tag@tagns_@proto@boost@@U?$list2@ABU?$expr@Ubitwise_or@tag@tagns_@proto@boost@@U?$list2@ABU?$expr@Uterminal@tag@tagns_@proto@boost@@U?$term@U?$terminal_ex@U?$char_code@Uchar_@tag@spirit@boost@@Ustandard_wide@char_encoding@34@@tag@spirit@boost@@U?$vector@D@fusion@4@@spirit@boost@@@argsns_@45@$0A@@exprns_@proto@boost@@U?$expr@Uterminal@tag@tagns_@proto@boost@@U?$term@ABD@argsns_@45@$0A@@234@@argsns_@45@$01@exprns_@proto@boost@@ABU?$expr@Usubscript@tag@tagns_@proto@boost@@U?$list2@ABU?$terminal@Ufloat_@tag@spirit@boost@@@spirit@boost@@U?$expr@Uterminal@tag@tagns_@proto@boost@@U?$term@ABU_SetChamferMill@?$CCommentParser@V?$_String_iterator@V?$_String_val@U?$_Simple_types@D@std@@@std@@@std@@U?$rule@V?$_String_iterator@V?$_String_val@U?$_Simple_types@D@std@@@std@@@std@@Uunused_type@spirit@boost@@U345@U345@U345@@qi@spirit@boost@@@@@argsns_@45@$0A@@exprns_@proto@3@@argsns_@45@$01@234@@argsns_@45@$01@exprns_@proto@boost@@@?$rule@V?$_String_iterator@V?$_String_val@U?$_Simple_types@D@std@@@std@@@std@@U?$rule@V?$_String_iterator@V?$_String_val@U?$_Simple_types@D@std@@@std@@@std@@Uunused_type@spirit@boost@@U345@U345@U345@@qi@spirit@boost@@Uunused_type@56@U756@U756@@qi@spirit@boost@@QAEAAU0123@ABU?$expr@Ushift_right@tag@tagns_@proto@boost@@U?$list2@ABU?$expr@Ubitwise_or@tag@tagns_@proto@boost@@U?$list2@ABU?$expr@Uterminal@tag@tagns_@proto@boost@@U?$term@U?$terminal_ex@U?$char_code@Uchar_@tag@spirit@boost@@Ustandard_wide@char_encoding@34@@tag@spirit@boost@@U?$vector@D@fusion@4@@spirit@boost@@@argsns_@45@$0A@@exprns_@proto@boost@@U?$expr@Uterminal@tag@tagns_@proto@boost@@U?$term@ABD@argsns_@45@$0A@@234@@argsns_@45@$01@exprns_@proto@boost@@ABU?$expr@Usubscript@tag@tagns_@proto@boost@@U?$list2@ABU?$terminal@Ufloat_@tag@spirit@boost@@@spirit@boost@@U?$expr@Uterminal@tag@tagns_@proto@boost@@U?$term@ABU_SetChamferMill@?$CCommentParser@V?$_String_iterator@V?$_String_val@U?$_Simple_types@D@std@@@std@@@std@@U?$rule@V?$_String_iterator@V?$_String_val@U?$_Simple_types@D@std@@@std@@@std@@Uunused_type@spirit@boost@@U345@U345@U345@@qi@spirit@boost@@@@@argsns_@45@$0A@@exprns_@proto@3@@argsns_@45@$01@234@@argsns_@45@$01@exprns_@proto@3@@Z 004f21a0 f i TH_NCRead.obj
 0001:000f11c0       ??$?4U?$expr@Ushift_right@tag@tagns_@proto@boost@@U?$list2@ABU?$expr@Usubscript@tag@tagns_@proto@boost@@U?$list2@ABU?$expr@Uterminal@tag@tagns_@proto@boost@@U?$term@U?$char_code@Uno_case@tag@spirit@boost@@Ustandard_wide@char_encoding@34@@tag@spirit@boost@@@argsns_@45@$0A@@exprns_@proto@boost@@U?$expr@Uterminal@tag@tagns_@proto@boost@@U?$term@AAPBD@argsns_@45@$0A@@234@@argsns_@45@$01@exprns_@proto@boost@@ABU?$expr@Uterminal@tag@tagns_@proto@boost@@U?$term@U?$terminal_ex@Ulit@tag@spirit@boost@@U?$vector@D@fusion@4@@spirit@boost@@@argsns_@45@$0A@@234@@argsns_@45@$01@exprns_@proto@boost@@@?$rule@V?$_String_iterator@V?$_String_val@U?$_Simple_types@D@std@@@std@@@std@@U?$rule@V?$_String_iterator@V?$_String_val@U?$_Simple_types@D@std@@@std@@@std@@Uunused_type@spirit@boost@@U345@U345@U345@@qi@spirit@boost@@Uunused_type@56@U756@U756@@qi@spirit@boost@@QAEAAU0123@ABU?$expr@Ushift_right@tag@tagns_@proto@boost@@U?$list2@ABU?$expr@Usubscript@tag@tagns_@proto@boost@@U?$list2@ABU?$expr@Uterminal@tag@tagns_@proto@boost@@U?$term@U?$char_code@Uno_case@tag@spirit@boost@@Ustandard_wide@char_encoding@34@@tag@spirit@boost@@@argsns_@45@$0A@@exprns_@proto@boost@@U?$expr@Uterminal@tag@tagns_@proto@boost@@U?$term@AAPBD@argsns_@45@$0A@@234@@argsns_@45@$01@exprns_@proto@boost@@ABU?$expr@Uterminal@tag@tagns_@proto@boost@@U?$term@U?$terminal_ex@Ulit@tag@spirit@boost@@U?$vector@D@fusion@4@@spirit@boost@@@argsns_@45@$0A@@234@@argsns_@45@$01@exprns_@proto@3@@Z 004f21c0 f i TH_NCRead.obj
 0001:000f11e0       ??$?4U?$expr@Ushift_right@tag@tagns_@proto@boost@@U?$list2@ABU?$expr@Usubscript@tag@tagns_@proto@boost@@U?$list2@ABU?$terminal@Ufloat_@tag@spirit@boost@@@spirit@boost@@U?$expr@Uterminal@tag@tagns_@proto@boost@@U?$term@ABU_SetDrill@?$CCommentParser@V?$_String_iterator@V?$_String_val@U?$_Simple_types@D@std@@@std@@@std@@U?$rule@V?$_String_iterator@V?$_String_val@U?$_Simple_types@D@std@@@std@@@std@@Uunused_type@spirit@boost@@U345@U345@U345@@qi@spirit@boost@@@@@argsns_@45@$0A@@exprns_@proto@3@@argsns_@45@$01@exprns_@proto@boost@@AAU?$rule@V?$_String_iterator@V?$_String_val@U?$_Simple_types@D@std@@@std@@@std@@U?$rule@V?$_String_iterator@V?$_String_val@U?$_Simple_types@D@std@@@std@@@std@@Uunused_type@spirit@boost@@U345@U345@U345@@qi@spirit@boost@@Uunused_type@56@U756@U756@@qi@spirit@4@@argsns_@45@$01@exprns_@proto@boost@@@?$rule@V?$_String_iterator@V?$_String_val@U?$_Simple_types@D@std@@@std@@@std@@U?$rule@V?$_String_iterator@V?$_String_val@U?$_Simple_types@D@std@@@std@@@std@@Uunused_type@spirit@boost@@U345@U345@U345@@qi@spirit@boost@@Uunused_type@56@U756@U756@@qi@spirit@boost@@QAEAAU0123@ABU?$expr@Ushift_right@tag@tagns_@proto@boost@@U?$list2@ABU?$expr@Usubscript@tag@tagns_@proto@boost@@U?$list2@ABU?$terminal@Ufloat_@tag@spirit@boost@@@spirit@boost@@U?$expr@Uterminal@tag@tagns_@proto@boost@@U?$term@ABU_SetDrill@?$CCommentParser@V?$_String_iterator@V?$_String_val@U?$_Simple_types@D@std@@@std@@@std@@U?$rule@V?$_String_iterator@V?$_String_val@U?$_Simple_types@D@std@@@std@@@std@@Uunused_type@spirit@boost@@U345@U345@U345@@qi@spirit@boost@@@@@argsns_@45@$0A@@exprns_@proto@3@@argsns_@45@$01@exprns_@proto@boost@@AAU?$rule@V?$_String_iterator@V?$_String_val@U?$_Simple_types@D@std@@@std@@@std@@U?$rule@V?$_String_iterator@V?$_String_val@U?$_Simple_types@D@std@@@std@@@std@@Uunused_type@spirit@boost@@U345@U345@U345@@qi@spirit@boost@@Uunused_type@56@U756@U756@@qi@spirit@4@@argsns_@45@$01@exprns_@proto@3@@Z 004f21e0 f i TH_NCRead.obj
 0001:000f12b0       ??$?4U?$expr@Ushift_right@tag@tagns_@proto@boost@@U?$list2@ABU?$expr@Ubitwise_or@tag@tagns_@proto@boost@@U?$list2@ABU?$expr@Ubitwise_or@tag@tagns_@proto@boost@@U?$list2@ABU?$expr@Ubitwise_or@tag@tagns_@proto@boost@@U?$list2@AAU?$rule@V?$_String_iterator@V?$_String_val@U?$_Simple_types@D@std@@@std@@@std@@U?$rule@V?$_String_iterator@V?$_String_val@U?$_Simple_types@D@std@@@std@@@std@@Uunused_type@spirit@boost@@U345@U345@U345@@qi@spirit@boost@@Uunused_type@56@U756@U756@@qi@spirit@boost@@AAU1234@@argsns_@45@$01@exprns_@proto@boost@@AAU?$rule@V?$_String_iterator@V?$_String_val@U?$_Simple_types@D@std@@@std@@@std@@U?$rule@V?$_String_iterator@V?$_String_val@U?$_Simple_types@D@std@@@std@@@std@@Uunused_type@spirit@boost@@U345@U345@U345@@qi@spirit@boost@@Uunused_type@56@U756@U756@@qi@spirit@4@@argsns_@45@$01@exprns_@proto@boost@@AAU?$rule@V?$_String_iterator@V?$_String_val@U?$_Simple_types@D@std@@@std@@@std@@U?$rule@V?$_String_iterator@V?$_String_val@U?$_Simple_types@D@std@@@std@@@std@@Uunused_type@spirit@boost@@U345@U345@U345@@qi@spirit@boost@@Uunused_type@56@U756@U756@@qi@spirit@4@@argsns_@45@$01@exprns_@proto@boost@@AAU?$rule@V?$_String_iterator@V?$_String_val@U?$_Simple_types@D@std@@@std@@@std@@U?$rule@V?$_String_iterator@V?$_String_val@U?$_Simple_types@D@std@@@std@@@std@@Uunused_type@spirit@boost@@U345@U345@U345@@qi@spirit@boost@@Uunused_type@56@U756@U756@@qi@spirit@4@@argsns_@45@$01@exprns_@proto@boost@@@?$rule@V?$_String_iterator@V?$_String_val@U?$_Simple_types@D@std@@@std@@@std@@U?$rule@V?$_String_iterator@V?$_String_val@U?$_Simple_types@D@std@@@std@@@std@@Uunused_type@spirit@boost@@U345@U345@U345@@qi@spirit@boost@@Uunused_type@56@U756@U756@@qi@spirit@boost@@QAEAAU0123@ABU?$expr@Ushift_right@tag@tagns_@proto@boost@@U?$list2@ABU?$expr@Ubitwise_or@tag@tagns_@proto@boost@@U?$list2@ABU?$expr@Ubitwise_or@tag@tagns_@proto@boost@@U?$list2@ABU?$expr@Ubitwise_or@tag@tagns_@proto@boost@@U?$list2@AAU?$rule@V?$_String_iterator@V?$_String_val@U?$_Simple_types@D@std@@@std@@@std@@U?$rule@V?$_String_iterator@V?$_String_val@U?$_Simple_types@D@std@@@std@@@std@@Uunused_type@spirit@boost@@U345@U345@U345@@qi@spirit@boost@@Uunused_type@56@U756@U756@@qi@spirit@boost@@AAU1234@@argsns_@45@$01@exprns_@proto@boost@@AAU?$rule@V?$_String_iterator@V?$_String_val@U?$_Simple_types@D@std@@@std@@@std@@U?$rule@V?$_String_iterator@V?$_String_val@U?$_Simple_types@D@std@@@std@@@std@@Uunused_type@spirit@boost@@U345@U345@U345@@qi@spirit@boost@@Uunused_type@56@U756@U756@@qi@spirit@4@@argsns_@45@$01@exprns_@proto@boost@@AAU?$rule@V?$_String_iterator@V?$_String_val@U?$_Simple_types@D@std@@@std@@@std@@U?$rule@V?$_String_iterator@V?$_String_val@U?$_Simple_types@D@std@@@std@@@std@@Uunused_type@spirit@boost@@U345@U345@U345@@qi@spirit@boost@@Uunused_type@56@U756@U756@@qi@spirit@4@@argsns_@45@$01@exprns_@proto@boost@@AAU?$rule@V?$_String_iterator@V?$_String_val@U?$_Simple_types@D@std@@@std@@@std@@U?$rule@V?$_String_iterator@V?$_String_val@U?$_Simple_types@D@std@@@std@@@std@@Uunused_type@spirit@boost@@U345@U345@U345@@qi@spirit@boost@@Uunused_type@56@U756@U756@@qi@spirit@4@@argsns_@45@$01@exprns_@proto@3@@Z 004f22b0 f i TH_NCRead.obj
 0001:000f13e0       ??$?4U?$expr@Usubscript@tag@tagns_@proto@boost@@U?$list2@ABU?$terminal@Ufloat_@tag@spirit@boost@@@spirit@boost@@U?$expr@Uterminal@tag@tagns_@proto@boost@@U?$term@ABU_SetGrooving@?$CCommentParser@V?$_String_iterator@V?$_String_val@U?$_Simple_types@D@std@@@std@@@std@@U?$rule@V?$_String_iterator@V?$_String_val@U?$_Simple_types@D@std@@@std@@@std@@Uunused_type@spirit@boost@@U345@U345@U345@@qi@spirit@boost@@@@@argsns_@45@$0A@@exprns_@proto@3@@argsns_@45@$01@exprns_@proto@boost@@@?$rule@V?$_String_iterator@V?$_String_val@U?$_Simple_types@D@std@@@std@@@std@@U?$rule@V?$_String_iterator@V?$_String_val@U?$_Simple_types@D@std@@@std@@@std@@Uunused_type@spirit@boost@@U345@U345@U345@@qi@spirit@boost@@Uunused_type@56@U756@U756@@qi@spirit@boost@@QAEAAU0123@ABU?$expr@Usubscript@tag@tagns_@proto@boost@@U?$list2@ABU?$terminal@Ufloat_@tag@spirit@boost@@@spirit@boost@@U?$expr@Uterminal@tag@tagns_@proto@boost@@U?$term@ABU_SetGrooving@?$CCommentParser@V?$_String_iterator@V?$_String_val@U?$_Simple_types@D@std@@@std@@@std@@U?$rule@V?$_String_iterator@V?$_String_val@U?$_Simple_types@D@std@@@std@@@std@@Uunused_type@spirit@boost@@U345@U345@U345@@qi@spirit@boost@@@@@argsns_@45@$0A@@exprns_@proto@3@@argsns_@45@$01@exprns_@proto@3@@Z 004f23e0 f i TH_NCRead.obj
 0001:000f14a0       ??$?4U?$expr@Ushift_right@tag@tagns_@proto@boost@@U?$list2@ABU?$expr@Ubitwise_or@tag@tagns_@proto@boost@@U?$list2@ABU?$expr@Uterminal@tag@tagns_@proto@boost@@U?$term@U?$terminal_ex@U?$char_code@Uchar_@tag@spirit@boost@@Ustandard_wide@char_encoding@34@@tag@spirit@boost@@U?$vector@D@fusion@4@@spirit@boost@@@argsns_@45@$0A@@exprns_@proto@boost@@U?$expr@Uterminal@tag@tagns_@proto@boost@@U?$term@ABD@argsns_@45@$0A@@234@@argsns_@45@$01@exprns_@proto@boost@@ABU?$expr@Usubscript@tag@tagns_@proto@boost@@U?$list2@ABU?$terminal@Ufloat_@tag@spirit@boost@@@spirit@boost@@U?$expr@Uterminal@tag@tagns_@proto@boost@@U?$term@ABU_SetGrooving@?$CCommentParser@V?$_String_iterator@V?$_String_val@U?$_Simple_types@D@std@@@std@@@std@@U?$rule@V?$_String_iterator@V?$_String_val@U?$_Simple_types@D@std@@@std@@@std@@Uunused_type@spirit@boost@@U345@U345@U345@@qi@spirit@boost@@@@@argsns_@45@$0A@@exprns_@proto@3@@argsns_@45@$01@234@@argsns_@45@$01@exprns_@proto@boost@@@?$rule@V?$_String_iterator@V?$_String_val@U?$_Simple_types@D@std@@@std@@@std@@U?$rule@V?$_String_iterator@V?$_String_val@U?$_Simple_types@D@std@@@std@@@std@@Uunused_type@spirit@boost@@U345@U345@U345@@qi@spirit@boost@@Uunused_type@56@U756@U756@@qi@spirit@boost@@QAEAAU0123@ABU?$expr@Ushift_right@tag@tagns_@proto@boost@@U?$list2@ABU?$expr@Ubitwise_or@tag@tagns_@proto@boost@@U?$list2@ABU?$expr@Uterminal@tag@tagns_@proto@boost@@U?$term@U?$terminal_ex@U?$char_code@Uchar_@tag@spirit@boost@@Ustandard_wide@char_encoding@34@@tag@spirit@boost@@U?$vector@D@fusion@4@@spirit@boost@@@argsns_@45@$0A@@exprns_@proto@boost@@U?$expr@Uterminal@tag@tagns_@proto@boost@@U?$term@ABD@argsns_@45@$0A@@234@@argsns_@45@$01@exprns_@proto@boost@@ABU?$expr@Usubscript@tag@tagns_@proto@boost@@U?$list2@ABU?$terminal@Ufloat_@tag@spirit@boost@@@spirit@boost@@U?$expr@Uterminal@tag@tagns_@proto@boost@@U?$term@ABU_SetGrooving@?$CCommentParser@V?$_String_iterator@V?$_String_val@U?$_Simple_types@D@std@@@std@@@std@@U?$rule@V?$_String_iterator@V?$_String_val@U?$_Simple_types@D@std@@@std@@@std@@Uunused_type@spirit@boost@@U345@U345@U345@@qi@spirit@boost@@@@@argsns_@45@$0A@@exprns_@proto@3@@argsns_@45@$01@234@@argsns_@45@$01@exprns_@proto@3@@Z 004f24a0 f i TH_NCRead.obj
 0001:000f14c0       ??$?4U?$expr@Ushift_right@tag@tagns_@proto@boost@@U?$list2@ABU?$expr@Ubitwise_or@tag@tagns_@proto@boost@@U?$list2@ABU?$expr@Uterminal@tag@tagns_@proto@boost@@U?$term@U?$terminal_ex@U?$char_code@Uchar_@tag@spirit@boost@@Ustandard_wide@char_encoding@34@@tag@spirit@boost@@U?$vector@D@fusion@4@@spirit@boost@@@argsns_@45@$0A@@exprns_@proto@boost@@U?$expr@Uterminal@tag@tagns_@proto@boost@@U?$term@ABD@argsns_@45@$0A@@234@@argsns_@45@$01@exprns_@proto@boost@@ABU?$expr@Usubscript@tag@tagns_@proto@boost@@U?$list2@ABU?$terminal@Ufloat_@tag@spirit@boost@@@spirit@boost@@U?$expr@Uterminal@tag@tagns_@proto@boost@@U?$term@ABU_SetGrooving_Right@?$CCommentParser@V?$_String_iterator@V?$_String_val@U?$_Simple_types@D@std@@@std@@@std@@U?$rule@V?$_String_iterator@V?$_String_val@U?$_Simple_types@D@std@@@std@@@std@@Uunused_type@spirit@boost@@U345@U345@U345@@qi@spirit@boost@@@@@argsns_@45@$0A@@exprns_@proto@3@@argsns_@45@$01@234@@argsns_@45@$01@exprns_@proto@boost@@@?$rule@V?$_String_iterator@V?$_String_val@U?$_Simple_types@D@std@@@std@@@std@@U?$rule@V?$_String_iterator@V?$_String_val@U?$_Simple_types@D@std@@@std@@@std@@Uunused_type@spirit@boost@@U345@U345@U345@@qi@spirit@boost@@Uunused_type@56@U756@U756@@qi@spirit@boost@@QAEAAU0123@ABU?$expr@Ushift_right@tag@tagns_@proto@boost@@U?$list2@ABU?$expr@Ubitwise_or@tag@tagns_@proto@boost@@U?$list2@ABU?$expr@Uterminal@tag@tagns_@proto@boost@@U?$term@U?$terminal_ex@U?$char_code@Uchar_@tag@spirit@boost@@Ustandard_wide@char_encoding@34@@tag@spirit@boost@@U?$vector@D@fusion@4@@spirit@boost@@@argsns_@45@$0A@@exprns_@proto@boost@@U?$expr@Uterminal@tag@tagns_@proto@boost@@U?$term@ABD@argsns_@45@$0A@@234@@argsns_@45@$01@exprns_@proto@boost@@ABU?$expr@Usubscript@tag@tagns_@proto@boost@@U?$list2@ABU?$terminal@Ufloat_@tag@spirit@boost@@@spirit@boost@@U?$expr@Uterminal@tag@tagns_@proto@boost@@U?$term@ABU_SetGrooving_Right@?$CCommentParser@V?$_String_iterator@V?$_String_val@U?$_Simple_types@D@std@@@std@@@std@@U?$rule@V?$_String_iterator@V?$_String_val@U?$_Simple_types@D@std@@@std@@@std@@Uunused_type@spirit@boost@@U345@U345@U345@@qi@spirit@boost@@@@@argsns_@45@$0A@@exprns_@proto@3@@argsns_@45@$01@234@@argsns_@45@$01@exprns_@proto@3@@Z 004f24c0 f i TH_NCRead.obj
 0001:000f14e0       ??$?4U?$expr@Ushift_right@tag@tagns_@proto@boost@@U?$list2@ABU?$expr@Ubitwise_or@tag@tagns_@proto@boost@@U?$list2@ABU?$expr@Uterminal@tag@tagns_@proto@boost@@U?$term@U?$terminal_ex@U?$char_code@Uchar_@tag@spirit@boost@@Ustandard_wide@char_encoding@34@@tag@spirit@boost@@U?$vector@D@fusion@4@@spirit@boost@@@argsns_@45@$0A@@exprns_@proto@boost@@U?$expr@Uterminal@tag@tagns_@proto@boost@@U?$term@ABD@argsns_@45@$0A@@234@@argsns_@45@$01@exprns_@proto@boost@@ABU?$expr@Usubscript@tag@tagns_@proto@boost@@U?$list2@ABU?$terminal@Ufloat_@tag@spirit@boost@@@spirit@boost@@U?$expr@Uterminal@tag@tagns_@proto@boost@@U?$term@ABU_SetGrooving_Center@?$CCommentParser@V?$_String_iterator@V?$_String_val@U?$_Simple_types@D@std@@@std@@@std@@U?$rule@V?$_String_iterator@V?$_String_val@U?$_Simple_types@D@std@@@std@@@std@@Uunused_type@spirit@boost@@U345@U345@U345@@qi@spirit@boost@@@@@argsns_@45@$0A@@exprns_@proto@3@@argsns_@45@$01@234@@argsns_@45@$01@exprns_@proto@boost@@@?$rule@V?$_String_iterator@V?$_String_val@U?$_Simple_types@D@std@@@std@@@std@@U?$rule@V?$_String_iterator@V?$_String_val@U?$_Simple_types@D@std@@@std@@@std@@Uunused_type@spirit@boost@@U345@U345@U345@@qi@spirit@boost@@Uunused_type@56@U756@U756@@qi@spirit@boost@@QAEAAU0123@ABU?$expr@Ushift_right@tag@tagns_@proto@boost@@U?$list2@ABU?$expr@Ubitwise_or@tag@tagns_@proto@boost@@U?$list2@ABU?$expr@Uterminal@tag@tagns_@proto@boost@@U?$term@U?$terminal_ex@U?$char_code@Uchar_@tag@spirit@boost@@Ustandard_wide@char_encoding@34@@tag@spirit@boost@@U?$vector@D@fusion@4@@spirit@boost@@@argsns_@45@$0A@@exprns_@proto@boost@@U?$expr@Uterminal@tag@tagns_@proto@boost@@U?$term@ABD@argsns_@45@$0A@@234@@argsns_@45@$01@exprns_@proto@boost@@ABU?$expr@Usubscript@tag@tagns_@proto@boost@@U?$list2@ABU?$terminal@Ufloat_@tag@spirit@boost@@@spirit@boost@@U?$expr@Uterminal@tag@tagns_@proto@boost@@U?$term@ABU_SetGrooving_Center@?$CCommentParser@V?$_String_iterator@V?$_String_val@U?$_Simple_types@D@std@@@std@@@std@@U?$rule@V?$_String_iterator@V?$_String_val@U?$_Simple_types@D@std@@@std@@@std@@Uunused_type@spirit@boost@@U345@U345@U345@@qi@spirit@boost@@@@@argsns_@45@$0A@@exprns_@proto@3@@argsns_@45@$01@234@@argsns_@45@$01@exprns_@proto@3@@Z 004f24e0 f i TH_NCRead.obj
